SF:/home/noah/src/ruchy/src/backend/compiler.rs
FN:74,_RNCNvNtNtCsdG3rhVUllIu_5ruchy7backend8compiler17compile_to_binary0B7_
FN:71,_RNvNtNtCsdG3rhVUllIu_5ruchy7backend8compiler17compile_to_binary
FN:221,_RNvNtNtCsdG3rhVUllIu_5ruchy7backend8compiler17get_rustc_version
FN:193,_RNvNtNtCsdG3rhVUllIu_5ruchy7backend8compiler21check_rustc_available
FN:104,_RNvNtNtCsdG3rhVUllIu_5ruchy7backend8compiler24compile_source_to_binary
FN:32,_RNvXNtNtCsdG3rhVUllIu_5ruchy7backend8compilerNtB2_14CompileOptionsNtNtCs66KPHxksi63_4core7default7Default7default
FNDA:0,_RNCNvNtNtCsdG3rhVUllIu_5ruchy7backend8compiler17compile_to_binary0B7_
FNDA:0,_RNvNtNtCsdG3rhVUllIu_5ruchy7backend8compiler17compile_to_binary
FNDA:0,_RNvNtNtCsdG3rhVUllIu_5ruchy7backend8compiler17get_rustc_version
FNDA:0,_RNvNtNtCsdG3rhVUllIu_5ruchy7backend8compiler21check_rustc_available
FNDA:0,_RNvNtNtCsdG3rhVUllIu_5ruchy7backend8compiler24compile_source_to_binary
FNDA:0,_RNvXNtNtCsdG3rhVUllIu_5ruchy7backend8compilerNtB2_14CompileOptionsNtNtCs66KPHxksi63_4core7default7Default7default
FNF:6
FNH:0
DA:32,0
DA:33,0
DA:34,0
DA:35,0
DA:36,0
DA:37,0
DA:38,0
DA:39,0
DA:40,0
DA:41,0
DA:71,0
DA:73,0
DA:74,0
DA:76,0
DA:77,0
DA:104,0
DA:106,0
DA:107,0
DA:108,0
DA:111,0
DA:112,0
DA:113,0
DA:114,0
DA:115,0
DA:118,0
DA:119,0
DA:122,0
DA:123,0
DA:126,0
DA:127,0
DA:129,0
DA:130,0
DA:133,0
DA:134,0
DA:135,0
DA:136,0
DA:139,0
DA:142,0
DA:143,0
DA:144,0
DA:147,0
DA:148,0
DA:149,0
DA:152,0
DA:153,0
DA:154,0
DA:157,0
DA:158,0
DA:159,0
DA:162,0
DA:163,0
DA:165,0
DA:166,0
DA:167,0
DA:168,0
DA:171,0
DA:172,0
DA:173,0
DA:175,0
DA:176,0
DA:193,0
DA:194,0
DA:195,0
DA:196,0
DA:197,0
DA:199,0
DA:200,0
DA:201,0
DA:203,0
DA:204,0
DA:221,0
DA:222,0
DA:223,0
DA:224,0
DA:225,0
DA:227,0
DA:228,0
DA:229,0
DA:231,0
DA:232,0
BRF:0
BRH:0
LF:81
LH:0
end_of_record
SF:/home/noah/src/ruchy/src/backend/module_loader.rs
FN:124,_RNCNvMNtNtCsdG3rhVUllIu_5ruchy7backend13module_loaderNtB4_12ModuleLoader11load_module0B8_
FN:139,_RNCNvMNtNtCsdG3rhVUllIu_5ruchy7backend13module_loaderNtB4_12ModuleLoader11load_modules0_0B8_
FN:160,_RNCNvMNtNtCsdG3rhVUllIu_5ruchy7backend13module_loaderNtB4_12ModuleLoader11load_modules1_0B8_
FN:128,_RNCNvMNtNtCsdG3rhVUllIu_5ruchy7backend13module_loaderNtB4_12ModuleLoader11load_modules_0B8_
FN:304,_RNCNvMs0_NtNtCsdG3rhVUllIu_5ruchy7backend13module_loaderNtB7_12ParsedModule4name0Bb_
FN:274,_RNvMNtNtCsdG3rhVUllIu_5ruchy7backend13module_loaderNtB2_12ModuleLoader10is_loading
FN:266,_RNvMNtNtCsdG3rhVUllIu_5ruchy7backend13module_loaderNtB2_12ModuleLoader11clear_cache
FN:106,_RNvMNtNtCsdG3rhVUllIu_5ruchy7backend13module_loaderNtB2_12ModuleLoader11load_module
FN:208,_RNvMNtNtCsdG3rhVUllIu_5ruchy7backend13module_loaderNtB2_12ModuleLoader14is_cache_valid
FN:180,_RNvMNtNtCsdG3rhVUllIu_5ruchy7backend13module_loaderNtB2_12ModuleLoader19resolve_module_path
FN:224,_RNvMNtNtCsdG3rhVUllIu_5ruchy7backend13module_loaderNtB2_12ModuleLoader20collect_dependencies
FN:217,_RNvMNtNtCsdG3rhVUllIu_5ruchy7backend13module_loaderNtB2_12ModuleLoader20extract_dependencies
FN:59,_RNvMNtNtCsdG3rhVUllIu_5ruchy7backend13module_loaderNtB2_12ModuleLoader3new
FN:253,_RNvMNtNtCsdG3rhVUllIu_5ruchy7backend13module_loaderNtB2_12ModuleLoader5stats
FN:310,_RNvMs0_NtNtCsdG3rhVUllIu_5ruchy7backend13module_loaderNtB5_12ParsedModule16has_dependencies
FN:301,_RNvMs0_NtNtCsdG3rhVUllIu_5ruchy7backend13module_loaderNtB5_12ParsedModule4name
FN:331,_RNvMs1_NtNtCsdG3rhVUllIu_5ruchy7backend13module_loaderNtB5_17ModuleLoaderStats15cache_hit_ratio
FN:280,_RNvXs_NtNtCsdG3rhVUllIu_5ruchy7backend13module_loaderNtB4_12ModuleLoaderNtNtCs66KPHxksi63_4core7default7Default7default
FN:80,_RINvMNtNtCsdG3rhVUllIu_5ruchy7backend13module_loaderNtB3_12ModuleLoader15add_search_pathRNtNtCsiKSG5X70Gj7_3std4path4PathEB7_
FN:200,_RNCNvMNtNtCsdG3rhVUllIu_5ruchy7backend13module_loaderNtB4_12ModuleLoader19resolve_module_path0B8_
FNDA:0,_RNCNvMNtNtCsdG3rhVUllIu_5ruchy7backend13module_loaderNtB4_12ModuleLoader11load_module0B8_
FNDA:0,_RNCNvMNtNtCsdG3rhVUllIu_5ruchy7backend13module_loaderNtB4_12ModuleLoader11load_modules0_0B8_
FNDA:0,_RNCNvMNtNtCsdG3rhVUllIu_5ruchy7backend13module_loaderNtB4_12ModuleLoader11load_modules1_0B8_
FNDA:0,_RNCNvMNtNtCsdG3rhVUllIu_5ruchy7backend13module_loaderNtB4_12ModuleLoader11load_modules_0B8_
FNDA:0,_RNCNvMs0_NtNtCsdG3rhVUllIu_5ruchy7backend13module_loaderNtB7_12ParsedModule4name0Bb_
FNDA:0,_RNvMNtNtCsdG3rhVUllIu_5ruchy7backend13module_loaderNtB2_12ModuleLoader10is_loading
FNDA:0,_RNvMNtNtCsdG3rhVUllIu_5ruchy7backend13module_loaderNtB2_12ModuleLoader11clear_cache
FNDA:0,_RNvMNtNtCsdG3rhVUllIu_5ruchy7backend13module_loaderNtB2_12ModuleLoader11load_module
FNDA:0,_RNvMNtNtCsdG3rhVUllIu_5ruchy7backend13module_loaderNtB2_12ModuleLoader14is_cache_valid
FNDA:0,_RNvMNtNtCsdG3rhVUllIu_5ruchy7backend13module_loaderNtB2_12ModuleLoader19resolve_module_path
FNDA:0,_RNvMNtNtCsdG3rhVUllIu_5ruchy7backend13module_loaderNtB2_12ModuleLoader20collect_dependencies
FNDA:0,_RNvMNtNtCsdG3rhVUllIu_5ruchy7backend13module_loaderNtB2_12ModuleLoader20extract_dependencies
FNDA:0,_RNvMNtNtCsdG3rhVUllIu_5ruchy7backend13module_loaderNtB2_12ModuleLoader3new
FNDA:0,_RNvMNtNtCsdG3rhVUllIu_5ruchy7backend13module_loaderNtB2_12ModuleLoader5stats
FNDA:0,_RNvMs0_NtNtCsdG3rhVUllIu_5ruchy7backend13module_loaderNtB5_12ParsedModule16has_dependencies
FNDA:0,_RNvMs0_NtNtCsdG3rhVUllIu_5ruchy7backend13module_loaderNtB5_12ParsedModule4name
FNDA:0,_RNvMs1_NtNtCsdG3rhVUllIu_5ruchy7backend13module_loaderNtB5_17ModuleLoaderStats15cache_hit_ratio
FNDA:0,_RNvXs_NtNtCsdG3rhVUllIu_5ruchy7backend13module_loaderNtB4_12ModuleLoaderNtNtCs66KPHxksi63_4core7default7Default7default
FNDA:0,_RINvMNtNtCsdG3rhVUllIu_5ruchy7backend13module_loaderNtB3_12ModuleLoader15add_search_pathRNtNtCsiKSG5X70Gj7_3std4path4PathEB7_
FNDA:0,_RNCNvMNtNtCsdG3rhVUllIu_5ruchy7backend13module_loaderNtB4_12ModuleLoader19resolve_module_path0B8_
FNF:20
FNH:0
DA:59,0
DA:60,0
DA:61,0
DA:62,0
DA:63,0
DA:64,0
DA:65,0
DA:66,0
DA:67,0
DA:68,0
DA:69,0
DA:70,0
DA:71,0
DA:80,0
DA:81,0
DA:82,0
DA:106,0
DA:108,0
DA:109,0
DA:110,0
DA:111,0
DA:112,0
DA:115,0
DA:116,0
DA:117,0
DA:118,0
DA:119,0
DA:120,0
DA:123,0
DA:124,0
DA:127,0
DA:128,0
DA:129,0
DA:130,0
DA:131,0
DA:134,0
DA:137,0
DA:138,0
DA:139,0
DA:142,0
DA:145,0
DA:146,0
DA:147,0
DA:148,0
DA:149,0
DA:153,0
DA:154,0
DA:155,0
DA:156,0
DA:157,0
DA:158,0
DA:159,0
DA:160,0
DA:164,0
DA:167,0
DA:168,0
DA:169,0
DA:171,0
DA:172,0
DA:180,0
DA:181,0
DA:182,0
DA:183,0
DA:184,0
DA:185,0
DA:187,0
DA:188,0
DA:189,0
DA:190,0
DA:191,0
DA:192,0
DA:196,0
DA:197,0
DA:199,0
DA:200,0
DA:201,0
DA:202,0
DA:203,0
DA:205,0
DA:208,0
DA:209,0
DA:210,0
DA:211,0
DA:217,0
DA:218,0
DA:219,0
DA:220,0
DA:221,0
DA:224,0
DA:225,0
DA:226,0
DA:228,0
DA:229,0
DA:230,0
DA:232,0
DA:233,0
DA:234,0
DA:235,0
DA:237,0
DA:238,0
DA:239,0
DA:240,0
DA:241,0
DA:242,0
DA:244,0
DA:245,0
DA:246,0
DA:247,0
DA:249,0
DA:253,0
DA:254,0
DA:255,0
DA:256,0
DA:257,0
DA:258,0
DA:259,0
DA:260,0
DA:266,0
DA:267,0
DA:268,0
DA:269,0
DA:270,0
DA:274,0
DA:275,0
DA:276,0
DA:280,0
DA:281,0
DA:282,0
DA:301,0
DA:302,0
DA:303,0
DA:304,0
DA:305,0
DA:306,0
DA:310,0
DA:311,0
DA:312,0
DA:331,0
DA:332,0
DA:333,0
DA:335,0
DA:337,0
BRF:0
BRH:0
LF:149
LH:0
end_of_record
SF:/home/noah/src/ruchy/src/backend/module_resolver.rs
FN:99,_RNCNvMNtNtCsdG3rhVUllIu_5ruchy7backend15module_resolverNtB4_14ModuleResolver12resolve_expr0B8_
FN:142,_RNCNvMNtNtCsdG3rhVUllIu_5ruchy7backend15module_resolverNtB4_14ModuleResolver12resolve_exprs0_0B8_
FN:184,_RNCNvMNtNtCsdG3rhVUllIu_5ruchy7backend15module_resolverNtB4_14ModuleResolver12resolve_exprs1_0B8_
FN:114,_RNCNvMNtNtCsdG3rhVUllIu_5ruchy7backend15module_resolverNtB4_14ModuleResolver12resolve_exprs_0B8_
FN:230,_RNvMNtNtCsdG3rhVUllIu_5ruchy7backend15module_resolverNtB2_14ModuleResolver11clear_cache
FN:92,_RNvMNtNtCsdG3rhVUllIu_5ruchy7backend15module_resolverNtB2_14ModuleResolver12resolve_expr
FN:201,_RNvMNtNtCsdG3rhVUllIu_5ruchy7backend15module_resolverNtB2_14ModuleResolver14is_file_import
FN:87,_RNvMNtNtCsdG3rhVUllIu_5ruchy7backend15module_resolverNtB2_14ModuleResolver15resolve_imports
FN:209,_RNvMNtNtCsdG3rhVUllIu_5ruchy7backend15module_resolverNtB2_14ModuleResolver21create_use_statements
FN:53,_RNvMNtNtCsdG3rhVUllIu_5ruchy7backend15module_resolverNtB2_14ModuleResolver3new
FN:223,_RNvMNtNtCsdG3rhVUllIu_5ruchy7backend15module_resolverNtB2_14ModuleResolver5stats
FN:236,_RNvXs_NtNtCsdG3rhVUllIu_5ruchy7backend15module_resolverNtB4_14ModuleResolverNtNtCs66KPHxksi63_4core7default7Default7default
FN:64,_RINvMNtNtCsdG3rhVUllIu_5ruchy7backend15module_resolverNtB3_14ModuleResolver15add_search_pathRNtNtCsiKSG5X70Gj7_3std4path4PathEB7_
FNDA:0,_RNCNvMNtNtCsdG3rhVUllIu_5ruchy7backend15module_resolverNtB4_14ModuleResolver12resolve_expr0B8_
FNDA:0,_RNCNvMNtNtCsdG3rhVUllIu_5ruchy7backend15module_resolverNtB4_14ModuleResolver12resolve_exprs0_0B8_
FNDA:0,_RNCNvMNtNtCsdG3rhVUllIu_5ruchy7backend15module_resolverNtB4_14ModuleResolver12resolve_exprs1_0B8_
FNDA:0,_RNCNvMNtNtCsdG3rhVUllIu_5ruchy7backend15module_resolverNtB4_14ModuleResolver12resolve_exprs_0B8_
FNDA:0,_RNvMNtNtCsdG3rhVUllIu_5ruchy7backend15module_resolverNtB2_14ModuleResolver11clear_cache
FNDA:0,_RNvMNtNtCsdG3rhVUllIu_5ruchy7backend15module_resolverNtB2_14ModuleResolver12resolve_expr
FNDA:0,_RNvMNtNtCsdG3rhVUllIu_5ruchy7backend15module_resolverNtB2_14ModuleResolver14is_file_import
FNDA:0,_RNvMNtNtCsdG3rhVUllIu_5ruchy7backend15module_resolverNtB2_14ModuleResolver15resolve_imports
FNDA:0,_RNvMNtNtCsdG3rhVUllIu_5ruchy7backend15module_resolverNtB2_14ModuleResolver21create_use_statements
FNDA:0,_RNvMNtNtCsdG3rhVUllIu_5ruchy7backend15module_resolverNtB2_14ModuleResolver3new
FNDA:0,_RNvMNtNtCsdG3rhVUllIu_5ruchy7backend15module_resolverNtB2_14ModuleResolver5stats
FNDA:0,_RNvXs_NtNtCsdG3rhVUllIu_5ruchy7backend15module_resolverNtB4_14ModuleResolverNtNtCs66KPHxksi63_4core7default7Default7default
FNDA:0,_RINvMNtNtCsdG3rhVUllIu_5ruchy7backend15module_resolverNtB3_14ModuleResolver15add_search_pathRNtNtCsiKSG5X70Gj7_3std4path4PathEB7_
FNF:13
FNH:0
DA:53,0
DA:54,0
DA:55,0
DA:56,0
DA:57,0
DA:64,0
DA:65,0
DA:66,0
DA:87,0
DA:88,0
DA:89,0
DA:92,0
DA:93,0
DA:94,0
DA:96,0
DA:98,0
DA:99,0
DA:102,0
DA:105,0
DA:106,0
DA:107,0
DA:108,0
DA:109,0
DA:110,0
DA:114,0
DA:116,0
DA:117,0
DA:118,0
DA:119,0
DA:120,0
DA:121,0
DA:125,0
DA:129,0
DA:130,0
DA:131,0
DA:132,0
DA:135,0
DA:138,0
DA:140,0
DA:141,0
DA:142,0
DA:143,0
DA:144,0
DA:146,0
DA:148,0
DA:149,0
DA:150,0
DA:151,0
DA:152,0
DA:153,0
DA:154,0
DA:155,0
DA:158,0
DA:159,0
DA:160,0
DA:161,0
DA:162,0
DA:163,0
DA:164,0
DA:167,0
DA:168,0
DA:169,0
DA:170,0
DA:171,0
DA:172,0
DA:173,0
DA:174,0
DA:175,0
DA:176,0
DA:177,0
DA:178,0
DA:179,0
DA:181,0
DA:182,0
DA:183,0
DA:184,0
DA:185,0
DA:186,0
DA:187,0
DA:188,0
DA:189,0
DA:190,0
DA:191,0
DA:192,0
DA:196,0
DA:198,0
DA:201,0
DA:202,0
DA:203,0
DA:204,0
DA:205,0
DA:206,0
DA:209,0
DA:212,0
DA:213,0
DA:214,0
DA:215,0
DA:216,0
DA:217,0
DA:219,0
DA:223,0
DA:224,0
DA:225,0
DA:230,0
DA:231,0
DA:232,0
DA:236,0
DA:237,0
DA:238,0
BRF:0
BRH:0
LF:113
LH:0
end_of_record
SF:/home/noah/src/ruchy/src/backend/transpiler/actors.rs
FN:150,_RNvMNtNtNtCsdG3rhVUllIu_5ruchy7backend10transpiler6actorsNtB4_10Transpiler13transpile_ask
FN:140,_RNvMNtNtNtCsdG3rhVUllIu_5ruchy7backend10transpiler6actorsNtB4_10Transpiler14transpile_send
FN:14,_RNvMNtNtNtCsdG3rhVUllIu_5ruchy7backend10transpiler6actorsNtB4_10Transpiler15transpile_actor
FN:173,_RNvMNtNtNtCsdG3rhVUllIu_5ruchy7backend10transpiler6actorsNtB4_10Transpiler17transpile_command
FN:30,_RNCNCNvMNtNtNtCsdG3rhVUllIu_5ruchy7backend10transpiler6actorsNtB8_10Transpiler15transpile_actor00Bc_
FN:59,_RNCNCNvMNtNtNtCsdG3rhVUllIu_5ruchy7backend10transpiler6actorsNtB8_10Transpiler15transpile_actors_00Bc_
FN:26,_RNCNvMNtNtNtCsdG3rhVUllIu_5ruchy7backend10transpiler6actorsNtB6_10Transpiler15transpile_actor0Ba_
FN:73,_RNCNvMNtNtNtCsdG3rhVUllIu_5ruchy7backend10transpiler6actorsNtB6_10Transpiler15transpile_actors0_0Ba_
FN:57,_RNCNvMNtNtNtCsdG3rhVUllIu_5ruchy7backend10transpiler6actorsNtB6_10Transpiler15transpile_actors_0Ba_
FN:181,_RNCNvMNtNtNtCsdG3rhVUllIu_5ruchy7backend10transpiler6actorsNtB6_10Transpiler17transpile_command0Ba_
FNDA:0,_RNvMNtNtNtCsdG3rhVUllIu_5ruchy7backend10transpiler6actorsNtB4_10Transpiler13transpile_ask
FNDA:0,_RNvMNtNtNtCsdG3rhVUllIu_5ruchy7backend10transpiler6actorsNtB4_10Transpiler14transpile_send
FNDA:0,_RNvMNtNtNtCsdG3rhVUllIu_5ruchy7backend10transpiler6actorsNtB4_10Transpiler15transpile_actor
FNDA:0,_RNvMNtNtNtCsdG3rhVUllIu_5ruchy7backend10transpiler6actorsNtB4_10Transpiler17transpile_command
FNDA:0,_RNCNCNvMNtNtNtCsdG3rhVUllIu_5ruchy7backend10transpiler6actorsNtB8_10Transpiler15transpile_actor00Bc_
FNDA:0,_RNCNCNvMNtNtNtCsdG3rhVUllIu_5ruchy7backend10transpiler6actorsNtB8_10Transpiler15transpile_actors_00Bc_
FNDA:0,_RNCNvMNtNtNtCsdG3rhVUllIu_5ruchy7backend10transpiler6actorsNtB6_10Transpiler15transpile_actor0Ba_
FNDA:0,_RNCNvMNtNtNtCsdG3rhVUllIu_5ruchy7backend10transpiler6actorsNtB6_10Transpiler15transpile_actors0_0Ba_
FNDA:0,_RNCNvMNtNtNtCsdG3rhVUllIu_5ruchy7backend10transpiler6actorsNtB6_10Transpiler15transpile_actors_0Ba_
FNDA:0,_RNCNvMNtNtNtCsdG3rhVUllIu_5ruchy7backend10transpiler6actorsNtB6_10Transpiler17transpile_command0Ba_
FNF:10
FNH:0
DA:14,0
DA:15,0
DA:16,0
DA:17,0
DA:18,0
DA:19,0
DA:20,0
DA:21,0
DA:24,0
DA:25,0
DA:26,0
DA:27,0
DA:28,0
DA:29,0
DA:30,0
DA:31,0
DA:32,0
DA:33,0
DA:36,0
DA:37,0
DA:39,0
DA:40,0
DA:42,0
DA:44,0
DA:46,0
DA:47,0
DA:54,0
DA:55,0
DA:56,0
DA:57,0
DA:58,0
DA:59,0
DA:60,0
DA:61,0
DA:63,0
DA:64,0
DA:66,0
DA:70,0
DA:71,0
DA:72,0
DA:73,0
DA:74,0
DA:76,0
DA:78,0
DA:79,0
DA:80,0
DA:81,0
DA:82,0
DA:83,0
DA:84,0
DA:85,0
DA:86,0
DA:96,0
DA:137,0
DA:140,0
DA:141,0
DA:142,0
DA:144,0
DA:145,0
DA:146,0
DA:147,0
DA:150,0
DA:151,0
DA:152,0
DA:153,0
DA:154,0
DA:155,0
DA:156,0
DA:157,0
DA:159,0
DA:160,0
DA:161,0
DA:162,0
DA:163,0
DA:166,0
DA:167,0
DA:168,0
DA:170,0
DA:173,0
DA:174,0
DA:175,0
DA:176,0
DA:177,0
DA:178,0
DA:179,0
DA:180,0
DA:181,0
DA:183,0
DA:189,0
BRF:0
BRH:0
LF:95
LH:0
end_of_record
SF:/home/noah/src/ruchy/src/backend/transpiler/codegen_minimal.rs
FN:272,_RNvMNtNtNtCsdG3rhVUllIu_5ruchy7backend10transpiler15codegen_minimalNtB2_14MinimalCodeGen8gen_type
FN:41,_RNCNvMNtNtNtCsdG3rhVUllIu_5ruchy7backend10transpiler15codegen_minimalNtB4_14MinimalCodeGen8gen_expr0Ba_
FN:122,_RNCNvMNtNtNtCsdG3rhVUllIu_5ruchy7backend10transpiler15codegen_minimalNtB4_14MinimalCodeGen8gen_exprs0_0Ba_
FN:114,_RNCNvMNtNtNtCsdG3rhVUllIu_5ruchy7backend10transpiler15codegen_minimalNtB4_14MinimalCodeGen8gen_exprs_0Ba_
FN:197,_RNvMNtNtNtCsdG3rhVUllIu_5ruchy7backend10transpiler15codegen_minimalNtB2_14MinimalCodeGen11gen_literal
FN:241,_RNvMNtNtNtCsdG3rhVUllIu_5ruchy7backend10transpiler15codegen_minimalNtB2_14MinimalCodeGen11gen_pattern
FN:277,_RNvMNtNtNtCsdG3rhVUllIu_5ruchy7backend10transpiler15codegen_minimalNtB2_14MinimalCodeGen11gen_program
FN:232,_RNvMNtNtNtCsdG3rhVUllIu_5ruchy7backend10transpiler15codegen_minimalNtB2_14MinimalCodeGen12gen_unary_op
FN:208,_RNvMNtNtNtCsdG3rhVUllIu_5ruchy7backend10transpiler15codegen_minimalNtB2_14MinimalCodeGen13gen_binary_op
FN:14,_RNvMNtNtNtCsdG3rhVUllIu_5ruchy7backend10transpiler15codegen_minimalNtB2_14MinimalCodeGen8gen_expr
FNDA:0,_RNvMNtNtNtCsdG3rhVUllIu_5ruchy7backend10transpiler15codegen_minimalNtB2_14MinimalCodeGen8gen_type
FNDA:0,_RNCNvMNtNtNtCsdG3rhVUllIu_5ruchy7backend10transpiler15codegen_minimalNtB4_14MinimalCodeGen8gen_expr0Ba_
FNDA:0,_RNCNvMNtNtNtCsdG3rhVUllIu_5ruchy7backend10transpiler15codegen_minimalNtB4_14MinimalCodeGen8gen_exprs0_0Ba_
FNDA:0,_RNCNvMNtNtNtCsdG3rhVUllIu_5ruchy7backend10transpiler15codegen_minimalNtB4_14MinimalCodeGen8gen_exprs_0Ba_
FNDA:0,_RNvMNtNtNtCsdG3rhVUllIu_5ruchy7backend10transpiler15codegen_minimalNtB2_14MinimalCodeGen11gen_literal
FNDA:0,_RNvMNtNtNtCsdG3rhVUllIu_5ruchy7backend10transpiler15codegen_minimalNtB2_14MinimalCodeGen11gen_pattern
FNDA:0,_RNvMNtNtNtCsdG3rhVUllIu_5ruchy7backend10transpiler15codegen_minimalNtB2_14MinimalCodeGen11gen_program
FNDA:0,_RNvMNtNtNtCsdG3rhVUllIu_5ruchy7backend10transpiler15codegen_minimalNtB2_14MinimalCodeGen12gen_unary_op
FNDA:0,_RNvMNtNtNtCsdG3rhVUllIu_5ruchy7backend10transpiler15codegen_minimalNtB2_14MinimalCodeGen13gen_binary_op
FNDA:0,_RNvMNtNtNtCsdG3rhVUllIu_5ruchy7backend10transpiler15codegen_minimalNtB2_14MinimalCodeGen8gen_expr
FNF:10
FNH:0
DA:14,0
DA:15,0
DA:16,0
DA:18,0
DA:20,0
DA:21,0
DA:22,0
DA:23,0
DA:24,0
DA:27,0
DA:28,0
DA:29,0
DA:30,0
DA:33,0
DA:34,0
DA:35,0
DA:36,0
DA:39,0
DA:40,0
DA:41,0
DA:42,0
DA:43,0
DA:44,0
DA:45,0
DA:48,0
DA:49,0
DA:50,0
DA:51,0
DA:52,0
DA:53,0
DA:54,0
DA:57,0
DA:58,0
DA:59,0
DA:60,0
DA:61,0
DA:62,0
DA:65,0
DA:66,0
DA:67,0
DA:68,0
DA:69,0
DA:70,0
DA:72,0
DA:76,0
DA:77,0
DA:78,0
DA:79,0
DA:80,0
DA:81,0
DA:82,0
DA:83,0
DA:84,0
DA:85,0
DA:86,0
DA:88,0
DA:89,0
DA:92,0
DA:93,0
DA:94,0
DA:95,0
DA:96,0
DA:97,0
DA:98,0
DA:100,0
DA:101,0
DA:104,0
DA:105,0
DA:106,0
DA:107,0
DA:108,0
DA:109,0
DA:112,0
DA:113,0
DA:114,0
DA:115,0
DA:116,0
DA:117,0
DA:120,0
DA:121,0
DA:122,0
DA:123,0
DA:124,0
DA:125,0
DA:126,0
DA:127,0
DA:128,0
DA:129,0
DA:132,0
DA:133,0
DA:134,0
DA:135,0
DA:136,0
DA:137,0
DA:138,0
DA:141,0
DA:142,0
DA:143,0
DA:144,0
DA:145,0
DA:146,0
DA:149,0
DA:150,0
DA:153,0
DA:155,0
DA:156,0
DA:157,0
DA:159,0
DA:160,0
DA:161,0
DA:162,0
DA:163,0
DA:164,0
DA:165,0
DA:166,0
DA:168,0
DA:169,0
DA:170,0
DA:171,0
DA:172,0
DA:177,0
DA:178,0
DA:179,0
DA:180,0
DA:181,0
DA:182,0
DA:183,0
DA:189,0
DA:190,0
DA:191,0
DA:192,0
DA:195,0
DA:197,0
DA:198,0
DA:199,0
DA:200,0
DA:201,0
DA:202,0
DA:203,0
DA:204,0
DA:206,0
DA:208,0
DA:209,0
DA:210,0
DA:211,0
DA:212,0
DA:213,0
DA:214,0
DA:215,0
DA:216,0
DA:217,0
DA:218,0
DA:219,0
DA:220,0
DA:221,0
DA:222,0
DA:223,0
DA:224,0
DA:225,0
DA:226,0
DA:227,0
DA:228,0
DA:230,0
DA:232,0
DA:233,0
DA:234,0
DA:235,0
DA:236,0
DA:237,0
DA:239,0
DA:241,0
DA:242,0
DA:243,0
DA:244,0
DA:245,0
DA:246,0
DA:247,0
DA:248,0
DA:249,0
DA:250,0
DA:251,0
DA:253,0
DA:254,0
DA:255,0
DA:257,0
DA:258,0
DA:259,0
DA:261,0
DA:262,0
DA:263,0
DA:265,0
DA:266,0
DA:268,0
DA:272,0
DA:273,0
DA:274,0
DA:277,0
DA:278,0
DA:279,0
DA:280,0
DA:281,0
DA:282,0
BRF:0
BRH:0
LF:205
LH:0
end_of_record
SF:/home/noah/src/ruchy/src/backend/transpiler/dataframe.rs
FN:15,_RNvMNtNtNtCsdG3rhVUllIu_5ruchy7backend10transpiler9dataframeNtB4_10Transpiler19transpile_dataframe
FN:145,_RNvMNtNtNtCsdG3rhVUllIu_5ruchy7backend10transpiler9dataframeNtB4_10Transpiler26transpile_dataframe_method
FN:57,_RNvMNtNtNtCsdG3rhVUllIu_5ruchy7backend10transpiler9dataframeNtB4_10Transpiler29transpile_dataframe_operation
FN:36,_RNCNvMNtNtNtCsdG3rhVUllIu_5ruchy7backend10transpiler9dataframeNtB6_10Transpiler19transpile_dataframe0Ba_
FN:154,_RNCNvMNtNtNtCsdG3rhVUllIu_5ruchy7backend10transpiler9dataframeNtB6_10Transpiler26transpile_dataframe_method0Ba_
FN:67,_RNCNvMNtNtNtCsdG3rhVUllIu_5ruchy7backend10transpiler9dataframeNtB6_10Transpiler29transpile_dataframe_operation0Ba_
FN:88,_RNCNvMNtNtNtCsdG3rhVUllIu_5ruchy7backend10transpiler9dataframeNtB6_10Transpiler29transpile_dataframe_operations0_0Ba_
FN:95,_RNCNvMNtNtNtCsdG3rhVUllIu_5ruchy7backend10transpiler9dataframeNtB6_10Transpiler29transpile_dataframe_operations1_0Ba_
FN:117,_RNCNvMNtNtNtCsdG3rhVUllIu_5ruchy7backend10transpiler9dataframeNtB6_10Transpiler29transpile_dataframe_operations2_0Ba_
FN:80,_RNCNvMNtNtNtCsdG3rhVUllIu_5ruchy7backend10transpiler9dataframeNtB6_10Transpiler29transpile_dataframe_operations_0Ba_
FNDA:0,_RNvMNtNtNtCsdG3rhVUllIu_5ruchy7backend10transpiler9dataframeNtB4_10Transpiler19transpile_dataframe
FNDA:0,_RNvMNtNtNtCsdG3rhVUllIu_5ruchy7backend10transpiler9dataframeNtB4_10Transpiler26transpile_dataframe_method
FNDA:0,_RNvMNtNtNtCsdG3rhVUllIu_5ruchy7backend10transpiler9dataframeNtB4_10Transpiler29transpile_dataframe_operation
FNDA:0,_RNCNvMNtNtNtCsdG3rhVUllIu_5ruchy7backend10transpiler9dataframeNtB6_10Transpiler19transpile_dataframe0Ba_
FNDA:0,_RNCNvMNtNtNtCsdG3rhVUllIu_5ruchy7backend10transpiler9dataframeNtB6_10Transpiler26transpile_dataframe_method0Ba_
FNDA:0,_RNCNvMNtNtNtCsdG3rhVUllIu_5ruchy7backend10transpiler9dataframeNtB6_10Transpiler29transpile_dataframe_operation0Ba_
FNDA:0,_RNCNvMNtNtNtCsdG3rhVUllIu_5ruchy7backend10transpiler9dataframeNtB6_10Transpiler29transpile_dataframe_operations0_0Ba_
FNDA:0,_RNCNvMNtNtNtCsdG3rhVUllIu_5ruchy7backend10transpiler9dataframeNtB6_10Transpiler29transpile_dataframe_operations1_0Ba_
FNDA:0,_RNCNvMNtNtNtCsdG3rhVUllIu_5ruchy7backend10transpiler9dataframeNtB6_10Transpiler29transpile_dataframe_operations2_0Ba_
FNDA:0,_RNCNvMNtNtNtCsdG3rhVUllIu_5ruchy7backend10transpiler9dataframeNtB6_10Transpiler29transpile_dataframe_operations_0Ba_
FNF:10
FNH:0
DA:15,0
DA:16,0
DA:18,0
DA:19,0
DA:20,0
DA:21,0
DA:23,0
DA:25,0
DA:26,0
DA:29,0
DA:30,0
DA:33,0
DA:34,0
DA:35,0
DA:36,0
DA:37,0
DA:38,0
DA:39,0
DA:43,0
DA:49,0
DA:54,0
DA:57,0
DA:58,0
DA:59,0
DA:60,0
DA:61,0
DA:62,0
DA:64,0
DA:65,0
DA:66,0
DA:67,0
DA:68,0
DA:72,0
DA:73,0
DA:74,0
DA:75,0
DA:76,0
DA:78,0
DA:79,0
DA:80,0
DA:81,0
DA:85,0
DA:87,0
DA:88,0
DA:89,0
DA:93,0
DA:94,0
DA:95,0
DA:97,0
DA:98,0
DA:99,0
DA:100,0
DA:101,0
DA:104,0
DA:113,0
DA:115,0
DA:116,0
DA:117,0
DA:118,0
DA:119,0
DA:120,0
DA:121,0
DA:122,0
DA:123,0
DA:124,0
DA:125,0
DA:126,0
DA:128,0
DA:132,0
DA:133,0
DA:134,0
DA:135,0
DA:136,0
DA:137,0
DA:138,0
DA:139,0
DA:140,0
DA:142,0
DA:145,0
DA:146,0
DA:147,0
DA:148,0
DA:149,0
DA:150,0
DA:151,0
DA:152,0
DA:154,0
DA:155,0
DA:158,0
DA:159,0
DA:162,0
DA:164,0
DA:165,0
DA:166,0
DA:168,0
DA:169,0
DA:170,0
DA:172,0
DA:177,0
DA:182,0
BRF:0
BRH:0
LF:107
LH:0
end_of_record
SF:/home/noah/src/ruchy/src/backend/transpiler/dispatcher.rs
FN:452,_RNCNvMNtNtNtCsdG3rhVUllIu_5ruchy7backend10transpiler10dispatcherNtB6_10Transpiler40transpile_string_interpolation_for_print0Ba_
FN:168,_RNvMNtNtNtCsdG3rhVUllIu_5ruchy7backend10transpiler10dispatcherNtB4_10Transpiler15transpile_macro
FN:578,_RNvMNtNtNtCsdG3rhVUllIu_5ruchy7backend10transpiler10dispatcherNtB4_10Transpiler19make_break_continue
FN:309,_RNvMNtNtNtCsdG3rhVUllIu_5ruchy7backend10transpiler10dispatcherNtB4_10Transpiler19transpile_misc_expr
FN:261,_RNvMNtNtNtCsdG3rhVUllIu_5ruchy7backend10transpiler10dispatcherNtB4_10Transpiler19transpile_result_ok
FN:480,_RNvMNtNtNtCsdG3rhVUllIu_5ruchy7backend10transpiler10dispatcherNtB4_10Transpiler19transpile_vec_macro
FN:282,_RNvMNtNtNtCsdG3rhVUllIu_5ruchy7backend10transpiler10dispatcherNtB4_10Transpiler20transpile_actor_expr
FN:14,_RNvMNtNtNtCsdG3rhVUllIu_5ruchy7backend10transpiler10dispatcherNtB4_10Transpiler20transpile_basic_expr
FN:26,_RNvMNtNtNtCsdG3rhVUllIu_5ruchy7backend10transpiler10dispatcherNtB4_10Transpiler20transpile_identifier
FN:425,_RNvMNtNtNtCsdG3rhVUllIu_5ruchy7backend10transpiler10dispatcherNtB4_10Transpiler20transpile_print_args
FN:266,_RNvMNtNtNtCsdG3rhVUllIu_5ruchy7backend10transpiler10dispatcherNtB4_10Transpiler20transpile_result_err
FN:271,_RNvMNtNtNtCsdG3rhVUllIu_5ruchy7backend10transpiler10dispatcherNtB4_10Transpiler21transpile_option_some
FN:411,_RNvMNtNtNtCsdG3rhVUllIu_5ruchy7backend10transpiler10dispatcherNtB4_10Transpiler21transpile_panic_macro
FN:394,_RNvMNtNtNtCsdG3rhVUllIu_5ruchy7backend10transpiler10dispatcherNtB4_10Transpiler21transpile_print_macro
FN:188,_RNvMNtNtNtCsdG3rhVUllIu_5ruchy7backend10transpiler10dispatcherNtB4_10Transpiler21transpile_struct_expr
FN:498,_RNvMNtNtNtCsdG3rhVUllIu_5ruchy7backend10transpiler10dispatcherNtB4_10Transpiler22transpile_assert_macro
FN:276,_RNvMNtNtNtCsdG3rhVUllIu_5ruchy7backend10transpiler10dispatcherNtB4_10Transpiler22transpile_try_operator
FN:126,_RNvMNtNtNtCsdG3rhVUllIu_5ruchy7backend10transpiler10dispatcherNtB4_10Transpiler23transpile_function_expr
FN:377,_RNvMNtNtNtCsdG3rhVUllIu_5ruchy7backend10transpiler10dispatcherNtB4_10Transpiler23transpile_println_macro
FN:224,_RNvMNtNtNtCsdG3rhVUllIu_5ruchy7backend10transpiler10dispatcherNtB4_10Transpiler24transpile_data_only_expr
FN:42,_RNvMNtNtNtCsdG3rhVUllIu_5ruchy7backend10transpiler10dispatcherNtB4_10Transpiler24transpile_qualified_name
FN:340,_RNvMNtNtNtCsdG3rhVUllIu_5ruchy7backend10transpiler10dispatcherNtB4_10Transpiler24transpile_type_decl_expr
FN:520,_RNvMNtNtNtCsdG3rhVUllIu_5ruchy7backend10transpiler10dispatcherNtB4_10Transpiler25transpile_assert_eq_macro
FN:542,_RNvMNtNtNtCsdG3rhVUllIu_5ruchy7backend10transpiler10dispatcherNtB4_10Transpiler25transpile_assert_ne_macro
FN:206,_RNvMNtNtNtCsdG3rhVUllIu_5ruchy7backend10transpiler10dispatcherNtB4_10Transpiler25transpile_data_error_expr
FN:249,_RNvMNtNtNtCsdG3rhVUllIu_5ruchy7backend10transpiler10dispatcherNtB4_10Transpiler25transpile_error_only_expr
FN:556,_RNvMNtNtNtCsdG3rhVUllIu_5ruchy7backend10transpiler10dispatcherNtB4_10Transpiler27transpile_control_misc_expr
FN:87,_RNvMNtNtNtCsdG3rhVUllIu_5ruchy7backend10transpiler10dispatcherNtB4_10Transpiler28transpile_operator_only_expr
FN:66,_RNvMNtNtNtCsdG3rhVUllIu_5ruchy7backend10transpiler10dispatcherNtB4_10Transpiler31transpile_operator_control_expr
FN:99,_RNvMNtNtNtCsdG3rhVUllIu_5ruchy7backend10transpiler10dispatcherNtB4_10Transpiler32transpile_control_flow_only_expr
FN:451,_RNvMNtNtNtCsdG3rhVUllIu_5ruchy7backend10transpiler10dispatcherNtB4_10Transpiler40transpile_string_interpolation_for_print
FN:483,_RNCNvMNtNtNtCsdG3rhVUllIu_5ruchy7backend10transpiler10dispatcherNtB6_10Transpiler19transpile_vec_macro0Ba_
FN:427,_RNCNvMNtNtNtCsdG3rhVUllIu_5ruchy7backend10transpiler10dispatcherNtB6_10Transpiler20transpile_print_args0Ba_
FN:501,_RNCNvMNtNtNtCsdG3rhVUllIu_5ruchy7backend10transpiler10dispatcherNtB6_10Transpiler22transpile_assert_macro0Ba_
FN:527,_RNCNvMNtNtNtCsdG3rhVUllIu_5ruchy7backend10transpiler10dispatcherNtB6_10Transpiler25transpile_assert_eq_macro0Ba_
FN:549,_RNCNvMNtNtNtCsdG3rhVUllIu_5ruchy7backend10transpiler10dispatcherNtB6_10Transpiler25transpile_assert_ne_macro0Ba_
FN:571,_RNCNvMNtNtNtCsdG3rhVUllIu_5ruchy7backend10transpiler10dispatcherNtB6_10Transpiler27transpile_control_misc_expr0Ba_
FN:462,_RNCNvMNtNtNtCsdG3rhVUllIu_5ruchy7backend10transpiler10dispatcherNtB6_10Transpiler40transpile_string_interpolation_for_prints_0Ba_
FNDA:0,_RNCNvMNtNtNtCsdG3rhVUllIu_5ruchy7backend10transpiler10dispatcherNtB6_10Transpiler40transpile_string_interpolation_for_print0Ba_
FNDA:0,_RNvMNtNtNtCsdG3rhVUllIu_5ruchy7backend10transpiler10dispatcherNtB4_10Transpiler15transpile_macro
FNDA:0,_RNvMNtNtNtCsdG3rhVUllIu_5ruchy7backend10transpiler10dispatcherNtB4_10Transpiler19make_break_continue
FNDA:0,_RNvMNtNtNtCsdG3rhVUllIu_5ruchy7backend10transpiler10dispatcherNtB4_10Transpiler19transpile_misc_expr
FNDA:0,_RNvMNtNtNtCsdG3rhVUllIu_5ruchy7backend10transpiler10dispatcherNtB4_10Transpiler19transpile_result_ok
FNDA:0,_RNvMNtNtNtCsdG3rhVUllIu_5ruchy7backend10transpiler10dispatcherNtB4_10Transpiler19transpile_vec_macro
FNDA:0,_RNvMNtNtNtCsdG3rhVUllIu_5ruchy7backend10transpiler10dispatcherNtB4_10Transpiler20transpile_actor_expr
FNDA:0,_RNvMNtNtNtCsdG3rhVUllIu_5ruchy7backend10transpiler10dispatcherNtB4_10Transpiler20transpile_basic_expr
FNDA:0,_RNvMNtNtNtCsdG3rhVUllIu_5ruchy7backend10transpiler10dispatcherNtB4_10Transpiler20transpile_identifier
FNDA:0,_RNvMNtNtNtCsdG3rhVUllIu_5ruchy7backend10transpiler10dispatcherNtB4_10Transpiler20transpile_print_args
FNDA:0,_RNvMNtNtNtCsdG3rhVUllIu_5ruchy7backend10transpiler10dispatcherNtB4_10Transpiler20transpile_result_err
FNDA:0,_RNvMNtNtNtCsdG3rhVUllIu_5ruchy7backend10transpiler10dispatcherNtB4_10Transpiler21transpile_option_some
FNDA:0,_RNvMNtNtNtCsdG3rhVUllIu_5ruchy7backend10transpiler10dispatcherNtB4_10Transpiler21transpile_panic_macro
FNDA:0,_RNvMNtNtNtCsdG3rhVUllIu_5ruchy7backend10transpiler10dispatcherNtB4_10Transpiler21transpile_print_macro
FNDA:0,_RNvMNtNtNtCsdG3rhVUllIu_5ruchy7backend10transpiler10dispatcherNtB4_10Transpiler21transpile_struct_expr
FNDA:0,_RNvMNtNtNtCsdG3rhVUllIu_5ruchy7backend10transpiler10dispatcherNtB4_10Transpiler22transpile_assert_macro
FNDA:0,_RNvMNtNtNtCsdG3rhVUllIu_5ruchy7backend10transpiler10dispatcherNtB4_10Transpiler22transpile_try_operator
FNDA:0,_RNvMNtNtNtCsdG3rhVUllIu_5ruchy7backend10transpiler10dispatcherNtB4_10Transpiler23transpile_function_expr
FNDA:0,_RNvMNtNtNtCsdG3rhVUllIu_5ruchy7backend10transpiler10dispatcherNtB4_10Transpiler23transpile_println_macro
FNDA:0,_RNvMNtNtNtCsdG3rhVUllIu_5ruchy7backend10transpiler10dispatcherNtB4_10Transpiler24transpile_data_only_expr
FNDA:0,_RNvMNtNtNtCsdG3rhVUllIu_5ruchy7backend10transpiler10dispatcherNtB4_10Transpiler24transpile_qualified_name
FNDA:0,_RNvMNtNtNtCsdG3rhVUllIu_5ruchy7backend10transpiler10dispatcherNtB4_10Transpiler24transpile_type_decl_expr
FNDA:0,_RNvMNtNtNtCsdG3rhVUllIu_5ruchy7backend10transpiler10dispatcherNtB4_10Transpiler25transpile_assert_eq_macro
FNDA:0,_RNvMNtNtNtCsdG3rhVUllIu_5ruchy7backend10transpiler10dispatcherNtB4_10Transpiler25transpile_assert_ne_macro
FNDA:0,_RNvMNtNtNtCsdG3rhVUllIu_5ruchy7backend10transpiler10dispatcherNtB4_10Transpiler25transpile_data_error_expr
FNDA:0,_RNvMNtNtNtCsdG3rhVUllIu_5ruchy7backend10transpiler10dispatcherNtB4_10Transpiler25transpile_error_only_expr
FNDA:0,_RNvMNtNtNtCsdG3rhVUllIu_5ruchy7backend10transpiler10dispatcherNtB4_10Transpiler27transpile_control_misc_expr
FNDA:0,_RNvMNtNtNtCsdG3rhVUllIu_5ruchy7backend10transpiler10dispatcherNtB4_10Transpiler28transpile_operator_only_expr
FNDA:0,_RNvMNtNtNtCsdG3rhVUllIu_5ruchy7backend10transpiler10dispatcherNtB4_10Transpiler31transpile_operator_control_expr
FNDA:0,_RNvMNtNtNtCsdG3rhVUllIu_5ruchy7backend10transpiler10dispatcherNtB4_10Transpiler32transpile_control_flow_only_expr
FNDA:0,_RNvMNtNtNtCsdG3rhVUllIu_5ruchy7backend10transpiler10dispatcherNtB4_10Transpiler40transpile_string_interpolation_for_print
FNDA:0,_RNCNvMNtNtNtCsdG3rhVUllIu_5ruchy7backend10transpiler10dispatcherNtB6_10Transpiler19transpile_vec_macro0Ba_
FNDA:0,_RNCNvMNtNtNtCsdG3rhVUllIu_5ruchy7backend10transpiler10dispatcherNtB6_10Transpiler20transpile_print_args0Ba_
FNDA:0,_RNCNvMNtNtNtCsdG3rhVUllIu_5ruchy7backend10transpiler10dispatcherNtB6_10Transpiler22transpile_assert_macro0Ba_
FNDA:0,_RNCNvMNtNtNtCsdG3rhVUllIu_5ruchy7backend10transpiler10dispatcherNtB6_10Transpiler25transpile_assert_eq_macro0Ba_
FNDA:0,_RNCNvMNtNtNtCsdG3rhVUllIu_5ruchy7backend10transpiler10dispatcherNtB6_10Transpiler25transpile_assert_ne_macro0Ba_
FNDA:0,_RNCNvMNtNtNtCsdG3rhVUllIu_5ruchy7backend10transpiler10dispatcherNtB6_10Transpiler27transpile_control_misc_expr0Ba_
FNDA:0,_RNCNvMNtNtNtCsdG3rhVUllIu_5ruchy7backend10transpiler10dispatcherNtB6_10Transpiler40transpile_string_interpolation_for_prints_0Ba_
FNF:38
FNH:0
DA:14,0
DA:15,0
DA:16,0
DA:17,0
DA:18,0
DA:19,0
DA:21,0
DA:22,0
DA:24,0
DA:26,0
DA:29,0
DA:31,0
DA:32,0
DA:33,0
DA:35,0
DA:38,0
DA:39,0
DA:40,0
DA:42,0
DA:44,0
DA:45,0
DA:47,0
DA:49,0
DA:50,0
DA:53,0
DA:54,0
DA:55,0
DA:56,0
DA:57,0
DA:58,0
DA:59,0
DA:61,0
DA:63,0
DA:66,0
DA:67,0
DA:74,0
DA:82,0
DA:83,0
DA:85,0
DA:87,0
DA:88,0
DA:89,0
DA:90,0
DA:91,0
DA:92,0
DA:93,0
DA:94,0
DA:95,0
DA:97,0
DA:99,0
DA:100,0
DA:102,0
DA:103,0
DA:104,0
DA:105,0
DA:106,0
DA:107,0
DA:108,0
DA:110,0
DA:111,0
DA:112,0
DA:113,0
DA:114,0
DA:116,0
DA:117,0
DA:118,0
DA:119,0
DA:120,0
DA:121,0
DA:123,0
DA:126,0
DA:127,0
DA:129,0
DA:130,0
DA:131,0
DA:132,0
DA:133,0
DA:134,0
DA:135,0
DA:136,0
DA:137,0
DA:138,0
DA:139,0
DA:140,0
DA:141,0
DA:142,0
DA:143,0
DA:144,0
DA:146,0
DA:147,0
DA:149,0
DA:150,0
DA:151,0
DA:152,0
DA:153,0
DA:154,0
DA:156,0
DA:168,0
DA:169,0
DA:171,0
DA:172,0
DA:173,0
DA:176,0
DA:179,0
DA:180,0
DA:181,0
DA:183,0
DA:185,0
DA:188,0
DA:189,0
DA:191,0
DA:192,0
DA:193,0
DA:194,0
DA:195,0
DA:196,0
DA:197,0
DA:198,0
DA:199,0
DA:200,0
DA:201,0
DA:203,0
DA:206,0
DA:207,0
DA:213,0
DA:219,0
DA:220,0
DA:222,0
DA:224,0
DA:225,0
DA:226,0
DA:227,0
DA:228,0
DA:230,0
DA:231,0
DA:233,0
DA:234,0
DA:235,0
DA:236,0
DA:238,0
DA:241,0
DA:242,0
DA:243,0
DA:244,0
DA:245,0
DA:247,0
DA:249,0
DA:250,0
DA:251,0
DA:252,0
DA:253,0
DA:254,0
DA:255,0
DA:256,0
DA:257,0
DA:259,0
DA:261,0
DA:262,0
DA:263,0
DA:264,0
DA:266,0
DA:267,0
DA:268,0
DA:269,0
DA:271,0
DA:272,0
DA:273,0
DA:274,0
DA:276,0
DA:277,0
DA:278,0
DA:279,0
DA:282,0
DA:283,0
DA:285,0
DA:286,0
DA:287,0
DA:288,0
DA:289,0
DA:290,0
DA:293,0
DA:294,0
DA:295,0
DA:296,0
DA:297,0
DA:299,0
DA:301,0
DA:302,0
DA:304,0
DA:306,0
DA:309,0
DA:310,0
DA:312,0
DA:314,0
DA:315,0
DA:316,0
DA:317,0
DA:319,0
DA:321,0
DA:322,0
DA:324,0
DA:325,0
DA:326,0
DA:327,0
DA:328,0
DA:332,0
DA:334,0
DA:336,0
DA:338,0
DA:340,0
DA:341,0
DA:343,0
DA:344,0
DA:345,0
DA:346,0
DA:347,0
DA:349,0
DA:350,0
DA:351,0
DA:352,0
DA:353,0
DA:354,0
DA:356,0
DA:357,0
DA:358,0
DA:360,0
DA:361,0
DA:362,0
DA:363,0
DA:364,0
DA:365,0
DA:367,0
DA:377,0
DA:378,0
DA:379,0
DA:380,0
DA:382,0
DA:384,0
DA:394,0
DA:395,0
DA:396,0
DA:397,0
DA:399,0
DA:401,0
DA:411,0
DA:412,0
DA:413,0
DA:414,0
DA:416,0
DA:418,0
DA:425,0
DA:426,0
DA:427,0
DA:428,0
DA:429,0
DA:430,0
DA:432,0
DA:433,0
DA:438,0
DA:439,0
DA:442,0
DA:443,0
DA:444,0
DA:451,0
DA:452,0
DA:456,0
DA:458,0
DA:461,0
DA:462,0
DA:463,0
DA:465,0
DA:466,0
DA:467,0
DA:468,0
DA:470,0
DA:480,0
DA:481,0
DA:482,0
DA:483,0
DA:484,0
DA:485,0
DA:487,0
DA:488,0
DA:498,0
DA:499,0
DA:500,0
DA:501,0
DA:502,0
DA:503,0
DA:505,0
DA:506,0
DA:508,0
DA:510,0
DA:520,0
DA:521,0
DA:522,0
DA:523,0
DA:525,0
DA:526,0
DA:527,0
DA:528,0
DA:529,0
DA:531,0
DA:532,0
DA:542,0
DA:543,0
DA:544,0
DA:545,0
DA:547,0
DA:548,0
DA:549,0
DA:550,0
DA:551,0
DA:553,0
DA:554,0
DA:556,0
DA:557,0
DA:558,0
DA:559,0
DA:560,0
DA:561,0
DA:562,0
DA:563,0
DA:564,0
DA:566,0
DA:569,0
DA:570,0
DA:571,0
DA:572,0
DA:574,0
DA:576,0
DA:578,0
DA:579,0
DA:580,0
DA:582,0
DA:584,0
DA:585,0
DA:586,0
DA:587,0
DA:589,0
DA:591,0
BRF:0
BRH:0
LF:349
LH:0
end_of_record
SF:/home/noah/src/ruchy/src/backend/transpiler/expressions.rs
FN:466,_RNvMNtNtNtCsdG3rhVUllIu_5ruchy7backend10transpiler11expressionsNtB4_10Transpiler14transpile_list
FN:271,_RNvMNtNtNtCsdG3rhVUllIu_5ruchy7backend10transpiler11expressionsNtB4_10Transpiler15transpile_await
FN:482,_RNvMNtNtNtCsdG3rhVUllIu_5ruchy7backend10transpiler11expressionsNtB4_10Transpiler15transpile_range
FN:352,_RNvMNtNtNtCsdG3rhVUllIu_5ruchy7backend10transpiler11expressionsNtB4_10Transpiler15transpile_slice
FN:283,_RNvMNtNtNtCsdG3rhVUllIu_5ruchy7backend10transpiler11expressionsNtB4_10Transpiler15transpile_throw
FN:474,_RNvMNtNtNtCsdG3rhVUllIu_5ruchy7backend10transpiler11expressionsNtB4_10Transpiler15transpile_tuple
FN:259,_RNvMNtNtNtCsdG3rhVUllIu_5ruchy7backend10transpiler11expressionsNtB4_10Transpiler15transpile_unary
FN:380,_RNvMNtNtNtCsdG3rhVUllIu_5ruchy7backend10transpiler11expressionsNtB4_10Transpiler16transpile_assign
FN:86,_RNvMNtNtNtCsdG3rhVUllIu_5ruchy7backend10transpiler11expressionsNtB4_10Transpiler16transpile_binary
FN:32,_RNvMNtNtNtCsdG3rhVUllIu_5ruchy7backend10transpiler11expressionsNtB4_10Transpiler17transpile_integer
FN:14,_RNvMNtNtNtCsdG3rhVUllIu_5ruchy7backend10transpiler11expressionsNtB4_10Transpiler17transpile_literal
FN:209,_RNvMNtNtNtCsdG3rhVUllIu_5ruchy7backend10transpiler11expressionsNtB4_10Transpiler18transpile_equality
FN:217,_RNvMNtNtNtCsdG3rhVUllIu_5ruchy7backend10transpiler11expressionsNtB4_10Transpiler18transpile_ordering
FN:143,_RNvMNtNtNtCsdG3rhVUllIu_5ruchy7backend10transpiler11expressionsNtB4_10Transpiler19transpile_binary_op
FN:251,_RNvMNtNtNtCsdG3rhVUllIu_5ruchy7backend10transpiler11expressionsNtB4_10Transpiler19transpile_shift_ops
FN:572,_RNvMNtNtNtCsdG3rhVUllIu_5ruchy7backend10transpiler11expressionsNtB4_10Transpiler20is_definitely_string
FN:139,_RNvMNtNtNtCsdG3rhVUllIu_5ruchy7backend10transpiler11expressionsNtB4_10Transpiler20is_right_associative
FN:241,_RNvMNtNtNtCsdG3rhVUllIu_5ruchy7backend10transpiler11expressionsNtB4_10Transpiler20transpile_bitwise_op
FN:233,_RNvMNtNtNtCsdG3rhVUllIu_5ruchy7backend10transpiler11expressionsNtB4_10Transpiler20transpile_logical_op
FN:400,_RNvMNtNtNtCsdG3rhVUllIu_5ruchy7backend10transpiler11expressionsNtB4_10Transpiler21get_compound_op_token
FN:277,_RNvMNtNtNtCsdG3rhVUllIu_5ruchy7backend10transpiler11expressionsNtB4_10Transpiler21transpile_async_block
FN:225,_RNvMNtNtNtCsdG3rhVUllIu_5ruchy7backend10transpiler11expressionsNtB4_10Transpiler21transpile_greater_ops
FN:192,_RNvMNtNtNtCsdG3rhVUllIu_5ruchy7backend10transpiler11expressionsNtB4_10Transpiler22transpile_division_mod
FN:291,_RNvMNtNtNtCsdG3rhVUllIu_5ruchy7backend10transpiler11expressionsNtB4_10Transpiler22transpile_field_access
FN:328,_RNvMNtNtNtCsdG3rhVUllIu_5ruchy7backend10transpiler11expressionsNtB4_10Transpiler22transpile_index_access
FN:125,_RNvMNtNtNtCsdG3rhVUllIu_5ruchy7backend10transpiler11expressionsNtB4_10Transpiler23get_operator_precedence
FN:167,_RNvMNtNtNtCsdG3rhVUllIu_5ruchy7backend10transpiler11expressionsNtB4_10Transpiler23transpile_arithmetic_op
FN:200,_RNvMNtNtNtCsdG3rhVUllIu_5ruchy7backend10transpiler11expressionsNtB4_10Transpiler23transpile_comparison_op
FN:448,_RNvMNtNtNtCsdG3rhVUllIu_5ruchy7backend10transpiler11expressionsNtB4_10Transpiler23transpile_pre_decrement
FN:430,_RNvMNtNtNtCsdG3rhVUllIu_5ruchy7backend10transpiler11expressionsNtB4_10Transpiler23transpile_pre_increment
FN:412,_RNvMNtNtNtCsdG3rhVUllIu_5ruchy7backend10transpiler11expressionsNtB4_10Transpiler24get_basic_compound_token
FN:499,_RNvMNtNtNtCsdG3rhVUllIu_5ruchy7backend10transpiler11expressionsNtB4_10Transpiler24transpile_object_literal
FN:454,_RNvMNtNtNtCsdG3rhVUllIu_5ruchy7backend10transpiler11expressionsNtB4_10Transpiler24transpile_post_decrement
FN:436,_RNvMNtNtNtCsdG3rhVUllIu_5ruchy7backend10transpiler11expressionsNtB4_10Transpiler24transpile_post_increment
FN:23,_RNvMNtNtNtCsdG3rhVUllIu_5ruchy7backend10transpiler11expressionsNtB4_10Transpiler24transpile_simple_literal
FN:544,_RNvMNtNtNtCsdG3rhVUllIu_5ruchy7backend10transpiler11expressionsNtB4_10Transpiler24transpile_struct_literal
FN:387,_RNvMNtNtNtCsdG3rhVUllIu_5ruchy7backend10transpiler11expressionsNtB4_10Transpiler25transpile_compound_assign
FN:178,_RNvMNtNtNtCsdG3rhVUllIu_5ruchy7backend10transpiler11expressionsNtB4_10Transpiler26transpile_basic_arithmetic
FN:421,_RNvMNtNtNtCsdG3rhVUllIu_5ruchy7backend10transpiler11expressionsNtB4_10Transpiler27get_division_compound_token
FN:513,_RNvMNtNtNtCsdG3rhVUllIu_5ruchy7backend10transpiler11expressionsNtB4_10Transpiler28collect_hashmap_field_tokens
FN:103,_RNvMNtNtNtCsdG3rhVUllIu_5ruchy7backend10transpiler11expressionsNtB4_10Transpiler30transpile_expr_with_precedence
FN:599,_RNvMNtNtNtCsdG3rhVUllIu_5ruchy7backend10transpiler11expressionsNtB4_10Transpiler30transpile_string_concatenation
FN:50,_RNvMNtNtNtCsdG3rhVUllIu_5ruchy7backend10transpiler11expressionsNtB4_10Transpiler30transpile_string_interpolation
FN:468,_RNCNvMNtNtNtCsdG3rhVUllIu_5ruchy7backend10transpiler11expressionsNtB6_10Transpiler14transpile_list0Ba_
FN:476,_RNCNvMNtNtNtCsdG3rhVUllIu_5ruchy7backend10transpiler11expressionsNtB6_10Transpiler15transpile_tuple0Ba_
FNDA:0,_RNvMNtNtNtCsdG3rhVUllIu_5ruchy7backend10transpiler11expressionsNtB4_10Transpiler14transpile_list
FNDA:0,_RNvMNtNtNtCsdG3rhVUllIu_5ruchy7backend10transpiler11expressionsNtB4_10Transpiler15transpile_await
FNDA:0,_RNvMNtNtNtCsdG3rhVUllIu_5ruchy7backend10transpiler11expressionsNtB4_10Transpiler15transpile_range
FNDA:0,_RNvMNtNtNtCsdG3rhVUllIu_5ruchy7backend10transpiler11expressionsNtB4_10Transpiler15transpile_slice
FNDA:0,_RNvMNtNtNtCsdG3rhVUllIu_5ruchy7backend10transpiler11expressionsNtB4_10Transpiler15transpile_throw
FNDA:0,_RNvMNtNtNtCsdG3rhVUllIu_5ruchy7backend10transpiler11expressionsNtB4_10Transpiler15transpile_tuple
FNDA:0,_RNvMNtNtNtCsdG3rhVUllIu_5ruchy7backend10transpiler11expressionsNtB4_10Transpiler15transpile_unary
FNDA:0,_RNvMNtNtNtCsdG3rhVUllIu_5ruchy7backend10transpiler11expressionsNtB4_10Transpiler16transpile_assign
FNDA:0,_RNvMNtNtNtCsdG3rhVUllIu_5ruchy7backend10transpiler11expressionsNtB4_10Transpiler16transpile_binary
FNDA:0,_RNvMNtNtNtCsdG3rhVUllIu_5ruchy7backend10transpiler11expressionsNtB4_10Transpiler17transpile_integer
FNDA:0,_RNvMNtNtNtCsdG3rhVUllIu_5ruchy7backend10transpiler11expressionsNtB4_10Transpiler17transpile_literal
FNDA:0,_RNvMNtNtNtCsdG3rhVUllIu_5ruchy7backend10transpiler11expressionsNtB4_10Transpiler18transpile_equality
FNDA:0,_RNvMNtNtNtCsdG3rhVUllIu_5ruchy7backend10transpiler11expressionsNtB4_10Transpiler18transpile_ordering
FNDA:0,_RNvMNtNtNtCsdG3rhVUllIu_5ruchy7backend10transpiler11expressionsNtB4_10Transpiler19transpile_binary_op
FNDA:0,_RNvMNtNtNtCsdG3rhVUllIu_5ruchy7backend10transpiler11expressionsNtB4_10Transpiler19transpile_shift_ops
FNDA:0,_RNvMNtNtNtCsdG3rhVUllIu_5ruchy7backend10transpiler11expressionsNtB4_10Transpiler20is_definitely_string
FNDA:0,_RNvMNtNtNtCsdG3rhVUllIu_5ruchy7backend10transpiler11expressionsNtB4_10Transpiler20is_right_associative
FNDA:0,_RNvMNtNtNtCsdG3rhVUllIu_5ruchy7backend10transpiler11expressionsNtB4_10Transpiler20transpile_bitwise_op
FNDA:0,_RNvMNtNtNtCsdG3rhVUllIu_5ruchy7backend10transpiler11expressionsNtB4_10Transpiler20transpile_logical_op
FNDA:0,_RNvMNtNtNtCsdG3rhVUllIu_5ruchy7backend10transpiler11expressionsNtB4_10Transpiler21get_compound_op_token
FNDA:0,_RNvMNtNtNtCsdG3rhVUllIu_5ruchy7backend10transpiler11expressionsNtB4_10Transpiler21transpile_async_block
FNDA:0,_RNvMNtNtNtCsdG3rhVUllIu_5ruchy7backend10transpiler11expressionsNtB4_10Transpiler21transpile_greater_ops
FNDA:0,_RNvMNtNtNtCsdG3rhVUllIu_5ruchy7backend10transpiler11expressionsNtB4_10Transpiler22transpile_division_mod
FNDA:0,_RNvMNtNtNtCsdG3rhVUllIu_5ruchy7backend10transpiler11expressionsNtB4_10Transpiler22transpile_field_access
FNDA:0,_RNvMNtNtNtCsdG3rhVUllIu_5ruchy7backend10transpiler11expressionsNtB4_10Transpiler22transpile_index_access
FNDA:0,_RNvMNtNtNtCsdG3rhVUllIu_5ruchy7backend10transpiler11expressionsNtB4_10Transpiler23get_operator_precedence
FNDA:0,_RNvMNtNtNtCsdG3rhVUllIu_5ruchy7backend10transpiler11expressionsNtB4_10Transpiler23transpile_arithmetic_op
FNDA:0,_RNvMNtNtNtCsdG3rhVUllIu_5ruchy7backend10transpiler11expressionsNtB4_10Transpiler23transpile_comparison_op
FNDA:0,_RNvMNtNtNtCsdG3rhVUllIu_5ruchy7backend10transpiler11expressionsNtB4_10Transpiler23transpile_pre_decrement
FNDA:0,_RNvMNtNtNtCsdG3rhVUllIu_5ruchy7backend10transpiler11expressionsNtB4_10Transpiler23transpile_pre_increment
FNDA:0,_RNvMNtNtNtCsdG3rhVUllIu_5ruchy7backend10transpiler11expressionsNtB4_10Transpiler24get_basic_compound_token
FNDA:0,_RNvMNtNtNtCsdG3rhVUllIu_5ruchy7backend10transpiler11expressionsNtB4_10Transpiler24transpile_object_literal
FNDA:0,_RNvMNtNtNtCsdG3rhVUllIu_5ruchy7backend10transpiler11expressionsNtB4_10Transpiler24transpile_post_decrement
FNDA:0,_RNvMNtNtNtCsdG3rhVUllIu_5ruchy7backend10transpiler11expressionsNtB4_10Transpiler24transpile_post_increment
FNDA:0,_RNvMNtNtNtCsdG3rhVUllIu_5ruchy7backend10transpiler11expressionsNtB4_10Transpiler24transpile_simple_literal
FNDA:0,_RNvMNtNtNtCsdG3rhVUllIu_5ruchy7backend10transpiler11expressionsNtB4_10Transpiler24transpile_struct_literal
FNDA:0,_RNvMNtNtNtCsdG3rhVUllIu_5ruchy7backend10transpiler11expressionsNtB4_10Transpiler25transpile_compound_assign
FNDA:0,_RNvMNtNtNtCsdG3rhVUllIu_5ruchy7backend10transpiler11expressionsNtB4_10Transpiler26transpile_basic_arithmetic
FNDA:0,_RNvMNtNtNtCsdG3rhVUllIu_5ruchy7backend10transpiler11expressionsNtB4_10Transpiler27get_division_compound_token
FNDA:0,_RNvMNtNtNtCsdG3rhVUllIu_5ruchy7backend10transpiler11expressionsNtB4_10Transpiler28collect_hashmap_field_tokens
FNDA:0,_RNvMNtNtNtCsdG3rhVUllIu_5ruchy7backend10transpiler11expressionsNtB4_10Transpiler30transpile_expr_with_precedence
FNDA:0,_RNvMNtNtNtCsdG3rhVUllIu_5ruchy7backend10transpiler11expressionsNtB4_10Transpiler30transpile_string_concatenation
FNDA:0,_RNvMNtNtNtCsdG3rhVUllIu_5ruchy7backend10transpiler11expressionsNtB4_10Transpiler30transpile_string_interpolation
FNDA:0,_RNCNvMNtNtNtCsdG3rhVUllIu_5ruchy7backend10transpiler11expressionsNtB6_10Transpiler14transpile_list0Ba_
FNDA:0,_RNCNvMNtNtNtCsdG3rhVUllIu_5ruchy7backend10transpiler11expressionsNtB6_10Transpiler15transpile_tuple0Ba_
FNF:45
FNH:0
DA:14,0
DA:15,0
DA:16,0
DA:17,0
DA:18,0
DA:19,0
DA:21,0
DA:23,0
DA:24,0
DA:25,0
DA:26,0
DA:27,0
DA:28,0
DA:30,0
DA:32,0
DA:35,0
DA:37,0
DA:38,0
DA:41,0
DA:42,0
DA:44,0
DA:50,0
DA:51,0
DA:52,0
DA:53,0
DA:55,0
DA:56,0
DA:58,0
DA:59,0
DA:60,0
DA:61,0
DA:62,0
DA:63,0
DA:64,0
DA:65,0
DA:66,0
DA:67,0
DA:69,0
DA:71,0
DA:72,0
DA:73,0
DA:74,0
DA:75,0
DA:80,0
DA:83,0
DA:86,0
DA:89,0
DA:90,0
DA:91,0
DA:94,0
DA:95,0
DA:97,0
DA:98,0
DA:103,0
DA:104,0
DA:107,0
DA:108,0
DA:109,0
DA:113,0
DA:114,0
DA:116,0
DA:117,0
DA:118,0
DA:119,0
DA:121,0
DA:122,0
DA:125,0
DA:126,0
DA:127,0
DA:128,0
DA:129,0
DA:130,0
DA:131,0
DA:132,0
DA:133,0
DA:134,0
DA:136,0
DA:139,0
DA:140,0
DA:141,0
DA:143,0
DA:149,0
DA:152,0
DA:156,0
DA:159,0
DA:162,0
DA:165,0
DA:167,0
DA:169,0
DA:171,0
DA:173,0
DA:174,0
DA:176,0
DA:178,0
DA:179,0
DA:180,0
DA:181,0
DA:182,0
DA:184,0
DA:185,0
DA:186,0
DA:187,0
DA:188,0
DA:190,0
DA:192,0
DA:193,0
DA:194,0
DA:195,0
DA:196,0
DA:198,0
DA:200,0
DA:202,0
DA:203,0
DA:204,0
DA:205,0
DA:207,0
DA:209,0
DA:210,0
DA:211,0
DA:212,0
DA:213,0
DA:215,0
DA:217,0
DA:218,0
DA:219,0
DA:220,0
DA:221,0
DA:223,0
DA:225,0
DA:226,0
DA:227,0
DA:228,0
DA:229,0
DA:231,0
DA:233,0
DA:234,0
DA:235,0
DA:236,0
DA:237,0
DA:239,0
DA:241,0
DA:243,0
DA:244,0
DA:245,0
DA:246,0
DA:247,0
DA:249,0
DA:251,0
DA:252,0
DA:253,0
DA:254,0
DA:256,0
DA:259,0
DA:260,0
DA:262,0
DA:263,0
DA:264,0
DA:265,0
DA:267,0
DA:271,0
DA:272,0
DA:273,0
DA:274,0
DA:277,0
DA:278,0
DA:279,0
DA:280,0
DA:283,0
DA:284,0
DA:285,0
DA:286,0
DA:287,0
DA:288,0
DA:291,0
DA:294,0
DA:297,0
DA:300,0
DA:301,0
DA:302,0
DA:303,0
DA:304,0
DA:308,0
DA:309,0
DA:311,0
DA:313,0
DA:314,0
DA:318,0
DA:319,0
DA:320,0
DA:321,0
DA:322,0
DA:325,0
DA:328,0
DA:331,0
DA:332,0
DA:335,0
DA:338,0
DA:339,0
DA:340,0
DA:341,0
DA:342,0
DA:346,0
DA:349,0
DA:352,0
DA:353,0
DA:355,0
DA:358,0
DA:360,0
DA:362,0
DA:363,0
DA:365,0
DA:367,0
DA:368,0
DA:370,0
DA:372,0
DA:373,0
DA:374,0
DA:377,0
DA:380,0
DA:381,0
DA:382,0
DA:383,0
DA:384,0
DA:387,0
DA:388,0
DA:389,0
DA:390,0
DA:391,0
DA:392,0
DA:393,0
DA:394,0
DA:395,0
DA:397,0
DA:398,0
DA:400,0
DA:402,0
DA:403,0
DA:404,0
DA:407,0
DA:410,0
DA:412,0
DA:413,0
DA:414,0
DA:415,0
DA:416,0
DA:417,0
DA:419,0
DA:421,0
DA:422,0
DA:423,0
DA:424,0
DA:425,0
DA:427,0
DA:430,0
DA:431,0
DA:432,0
DA:433,0
DA:436,0
DA:437,0
DA:438,0
DA:439,0
DA:440,0
DA:441,0
DA:442,0
DA:443,0
DA:444,0
DA:445,0
DA:448,0
DA:449,0
DA:450,0
DA:451,0
DA:454,0
DA:455,0
DA:456,0
DA:457,0
DA:458,0
DA:459,0
DA:460,0
DA:461,0
DA:462,0
DA:463,0
DA:466,0
DA:467,0
DA:468,0
DA:469,0
DA:470,0
DA:471,0
DA:474,0
DA:475,0
DA:476,0
DA:477,0
DA:478,0
DA:479,0
DA:482,0
DA:483,0
DA:484,0
DA:485,0
DA:486,0
DA:487,0
DA:488,0
DA:489,0
DA:491,0
DA:492,0
DA:494,0
DA:496,0
DA:499,0
DA:500,0
DA:501,0
DA:502,0
DA:503,0
DA:504,0
DA:511,0
DA:513,0
DA:514,0
DA:515,0
DA:516,0
DA:518,0
DA:520,0
DA:521,0
DA:522,0
DA:523,0
DA:524,0
DA:526,0
DA:527,0
DA:529,0
DA:536,0
DA:539,0
DA:540,0
DA:544,0
DA:545,0
DA:546,0
DA:547,0
DA:548,0
DA:549,0
DA:550,0
DA:552,0
DA:553,0
DA:554,0
DA:556,0
DA:557,0
DA:559,0
DA:561,0
DA:564,0
DA:569,0
DA:572,0
DA:573,0
DA:575,0
DA:577,0
DA:579,0
DA:580,0
DA:583,0
DA:584,0
DA:585,0
DA:589,0
DA:591,0
DA:593,0
DA:595,0
DA:599,0
DA:600,0
DA:601,0
DA:605,0
DA:606,0
BRF:0
BRH:0
LF:364
LH:0
end_of_record
SF:/home/noah/src/ruchy/src/backend/transpiler/method_call_refactored.rs
FN:172,_RNvMNtNtNtCsdG3rhVUllIu_5ruchy7backend10transpiler22method_call_refactoredNtB4_10Transpiler23transpile_string_method
FN:90,_RNvMNtNtNtCsdG3rhVUllIu_5ruchy7backend10transpiler22method_call_refactoredNtB4_10Transpiler24transpile_hashmap_method
FN:107,_RNvMNtNtNtCsdG3rhVUllIu_5ruchy7backend10transpiler22method_call_refactoredNtB4_10Transpiler24transpile_hashset_method
FN:64,_RNvMNtNtNtCsdG3rhVUllIu_5ruchy7backend10transpiler22method_call_refactoredNtB4_10Transpiler25transpile_iterator_method
FN:136,_RNvMNtNtNtCsdG3rhVUllIu_5ruchy7backend10transpiler22method_call_refactoredNtB4_10Transpiler28transpile_collection_mutator
FN:147,_RNvMNtNtNtCsdG3rhVUllIu_5ruchy7backend10transpiler22method_call_refactoredNtB4_10Transpiler29transpile_collection_accessor
FN:12,_RNvMNtNtNtCsdG3rhVUllIu_5ruchy7backend10transpiler22method_call_refactoredNtB4_10Transpiler32transpile_method_call_refactored
FN:206,_RNvMNtNtNtCsdG3rhVUllIu_5ruchy7backend10transpiler22method_call_refactoredNtB4_10Transpiler37transpile_dataframe_method_refactored
FN:19,_RNCNvMNtNtNtCsdG3rhVUllIu_5ruchy7backend10transpiler22method_call_refactoredNtB6_10Transpiler32transpile_method_call_refactored0Ba_
FNDA:0,_RNvMNtNtNtCsdG3rhVUllIu_5ruchy7backend10transpiler22method_call_refactoredNtB4_10Transpiler23transpile_string_method
FNDA:0,_RNvMNtNtNtCsdG3rhVUllIu_5ruchy7backend10transpiler22method_call_refactoredNtB4_10Transpiler24transpile_hashmap_method
FNDA:0,_RNvMNtNtNtCsdG3rhVUllIu_5ruchy7backend10transpiler22method_call_refactoredNtB4_10Transpiler24transpile_hashset_method
FNDA:0,_RNvMNtNtNtCsdG3rhVUllIu_5ruchy7backend10transpiler22method_call_refactoredNtB4_10Transpiler25transpile_iterator_method
FNDA:0,_RNvMNtNtNtCsdG3rhVUllIu_5ruchy7backend10transpiler22method_call_refactoredNtB4_10Transpiler28transpile_collection_mutator
FNDA:0,_RNvMNtNtNtCsdG3rhVUllIu_5ruchy7backend10transpiler22method_call_refactoredNtB4_10Transpiler29transpile_collection_accessor
FNDA:0,_RNvMNtNtNtCsdG3rhVUllIu_5ruchy7backend10transpiler22method_call_refactoredNtB4_10Transpiler32transpile_method_call_refactored
FNDA:0,_RNvMNtNtNtCsdG3rhVUllIu_5ruchy7backend10transpiler22method_call_refactoredNtB4_10Transpiler37transpile_dataframe_method_refactored
FNDA:0,_RNCNvMNtNtNtCsdG3rhVUllIu_5ruchy7backend10transpiler22method_call_refactoredNtB6_10Transpiler32transpile_method_call_refactored0Ba_
FNF:9
FNH:0
DA:12,0
DA:13,0
DA:14,0
DA:15,0
DA:16,0
DA:17,0
DA:18,0
DA:19,0
DA:20,0
DA:23,0
DA:25,0
DA:26,0
DA:29,0
DA:30,0
DA:33,0
DA:34,0
DA:37,0
DA:38,0
DA:41,0
DA:42,0
DA:45,0
DA:46,0
DA:47,0
DA:50,0
DA:51,0
DA:52,0
DA:53,0
DA:57,0
DA:58,0
DA:61,0
DA:64,0
DA:65,0
DA:66,0
DA:67,0
DA:68,0
DA:69,0
DA:70,0
DA:71,0
DA:72,0
DA:73,0
DA:74,0
DA:75,0
DA:76,0
DA:77,0
DA:78,0
DA:79,0
DA:80,0
DA:82,0
DA:83,0
DA:84,0
DA:85,0
DA:87,0
DA:90,0
DA:91,0
DA:92,0
DA:93,0
DA:94,0
DA:95,0
DA:96,0
DA:97,0
DA:98,0
DA:99,0
DA:100,0
DA:101,0
DA:102,0
DA:104,0
DA:107,0
DA:108,0
DA:109,0
DA:110,0
DA:111,0
DA:112,0
DA:113,0
DA:114,0
DA:115,0
DA:116,0
DA:118,0
DA:119,0
DA:120,0
DA:121,0
DA:122,0
DA:123,0
DA:124,0
DA:125,0
DA:126,0
DA:127,0
DA:128,0
DA:129,0
DA:131,0
DA:133,0
DA:136,0
DA:137,0
DA:138,0
DA:139,0
DA:140,0
DA:141,0
DA:142,0
DA:143,0
DA:144,0
DA:147,0
DA:148,0
DA:149,0
DA:150,0
DA:151,0
DA:152,0
DA:153,0
DA:154,0
DA:155,0
DA:156,0
DA:157,0
DA:158,0
DA:159,0
DA:160,0
DA:162,0
DA:163,0
DA:165,0
DA:166,0
DA:169,0
DA:172,0
DA:173,0
DA:174,0
DA:175,0
DA:176,0
DA:177,0
DA:178,0
DA:179,0
DA:180,0
DA:181,0
DA:182,0
DA:183,0
DA:184,0
DA:185,0
DA:186,0
DA:188,0
DA:191,0
DA:192,0
DA:193,0
DA:194,0
DA:195,0
DA:197,0
DA:198,0
DA:199,0
DA:201,0
DA:203,0
DA:206,0
DA:207,0
DA:208,0
DA:209,0
DA:210,0
DA:211,0
DA:212,0
DA:213,0
DA:214,0
BRF:0
BRH:0
LF:154
LH:0
end_of_record
SF:/home/noah/src/ruchy/src/backend/transpiler/mod.rs
FN:319,_RNCNvMs_NtNtCsdG3rhVUllIu_5ruchy7backend10transpilerNtB6_10Transpiler16contains_hashmap0Ba_
FN:619,_RNCNvMs_NtNtCsdG3rhVUllIu_5ruchy7backend10transpilerNtB6_10Transpiler17is_statement_expr0Ba_
FN:527,_RNCNvMs_NtNtCsdG3rhVUllIu_5ruchy7backend10transpilerNtB6_10Transpiler30transpile_statement_only_block0Ba_
FN:883,_RNvMs_NtNtCsdG3rhVUllIu_5ruchy7backend10transpilerNtB4_10Transpiler14transpile_expr
FN:149,_RNvMs_NtNtCsdG3rhVUllIu_5ruchy7backend10transpilerNtB4_10Transpiler14type_to_string
FN:297,_RNvMs_NtNtCsdG3rhVUllIu_5ruchy7backend10transpilerNtB4_10Transpiler16contains_hashmap
FN:602,_RNvMs_NtNtCsdG3rhVUllIu_5ruchy7backend10transpilerNtB4_10Transpiler17is_statement_expr
FN:860,_RNvMs_NtNtCsdG3rhVUllIu_5ruchy7backend10transpilerNtB4_10Transpiler17transpile_minimal
FN:108,_RNvMs_NtNtCsdG3rhVUllIu_5ruchy7backend10transpilerNtB4_10Transpiler18analyze_mutability
FN:329,_RNvMs_NtNtCsdG3rhVUllIu_5ruchy7backend10transpilerNtB4_10Transpiler18contains_dataframe
FN:841,_RNvMs_NtNtCsdG3rhVUllIu_5ruchy7backend10transpilerNtB4_10Transpiler19transpile_to_string
FN:358,_RNvMs_NtNtCsdG3rhVUllIu_5ruchy7backend10transpilerNtB4_10Transpiler20transpile_to_program
FN:772,_RNvMs_NtNtCsdG3rhVUllIu_5ruchy7backend10transpilerNtB4_10Transpiler22wrap_statement_in_main
FN:159,_RNvMs_NtNtCsdG3rhVUllIu_5ruchy7backend10transpilerNtB4_10Transpiler23analyze_expr_mutability
FN:445,_RNvMs_NtNtCsdG3rhVUllIu_5ruchy7backend10transpilerNtB4_10Transpiler23transpile_program_block
FN:865,_RNvMs_NtNtCsdG3rhVUllIu_5ruchy7backend10transpilerNtB4_10Transpiler24is_rust_reserved_keyword
FN:397,_RNvMs_NtNtCsdG3rhVUllIu_5ruchy7backend10transpilerNtB4_10Transpiler25transpile_single_function
FN:723,_RNvMs_NtNtCsdG3rhVUllIu_5ruchy7backend10transpilerNtB4_10Transpiler26extract_main_function_body
FN:115,_RNvMs_NtNtCsdG3rhVUllIu_5ruchy7backend10transpilerNtB4_10Transpiler27collect_function_signatures
FN:457,_RNvMs_NtNtCsdG3rhVUllIu_5ruchy7backend10transpilerNtB4_10Transpiler28categorize_block_expressions
FN:121,_RNvMs_NtNtCsdG3rhVUllIu_5ruchy7backend10transpilerNtB4_10Transpiler28collect_signatures_from_expr
FN:261,_RNvMs_NtNtCsdG3rhVUllIu_5ruchy7backend10transpilerNtB4_10Transpiler28resolve_imports_with_context
FN:759,_RNvMs_NtNtCsdG3rhVUllIu_5ruchy7backend10transpilerNtB4_10Transpiler28transpile_expression_program
FN:504,_RNvMs_NtNtCsdG3rhVUllIu_5ruchy7backend10transpilerNtB4_10Transpiler28transpile_module_declaration
FN:92,_RNvMs_NtNtCsdG3rhVUllIu_5ruchy7backend10transpilerNtB4_10Transpiler30generate_value_printing_tokens
FN:732,_RNvMs_NtNtCsdG3rhVUllIu_5ruchy7backend10transpilerNtB4_10Transpiler30transpile_block_with_functions
FN:525,_RNvMs_NtNtCsdG3rhVUllIu_5ruchy7backend10transpilerNtB4_10Transpiler30transpile_statement_only_block
FN:77,_RNvMs_NtNtCsdG3rhVUllIu_5ruchy7backend10transpilerNtB4_10Transpiler31generate_result_printing_tokens
FN:378,_RNvMs_NtNtCsdG3rhVUllIu_5ruchy7backend10transpilerNtB4_10Transpiler33transpile_to_program_with_context
FN:802,_RNvMs_NtNtCsdG3rhVUllIu_5ruchy7backend10transpilerNtB4_10Transpiler33wrap_in_main_with_result_printing
FN:625,_RNvMs_NtNtCsdG3rhVUllIu_5ruchy7backend10transpilerNtB4_10Transpiler34transpile_block_with_main_function
FN:67,_RNvMs_NtNtCsdG3rhVUllIu_5ruchy7backend10transpilerNtB4_10Transpiler3new
FN:292,_RNvMs_NtNtCsdG3rhVUllIu_5ruchy7backend10transpilerNtB4_10Transpiler9transpile
FN:51,_RNvXNtNtCsdG3rhVUllIu_5ruchy7backend10transpilerNtB2_10TranspilerNtNtCs66KPHxksi63_4core7default7Default7default
FN:254,_RNvMs_NtNtCsdG3rhVUllIu_5ruchy7backend10transpilerNtB4_10Transpiler15resolve_imports
FN:127,_RNCNvMs_NtNtCsdG3rhVUllIu_5ruchy7backend10transpilerNtB6_10Transpiler28collect_signatures_from_expr0Ba_
FN:510,_RNCNvMs_NtNtCsdG3rhVUllIu_5ruchy7backend10transpilerNtB6_10Transpiler28transpile_module_declaration0Ba_
FN:540,_RNCNvMs_NtNtCsdG3rhVUllIu_5ruchy7backend10transpilerNtB6_10Transpiler30transpile_statement_only_blocks_0Ba_
FNDA:0,_RNCNvMs_NtNtCsdG3rhVUllIu_5ruchy7backend10transpilerNtB6_10Transpiler16contains_hashmap0Ba_
FNDA:0,_RNCNvMs_NtNtCsdG3rhVUllIu_5ruchy7backend10transpilerNtB6_10Transpiler17is_statement_expr0Ba_
FNDA:0,_RNCNvMs_NtNtCsdG3rhVUllIu_5ruchy7backend10transpilerNtB6_10Transpiler30transpile_statement_only_block0Ba_
FNDA:0,_RNvMs_NtNtCsdG3rhVUllIu_5ruchy7backend10transpilerNtB4_10Transpiler14transpile_expr
FNDA:0,_RNvMs_NtNtCsdG3rhVUllIu_5ruchy7backend10transpilerNtB4_10Transpiler14type_to_string
FNDA:0,_RNvMs_NtNtCsdG3rhVUllIu_5ruchy7backend10transpilerNtB4_10Transpiler16contains_hashmap
FNDA:0,_RNvMs_NtNtCsdG3rhVUllIu_5ruchy7backend10transpilerNtB4_10Transpiler17is_statement_expr
FNDA:0,_RNvMs_NtNtCsdG3rhVUllIu_5ruchy7backend10transpilerNtB4_10Transpiler17transpile_minimal
FNDA:0,_RNvMs_NtNtCsdG3rhVUllIu_5ruchy7backend10transpilerNtB4_10Transpiler18analyze_mutability
FNDA:0,_RNvMs_NtNtCsdG3rhVUllIu_5ruchy7backend10transpilerNtB4_10Transpiler18contains_dataframe
FNDA:0,_RNvMs_NtNtCsdG3rhVUllIu_5ruchy7backend10transpilerNtB4_10Transpiler19transpile_to_string
FNDA:0,_RNvMs_NtNtCsdG3rhVUllIu_5ruchy7backend10transpilerNtB4_10Transpiler20transpile_to_program
FNDA:0,_RNvMs_NtNtCsdG3rhVUllIu_5ruchy7backend10transpilerNtB4_10Transpiler22wrap_statement_in_main
FNDA:0,_RNvMs_NtNtCsdG3rhVUllIu_5ruchy7backend10transpilerNtB4_10Transpiler23analyze_expr_mutability
FNDA:0,_RNvMs_NtNtCsdG3rhVUllIu_5ruchy7backend10transpilerNtB4_10Transpiler23transpile_program_block
FNDA:0,_RNvMs_NtNtCsdG3rhVUllIu_5ruchy7backend10transpilerNtB4_10Transpiler24is_rust_reserved_keyword
FNDA:0,_RNvMs_NtNtCsdG3rhVUllIu_5ruchy7backend10transpilerNtB4_10Transpiler25transpile_single_function
FNDA:0,_RNvMs_NtNtCsdG3rhVUllIu_5ruchy7backend10transpilerNtB4_10Transpiler26extract_main_function_body
FNDA:0,_RNvMs_NtNtCsdG3rhVUllIu_5ruchy7backend10transpilerNtB4_10Transpiler27collect_function_signatures
FNDA:0,_RNvMs_NtNtCsdG3rhVUllIu_5ruchy7backend10transpilerNtB4_10Transpiler28categorize_block_expressions
FNDA:0,_RNvMs_NtNtCsdG3rhVUllIu_5ruchy7backend10transpilerNtB4_10Transpiler28collect_signatures_from_expr
FNDA:0,_RNvMs_NtNtCsdG3rhVUllIu_5ruchy7backend10transpilerNtB4_10Transpiler28resolve_imports_with_context
FNDA:0,_RNvMs_NtNtCsdG3rhVUllIu_5ruchy7backend10transpilerNtB4_10Transpiler28transpile_expression_program
FNDA:0,_RNvMs_NtNtCsdG3rhVUllIu_5ruchy7backend10transpilerNtB4_10Transpiler28transpile_module_declaration
FNDA:0,_RNvMs_NtNtCsdG3rhVUllIu_5ruchy7backend10transpilerNtB4_10Transpiler30generate_value_printing_tokens
FNDA:0,_RNvMs_NtNtCsdG3rhVUllIu_5ruchy7backend10transpilerNtB4_10Transpiler30transpile_block_with_functions
FNDA:0,_RNvMs_NtNtCsdG3rhVUllIu_5ruchy7backend10transpilerNtB4_10Transpiler30transpile_statement_only_block
FNDA:0,_RNvMs_NtNtCsdG3rhVUllIu_5ruchy7backend10transpilerNtB4_10Transpiler31generate_result_printing_tokens
FNDA:0,_RNvMs_NtNtCsdG3rhVUllIu_5ruchy7backend10transpilerNtB4_10Transpiler33transpile_to_program_with_context
FNDA:0,_RNvMs_NtNtCsdG3rhVUllIu_5ruchy7backend10transpilerNtB4_10Transpiler33wrap_in_main_with_result_printing
FNDA:0,_RNvMs_NtNtCsdG3rhVUllIu_5ruchy7backend10transpilerNtB4_10Transpiler34transpile_block_with_main_function
FNDA:8,_RNvMs_NtNtCsdG3rhVUllIu_5ruchy7backend10transpilerNtB4_10Transpiler3new
FNDA:0,_RNvMs_NtNtCsdG3rhVUllIu_5ruchy7backend10transpilerNtB4_10Transpiler9transpile
FNDA:0,_RNvXNtNtCsdG3rhVUllIu_5ruchy7backend10transpilerNtB2_10TranspilerNtNtCs66KPHxksi63_4core7default7Default7default
FNDA:0,_RNvMs_NtNtCsdG3rhVUllIu_5ruchy7backend10transpilerNtB4_10Transpiler15resolve_imports
FNDA:0,_RNCNvMs_NtNtCsdG3rhVUllIu_5ruchy7backend10transpilerNtB6_10Transpiler28collect_signatures_from_expr0Ba_
FNDA:0,_RNCNvMs_NtNtCsdG3rhVUllIu_5ruchy7backend10transpilerNtB6_10Transpiler28transpile_module_declaration0Ba_
FNDA:0,_RNCNvMs_NtNtCsdG3rhVUllIu_5ruchy7backend10transpilerNtB6_10Transpiler30transpile_statement_only_blocks_0Ba_
FNF:38
FNH:1
DA:51,0
DA:52,0
DA:53,0
DA:67,8
DA:68,8
DA:69,8
DA:70,8
DA:71,8
DA:72,8
DA:73,8
DA:77,0
DA:78,0
DA:89,0
DA:92,0
DA:93,0
DA:105,0
DA:108,0
DA:109,0
DA:110,0
DA:111,0
DA:112,0
DA:115,0
DA:116,0
DA:117,0
DA:118,0
DA:119,0
DA:121,0
DA:124,0
DA:125,0
DA:126,0
DA:127,0
DA:128,0
DA:130,0
DA:131,0
DA:132,0
DA:133,0
DA:135,0
DA:137,0
DA:138,0
DA:139,0
DA:140,0
DA:142,0
DA:143,0
DA:144,0
DA:145,0
DA:147,0
DA:149,0
DA:152,0
DA:153,0
DA:154,0
DA:155,0
DA:157,0
DA:159,0
DA:162,0
DA:164,0
DA:165,0
DA:166,0
DA:167,0
DA:168,0
DA:171,0
DA:172,0
DA:173,0
DA:174,0
DA:175,0
DA:178,0
DA:179,0
DA:180,0
DA:181,0
DA:182,0
DA:183,0
DA:184,0
DA:187,0
DA:188,0
DA:189,0
DA:190,0
DA:193,0
DA:194,0
DA:195,0
DA:196,0
DA:197,0
DA:198,0
DA:200,0
DA:201,0
DA:202,0
DA:203,0
DA:204,0
DA:205,0
DA:206,0
DA:207,0
DA:209,0
DA:210,0
DA:211,0
DA:212,0
DA:213,0
DA:216,0
DA:217,0
DA:218,0
DA:219,0
DA:221,0
DA:222,0
DA:223,0
DA:224,0
DA:225,0
DA:226,0
DA:228,0
DA:229,0
DA:230,0
DA:231,0
DA:232,0
DA:233,0
DA:234,0
DA:236,0
DA:237,0
DA:238,0
DA:239,0
DA:240,0
DA:242,0
DA:243,0
DA:244,0
DA:245,0
DA:246,0
DA:248,0
DA:250,0
DA:254,0
DA:256,0
DA:257,0
DA:258,0
DA:261,0
DA:262,0
DA:265,0
DA:266,0
DA:267,0
DA:268,0
DA:269,0
DA:271,0
DA:272,0
DA:292,0
DA:293,0
DA:294,0
DA:297,0
DA:300,0
DA:301,0
DA:302,0
DA:304,0
DA:305,0
DA:307,0
DA:310,0
DA:312,0
DA:314,0
DA:315,0
DA:316,0
DA:317,0
DA:318,0
DA:319,0
DA:321,0
DA:322,0
DA:324,0
DA:326,0
DA:329,0
DA:330,0
DA:331,0
DA:334,0
DA:358,0
DA:360,0
DA:361,0
DA:362,0
DA:363,0
DA:364,0
DA:365,0
DA:366,0
DA:368,0
DA:369,0
DA:370,0
DA:371,0
DA:372,0
DA:373,0
DA:374,0
DA:375,0
DA:378,0
DA:380,0
DA:381,0
DA:382,0
DA:384,0
DA:385,0
DA:386,0
DA:388,0
DA:389,0
DA:392,0
DA:395,0
DA:397,0
DA:399,0
DA:400,0
DA:401,0
DA:403,0
DA:405,0
DA:406,0
DA:407,0
DA:408,0
DA:409,0
DA:410,0
DA:411,0
DA:412,0
DA:413,0
DA:414,0
DA:415,0
DA:416,0
DA:417,0
DA:418,0
DA:419,0
DA:420,0
DA:421,0
DA:422,0
DA:423,0
DA:424,0
DA:425,0
DA:426,0
DA:427,0
DA:428,0
DA:429,0
DA:430,0
DA:431,0
DA:432,0
DA:433,0
DA:434,0
DA:435,0
DA:436,0
DA:437,0
DA:438,0
DA:439,0
DA:440,0
DA:441,0
DA:443,0
DA:445,0
DA:446,0
DA:448,0
DA:449,0
DA:450,0
DA:451,0
DA:453,0
DA:455,0
DA:457,0
DA:458,0
DA:459,0
DA:460,0
DA:461,0
DA:462,0
DA:465,0
DA:466,0
DA:467,0
DA:468,0
DA:469,0
DA:470,0
DA:471,0
DA:473,0
DA:476,0
DA:478,0
DA:480,0
DA:482,0
DA:483,0
DA:484,0
DA:486,0
DA:487,0
DA:488,0
DA:489,0
DA:492,0
DA:496,0
DA:501,0
DA:502,0
DA:504,0
DA:505,0
DA:508,0
DA:510,0
DA:511,0
DA:512,0
DA:515,0
DA:518,0
DA:519,0
DA:520,0
DA:521,0
DA:522,0
DA:523,0
DA:525,0
DA:527,0
DA:529,0
DA:531,0
DA:533,0
DA:536,0
DA:540,0
DA:541,0
DA:542,0
DA:544,0
DA:545,0
DA:548,0
DA:550,0
DA:551,0
DA:554,0
DA:555,0
DA:556,0
DA:557,0
DA:563,0
DA:568,0
DA:569,0
DA:570,0
DA:571,0
DA:572,0
DA:573,0
DA:574,0
DA:575,0
DA:576,0
DA:577,0
DA:578,0
DA:579,0
DA:580,0
DA:581,0
DA:582,0
DA:583,0
DA:584,0
DA:585,0
DA:586,0
DA:587,0
DA:588,0
DA:589,0
DA:590,0
DA:591,0
DA:592,0
DA:596,0
DA:597,0
DA:598,0
DA:600,0
DA:602,0
DA:603,0
DA:605,0
DA:607,0
DA:609,0
DA:611,0
DA:612,0
DA:613,0
DA:615,0
DA:619,0
DA:621,0
DA:623,0
DA:625,0
DA:626,0
DA:628,0
DA:629,0
DA:631,0
DA:634,0
DA:635,0
DA:642,0
DA:648,0
DA:654,0
DA:662,0
DA:663,0
DA:666,0
DA:669,0
DA:670,0
DA:683,0
DA:695,0
DA:707,0
DA:720,0
DA:723,0
DA:724,0
DA:726,0
DA:728,0
DA:730,0
DA:732,0
DA:734,0
DA:735,0
DA:741,0
DA:746,0
DA:751,0
DA:756,0
DA:759,0
DA:760,0
DA:763,0
DA:765,0
DA:768,0
DA:770,0
DA:772,0
DA:774,0
DA:775,0
DA:776,0
DA:777,0
DA:778,0
DA:779,0
DA:780,0
DA:781,0
DA:782,0
DA:783,0
DA:784,0
DA:785,0
DA:786,0
DA:787,0
DA:788,0
DA:789,0
DA:790,0
DA:791,0
DA:792,0
DA:793,0
DA:794,0
DA:795,0
DA:796,0
DA:797,0
DA:798,0
DA:800,0
DA:802,0
DA:803,0
DA:804,0
DA:805,0
DA:806,0
DA:807,0
DA:808,0
DA:809,0
DA:810,0
DA:811,0
DA:812,0
DA:813,0
DA:814,0
DA:815,0
DA:816,0
DA:817,0
DA:818,0
DA:819,0
DA:821,0
DA:822,0
DA:823,0
DA:824,0
DA:825,0
DA:826,0
DA:827,0
DA:830,0
DA:831,0
DA:832,0
DA:833,0
DA:834,0
DA:835,0
DA:838,0
DA:841,0
DA:842,0
DA:845,0
DA:846,0
DA:849,0
DA:850,0
DA:851,0
DA:852,0
DA:853,0
DA:856,0
DA:857,0
DA:860,0
DA:861,0
DA:862,0
DA:865,0
DA:867,0
DA:868,0
DA:869,0
DA:870,0
DA:871,0
DA:872,0
DA:873,0
DA:874,0
DA:876,0
DA:883,0
DA:893,0
DA:896,0
DA:912,0
DA:916,0
DA:922,0
DA:937,0
DA:940,0
DA:943,0
DA:945,0
BRF:0
BRH:0
LF:478
LH:7
end_of_record
SF:/home/noah/src/ruchy/src/backend/transpiler/patterns.rs
FN:120,_RNCNvMNtNtNtCsdG3rhVUllIu_5ruchy7backend10transpiler8patternsNtB6_10Transpiler17transpile_patterns0_0Ba_
FN:30,_RNvMNtNtNtCsdG3rhVUllIu_5ruchy7backend10transpiler8patternsNtB4_10Transpiler15transpile_match
FN:96,_RNvMNtNtNtCsdG3rhVUllIu_5ruchy7backend10transpiler8patternsNtB4_10Transpiler17transpile_pattern
FN:106,_RNCNvMNtNtNtCsdG3rhVUllIu_5ruchy7backend10transpiler8patternsNtB6_10Transpiler17transpile_pattern0Ba_
FN:139,_RNCNvMNtNtNtCsdG3rhVUllIu_5ruchy7backend10transpiler8patternsNtB6_10Transpiler17transpile_patterns1_0Ba_
FN:153,_RNCNvMNtNtNtCsdG3rhVUllIu_5ruchy7backend10transpiler8patternsNtB6_10Transpiler17transpile_patterns2_0Ba_
FN:174,_RNCNvMNtNtNtCsdG3rhVUllIu_5ruchy7backend10transpiler8patternsNtB6_10Transpiler17transpile_patterns3_0Ba_
FN:111,_RNCNvMNtNtNtCsdG3rhVUllIu_5ruchy7backend10transpiler8patternsNtB6_10Transpiler17transpile_patterns_0Ba_
FNDA:0,_RNCNvMNtNtNtCsdG3rhVUllIu_5ruchy7backend10transpiler8patternsNtB6_10Transpiler17transpile_patterns0_0Ba_
FNDA:0,_RNvMNtNtNtCsdG3rhVUllIu_5ruchy7backend10transpiler8patternsNtB4_10Transpiler15transpile_match
FNDA:0,_RNvMNtNtNtCsdG3rhVUllIu_5ruchy7backend10transpiler8patternsNtB4_10Transpiler17transpile_pattern
FNDA:0,_RNCNvMNtNtNtCsdG3rhVUllIu_5ruchy7backend10transpiler8patternsNtB6_10Transpiler17transpile_pattern0Ba_
FNDA:0,_RNCNvMNtNtNtCsdG3rhVUllIu_5ruchy7backend10transpiler8patternsNtB6_10Transpiler17transpile_patterns1_0Ba_
FNDA:0,_RNCNvMNtNtNtCsdG3rhVUllIu_5ruchy7backend10transpiler8patternsNtB6_10Transpiler17transpile_patterns2_0Ba_
FNDA:0,_RNCNvMNtNtNtCsdG3rhVUllIu_5ruchy7backend10transpiler8patternsNtB6_10Transpiler17transpile_patterns3_0Ba_
FNDA:0,_RNCNvMNtNtNtCsdG3rhVUllIu_5ruchy7backend10transpiler8patternsNtB6_10Transpiler17transpile_patterns_0Ba_
FNF:8
FNH:0
DA:30,0
DA:31,0
DA:33,0
DA:34,0
DA:35,0
DA:36,0
DA:39,0
DA:40,0
DA:41,0
DA:44,0
DA:45,0
DA:46,0
DA:47,0
DA:48,0
DA:51,0
DA:56,0
DA:96,0
DA:97,0
DA:98,0
DA:99,0
DA:100,0
DA:101,0
DA:102,0
DA:104,0
DA:106,0
DA:107,0
DA:109,0
DA:110,0
DA:111,0
DA:112,0
DA:113,0
DA:115,0
DA:116,0
DA:117,0
DA:120,0
DA:122,0
DA:124,0
DA:125,0
DA:126,0
DA:127,0
DA:128,0
DA:129,0
DA:130,0
DA:131,0
DA:132,0
DA:135,0
DA:138,0
DA:139,0
DA:140,0
DA:141,0
DA:145,0
DA:146,0
DA:148,0
DA:149,0
DA:151,0
DA:152,0
DA:153,0
DA:154,0
DA:155,0
DA:156,0
DA:157,0
DA:160,0
DA:162,0
DA:163,0
DA:164,0
DA:165,0
DA:166,0
DA:168,0
DA:172,0
DA:173,0
DA:174,0
DA:175,0
DA:178,0
DA:179,0
DA:180,0
DA:181,0
DA:182,0
DA:183,0
DA:185,0
DA:188,0
DA:189,0
DA:190,0
DA:192,0
DA:193,0
DA:195,0
DA:196,0
DA:198,0
DA:201,0
DA:202,0
DA:203,0
DA:204,0
DA:206,0
DA:207,0
DA:208,0
DA:210,0
DA:211,0
DA:212,0
DA:214,0
DA:215,0
DA:216,0
DA:218,0
DA:220,0
BRF:0
BRH:0
LF:108
LH:0
end_of_record
SF:/home/noah/src/ruchy/src/backend/transpiler/result_type.rs
FN:190,_RNCNvMNtNtNtCsdG3rhVUllIu_5ruchy7backend10transpiler11result_typeNtB6_10Transpiler20transpile_error_type0Ba_
FN:178,_RNvMNtNtNtCsdG3rhVUllIu_5ruchy7backend10transpiler11result_typeNtB4_10Transpiler20transpile_error_type
FN:168,_RNvMNtNtNtCsdG3rhVUllIu_5ruchy7backend10transpiler11result_typeNtB4_10Transpiler20transpile_result_map
FN:142,_RNvMNtNtNtCsdG3rhVUllIu_5ruchy7backend10transpiler11result_typeNtB4_10Transpiler22transpile_result_chain
FN:100,_RNvMNtNtNtCsdG3rhVUllIu_5ruchy7backend10transpiler11result_typeNtB4_10Transpiler22transpile_result_match
FN:31,_RNvMNtNtNtCsdG3rhVUllIu_5ruchy7backend10transpiler11result_typeNtB4_10Transpiler23generate_result_helpers
FN:158,_RNvMNtNtNtCsdG3rhVUllIu_5ruchy7backend10transpiler11result_typeNtB4_10Transpiler26transpile_result_unwrap_or
FNDA:0,_RNCNvMNtNtNtCsdG3rhVUllIu_5ruchy7backend10transpiler11result_typeNtB6_10Transpiler20transpile_error_type0Ba_
FNDA:0,_RNvMNtNtNtCsdG3rhVUllIu_5ruchy7backend10transpiler11result_typeNtB4_10Transpiler20transpile_error_type
FNDA:0,_RNvMNtNtNtCsdG3rhVUllIu_5ruchy7backend10transpiler11result_typeNtB4_10Transpiler20transpile_result_map
FNDA:0,_RNvMNtNtNtCsdG3rhVUllIu_5ruchy7backend10transpiler11result_typeNtB4_10Transpiler22transpile_result_chain
FNDA:0,_RNvMNtNtNtCsdG3rhVUllIu_5ruchy7backend10transpiler11result_typeNtB4_10Transpiler22transpile_result_match
FNDA:0,_RNvMNtNtNtCsdG3rhVUllIu_5ruchy7backend10transpiler11result_typeNtB4_10Transpiler23generate_result_helpers
FNDA:0,_RNvMNtNtNtCsdG3rhVUllIu_5ruchy7backend10transpiler11result_typeNtB4_10Transpiler26transpile_result_unwrap_or
FNF:7
FNH:0
DA:31,0
DA:32,0
DA:82,0
DA:100,0
DA:101,0
DA:102,0
DA:103,0
DA:104,0
DA:105,0
DA:106,0
DA:108,0
DA:109,0
DA:110,0
DA:111,0
DA:112,0
DA:113,0
DA:115,0
DA:117,0
DA:120,0
DA:125,0
DA:142,0
DA:143,0
DA:144,0
DA:145,0
DA:147,0
DA:149,0
DA:150,0
DA:151,0
DA:154,0
DA:155,0
DA:158,0
DA:159,0
DA:160,0
DA:162,0
DA:163,0
DA:164,0
DA:165,0
DA:168,0
DA:169,0
DA:170,0
DA:172,0
DA:173,0
DA:174,0
DA:175,0
DA:178,0
DA:179,0
DA:180,0
DA:181,0
DA:182,0
DA:183,0
DA:184,0
DA:186,0
DA:187,0
DA:188,0
DA:190,0
DA:192,0
DA:193,0
DA:194,0
DA:196,0
DA:198,0
DA:201,0
DA:215,0
BRF:0
BRH:0
LF:63
LH:0
end_of_record
SF:/home/noah/src/ruchy/src/backend/transpiler/statements.rs
FN:537,_RNCNvMNtNtNtCsdG3rhVUllIu_5ruchy7backend10transpiler10statementsNtB6_10Transpiler16transpile_lambdas_0Ba_
FN:277,_RNCNvMNtNtNtCsdG3rhVUllIu_5ruchy7backend10transpiler10statementsNtB6_10Transpiler18is_void_expression0Ba_
FN:288,_RNCNvMNtNtNtCsdG3rhVUllIu_5ruchy7backend10transpiler10statementsNtB6_10Transpiler18is_void_expressions0_0Ba_
FN:283,_RNCNvMNtNtNtCsdG3rhVUllIu_5ruchy7backend10transpiler10statementsNtB6_10Transpiler18is_void_expressions_0Ba_
FN:493,_RNCNvMNtNtNtCsdG3rhVUllIu_5ruchy7backend10transpiler10statementsNtB6_10Transpiler18transpile_function0Ba_
FN:51,_RNCNvMNtNtNtCsdG3rhVUllIu_5ruchy7backend10transpiler10statementsNtB6_10Transpiler19is_variable_mutated0Ba_
FN:71,_RNCNvMNtNtNtCsdG3rhVUllIu_5ruchy7backend10transpiler10statementsNtB6_10Transpiler19is_variable_mutateds0_0Ba_
FN:97,_RNCNvMNtNtNtCsdG3rhVUllIu_5ruchy7backend10transpiler10statementsNtB6_10Transpiler19is_variable_mutateds1_0Ba_
FN:101,_RNCNvMNtNtNtCsdG3rhVUllIu_5ruchy7backend10transpiler10statementsNtB6_10Transpiler19is_variable_mutateds2_0Ba_
FN:57,_RNCNvMNtNtNtCsdG3rhVUllIu_5ruchy7backend10transpiler10statementsNtB6_10Transpiler19is_variable_mutateds_0Ba_
FN:1198,_RNCNvMNtNtNtCsdG3rhVUllIu_5ruchy7backend10transpiler10statementsNtB6_10Transpiler33transpile_std_fs_import_with_path0Ba_
FN:109,_RNvMNtNtNtCsdG3rhVUllIu_5ruchy7backend10transpiler10statementsNtB4_10Transpiler12transpile_if
FN:1871,_RNvMNtNtNtCsdG3rhVUllIu_5ruchy7backend10transpiler10statementsNtB4_10Transpiler13transpile_abs
FN:941,_RNvMNtNtNtCsdG3rhVUllIu_5ruchy7backend10transpiler10statementsNtB4_10Transpiler13transpile_for
FN:137,_RNvMNtNtNtCsdG3rhVUllIu_5ruchy7backend10transpiler10statementsNtB4_10Transpiler13transpile_let
FN:1896,_RNvMNtNtNtCsdG3rhVUllIu_5ruchy7backend10transpiler10statementsNtB4_10Transpiler13transpile_max
FN:1883,_RNvMNtNtNtCsdG3rhVUllIu_5ruchy7backend10transpiler10statementsNtB4_10Transpiler13transpile_min
FN:1865,_RNvMNtNtNtCsdG3rhVUllIu_5ruchy7backend10transpiler10statementsNtB4_10Transpiler13transpile_pow
FN:1653,_RNvMNtNtNtCsdG3rhVUllIu_5ruchy7backend10transpiler10statementsNtB4_10Transpiler14path_to_tokens
FN:577,_RNvMNtNtNtCsdG3rhVUllIu_5ruchy7backend10transpiler10statementsNtB4_10Transpiler14transpile_call
FN:1914,_RNvMNtNtNtCsdG3rhVUllIu_5ruchy7backend10transpiler10statementsNtB4_10Transpiler14transpile_ceil
FN:1024,_RNvMNtNtNtCsdG3rhVUllIu_5ruchy7backend10transpiler10statementsNtB4_10Transpiler14transpile_loop
FN:1860,_RNvMNtNtNtCsdG3rhVUllIu_5ruchy7backend10transpiler10statementsNtB4_10Transpiler14transpile_sqrt
FN:876,_RNvMNtNtNtCsdG3rhVUllIu_5ruchy7backend10transpiler10statementsNtB4_10Transpiler15transpile_block
FN:1909,_RNvMNtNtNtCsdG3rhVUllIu_5ruchy7backend10transpiler10statementsNtB4_10Transpiler15transpile_floor
FN:1919,_RNvMNtNtNtCsdG3rhVUllIu_5ruchy7backend10transpiler10statementsNtB4_10Transpiler15transpile_round
FN:965,_RNvMNtNtNtCsdG3rhVUllIu_5ruchy7backend10transpiler10statementsNtB4_10Transpiler15transpile_while
FN:308,_RNvMNtNtNtCsdG3rhVUllIu_5ruchy7backend10transpiler10statementsNtB4_10Transpiler16infer_param_type
FN:1724,_RNvMNtNtNtCsdG3rhVUllIu_5ruchy7backend10transpiler10statementsNtB4_10Transpiler16transpile_export
FN:977,_RNvMNtNtNtCsdG3rhVUllIu_5ruchy7backend10transpiler10statementsNtB4_10Transpiler16transpile_if_let
FN:1080,_RNvMNtNtNtCsdG3rhVUllIu_5ruchy7backend10transpiler10statementsNtB4_10Transpiler16transpile_import
FN:517,_RNvMNtNtNtCsdG3rhVUllIu_5ruchy7backend10transpiler10statementsNtB4_10Transpiler16transpile_lambda
FN:1067,_RNvMNtNtNtCsdG3rhVUllIu_5ruchy7backend10transpiler10statementsNtB4_10Transpiler16transpile_module
FN:254,_RNvMNtNtNtCsdG3rhVUllIu_5ruchy7backend10transpiler10statementsNtB4_10Transpiler18is_void_expression
FN:477,_RNvMNtNtNtCsdG3rhVUllIu_5ruchy7backend10transpiler10statementsNtB4_10Transpiler18transpile_function
FN:903,_RNvMNtNtNtCsdG3rhVUllIu_5ruchy7backend10transpiler10statementsNtB4_10Transpiler18transpile_pipeline
FN:15,_RNvMNtNtNtCsdG3rhVUllIu_5ruchy7backend10transpiler10statementsNtB4_10Transpiler19is_variable_mutated
FN:1007,_RNvMNtNtNtCsdG3rhVUllIu_5ruchy7backend10transpiler10statementsNtB4_10Transpiler19transpile_while_let
FN:365,_RNvMNtNtNtCsdG3rhVUllIu_5ruchy7backend10transpiler10statementsNtB4_10Transpiler20generate_body_tokens
FN:1706,_RNvMNtNtNtCsdG3rhVUllIu_5ruchy7backend10transpiler10statementsNtB4_10Transpiler20process_import_items
FN:2345,_RNvMNtNtNtCsdG3rhVUllIu_5ruchy7backend10transpiler10statementsNtB4_10Transpiler21apply_string_coercion
FN:323,_RNvMNtNtNtCsdG3rhVUllIu_5ruchy7backend10transpiler10statementsNtB4_10Transpiler21generate_param_tokens
FN:1639,_RNvMNtNtNtCsdG3rhVUllIu_5ruchy7backend10transpiler10statementsNtB4_10Transpiler21handle_generic_import
FN:231,_RNvMNtNtNtCsdG3rhVUllIu_5ruchy7backend10transpiler10statementsNtB4_10Transpiler21is_void_function_call
FN:2065,_RNvMNtNtNtCsdG3rhVUllIu_5ruchy7backend10transpiler10statementsNtB4_10Transpiler21transpile_int_generic
FN:195,_RNvMNtNtNtCsdG3rhVUllIu_5ruchy7backend10transpiler10statementsNtB4_10Transpiler21transpile_let_pattern
FN:672,_RNvMNtNtNtCsdG3rhVUllIu_5ruchy7backend10transpiler10statementsNtB4_10Transpiler21transpile_method_call
FN:300,_RNvMNtNtNtCsdG3rhVUllIu_5ruchy7backend10transpiler10statementsNtB4_10Transpiler23has_non_unit_expression
FN:2099,_RNvMNtNtNtCsdG3rhVUllIu_5ruchy7backend10transpiler10statementsNtB4_10Transpiler23transpile_float_generic
FN:1590,_RNvMNtNtNtCsdG3rhVUllIu_5ruchy7backend10transpiler10statementsNtB4_10Transpiler23transpile_import_inline
FN:1601,_RNvMNtNtNtCsdG3rhVUllIu_5ruchy7backend10transpiler10statementsNtB4_10Transpiler24handle_std_module_import
FN:2033,_RNvMNtNtNtCsdG3rhVUllIu_5ruchy7backend10transpiler10statementsNtB4_10Transpiler24transpile_int_conversion
FN:1368,_RNvMNtNtNtCsdG3rhVUllIu_5ruchy7backend10transpiler10statementsNtB4_10Transpiler24transpile_std_mem_import
FN:1318,_RNvMNtNtNtCsdG3rhVUllIu_5ruchy7backend10transpiler10statementsNtB4_10Transpiler24transpile_std_net_import
FN:2024,_RNvMNtNtNtCsdG3rhVUllIu_5ruchy7backend10transpiler10statementsNtB4_10Transpiler24transpile_str_conversion
FN:1671,_RNvMNtNtNtCsdG3rhVUllIu_5ruchy7backend10transpiler10statementsNtB4_10Transpiler25handle_single_import_item
FN:2105,_RNvMNtNtNtCsdG3rhVUllIu_5ruchy7backend10transpiler10statementsNtB4_10Transpiler25transpile_bool_conversion
FN:1438,_RNvMNtNtNtCsdG3rhVUllIu_5ruchy7backend10transpiler10statementsNtB4_10Transpiler25transpile_std_simd_import
FN:1750,_RNvMNtNtNtCsdG3rhVUllIu_5ruchy7backend10transpiler10statementsNtB4_10Transpiler25try_transpile_print_macro
FN:1975,_RNvMNtNtNtCsdG3rhVUllIu_5ruchy7backend10transpiler10statementsNtB4_10Transpiler26generate_input_with_prompt
FN:398,_RNvMNtNtNtCsdG3rhVUllIu_5ruchy7backend10transpiler10statementsNtB4_10Transpiler26generate_type_param_tokens
FN:2071,_RNvMNtNtNtCsdG3rhVUllIu_5ruchy7backend10transpiler10statementsNtB4_10Transpiler26transpile_float_conversion
FN:1522,_RNvMNtNtNtCsdG3rhVUllIu_5ruchy7backend10transpiler10statementsNtB4_10Transpiler26transpile_std_bench_import
FN:1490,_RNvMNtNtNtCsdG3rhVUllIu_5ruchy7backend10transpiler10statementsNtB4_10Transpiler26transpile_std_cache_import
FN:415,_RNvMNtNtNtCsdG3rhVUllIu_5ruchy7backend10transpiler10statementsNtB4_10Transpiler27generate_function_signature
FN:1156,_RNvMNtNtNtCsdG3rhVUllIu_5ruchy7backend10transpiler10statementsNtB4_10Transpiler27generate_read_file_function
FN:344,_RNvMNtNtNtCsdG3rhVUllIu_5ruchy7backend10transpiler10statementsNtB4_10Transpiler27generate_return_type_tokens
FN:220,_RNvMNtNtNtCsdG3rhVUllIu_5ruchy7backend10transpiler10statementsNtB4_10Transpiler27looks_like_numeric_function
FN:1291,_RNvMNtNtNtCsdG3rhVUllIu_5ruchy7backend10transpiler10statementsNtB4_10Transpiler27transpile_std_signal_import
FN:1267,_RNvMNtNtNtCsdG3rhVUllIu_5ruchy7backend10transpiler10statementsNtB4_10Transpiler27transpile_std_system_import
FN:1846,_RNvMNtNtNtCsdG3rhVUllIu_5ruchy7backend10transpiler10statementsNtB4_10Transpiler27try_transpile_math_function
FN:1174,_RNvMNtNtNtCsdG3rhVUllIu_5ruchy7backend10transpiler10statementsNtB4_10Transpiler28generate_all_file_operations
FN:1165,_RNvMNtNtNtCsdG3rhVUllIu_5ruchy7backend10transpiler10statementsNtB4_10Transpiler28generate_write_file_function
FN:1697,_RNvMNtNtNtCsdG3rhVUllIu_5ruchy7backend10transpiler10statementsNtB4_10Transpiler28handle_multiple_import_items
FN:1035,_RNvMNtNtNtCsdG3rhVUllIu_5ruchy7backend10transpiler10statementsNtB4_10Transpiler28transpile_list_comprehension
FN:1244,_RNvMNtNtNtCsdG3rhVUllIu_5ruchy7backend10transpiler10statementsNtB4_10Transpiler28transpile_std_process_import
FN:1559,_RNvMNtNtNtCsdG3rhVUllIu_5ruchy7backend10transpiler10statementsNtB4_10Transpiler28transpile_std_profile_import
FN:1937,_RNvMNtNtNtCsdG3rhVUllIu_5ruchy7backend10transpiler10statementsNtB4_10Transpiler28try_transpile_input_function
FN:2149,_RNvMNtNtNtCsdG3rhVUllIu_5ruchy7backend10transpiler10statementsNtB4_10Transpiler28try_transpile_math_functions
FN:1958,_RNvMNtNtNtCsdG3rhVUllIu_5ruchy7backend10transpiler10statementsNtB4_10Transpiler29generate_input_without_prompt
FN:1786,_RNvMNtNtNtCsdG3rhVUllIu_5ruchy7backend10transpiler10statementsNtB4_10Transpiler29transpile_print_multiple_args
FN:1405,_RNvMNtNtNtCsdG3rhVUllIu_5ruchy7backend10transpiler10statementsNtB4_10Transpiler29transpile_std_parallel_import
FN:2210,_RNvMNtNtNtCsdG3rhVUllIu_5ruchy7backend10transpiler10statementsNtB4_10Transpiler29try_transpile_assert_function
FN:2005,_RNvMNtNtNtCsdG3rhVUllIu_5ruchy7backend10transpiler10statementsNtB4_10Transpiler29try_transpile_type_conversion
FN:2315,_RNvMNtNtNtCsdG3rhVUllIu_5ruchy7backend10transpiler10statementsNtB4_10Transpiler31transpile_regular_function_call
FN:2293,_RNvMNtNtNtCsdG3rhVUllIu_5ruchy7backend10transpiler10statementsNtB4_10Transpiler32try_transpile_dataframe_function
FN:1185,_RNvMNtNtNtCsdG3rhVUllIu_5ruchy7backend10transpiler10statementsNtB4_10Transpiler33transpile_std_fs_import_with_path
FN:2013,_RNvMNtNtNtCsdG3rhVUllIu_5ruchy7backend10transpiler10statementsNtB4_10Transpiler33try_transpile_type_conversion_old
FN:628,_RNvMNtNtNtCsdG3rhVUllIu_5ruchy7backend10transpiler10statementsNtB4_10Transpiler34transpile_print_with_interpolation
FN:2272,_RNvMNtNtNtCsdG3rhVUllIu_5ruchy7backend10transpiler10statementsNtB4_10Transpiler36try_transpile_collection_constructor
FN:1097,_RNCNvMNtNtNtCsdG3rhVUllIu_5ruchy7backend10transpiler10statementsNtB6_10Transpiler23transpile_std_fs_import0Ba_
FN:692,_RNCNvMNtNtNtCsdG3rhVUllIu_5ruchy7backend10transpiler10statementsNtB6_10Transpiler25transpile_method_call_old0Ba_
FN:1089,_RNvMNtNtNtCsdG3rhVUllIu_5ruchy7backend10transpiler10statementsNtB4_10Transpiler23transpile_std_fs_import
FN:772,_RNvMNtNtNtCsdG3rhVUllIu_5ruchy7backend10transpiler10statementsNtB4_10Transpiler24transpile_set_operations
FN:787,_RNvMNtNtNtCsdG3rhVUllIu_5ruchy7backend10transpiler10statementsNtB4_10Transpiler24transpile_string_methods
FN:754,_RNvMNtNtNtCsdG3rhVUllIu_5ruchy7backend10transpiler10statementsNtB4_10Transpiler25transpile_map_set_methods
FN:684,_RNvMNtNtNtCsdG3rhVUllIu_5ruchy7backend10transpiler10statementsNtB4_10Transpiler25transpile_method_call_old
FN:735,_RNvMNtNtNtCsdG3rhVUllIu_5ruchy7backend10transpiler10statementsNtB4_10Transpiler26transpile_iterator_methods
FN:825,_RNvMNtNtNtCsdG3rhVUllIu_5ruchy7backend10transpiler10statementsNtB4_10Transpiler37transpile_advanced_collection_methods
FN:442,_RNCNCNCNvMNtNtNtCsdG3rhVUllIu_5ruchy7backend10transpiler10statementsNtBa_10Transpiler27generate_function_signature000Be_
FN:404,_RNCNCNvMNtNtNtCsdG3rhVUllIu_5ruchy7backend10transpiler10statementsNtB8_10Transpiler26generate_type_param_tokens00Bc_
FN:442,_RNCNCNvMNtNtNtCsdG3rhVUllIu_5ruchy7backend10transpiler10statementsNtB8_10Transpiler27generate_function_signature00Bc_
FN:1725,_RNCNvMNtNtNtCsdG3rhVUllIu_5ruchy7backend10transpiler10statementsNtB6_10Transpiler16transpile_export0Ba_
FN:520,_RNCNvMNtNtNtCsdG3rhVUllIu_5ruchy7backend10transpiler10statementsNtB6_10Transpiler16transpile_lambda0Ba_
FN:915,_RNCNvMNtNtNtCsdG3rhVUllIu_5ruchy7backend10transpiler10statementsNtB6_10Transpiler18transpile_pipeline0Ba_
FN:924,_RNCNvMNtNtNtCsdG3rhVUllIu_5ruchy7backend10transpiler10statementsNtB6_10Transpiler18transpile_pipelines_0Ba_
FN:380,_RNCNvMNtNtNtCsdG3rhVUllIu_5ruchy7backend10transpiler10statementsNtB6_10Transpiler20generate_body_tokens0Ba_
FN:1709,_RNCNvMNtNtNtCsdG3rhVUllIu_5ruchy7backend10transpiler10statementsNtB6_10Transpiler20process_import_items0Ba_
FN:326,_RNCNvMNtNtNtCsdG3rhVUllIu_5ruchy7backend10transpiler10statementsNtB6_10Transpiler21generate_param_tokens0Ba_
FN:1780,_RNCNvMNtNtNtCsdG3rhVUllIu_5ruchy7backend10transpiler10statementsNtB6_10Transpiler25try_transpile_print_macro0Ba_
FN:401,_RNCNvMNtNtNtCsdG3rhVUllIu_5ruchy7backend10transpiler10statementsNtB6_10Transpiler26generate_type_param_tokens0Ba_
FN:436,_RNCNvMNtNtNtCsdG3rhVUllIu_5ruchy7backend10transpiler10statementsNtB6_10Transpiler27generate_function_signature0Ba_
FN:1797,_RNCNvMNtNtNtCsdG3rhVUllIu_5ruchy7backend10transpiler10statementsNtB6_10Transpiler29transpile_print_multiple_args0Ba_
FN:1822,_RNCNvMNtNtNtCsdG3rhVUllIu_5ruchy7backend10transpiler10statementsNtB6_10Transpiler29transpile_print_multiple_argss_0Ba_
FN:2325,_RNCNvMNtNtNtCsdG3rhVUllIu_5ruchy7backend10transpiler10statementsNtB6_10Transpiler31transpile_regular_function_call0Ba_
FN:2337,_RNCNvMNtNtNtCsdG3rhVUllIu_5ruchy7backend10transpiler10statementsNtB6_10Transpiler31transpile_regular_function_calls_0Ba_
FNDA:0,_RNCNvMNtNtNtCsdG3rhVUllIu_5ruchy7backend10transpiler10statementsNtB6_10Transpiler16transpile_lambdas_0Ba_
FNDA:0,_RNCNvMNtNtNtCsdG3rhVUllIu_5ruchy7backend10transpiler10statementsNtB6_10Transpiler18is_void_expression0Ba_
FNDA:0,_RNCNvMNtNtNtCsdG3rhVUllIu_5ruchy7backend10transpiler10statementsNtB6_10Transpiler18is_void_expressions0_0Ba_
FNDA:0,_RNCNvMNtNtNtCsdG3rhVUllIu_5ruchy7backend10transpiler10statementsNtB6_10Transpiler18is_void_expressions_0Ba_
FNDA:0,_RNCNvMNtNtNtCsdG3rhVUllIu_5ruchy7backend10transpiler10statementsNtB6_10Transpiler18transpile_function0Ba_
FNDA:0,_RNCNvMNtNtNtCsdG3rhVUllIu_5ruchy7backend10transpiler10statementsNtB6_10Transpiler19is_variable_mutated0Ba_
FNDA:0,_RNCNvMNtNtNtCsdG3rhVUllIu_5ruchy7backend10transpiler10statementsNtB6_10Transpiler19is_variable_mutateds0_0Ba_
FNDA:0,_RNCNvMNtNtNtCsdG3rhVUllIu_5ruchy7backend10transpiler10statementsNtB6_10Transpiler19is_variable_mutateds1_0Ba_
FNDA:0,_RNCNvMNtNtNtCsdG3rhVUllIu_5ruchy7backend10transpiler10statementsNtB6_10Transpiler19is_variable_mutateds2_0Ba_
FNDA:0,_RNCNvMNtNtNtCsdG3rhVUllIu_5ruchy7backend10transpiler10statementsNtB6_10Transpiler19is_variable_mutateds_0Ba_
FNDA:0,_RNCNvMNtNtNtCsdG3rhVUllIu_5ruchy7backend10transpiler10statementsNtB6_10Transpiler33transpile_std_fs_import_with_path0Ba_
FNDA:0,_RNvMNtNtNtCsdG3rhVUllIu_5ruchy7backend10transpiler10statementsNtB4_10Transpiler12transpile_if
FNDA:0,_RNvMNtNtNtCsdG3rhVUllIu_5ruchy7backend10transpiler10statementsNtB4_10Transpiler13transpile_abs
FNDA:0,_RNvMNtNtNtCsdG3rhVUllIu_5ruchy7backend10transpiler10statementsNtB4_10Transpiler13transpile_for
FNDA:0,_RNvMNtNtNtCsdG3rhVUllIu_5ruchy7backend10transpiler10statementsNtB4_10Transpiler13transpile_let
FNDA:0,_RNvMNtNtNtCsdG3rhVUllIu_5ruchy7backend10transpiler10statementsNtB4_10Transpiler13transpile_max
FNDA:0,_RNvMNtNtNtCsdG3rhVUllIu_5ruchy7backend10transpiler10statementsNtB4_10Transpiler13transpile_min
FNDA:0,_RNvMNtNtNtCsdG3rhVUllIu_5ruchy7backend10transpiler10statementsNtB4_10Transpiler13transpile_pow
FNDA:0,_RNvMNtNtNtCsdG3rhVUllIu_5ruchy7backend10transpiler10statementsNtB4_10Transpiler14path_to_tokens
FNDA:0,_RNvMNtNtNtCsdG3rhVUllIu_5ruchy7backend10transpiler10statementsNtB4_10Transpiler14transpile_call
FNDA:0,_RNvMNtNtNtCsdG3rhVUllIu_5ruchy7backend10transpiler10statementsNtB4_10Transpiler14transpile_ceil
FNDA:0,_RNvMNtNtNtCsdG3rhVUllIu_5ruchy7backend10transpiler10statementsNtB4_10Transpiler14transpile_loop
FNDA:0,_RNvMNtNtNtCsdG3rhVUllIu_5ruchy7backend10transpiler10statementsNtB4_10Transpiler14transpile_sqrt
FNDA:0,_RNvMNtNtNtCsdG3rhVUllIu_5ruchy7backend10transpiler10statementsNtB4_10Transpiler15transpile_block
FNDA:0,_RNvMNtNtNtCsdG3rhVUllIu_5ruchy7backend10transpiler10statementsNtB4_10Transpiler15transpile_floor
FNDA:0,_RNvMNtNtNtCsdG3rhVUllIu_5ruchy7backend10transpiler10statementsNtB4_10Transpiler15transpile_round
FNDA:0,_RNvMNtNtNtCsdG3rhVUllIu_5ruchy7backend10transpiler10statementsNtB4_10Transpiler15transpile_while
FNDA:0,_RNvMNtNtNtCsdG3rhVUllIu_5ruchy7backend10transpiler10statementsNtB4_10Transpiler16infer_param_type
FNDA:0,_RNvMNtNtNtCsdG3rhVUllIu_5ruchy7backend10transpiler10statementsNtB4_10Transpiler16transpile_export
FNDA:0,_RNvMNtNtNtCsdG3rhVUllIu_5ruchy7backend10transpiler10statementsNtB4_10Transpiler16transpile_if_let
FNDA:0,_RNvMNtNtNtCsdG3rhVUllIu_5ruchy7backend10transpiler10statementsNtB4_10Transpiler16transpile_import
FNDA:0,_RNvMNtNtNtCsdG3rhVUllIu_5ruchy7backend10transpiler10statementsNtB4_10Transpiler16transpile_lambda
FNDA:0,_RNvMNtNtNtCsdG3rhVUllIu_5ruchy7backend10transpiler10statementsNtB4_10Transpiler16transpile_module
FNDA:0,_RNvMNtNtNtCsdG3rhVUllIu_5ruchy7backend10transpiler10statementsNtB4_10Transpiler18is_void_expression
FNDA:0,_RNvMNtNtNtCsdG3rhVUllIu_5ruchy7backend10transpiler10statementsNtB4_10Transpiler18transpile_function
FNDA:0,_RNvMNtNtNtCsdG3rhVUllIu_5ruchy7backend10transpiler10statementsNtB4_10Transpiler18transpile_pipeline
FNDA:0,_RNvMNtNtNtCsdG3rhVUllIu_5ruchy7backend10transpiler10statementsNtB4_10Transpiler19is_variable_mutated
FNDA:0,_RNvMNtNtNtCsdG3rhVUllIu_5ruchy7backend10transpiler10statementsNtB4_10Transpiler19transpile_while_let
FNDA:0,_RNvMNtNtNtCsdG3rhVUllIu_5ruchy7backend10transpiler10statementsNtB4_10Transpiler20generate_body_tokens
FNDA:0,_RNvMNtNtNtCsdG3rhVUllIu_5ruchy7backend10transpiler10statementsNtB4_10Transpiler20process_import_items
FNDA:0,_RNvMNtNtNtCsdG3rhVUllIu_5ruchy7backend10transpiler10statementsNtB4_10Transpiler21apply_string_coercion
FNDA:0,_RNvMNtNtNtCsdG3rhVUllIu_5ruchy7backend10transpiler10statementsNtB4_10Transpiler21generate_param_tokens
FNDA:0,_RNvMNtNtNtCsdG3rhVUllIu_5ruchy7backend10transpiler10statementsNtB4_10Transpiler21handle_generic_import
FNDA:0,_RNvMNtNtNtCsdG3rhVUllIu_5ruchy7backend10transpiler10statementsNtB4_10Transpiler21is_void_function_call
FNDA:0,_RNvMNtNtNtCsdG3rhVUllIu_5ruchy7backend10transpiler10statementsNtB4_10Transpiler21transpile_int_generic
FNDA:0,_RNvMNtNtNtCsdG3rhVUllIu_5ruchy7backend10transpiler10statementsNtB4_10Transpiler21transpile_let_pattern
FNDA:0,_RNvMNtNtNtCsdG3rhVUllIu_5ruchy7backend10transpiler10statementsNtB4_10Transpiler21transpile_method_call
FNDA:0,_RNvMNtNtNtCsdG3rhVUllIu_5ruchy7backend10transpiler10statementsNtB4_10Transpiler23has_non_unit_expression
FNDA:0,_RNvMNtNtNtCsdG3rhVUllIu_5ruchy7backend10transpiler10statementsNtB4_10Transpiler23transpile_float_generic
FNDA:0,_RNvMNtNtNtCsdG3rhVUllIu_5ruchy7backend10transpiler10statementsNtB4_10Transpiler23transpile_import_inline
FNDA:0,_RNvMNtNtNtCsdG3rhVUllIu_5ruchy7backend10transpiler10statementsNtB4_10Transpiler24handle_std_module_import
FNDA:0,_RNvMNtNtNtCsdG3rhVUllIu_5ruchy7backend10transpiler10statementsNtB4_10Transpiler24transpile_int_conversion
FNDA:0,_RNvMNtNtNtCsdG3rhVUllIu_5ruchy7backend10transpiler10statementsNtB4_10Transpiler24transpile_std_mem_import
FNDA:0,_RNvMNtNtNtCsdG3rhVUllIu_5ruchy7backend10transpiler10statementsNtB4_10Transpiler24transpile_std_net_import
FNDA:0,_RNvMNtNtNtCsdG3rhVUllIu_5ruchy7backend10transpiler10statementsNtB4_10Transpiler24transpile_str_conversion
FNDA:0,_RNvMNtNtNtCsdG3rhVUllIu_5ruchy7backend10transpiler10statementsNtB4_10Transpiler25handle_single_import_item
FNDA:0,_RNvMNtNtNtCsdG3rhVUllIu_5ruchy7backend10transpiler10statementsNtB4_10Transpiler25transpile_bool_conversion
FNDA:0,_RNvMNtNtNtCsdG3rhVUllIu_5ruchy7backend10transpiler10statementsNtB4_10Transpiler25transpile_std_simd_import
FNDA:0,_RNvMNtNtNtCsdG3rhVUllIu_5ruchy7backend10transpiler10statementsNtB4_10Transpiler25try_transpile_print_macro
FNDA:0,_RNvMNtNtNtCsdG3rhVUllIu_5ruchy7backend10transpiler10statementsNtB4_10Transpiler26generate_input_with_prompt
FNDA:0,_RNvMNtNtNtCsdG3rhVUllIu_5ruchy7backend10transpiler10statementsNtB4_10Transpiler26generate_type_param_tokens
FNDA:0,_RNvMNtNtNtCsdG3rhVUllIu_5ruchy7backend10transpiler10statementsNtB4_10Transpiler26transpile_float_conversion
FNDA:0,_RNvMNtNtNtCsdG3rhVUllIu_5ruchy7backend10transpiler10statementsNtB4_10Transpiler26transpile_std_bench_import
FNDA:0,_RNvMNtNtNtCsdG3rhVUllIu_5ruchy7backend10transpiler10statementsNtB4_10Transpiler26transpile_std_cache_import
FNDA:0,_RNvMNtNtNtCsdG3rhVUllIu_5ruchy7backend10transpiler10statementsNtB4_10Transpiler27generate_function_signature
FNDA:0,_RNvMNtNtNtCsdG3rhVUllIu_5ruchy7backend10transpiler10statementsNtB4_10Transpiler27generate_read_file_function
FNDA:0,_RNvMNtNtNtCsdG3rhVUllIu_5ruchy7backend10transpiler10statementsNtB4_10Transpiler27generate_return_type_tokens
FNDA:0,_RNvMNtNtNtCsdG3rhVUllIu_5ruchy7backend10transpiler10statementsNtB4_10Transpiler27looks_like_numeric_function
FNDA:0,_RNvMNtNtNtCsdG3rhVUllIu_5ruchy7backend10transpiler10statementsNtB4_10Transpiler27transpile_std_signal_import
FNDA:0,_RNvMNtNtNtCsdG3rhVUllIu_5ruchy7backend10transpiler10statementsNtB4_10Transpiler27transpile_std_system_import
FNDA:0,_RNvMNtNtNtCsdG3rhVUllIu_5ruchy7backend10transpiler10statementsNtB4_10Transpiler27try_transpile_math_function
FNDA:0,_RNvMNtNtNtCsdG3rhVUllIu_5ruchy7backend10transpiler10statementsNtB4_10Transpiler28generate_all_file_operations
FNDA:0,_RNvMNtNtNtCsdG3rhVUllIu_5ruchy7backend10transpiler10statementsNtB4_10Transpiler28generate_write_file_function
FNDA:0,_RNvMNtNtNtCsdG3rhVUllIu_5ruchy7backend10transpiler10statementsNtB4_10Transpiler28handle_multiple_import_items
FNDA:0,_RNvMNtNtNtCsdG3rhVUllIu_5ruchy7backend10transpiler10statementsNtB4_10Transpiler28transpile_list_comprehension
FNDA:0,_RNvMNtNtNtCsdG3rhVUllIu_5ruchy7backend10transpiler10statementsNtB4_10Transpiler28transpile_std_process_import
FNDA:0,_RNvMNtNtNtCsdG3rhVUllIu_5ruchy7backend10transpiler10statementsNtB4_10Transpiler28transpile_std_profile_import
FNDA:0,_RNvMNtNtNtCsdG3rhVUllIu_5ruchy7backend10transpiler10statementsNtB4_10Transpiler28try_transpile_input_function
FNDA:0,_RNvMNtNtNtCsdG3rhVUllIu_5ruchy7backend10transpiler10statementsNtB4_10Transpiler28try_transpile_math_functions
FNDA:0,_RNvMNtNtNtCsdG3rhVUllIu_5ruchy7backend10transpiler10statementsNtB4_10Transpiler29generate_input_without_prompt
FNDA:0,_RNvMNtNtNtCsdG3rhVUllIu_5ruchy7backend10transpiler10statementsNtB4_10Transpiler29transpile_print_multiple_args
FNDA:0,_RNvMNtNtNtCsdG3rhVUllIu_5ruchy7backend10transpiler10statementsNtB4_10Transpiler29transpile_std_parallel_import
FNDA:0,_RNvMNtNtNtCsdG3rhVUllIu_5ruchy7backend10transpiler10statementsNtB4_10Transpiler29try_transpile_assert_function
FNDA:0,_RNvMNtNtNtCsdG3rhVUllIu_5ruchy7backend10transpiler10statementsNtB4_10Transpiler29try_transpile_type_conversion
FNDA:0,_RNvMNtNtNtCsdG3rhVUllIu_5ruchy7backend10transpiler10statementsNtB4_10Transpiler31transpile_regular_function_call
FNDA:0,_RNvMNtNtNtCsdG3rhVUllIu_5ruchy7backend10transpiler10statementsNtB4_10Transpiler32try_transpile_dataframe_function
FNDA:0,_RNvMNtNtNtCsdG3rhVUllIu_5ruchy7backend10transpiler10statementsNtB4_10Transpiler33transpile_std_fs_import_with_path
FNDA:0,_RNvMNtNtNtCsdG3rhVUllIu_5ruchy7backend10transpiler10statementsNtB4_10Transpiler33try_transpile_type_conversion_old
FNDA:0,_RNvMNtNtNtCsdG3rhVUllIu_5ruchy7backend10transpiler10statementsNtB4_10Transpiler34transpile_print_with_interpolation
FNDA:0,_RNvMNtNtNtCsdG3rhVUllIu_5ruchy7backend10transpiler10statementsNtB4_10Transpiler36try_transpile_collection_constructor
FNDA:0,_RNCNvMNtNtNtCsdG3rhVUllIu_5ruchy7backend10transpiler10statementsNtB6_10Transpiler23transpile_std_fs_import0Ba_
FNDA:0,_RNCNvMNtNtNtCsdG3rhVUllIu_5ruchy7backend10transpiler10statementsNtB6_10Transpiler25transpile_method_call_old0Ba_
FNDA:0,_RNvMNtNtNtCsdG3rhVUllIu_5ruchy7backend10transpiler10statementsNtB4_10Transpiler23transpile_std_fs_import
FNDA:0,_RNvMNtNtNtCsdG3rhVUllIu_5ruchy7backend10transpiler10statementsNtB4_10Transpiler24transpile_set_operations
FNDA:0,_RNvMNtNtNtCsdG3rhVUllIu_5ruchy7backend10transpiler10statementsNtB4_10Transpiler24transpile_string_methods
FNDA:0,_RNvMNtNtNtCsdG3rhVUllIu_5ruchy7backend10transpiler10statementsNtB4_10Transpiler25transpile_map_set_methods
FNDA:0,_RNvMNtNtNtCsdG3rhVUllIu_5ruchy7backend10transpiler10statementsNtB4_10Transpiler25transpile_method_call_old
FNDA:0,_RNvMNtNtNtCsdG3rhVUllIu_5ruchy7backend10transpiler10statementsNtB4_10Transpiler26transpile_iterator_methods
FNDA:0,_RNvMNtNtNtCsdG3rhVUllIu_5ruchy7backend10transpiler10statementsNtB4_10Transpiler37transpile_advanced_collection_methods
FNDA:0,_RNCNCNCNvMNtNtNtCsdG3rhVUllIu_5ruchy7backend10transpiler10statementsNtBa_10Transpiler27generate_function_signature000Be_
FNDA:0,_RNCNCNvMNtNtNtCsdG3rhVUllIu_5ruchy7backend10transpiler10statementsNtB8_10Transpiler26generate_type_param_tokens00Bc_
FNDA:0,_RNCNCNvMNtNtNtCsdG3rhVUllIu_5ruchy7backend10transpiler10statementsNtB8_10Transpiler27generate_function_signature00Bc_
FNDA:0,_RNCNvMNtNtNtCsdG3rhVUllIu_5ruchy7backend10transpiler10statementsNtB6_10Transpiler16transpile_export0Ba_
FNDA:0,_RNCNvMNtNtNtCsdG3rhVUllIu_5ruchy7backend10transpiler10statementsNtB6_10Transpiler16transpile_lambda0Ba_
FNDA:0,_RNCNvMNtNtNtCsdG3rhVUllIu_5ruchy7backend10transpiler10statementsNtB6_10Transpiler18transpile_pipeline0Ba_
FNDA:0,_RNCNvMNtNtNtCsdG3rhVUllIu_5ruchy7backend10transpiler10statementsNtB6_10Transpiler18transpile_pipelines_0Ba_
FNDA:0,_RNCNvMNtNtNtCsdG3rhVUllIu_5ruchy7backend10transpiler10statementsNtB6_10Transpiler20generate_body_tokens0Ba_
FNDA:0,_RNCNvMNtNtNtCsdG3rhVUllIu_5ruchy7backend10transpiler10statementsNtB6_10Transpiler20process_import_items0Ba_
FNDA:0,_RNCNvMNtNtNtCsdG3rhVUllIu_5ruchy7backend10transpiler10statementsNtB6_10Transpiler21generate_param_tokens0Ba_
FNDA:0,_RNCNvMNtNtNtCsdG3rhVUllIu_5ruchy7backend10transpiler10statementsNtB6_10Transpiler25try_transpile_print_macro0Ba_
FNDA:0,_RNCNvMNtNtNtCsdG3rhVUllIu_5ruchy7backend10transpiler10statementsNtB6_10Transpiler26generate_type_param_tokens0Ba_
FNDA:0,_RNCNvMNtNtNtCsdG3rhVUllIu_5ruchy7backend10transpiler10statementsNtB6_10Transpiler27generate_function_signature0Ba_
FNDA:0,_RNCNvMNtNtNtCsdG3rhVUllIu_5ruchy7backend10transpiler10statementsNtB6_10Transpiler29transpile_print_multiple_args0Ba_
FNDA:0,_RNCNvMNtNtNtCsdG3rhVUllIu_5ruchy7backend10transpiler10statementsNtB6_10Transpiler29transpile_print_multiple_argss_0Ba_
FNDA:0,_RNCNvMNtNtNtCsdG3rhVUllIu_5ruchy7backend10transpiler10statementsNtB6_10Transpiler31transpile_regular_function_call0Ba_
FNDA:0,_RNCNvMNtNtNtCsdG3rhVUllIu_5ruchy7backend10transpiler10statementsNtB6_10Transpiler31transpile_regular_function_calls_0Ba_
FNF:116
FNH:0
DA:15,0
DA:18,0
DA:20,0
DA:21,0
DA:22,0
DA:23,0
DA:24,0
DA:25,0
DA:26,0
DA:29,0
DA:30,0
DA:31,0
DA:32,0
DA:33,0
DA:34,0
DA:35,0
DA:38,0
DA:39,0
DA:40,0
DA:41,0
DA:42,0
DA:43,0
DA:44,0
DA:45,0
DA:46,0
DA:47,0
DA:50,0
DA:51,0
DA:54,0
DA:55,0
DA:56,0
DA:57,0
DA:60,0
DA:61,0
DA:62,0
DA:65,0
DA:66,0
DA:69,0
DA:70,0
DA:71,0
DA:74,0
DA:75,0
DA:78,0
DA:79,0
DA:82,0
DA:83,0
DA:86,0
DA:87,0
DA:88,0
DA:91,0
DA:92,0
DA:95,0
DA:96,0
DA:97,0
DA:99,0
DA:100,0
DA:101,0
DA:104,0
DA:106,0
DA:109,0
DA:110,0
DA:111,0
DA:112,0
DA:113,0
DA:114,0
DA:115,0
DA:116,0
DA:118,0
DA:119,0
DA:120,0
DA:121,0
DA:122,0
DA:123,0
DA:124,0
DA:125,0
DA:126,0
DA:128,0
DA:129,0
DA:130,0
DA:131,0
DA:132,0
DA:134,0
DA:137,0
DA:138,0
DA:139,0
DA:140,0
DA:141,0
DA:142,0
DA:143,0
DA:145,0
DA:146,0
DA:148,0
DA:150,0
DA:153,0
DA:154,0
DA:155,0
DA:159,0
DA:160,0
DA:161,0
DA:163,0
DA:167,0
DA:168,0
DA:169,0
DA:171,0
DA:175,0
DA:176,0
DA:177,0
DA:178,0
DA:179,0
DA:180,0
DA:181,0
DA:182,0
DA:184,0
DA:185,0
DA:186,0
DA:187,0
DA:188,0
DA:189,0
DA:192,0
DA:195,0
DA:196,0
DA:197,0
DA:198,0
DA:199,0
DA:200,0
DA:201,0
DA:202,0
DA:205,0
DA:206,0
DA:209,0
DA:210,0
DA:211,0
DA:212,0
DA:213,0
DA:214,0
DA:215,0
DA:217,0
DA:220,0
DA:221,0
DA:222,0
DA:223,0
DA:224,0
DA:225,0
DA:227,0
DA:231,0
DA:232,0
DA:233,0
DA:234,0
DA:236,0
DA:238,0
DA:240,0
DA:242,0
DA:243,0
DA:246,0
DA:249,0
DA:251,0
DA:254,0
DA:255,0
DA:257,0
DA:260,0
DA:264,0
DA:268,0
DA:271,0
DA:272,0
DA:276,0
DA:277,0
DA:281,0
DA:282,0
DA:283,0
DA:287,0
DA:288,0
DA:292,0
DA:295,0
DA:297,0
DA:300,0
DA:301,0
DA:302,0
DA:308,0
DA:311,0
DA:312,0
DA:313,0
DA:314,0
DA:315,0
DA:316,0
DA:318,0
DA:320,0
DA:323,0
DA:324,0
DA:325,0
DA:326,0
DA:327,0
DA:328,0
DA:329,0
DA:330,0
DA:331,0
DA:333,0
DA:336,0
DA:338,0
DA:339,0
DA:340,0
DA:341,0
DA:344,0
DA:346,0
DA:347,0
DA:348,0
DA:350,0
DA:351,0
DA:352,0
DA:353,0
DA:354,0
DA:355,0
DA:356,0
DA:357,0
DA:358,0
DA:360,0
DA:362,0
DA:365,0
DA:366,0
DA:367,0
DA:368,0
DA:369,0
DA:372,0
DA:373,0
DA:375,0
DA:377,0
DA:380,0
DA:381,0
DA:382,0
DA:383,0
DA:385,0
DA:391,0
DA:395,0
DA:398,0
DA:399,0
DA:400,0
DA:401,0
DA:402,0
DA:404,0
DA:407,0
DA:408,0
DA:410,0
DA:411,0
DA:412,0
DA:415,0
DA:416,0
DA:417,0
DA:418,0
DA:419,0
DA:420,0
DA:421,0
DA:422,0
DA:423,0
DA:424,0
DA:425,0
DA:427,0
DA:428,0
DA:430,0
DA:432,0
DA:435,0
DA:436,0
DA:437,0
DA:438,0
DA:439,0
DA:441,0
DA:442,0
DA:443,0
DA:444,0
DA:446,0
DA:447,0
DA:449,0
DA:450,0
DA:456,0
DA:462,0
DA:468,0
DA:475,0
DA:477,0
DA:478,0
DA:479,0
DA:480,0
DA:481,0
DA:482,0
DA:483,0
DA:484,0
DA:485,0
DA:486,0
DA:487,0
DA:488,0
DA:489,0
DA:490,0
DA:493,0
DA:495,0
DA:496,0
DA:498,0
DA:501,0
DA:502,0
DA:504,0
DA:505,0
DA:506,0
DA:507,0
DA:508,0
DA:509,0
DA:510,0
DA:511,0
DA:512,0
DA:514,0
DA:517,0
DA:518,0
DA:519,0
DA:520,0
DA:521,0
DA:522,0
DA:525,0
DA:526,0
DA:529,0
DA:530,0
DA:531,0
DA:532,0
DA:533,0
DA:534,0
DA:535,0
DA:536,0
DA:537,0
DA:539,0
DA:577,0
DA:578,0
DA:581,0
DA:582,0
DA:583,0
DA:585,0
DA:589,0
DA:590,0
DA:591,0
DA:593,0
DA:594,0
DA:595,0
DA:597,0
DA:598,0
DA:599,0
DA:601,0
DA:602,0
DA:603,0
DA:605,0
DA:606,0
DA:607,0
DA:609,0
DA:610,0
DA:611,0
DA:613,0
DA:614,0
DA:615,0
DA:617,0
DA:618,0
DA:619,0
DA:620,0
DA:623,0
DA:624,0
DA:628,0
DA:629,0
DA:630,0
DA:631,0
DA:632,0
DA:633,0
DA:634,0
DA:635,0
DA:636,0
DA:638,0
DA:639,0
DA:641,0
DA:642,0
DA:643,0
DA:644,0
DA:645,0
DA:646,0
DA:647,0
DA:648,0
DA:649,0
DA:650,0
DA:652,0
DA:654,0
DA:655,0
DA:656,0
DA:657,0
DA:658,0
DA:663,0
DA:665,0
DA:668,0
DA:672,0
DA:673,0
DA:674,0
DA:675,0
DA:676,0
DA:677,0
DA:680,0
DA:681,0
DA:684,0
DA:685,0
DA:686,0
DA:687,0
DA:688,0
DA:689,0
DA:690,0
DA:691,0
DA:692,0
DA:693,0
DA:696,0
DA:698,0
DA:699,0
DA:702,0
DA:703,0
DA:706,0
DA:707,0
DA:710,0
DA:711,0
DA:714,0
DA:715,0
DA:716,0
DA:717,0
DA:720,0
DA:721,0
DA:724,0
DA:725,0
DA:729,0
DA:732,0
DA:735,0
DA:736,0
DA:737,0
DA:739,0
DA:741,0
DA:743,0
DA:745,0
DA:747,0
DA:749,0
DA:751,0
DA:754,0
DA:755,0
DA:756,0
DA:758,0
DA:760,0
DA:761,0
DA:763,0
DA:765,0
DA:767,0
DA:769,0
DA:772,0
DA:773,0
DA:774,0
DA:775,0
DA:776,0
DA:777,0
DA:778,0
DA:779,0
DA:780,0
DA:781,0
DA:782,0
DA:783,0
DA:784,0
DA:787,0
DA:788,0
DA:789,0
DA:791,0
DA:793,0
DA:794,0
DA:795,0
DA:797,0
DA:798,0
DA:799,0
DA:801,0
DA:803,0
DA:804,0
DA:806,0
DA:808,0
DA:809,0
DA:810,0
DA:811,0
DA:812,0
DA:813,0
DA:814,0
DA:815,0
DA:816,0
DA:817,0
DA:818,0
DA:820,0
DA:822,0
DA:825,0
DA:826,0
DA:827,0
DA:829,0
DA:830,0
DA:831,0
DA:832,0
DA:833,0
DA:834,0
DA:836,0
DA:838,0
DA:839,0
DA:840,0
DA:841,0
DA:842,0
DA:844,0
DA:846,0
DA:847,0
DA:848,0
DA:849,0
DA:851,0
DA:853,0
DA:854,0
DA:855,0
DA:856,0
DA:857,0
DA:858,0
DA:859,0
DA:860,0
DA:861,0
DA:863,0
DA:865,0
DA:866,0
DA:867,0
DA:868,0
DA:869,0
DA:871,0
DA:873,0
DA:876,0
DA:877,0
DA:878,0
DA:879,0
DA:881,0
DA:883,0
DA:884,0
DA:887,0
DA:888,0
DA:889,0
DA:890,0
DA:891,0
DA:894,0
DA:899,0
DA:903,0
DA:904,0
DA:906,0
DA:908,0
DA:911,0
DA:912,0
DA:913,0
DA:914,0
DA:915,0
DA:916,0
DA:919,0
DA:921,0
DA:922,0
DA:923,0
DA:924,0
DA:925,0
DA:927,0
DA:931,0
DA:932,0
DA:937,0
DA:938,0
DA:941,0
DA:942,0
DA:943,0
DA:946,0
DA:947,0
DA:948,0
DA:949,0
DA:950,0
DA:951,0
DA:952,0
DA:955,0
DA:956,0
DA:957,0
DA:958,0
DA:959,0
DA:960,0
DA:962,0
DA:965,0
DA:966,0
DA:967,0
DA:969,0
DA:970,0
DA:971,0
DA:972,0
DA:973,0
DA:974,0
DA:977,0
DA:978,0
DA:979,0
DA:980,0
DA:981,0
DA:982,0
DA:983,0
DA:984,0
DA:985,0
DA:986,0
DA:988,0
DA:989,0
DA:990,0
DA:991,0
DA:992,0
DA:993,0
DA:994,0
DA:995,0
DA:996,0
DA:998,0
DA:999,0
DA:1000,0
DA:1001,0
DA:1002,0
DA:1004,0
DA:1007,0
DA:1008,0
DA:1009,0
DA:1010,0
DA:1011,0
DA:1012,0
DA:1013,0
DA:1014,0
DA:1015,0
DA:1017,0
DA:1018,0
DA:1019,0
DA:1020,0
DA:1021,0
DA:1022,0
DA:1024,0
DA:1025,0
DA:1027,0
DA:1028,0
DA:1029,0
DA:1030,0
DA:1031,0
DA:1032,0
DA:1035,0
DA:1036,0
DA:1037,0
DA:1038,0
DA:1039,0
DA:1040,0
DA:1041,0
DA:1042,0
DA:1043,0
DA:1044,0
DA:1046,0
DA:1047,0
DA:1048,0
DA:1049,0
DA:1050,0
DA:1051,0
DA:1052,0
DA:1053,0
DA:1054,0
DA:1056,0
DA:1057,0
DA:1058,0
DA:1059,0
DA:1060,0
DA:1061,0
DA:1063,0
DA:1067,0
DA:1068,0
DA:1069,0
DA:1071,0
DA:1072,0
DA:1073,0
DA:1074,0
DA:1075,0
DA:1076,0
DA:1080,0
DA:1085,0
DA:1086,0
DA:1089,0
DA:1092,0
DA:1095,0
DA:1097,0
DA:1098,0
DA:1099,0
DA:1100,0
DA:1102,0
DA:1103,0
DA:1104,0
DA:1105,0
DA:1106,0
DA:1107,0
DA:1108,0
DA:1109,0
DA:1110,0
DA:1111,0
DA:1112,0
DA:1113,0
DA:1114,0
DA:1115,0
DA:1116,0
DA:1119,0
DA:1120,0
DA:1121,0
DA:1122,0
DA:1123,0
DA:1124,0
DA:1125,0
DA:1126,0
DA:1127,0
DA:1128,0
DA:1129,0
DA:1130,0
DA:1131,0
DA:1132,0
DA:1133,0
DA:1134,0
DA:1135,0
DA:1136,0
DA:1137,0
DA:1138,0
DA:1139,0
DA:1140,0
DA:1141,0
DA:1142,0
DA:1145,0
DA:1146,0
DA:1147,0
DA:1152,0
DA:1153,0
DA:1156,0
DA:1157,0
DA:1162,0
DA:1165,0
DA:1166,0
DA:1171,0
DA:1174,0
DA:1175,0
DA:1176,0
DA:1178,0
DA:1182,0
DA:1185,0
DA:1189,0
DA:1192,0
DA:1194,0
DA:1197,0
DA:1198,0
DA:1199,0
DA:1201,0
DA:1202,0
DA:1203,0
DA:1204,0
DA:1206,0
DA:1207,0
DA:1208,0
DA:1209,0
DA:1210,0
DA:1211,0
DA:1212,0
DA:1216,0
DA:1217,0
DA:1219,0
DA:1221,0
DA:1222,0
DA:1223,0
DA:1224,0
DA:1230,0
DA:1232,0
DA:1233,0
DA:1234,0
DA:1235,0
DA:1236,0
DA:1238,0
DA:1240,0
DA:1241,0
DA:1244,0
DA:1246,0
DA:1264,0
DA:1267,0
DA:1269,0
DA:1288,0
DA:1291,0
DA:1293,0
DA:1315,0
DA:1318,0
DA:1320,0
DA:1366,0
DA:1368,0
DA:1370,0
DA:1403,0
DA:1405,0
DA:1407,0
DA:1436,0
DA:1438,0
DA:1440,0
DA:1488,0
DA:1490,0
DA:1492,0
DA:1520,0
DA:1522,0
DA:1524,0
DA:1557,0
DA:1559,0
DA:1561,0
DA:1585,0
DA:1590,0
DA:1592,0
DA:1593,0
DA:1594,0
DA:1597,0
DA:1598,0
DA:1601,0
DA:1602,0
DA:1603,0
DA:1604,0
DA:1605,0
DA:1606,0
DA:1607,0
DA:1608,0
DA:1609,0
DA:1610,0
DA:1611,0
DA:1612,0
DA:1613,0
DA:1614,0
DA:1615,0
DA:1616,0
DA:1617,0
DA:1618,0
DA:1619,0
DA:1620,0
DA:1621,0
DA:1622,0
DA:1623,0
DA:1624,0
DA:1625,0
DA:1626,0
DA:1627,0
DA:1628,0
DA:1629,0
DA:1630,0
DA:1631,0
DA:1632,0
DA:1633,0
DA:1634,0
DA:1635,0
DA:1636,0
DA:1639,0
DA:1641,0
DA:1643,0
DA:1644,0
DA:1645,0
DA:1646,0
DA:1648,0
DA:1650,0
DA:1653,0
DA:1654,0
DA:1655,0
DA:1657,0
DA:1658,0
DA:1659,0
DA:1660,0
DA:1661,0
DA:1662,0
DA:1663,0
DA:1664,0
DA:1667,0
DA:1668,0
DA:1671,0
DA:1672,0
DA:1673,0
DA:1674,0
DA:1675,0
DA:1678,0
DA:1679,0
DA:1680,0
DA:1681,0
DA:1683,0
DA:1684,0
DA:1687,0
DA:1688,0
DA:1689,0
DA:1690,0
DA:1692,0
DA:1694,0
DA:1697,0
DA:1698,0
DA:1699,0
DA:1700,0
DA:1701,0
DA:1702,0
DA:1703,0
DA:1706,0
DA:1709,0
DA:1710,0
DA:1711,0
DA:1712,0
DA:1714,0
DA:1715,0
DA:1716,0
DA:1717,0
DA:1719,0
DA:1720,0
DA:1721,0
DA:1724,0
DA:1725,0
DA:1727,0
DA:1728,0
DA:1729,0
DA:1731,0
DA:1733,0
DA:1750,0
DA:1751,0
DA:1752,0
DA:1753,0
DA:1754,0
DA:1755,0
DA:1756,0
DA:1757,0
DA:1758,0
DA:1761,0
DA:1762,0
DA:1763,0
DA:1764,0
DA:1766,0
DA:1767,0
DA:1769,0
DA:1770,0
DA:1771,0
DA:1772,0
DA:1775,0
DA:1776,0
DA:1777,0
DA:1780,0
DA:1781,0
DA:1782,0
DA:1783,0
DA:1786,0
DA:1787,0
DA:1788,0
DA:1789,0
DA:1790,0
DA:1793,0
DA:1794,0
DA:1795,0
DA:1797,0
DA:1798,0
DA:1800,0
DA:1802,0
DA:1806,0
DA:1811,0
DA:1812,0
DA:1813,0
DA:1817,0
DA:1822,0
DA:1823,0
DA:1824,0
DA:1825,0
DA:1827,0
DA:1828,0
DA:1829,0
DA:1831,0
DA:1846,0
DA:1847,0
DA:1848,0
DA:1849,0
DA:1850,0
DA:1851,0
DA:1852,0
DA:1853,0
DA:1854,0
DA:1855,0
DA:1856,0
DA:1858,0
DA:1860,0
DA:1861,0
DA:1862,0
DA:1863,0
DA:1865,0
DA:1866,0
DA:1867,0
DA:1868,0
DA:1869,0
DA:1871,0
DA:1872,0
DA:1874,0
DA:1875,0
DA:1876,0
DA:1877,0
DA:1878,0
DA:1880,0
DA:1881,0
DA:1883,0
DA:1884,0
DA:1885,0
DA:1887,0
DA:1888,0
DA:1889,0
DA:1890,0
DA:1892,0
DA:1894,0
DA:1896,0
DA:1897,0
DA:1898,0
DA:1900,0
DA:1901,0
DA:1902,0
DA:1903,0
DA:1905,0
DA:1907,0
DA:1909,0
DA:1910,0
DA:1911,0
DA:1912,0
DA:1914,0
DA:1915,0
DA:1916,0
DA:1917,0
DA:1919,0
DA:1920,0
DA:1921,0
DA:1922,0
DA:1937,0
DA:1938,0
DA:1939,0
DA:1940,0
DA:1941,0
DA:1942,0
DA:1943,0
DA:1944,0
DA:1946,0
DA:1947,0
DA:1950,0
DA:1951,0
DA:1953,0
DA:1955,0
DA:1958,0
DA:1959,0
DA:1972,0
DA:1975,0
DA:1976,0
DA:1991,0
DA:2005,0
DA:2008,0
DA:2009,0
DA:2013,0
DA:2014,0
DA:2015,0
DA:2016,0
DA:2017,0
DA:2018,0
DA:2019,0
DA:2021,0
DA:2024,0
DA:2025,0
DA:2026,0
DA:2027,0
DA:2028,0
DA:2029,0
DA:2030,0
DA:2033,0
DA:2034,0
DA:2035,0
DA:2036,0
DA:2039,0
DA:2041,0
DA:2042,0
DA:2044,0
DA:2045,0
DA:2046,0
DA:2047,0
DA:2049,0
DA:2053,0
DA:2054,0
DA:2057,0
DA:2058,0
DA:2060,0
DA:2062,0
DA:2065,0
DA:2066,0
DA:2067,0
DA:2068,0
DA:2071,0
DA:2072,0
DA:2073,0
DA:2074,0
DA:2077,0
DA:2079,0
DA:2080,0
DA:2082,0
DA:2083,0
DA:2084,0
DA:2085,0
DA:2087,0
DA:2091,0
DA:2092,0
DA:2094,0
DA:2096,0
DA:2099,0
DA:2100,0
DA:2101,0
DA:2102,0
DA:2105,0
DA:2106,0
DA:2107,0
DA:2108,0
DA:2111,0
DA:2113,0
DA:2114,0
DA:2117,0
DA:2118,0
DA:2120,0
DA:2121,0
DA:2122,0
DA:2126,0
DA:2127,0
DA:2131,0
DA:2132,0
DA:2135,0
DA:2149,0
DA:2150,0
DA:2151,0
DA:2152,0
DA:2153,0
DA:2154,0
DA:2155,0
DA:2156,0
DA:2157,0
DA:2159,0
DA:2160,0
DA:2161,0
DA:2162,0
DA:2163,0
DA:2164,0
DA:2166,0
DA:2167,0
DA:2168,0
DA:2169,0
DA:2170,0
DA:2171,0
DA:2173,0
DA:2174,0
DA:2175,0
DA:2176,0
DA:2178,0
DA:2179,0
DA:2180,0
DA:2181,0
DA:2182,0
DA:2183,0
DA:2184,0
DA:2185,0
DA:2186,0
DA:2187,0
DA:2188,0
DA:2189,0
DA:2190,0
DA:2191,0
DA:2193,0
DA:2195,0
DA:2210,0
DA:2211,0
DA:2212,0
DA:2213,0
DA:2214,0
DA:2215,0
DA:2216,0
DA:2217,0
DA:2218,0
DA:2219,0
DA:2220,0
DA:2221,0
DA:2222,0
DA:2223,0
DA:2225,0
DA:2226,0
DA:2229,0
DA:2230,0
DA:2231,0
DA:2232,0
DA:2233,0
DA:2234,0
DA:2235,0
DA:2236,0
DA:2238,0
DA:2239,0
DA:2242,0
DA:2243,0
DA:2244,0
DA:2245,0
DA:2246,0
DA:2247,0
DA:2248,0
DA:2249,0
DA:2251,0
DA:2252,0
DA:2255,0
DA:2257,0
DA:2272,0
DA:2273,0
DA:2274,0
DA:2275,0
DA:2276,0
DA:2278,0
DA:2293,0
DA:2294,0
DA:2295,0
DA:2296,0
DA:2297,0
DA:2298,0
DA:2299,0
DA:2300,0
DA:2315,0
DA:2316,0
DA:2317,0
DA:2318,0
DA:2319,0
DA:2321,0
DA:2324,0
DA:2325,0
DA:2326,0
DA:2329,0
DA:2330,0
DA:2332,0
DA:2334,0
DA:2337,0
DA:2340,0
DA:2341,0
DA:2342,0
DA:2345,0
DA:2346,0
DA:2347,0
DA:2348,0
DA:2349,0
DA:2350,0
DA:2353,0
DA:2355,0
DA:2356,0
DA:2359,0
DA:2360,0
DA:2363,0
DA:2366,0
DA:2369,0
DA:2371,0
BRF:0
BRH:0
LF:1266
LH:0
end_of_record
SF:/home/noah/src/ruchy/src/backend/transpiler/type_conversion_refactored.rs
FN:251,_RNvNtNtNtCsdG3rhVUllIu_5ruchy7backend10transpiler26type_conversion_refactored13is_tuple_expr
FN:247,_RNvNtNtNtCsdG3rhVUllIu_5ruchy7backend10transpiler26type_conversion_refactored19is_single_text_part
FN:47,_RNvMNtNtNtCsdG3rhVUllIu_5ruchy7backend10transpiler26type_conversion_refactoredNtB4_10Transpiler14convert_to_int
FN:187,_RNvMNtNtNtCsdG3rhVUllIu_5ruchy7backend10transpiler26type_conversion_refactoredNtB4_10Transpiler14convert_to_set
FN:104,_RNvMNtNtNtCsdG3rhVUllIu_5ruchy7backend10transpiler26type_conversion_refactoredNtB4_10Transpiler15convert_to_bool
FN:219,_RNvMNtNtNtCsdG3rhVUllIu_5ruchy7backend10transpiler26type_conversion_refactoredNtB4_10Transpiler15convert_to_dict
FN:161,_RNvMNtNtNtCsdG3rhVUllIu_5ruchy7backend10transpiler26type_conversion_refactoredNtB4_10Transpiler15convert_to_list
FN:78,_RNvMNtNtNtCsdG3rhVUllIu_5ruchy7backend10transpiler26type_conversion_refactoredNtB4_10Transpiler16convert_to_float
FN:41,_RNvMNtNtNtCsdG3rhVUllIu_5ruchy7backend10transpiler26type_conversion_refactoredNtB4_10Transpiler17convert_to_string
FN:135,_RNvMNtNtNtCsdG3rhVUllIu_5ruchy7backend10transpiler26type_conversion_refactoredNtB4_10Transpiler22convert_string_to_bool
FN:147,_RNvMNtNtNtCsdG3rhVUllIu_5ruchy7backend10transpiler26type_conversion_refactoredNtB4_10Transpiler23convert_generic_to_bool
FN:116,_RNvMNtNtNtCsdG3rhVUllIu_5ruchy7backend10transpiler26type_conversion_refactoredNtB4_10Transpiler23convert_literal_to_bool
FN:141,_RNvMNtNtNtCsdG3rhVUllIu_5ruchy7backend10transpiler26type_conversion_refactoredNtB4_10Transpiler26convert_collection_to_bool
FN:12,_RNvMNtNtNtCsdG3rhVUllIu_5ruchy7backend10transpiler26type_conversion_refactoredNtB4_10Transpiler40try_transpile_type_conversion_refactored
FNDA:0,_RNvNtNtNtCsdG3rhVUllIu_5ruchy7backend10transpiler26type_conversion_refactored13is_tuple_expr
FNDA:0,_RNvNtNtNtCsdG3rhVUllIu_5ruchy7backend10transpiler26type_conversion_refactored19is_single_text_part
FNDA:0,_RNvMNtNtNtCsdG3rhVUllIu_5ruchy7backend10transpiler26type_conversion_refactoredNtB4_10Transpiler14convert_to_int
FNDA:0,_RNvMNtNtNtCsdG3rhVUllIu_5ruchy7backend10transpiler26type_conversion_refactoredNtB4_10Transpiler14convert_to_set
FNDA:0,_RNvMNtNtNtCsdG3rhVUllIu_5ruchy7backend10transpiler26type_conversion_refactoredNtB4_10Transpiler15convert_to_bool
FNDA:0,_RNvMNtNtNtCsdG3rhVUllIu_5ruchy7backend10transpiler26type_conversion_refactoredNtB4_10Transpiler15convert_to_dict
FNDA:0,_RNvMNtNtNtCsdG3rhVUllIu_5ruchy7backend10transpiler26type_conversion_refactoredNtB4_10Transpiler15convert_to_list
FNDA:0,_RNvMNtNtNtCsdG3rhVUllIu_5ruchy7backend10transpiler26type_conversion_refactoredNtB4_10Transpiler16convert_to_float
FNDA:0,_RNvMNtNtNtCsdG3rhVUllIu_5ruchy7backend10transpiler26type_conversion_refactoredNtB4_10Transpiler17convert_to_string
FNDA:0,_RNvMNtNtNtCsdG3rhVUllIu_5ruchy7backend10transpiler26type_conversion_refactoredNtB4_10Transpiler22convert_string_to_bool
FNDA:0,_RNvMNtNtNtCsdG3rhVUllIu_5ruchy7backend10transpiler26type_conversion_refactoredNtB4_10Transpiler23convert_generic_to_bool
FNDA:0,_RNvMNtNtNtCsdG3rhVUllIu_5ruchy7backend10transpiler26type_conversion_refactoredNtB4_10Transpiler23convert_literal_to_bool
FNDA:0,_RNvMNtNtNtCsdG3rhVUllIu_5ruchy7backend10transpiler26type_conversion_refactoredNtB4_10Transpiler26convert_collection_to_bool
FNDA:0,_RNvMNtNtNtCsdG3rhVUllIu_5ruchy7backend10transpiler26type_conversion_refactoredNtB4_10Transpiler40try_transpile_type_conversion_refactored
FNF:14
FNH:0
DA:12,0
DA:13,0
DA:14,0
DA:15,0
DA:16,0
DA:18,0
DA:19,0
DA:21,0
DA:22,0
DA:23,0
DA:25,0
DA:28,0
DA:29,0
DA:30,0
DA:31,0
DA:32,0
DA:33,0
DA:34,0
DA:35,0
DA:36,0
DA:38,0
DA:41,0
DA:42,0
DA:43,0
DA:44,0
DA:47,0
DA:48,0
DA:51,0
DA:52,0
DA:55,0
DA:56,0
DA:57,0
DA:61,0
DA:62,0
DA:66,0
DA:67,0
DA:71,0
DA:72,0
DA:75,0
DA:78,0
DA:79,0
DA:82,0
DA:83,0
DA:86,0
DA:87,0
DA:88,0
DA:92,0
DA:93,0
DA:97,0
DA:98,0
DA:101,0
DA:104,0
DA:106,0
DA:107,0
DA:108,0
DA:109,0
DA:110,0
DA:111,0
DA:113,0
DA:116,0
DA:117,0
DA:119,0
DA:120,0
DA:123,0
DA:124,0
DA:127,0
DA:128,0
DA:130,0
DA:132,0
DA:135,0
DA:136,0
DA:137,0
DA:138,0
DA:141,0
DA:142,0
DA:143,0
DA:144,0
DA:147,0
DA:148,0
DA:149,0
DA:150,0
DA:151,0
DA:152,0
DA:153,0
DA:154,0
DA:155,0
DA:156,0
DA:157,0
DA:158,0
DA:161,0
DA:162,0
DA:165,0
DA:166,0
DA:170,0
DA:171,0
DA:175,0
DA:176,0
DA:180,0
DA:181,0
DA:184,0
DA:187,0
DA:188,0
DA:191,0
DA:192,0
DA:193,0
DA:194,0
DA:198,0
DA:199,0
DA:200,0
DA:201,0
DA:202,0
DA:206,0
DA:207,0
DA:208,0
DA:209,0
DA:210,0
DA:211,0
DA:212,0
DA:213,0
DA:216,0
DA:219,0
DA:220,0
DA:222,0
DA:223,0
DA:224,0
DA:225,0
DA:226,0
DA:227,0
DA:228,0
DA:232,0
DA:233,0
DA:234,0
DA:235,0
DA:239,0
DA:242,0
DA:247,0
DA:248,0
DA:249,0
DA:251,0
DA:252,0
DA:253,0
BRF:0
BRH:0
LF:141
LH:0
end_of_record
SF:/home/noah/src/ruchy/src/backend/transpiler/type_inference.rs
FN:145,_RNCNvNtNtNtCsdG3rhVUllIu_5ruchy7backend10transpiler14type_inference14contains_param0B9_
FN:149,_RNCNvNtNtNtCsdG3rhVUllIu_5ruchy7backend10transpiler14type_inference14contains_params_0B9_
FN:64,_RNCNvNtNtNtCsdG3rhVUllIu_5ruchy7backend10transpiler14type_inference25is_param_used_as_function0B9_
FN:72,_RNCNvNtNtNtCsdG3rhVUllIu_5ruchy7backend10transpiler14type_inference25is_param_used_as_functions0_0B9_
FN:67,_RNCNvNtNtNtCsdG3rhVUllIu_5ruchy7backend10transpiler14type_inference25is_param_used_as_functions_0B9_
FN:119,_RNCNvNtNtNtCsdG3rhVUllIu_5ruchy7backend10transpiler14type_inference25is_param_used_numerically0B9_
FN:131,_RNCNvNtNtNtCsdG3rhVUllIu_5ruchy7backend10transpiler14type_inference25is_param_used_numericallys0_0B9_
FN:124,_RNCNvNtNtNtCsdG3rhVUllIu_5ruchy7backend10transpiler14type_inference25is_param_used_numericallys_0B9_
FN:24,_RNCNvNtNtNtCsdG3rhVUllIu_5ruchy7backend10transpiler14type_inference34is_param_used_as_function_argument0B9_
FN:32,_RNCNvNtNtNtCsdG3rhVUllIu_5ruchy7backend10transpiler14type_inference34is_param_used_as_function_arguments0_0B9_
FN:27,_RNCNvNtNtNtCsdG3rhVUllIu_5ruchy7backend10transpiler14type_inference34is_param_used_as_function_arguments_0B9_
FN:138,_RNvNtNtNtCsdG3rhVUllIu_5ruchy7backend10transpiler14type_inference14contains_param
FN:156,_RNvNtNtNtCsdG3rhVUllIu_5ruchy7backend10transpiler14type_inference17is_string_literal
FN:54,_RNvNtNtNtCsdG3rhVUllIu_5ruchy7backend10transpiler14type_inference25is_param_used_as_function
FN:91,_RNvNtNtNtCsdG3rhVUllIu_5ruchy7backend10transpiler14type_inference25is_param_used_numerically
FN:9,_RNvNtNtNtCsdG3rhVUllIu_5ruchy7backend10transpiler14type_inference34is_param_used_as_function_argument
FNDA:0,_RNCNvNtNtNtCsdG3rhVUllIu_5ruchy7backend10transpiler14type_inference14contains_param0B9_
FNDA:0,_RNCNvNtNtNtCsdG3rhVUllIu_5ruchy7backend10transpiler14type_inference14contains_params_0B9_
FNDA:0,_RNCNvNtNtNtCsdG3rhVUllIu_5ruchy7backend10transpiler14type_inference25is_param_used_as_function0B9_
FNDA:0,_RNCNvNtNtNtCsdG3rhVUllIu_5ruchy7backend10transpiler14type_inference25is_param_used_as_functions0_0B9_
FNDA:0,_RNCNvNtNtNtCsdG3rhVUllIu_5ruchy7backend10transpiler14type_inference25is_param_used_as_functions_0B9_
FNDA:0,_RNCNvNtNtNtCsdG3rhVUllIu_5ruchy7backend10transpiler14type_inference25is_param_used_numerically0B9_
FNDA:0,_RNCNvNtNtNtCsdG3rhVUllIu_5ruchy7backend10transpiler14type_inference25is_param_used_numericallys0_0B9_
FNDA:0,_RNCNvNtNtNtCsdG3rhVUllIu_5ruchy7backend10transpiler14type_inference25is_param_used_numericallys_0B9_
FNDA:0,_RNCNvNtNtNtCsdG3rhVUllIu_5ruchy7backend10transpiler14type_inference34is_param_used_as_function_argument0B9_
FNDA:0,_RNCNvNtNtNtCsdG3rhVUllIu_5ruchy7backend10transpiler14type_inference34is_param_used_as_function_arguments0_0B9_
FNDA:0,_RNCNvNtNtNtCsdG3rhVUllIu_5ruchy7backend10transpiler14type_inference34is_param_used_as_function_arguments_0B9_
FNDA:0,_RNvNtNtNtCsdG3rhVUllIu_5ruchy7backend10transpiler14type_inference14contains_param
FNDA:0,_RNvNtNtNtCsdG3rhVUllIu_5ruchy7backend10transpiler14type_inference17is_string_literal
FNDA:0,_RNvNtNtNtCsdG3rhVUllIu_5ruchy7backend10transpiler14type_inference25is_param_used_as_function
FNDA:0,_RNvNtNtNtCsdG3rhVUllIu_5ruchy7backend10transpiler14type_inference25is_param_used_numerically
FNDA:0,_RNvNtNtNtCsdG3rhVUllIu_5ruchy7backend10transpiler14type_inference34is_param_used_as_function_argument
FNF:16
FNH:0
DA:9,0
DA:10,0
DA:11,0
DA:13,0
DA:15,0
DA:16,0
DA:17,0
DA:18,0
DA:19,0
DA:20,0
DA:22,0
DA:24,0
DA:26,0
DA:27,0
DA:29,0
DA:30,0
DA:31,0
DA:32,0
DA:34,0
DA:35,0
DA:36,0
DA:38,0
DA:39,0
DA:40,0
DA:42,0
DA:43,0
DA:44,0
DA:46,0
DA:47,0
DA:49,0
DA:51,0
DA:54,0
DA:55,0
DA:56,0
DA:58,0
DA:59,0
DA:60,0
DA:61,0
DA:62,0
DA:64,0
DA:66,0
DA:67,0
DA:69,0
DA:70,0
DA:71,0
DA:72,0
DA:74,0
DA:75,0
DA:76,0
DA:78,0
DA:79,0
DA:80,0
DA:82,0
DA:83,0
DA:85,0
DA:87,0
DA:91,0
DA:92,0
DA:93,0
DA:95,0
DA:100,0
DA:101,0
DA:102,0
DA:104,0
DA:107,0
DA:108,0
DA:109,0
DA:110,0
DA:111,0
DA:112,0
DA:115,0
DA:116,0
DA:118,0
DA:119,0
DA:121,0
DA:122,0
DA:123,0
DA:124,0
DA:126,0
DA:127,0
DA:128,0
DA:130,0
DA:131,0
DA:133,0
DA:135,0
DA:138,0
DA:139,0
DA:140,0
DA:141,0
DA:142,0
DA:144,0
DA:145,0
DA:147,0
DA:148,0
DA:149,0
DA:151,0
DA:153,0
DA:156,0
DA:157,0
DA:158,0
BRF:0
BRH:0
LF:111
LH:0
end_of_record
SF:/home/noah/src/ruchy/src/backend/transpiler/types.rs
FN:203,_RNCNvMNtNtNtCsdG3rhVUllIu_5ruchy7backend10transpiler5typesNtB6_10Transpiler14transpile_enums_0Ba_
FN:190,_RNvMNtNtNtCsdG3rhVUllIu_5ruchy7backend10transpiler5typesNtB4_10Transpiler14transpile_enum
FN:342,_RNvMNtNtNtCsdG3rhVUllIu_5ruchy7backend10transpiler5typesNtB4_10Transpiler14transpile_impl
FN:60,_RNvMNtNtNtCsdG3rhVUllIu_5ruchy7backend10transpiler5typesNtB4_10Transpiler14transpile_type
FN:255,_RNvMNtNtNtCsdG3rhVUllIu_5ruchy7backend10transpiler5typesNtB4_10Transpiler15transpile_trait
FN:492,_RNvMNtNtNtCsdG3rhVUllIu_5ruchy7backend10transpiler5typesNtB4_10Transpiler16transpile_extend
FN:144,_RNvMNtNtNtCsdG3rhVUllIu_5ruchy7backend10transpiler5typesNtB4_10Transpiler16transpile_struct
FN:440,_RNvMNtNtNtCsdG3rhVUllIu_5ruchy7backend10transpiler5typesNtB4_10Transpiler23transpile_property_test
FN:214,_RNCNCNCNvMNtNtNtCsdG3rhVUllIu_5ruchy7backend10transpiler5typesNtBa_10Transpiler14transpile_enums0_000Be_
FN:374,_RNCNCNCNvMNtNtNtCsdG3rhVUllIu_5ruchy7backend10transpiler5typesNtBa_10Transpiler14transpile_impl000Be_
FN:286,_RNCNCNCNvMNtNtNtCsdG3rhVUllIu_5ruchy7backend10transpiler5typesNtBa_10Transpiler15transpile_trait000Be_
FN:523,_RNCNCNCNvMNtNtNtCsdG3rhVUllIu_5ruchy7backend10transpiler5typesNtBa_10Transpiler16transpile_extend000Be_
FN:568,_RNCNCNCNvMNtNtNtCsdG3rhVUllIu_5ruchy7backend10transpiler5typesNtBa_10Transpiler16transpile_extends_000Be_
FN:214,_RNCNCNvMNtNtNtCsdG3rhVUllIu_5ruchy7backend10transpiler5typesNtB8_10Transpiler14transpile_enums0_00Bc_
FN:362,_RNCNCNvMNtNtNtCsdG3rhVUllIu_5ruchy7backend10transpiler5typesNtB8_10Transpiler14transpile_impl00Bc_
FN:274,_RNCNCNvMNtNtNtCsdG3rhVUllIu_5ruchy7backend10transpiler5typesNtB8_10Transpiler15transpile_trait00Bc_
FN:511,_RNCNCNvMNtNtNtCsdG3rhVUllIu_5ruchy7backend10transpiler5typesNtB8_10Transpiler16transpile_extend00Bc_
FN:557,_RNCNCNvMNtNtNtCsdG3rhVUllIu_5ruchy7backend10transpiler5typesNtB8_10Transpiler16transpile_extends_00Bc_
FN:162,_RNCNCNvMNtNtNtCsdG3rhVUllIu_5ruchy7backend10transpiler5typesNtB8_10Transpiler16transpile_structs_00Bc_
FN:457,_RNCNCNvMNtNtNtCsdG3rhVUllIu_5ruchy7backend10transpiler5typesNtB8_10Transpiler23transpile_property_test00Bc_
FN:200,_RNCNvMNtNtNtCsdG3rhVUllIu_5ruchy7backend10transpiler5typesNtB6_10Transpiler14transpile_enum0Ba_
FN:207,_RNCNvMNtNtNtCsdG3rhVUllIu_5ruchy7backend10transpiler5typesNtB6_10Transpiler14transpile_enums0_0Ba_
FN:354,_RNCNvMNtNtNtCsdG3rhVUllIu_5ruchy7backend10transpiler5typesNtB6_10Transpiler14transpile_impl0Ba_
FN:405,_RNCNvMNtNtNtCsdG3rhVUllIu_5ruchy7backend10transpiler5typesNtB6_10Transpiler14transpile_impls_0Ba_
FN:85,_RNCNvMNtNtNtCsdG3rhVUllIu_5ruchy7backend10transpiler5typesNtB6_10Transpiler14transpile_type0Ba_
FN:105,_RNCNvMNtNtNtCsdG3rhVUllIu_5ruchy7backend10transpiler5typesNtB6_10Transpiler14transpile_types0_0Ba_
FN:99,_RNCNvMNtNtNtCsdG3rhVUllIu_5ruchy7backend10transpiler5typesNtB6_10Transpiler14transpile_types_0Ba_
FN:266,_RNCNvMNtNtNtCsdG3rhVUllIu_5ruchy7backend10transpiler5typesNtB6_10Transpiler15transpile_trait0Ba_
FN:322,_RNCNvMNtNtNtCsdG3rhVUllIu_5ruchy7backend10transpiler5typesNtB6_10Transpiler15transpile_traits_0Ba_
FN:503,_RNCNvMNtNtNtCsdG3rhVUllIu_5ruchy7backend10transpiler5typesNtB6_10Transpiler16transpile_extend0Ba_
FN:549,_RNCNvMNtNtNtCsdG3rhVUllIu_5ruchy7backend10transpiler5typesNtB6_10Transpiler16transpile_extends_0Ba_
FN:154,_RNCNvMNtNtNtCsdG3rhVUllIu_5ruchy7backend10transpiler5typesNtB6_10Transpiler16transpile_struct0Ba_
FN:158,_RNCNvMNtNtNtCsdG3rhVUllIu_5ruchy7backend10transpiler5typesNtB6_10Transpiler16transpile_structs_0Ba_
FN:453,_RNCNvMNtNtNtCsdG3rhVUllIu_5ruchy7backend10transpiler5typesNtB6_10Transpiler23transpile_property_test0Ba_
FNDA:0,_RNCNvMNtNtNtCsdG3rhVUllIu_5ruchy7backend10transpiler5typesNtB6_10Transpiler14transpile_enums_0Ba_
FNDA:0,_RNvMNtNtNtCsdG3rhVUllIu_5ruchy7backend10transpiler5typesNtB4_10Transpiler14transpile_enum
FNDA:0,_RNvMNtNtNtCsdG3rhVUllIu_5ruchy7backend10transpiler5typesNtB4_10Transpiler14transpile_impl
FNDA:0,_RNvMNtNtNtCsdG3rhVUllIu_5ruchy7backend10transpiler5typesNtB4_10Transpiler14transpile_type
FNDA:0,_RNvMNtNtNtCsdG3rhVUllIu_5ruchy7backend10transpiler5typesNtB4_10Transpiler15transpile_trait
FNDA:0,_RNvMNtNtNtCsdG3rhVUllIu_5ruchy7backend10transpiler5typesNtB4_10Transpiler16transpile_extend
FNDA:0,_RNvMNtNtNtCsdG3rhVUllIu_5ruchy7backend10transpiler5typesNtB4_10Transpiler16transpile_struct
FNDA:0,_RNvMNtNtNtCsdG3rhVUllIu_5ruchy7backend10transpiler5typesNtB4_10Transpiler23transpile_property_test
FNDA:0,_RNCNCNCNvMNtNtNtCsdG3rhVUllIu_5ruchy7backend10transpiler5typesNtBa_10Transpiler14transpile_enums0_000Be_
FNDA:0,_RNCNCNCNvMNtNtNtCsdG3rhVUllIu_5ruchy7backend10transpiler5typesNtBa_10Transpiler14transpile_impl000Be_
FNDA:0,_RNCNCNCNvMNtNtNtCsdG3rhVUllIu_5ruchy7backend10transpiler5typesNtBa_10Transpiler15transpile_trait000Be_
FNDA:0,_RNCNCNCNvMNtNtNtCsdG3rhVUllIu_5ruchy7backend10transpiler5typesNtBa_10Transpiler16transpile_extend000Be_
FNDA:0,_RNCNCNCNvMNtNtNtCsdG3rhVUllIu_5ruchy7backend10transpiler5typesNtBa_10Transpiler16transpile_extends_000Be_
FNDA:0,_RNCNCNvMNtNtNtCsdG3rhVUllIu_5ruchy7backend10transpiler5typesNtB8_10Transpiler14transpile_enums0_00Bc_
FNDA:0,_RNCNCNvMNtNtNtCsdG3rhVUllIu_5ruchy7backend10transpiler5typesNtB8_10Transpiler14transpile_impl00Bc_
FNDA:0,_RNCNCNvMNtNtNtCsdG3rhVUllIu_5ruchy7backend10transpiler5typesNtB8_10Transpiler15transpile_trait00Bc_
FNDA:0,_RNCNCNvMNtNtNtCsdG3rhVUllIu_5ruchy7backend10transpiler5typesNtB8_10Transpiler16transpile_extend00Bc_
FNDA:0,_RNCNCNvMNtNtNtCsdG3rhVUllIu_5ruchy7backend10transpiler5typesNtB8_10Transpiler16transpile_extends_00Bc_
FNDA:0,_RNCNCNvMNtNtNtCsdG3rhVUllIu_5ruchy7backend10transpiler5typesNtB8_10Transpiler16transpile_structs_00Bc_
FNDA:0,_RNCNCNvMNtNtNtCsdG3rhVUllIu_5ruchy7backend10transpiler5typesNtB8_10Transpiler23transpile_property_test00Bc_
FNDA:0,_RNCNvMNtNtNtCsdG3rhVUllIu_5ruchy7backend10transpiler5typesNtB6_10Transpiler14transpile_enum0Ba_
FNDA:0,_RNCNvMNtNtNtCsdG3rhVUllIu_5ruchy7backend10transpiler5typesNtB6_10Transpiler14transpile_enums0_0Ba_
FNDA:0,_RNCNvMNtNtNtCsdG3rhVUllIu_5ruchy7backend10transpiler5typesNtB6_10Transpiler14transpile_impl0Ba_
FNDA:0,_RNCNvMNtNtNtCsdG3rhVUllIu_5ruchy7backend10transpiler5typesNtB6_10Transpiler14transpile_impls_0Ba_
FNDA:0,_RNCNvMNtNtNtCsdG3rhVUllIu_5ruchy7backend10transpiler5typesNtB6_10Transpiler14transpile_type0Ba_
FNDA:0,_RNCNvMNtNtNtCsdG3rhVUllIu_5ruchy7backend10transpiler5typesNtB6_10Transpiler14transpile_types0_0Ba_
FNDA:0,_RNCNvMNtNtNtCsdG3rhVUllIu_5ruchy7backend10transpiler5typesNtB6_10Transpiler14transpile_types_0Ba_
FNDA:0,_RNCNvMNtNtNtCsdG3rhVUllIu_5ruchy7backend10transpiler5typesNtB6_10Transpiler15transpile_trait0Ba_
FNDA:0,_RNCNvMNtNtNtCsdG3rhVUllIu_5ruchy7backend10transpiler5typesNtB6_10Transpiler15transpile_traits_0Ba_
FNDA:0,_RNCNvMNtNtNtCsdG3rhVUllIu_5ruchy7backend10transpiler5typesNtB6_10Transpiler16transpile_extend0Ba_
FNDA:0,_RNCNvMNtNtNtCsdG3rhVUllIu_5ruchy7backend10transpiler5typesNtB6_10Transpiler16transpile_extends_0Ba_
FNDA:0,_RNCNvMNtNtNtCsdG3rhVUllIu_5ruchy7backend10transpiler5typesNtB6_10Transpiler16transpile_struct0Ba_
FNDA:0,_RNCNvMNtNtNtCsdG3rhVUllIu_5ruchy7backend10transpiler5typesNtB6_10Transpiler16transpile_structs_0Ba_
FNDA:0,_RNCNvMNtNtNtCsdG3rhVUllIu_5ruchy7backend10transpiler5typesNtB6_10Transpiler23transpile_property_test0Ba_
FNF:34
FNH:0
DA:60,0
DA:63,0
DA:64,0
DA:66,0
DA:67,0
DA:68,0
DA:69,0
DA:70,0
DA:71,0
DA:72,0
DA:74,0
DA:76,0
DA:77,0
DA:80,0
DA:82,0
DA:83,0
DA:84,0
DA:85,0
DA:86,0
DA:87,0
DA:89,0
DA:90,0
DA:91,0
DA:93,0
DA:94,0
DA:95,0
DA:97,0
DA:98,0
DA:99,0
DA:100,0
DA:101,0
DA:103,0
DA:104,0
DA:105,0
DA:106,0
DA:107,0
DA:110,0
DA:114,0
DA:118,0
DA:120,0
DA:122,0
DA:123,0
DA:125,0
DA:126,0
DA:128,0
DA:130,0
DA:131,0
DA:133,0
DA:134,0
DA:135,0
DA:137,0
DA:141,0
DA:144,0
DA:145,0
DA:146,0
DA:147,0
DA:148,0
DA:149,0
DA:150,0
DA:151,0
DA:153,0
DA:154,0
DA:156,0
DA:157,0
DA:158,0
DA:159,0
DA:160,0
DA:161,0
DA:162,0
DA:164,0
DA:165,0
DA:167,0
DA:169,0
DA:170,0
DA:172,0
DA:174,0
DA:175,0
DA:181,0
DA:187,0
DA:190,0
DA:191,0
DA:192,0
DA:193,0
DA:194,0
DA:195,0
DA:196,0
DA:197,0
DA:199,0
DA:200,0
DA:203,0
DA:205,0
DA:206,0
DA:207,0
DA:208,0
DA:210,0
DA:212,0
DA:213,0
DA:214,0
DA:215,0
DA:216,0
DA:217,0
DA:220,0
DA:221,0
DA:224,0
DA:226,0
DA:227,0
DA:229,0
DA:232,0
DA:233,0
DA:235,0
DA:238,0
DA:239,0
DA:246,0
DA:253,0
DA:255,0
DA:256,0
DA:257,0
DA:258,0
DA:259,0
DA:260,0
DA:261,0
DA:262,0
DA:264,0
DA:265,0
DA:266,0
DA:267,0
DA:270,0
DA:271,0
DA:272,0
DA:273,0
DA:274,0
DA:275,0
DA:277,0
DA:278,0
DA:280,0
DA:283,0
DA:284,0
DA:285,0
DA:286,0
DA:287,0
DA:289,0
DA:290,0
DA:293,0
DA:294,0
DA:295,0
DA:297,0
DA:301,0
DA:304,0
DA:305,0
DA:306,0
DA:312,0
DA:316,0
DA:317,0
DA:319,0
DA:321,0
DA:322,0
DA:324,0
DA:326,0
DA:327,0
DA:333,0
DA:339,0
DA:342,0
DA:343,0
DA:344,0
DA:345,0
DA:346,0
DA:347,0
DA:348,0
DA:349,0
DA:350,0
DA:352,0
DA:353,0
DA:354,0
DA:355,0
DA:358,0
DA:359,0
DA:360,0
DA:361,0
DA:362,0
DA:363,0
DA:365,0
DA:366,0
DA:368,0
DA:371,0
DA:372,0
DA:373,0
DA:374,0
DA:375,0
DA:377,0
DA:378,0
DA:381,0
DA:382,0
DA:383,0
DA:385,0
DA:389,0
DA:392,0
DA:394,0
DA:399,0
DA:400,0
DA:402,0
DA:404,0
DA:405,0
DA:407,0
DA:408,0
DA:409,0
DA:410,0
DA:416,0
DA:423,0
DA:424,0
DA:430,0
DA:437,0
DA:440,0
DA:445,0
DA:446,0
DA:448,0
DA:451,0
DA:452,0
DA:453,0
DA:454,0
DA:455,0
DA:456,0
DA:457,0
DA:458,0
DA:459,0
DA:460,0
DA:462,0
DA:465,0
DA:480,0
DA:482,0
DA:492,0
DA:493,0
DA:494,0
DA:495,0
DA:496,0
DA:497,0
DA:498,0
DA:501,0
DA:502,0
DA:503,0
DA:504,0
DA:507,0
DA:508,0
DA:509,0
DA:510,0
DA:511,0
DA:512,0
DA:514,0
DA:515,0
DA:517,0
DA:520,0
DA:521,0
DA:522,0
DA:523,0
DA:524,0
DA:526,0
DA:527,0
DA:530,0
DA:531,0
DA:532,0
DA:534,0
DA:538,0
DA:541,0
DA:542,0
DA:544,0
DA:547,0
DA:548,0
DA:549,0
DA:550,0
DA:553,0
DA:554,0
DA:555,0
DA:556,0
DA:557,0
DA:558,0
DA:559,0
DA:560,0
DA:562,0
DA:565,0
DA:566,0
DA:567,0
DA:568,0
DA:569,0
DA:571,0
DA:572,0
DA:575,0
DA:576,0
DA:577,0
DA:579,0
DA:583,0
DA:585,0
DA:590,0
DA:591,0
DA:593,0
DA:596,0
DA:605,0
BRF:0
BRH:0
LF:322
LH:0
end_of_record
SF:/home/noah/src/ruchy/src/bin/handlers/commands.rs
FN:527,_RNCNvNtNtCscQNPXBVttCD_5ruchy8handlers8commands22handle_directory_scores_0B7_
FN:1005,_RNCNvNvNtNtCscQNPXBVttCD_5ruchy8handlers8commands21calculate_max_nesting14nesting_helpers0_0B9_
FN:984,_RNCNvNvNtNtCscQNPXBVttCD_5ruchy8handlers8commands21calculate_max_nesting14nesting_helpers_0B9_
FN:22,_RNCNvNtNtCscQNPXBVttCD_5ruchy8handlers8commands18handle_ast_command0B7_
FN:95,_RNCNvNtNtCscQNPXBVttCD_5ruchy8handlers8commands18handle_fmt_command0B7_
FN:158,_RNCNvNtNtCscQNPXBVttCD_5ruchy8handlers8commands19handle_lint_command0B7_
FN:586,_RNCNvNtNtCscQNPXBVttCD_5ruchy8handlers8commands20calculate_file_score0B7_
FN:590,_RNCNvNtNtCscQNPXBVttCD_5ruchy8handlers8commands20calculate_file_scores_0B7_
FN:314,_RNCNvNtNtCscQNPXBVttCD_5ruchy8handlers8commands22handle_runtime_command0B7_
FN:408,_RNCNvNtNtCscQNPXBVttCD_5ruchy8handlers8commands24handle_single_file_score0B7_
FN:247,_RNCNvNtNtCscQNPXBVttCD_5ruchy8handlers8commands26handle_provability_command0B7_
FN:607,_RNCNvNtNtCscQNPXBVttCD_5ruchy8handlers8commands27handle_quality_gate_command0B7_
FN:888,_RNCNvNtNtCscQNPXBVttCD_5ruchy8handlers8commands19analyze_ast_quality0B7_
FN:573,_RNCNvNtNtCscQNPXBVttCD_5ruchy8handlers8commands19collect_ruchy_files0B7_
FN:952,_RNCNvNtNtCscQNPXBVttCD_5ruchy8handlers8commands19count_lines_in_expr0B7_
FN:189,_RNCNvNtNtCscQNPXBVttCD_5ruchy8handlers8commands19handle_lint_commands0_0B7_
FN:188,_RNCNvNtNtCscQNPXBVttCD_5ruchy8handlers8commands19handle_lint_commands_0B7_
FN:526,_RNCNvNtNtCscQNPXBVttCD_5ruchy8handlers8commands22handle_directory_score0B7_
FN:421,_RNCNvNtNtCscQNPXBVttCD_5ruchy8handlers8commands24handle_single_file_scores_0B7_
FN:627,_RNCNvNtNtCscQNPXBVttCD_5ruchy8handlers8commands27handle_quality_gate_commands_0B7_
FN:978,_RNCNvNvNtNtCscQNPXBVttCD_5ruchy8handlers8commands21calculate_max_nesting14nesting_helper0B9_
FN:668,_RNvNtNtCscQNPXBVttCD_5ruchy8handlers8commands15count_ast_nodes
FN:1060,_RNvNtNtCscQNPXBVttCD_5ruchy8handlers8commands15extract_symbols
FN:850,_RNvNtNtCscQNPXBVttCD_5ruchy8handlers8commands18analyze_complexity
FN:11,_RNvNtNtCscQNPXBVttCD_5ruchy8handlers8commands18handle_ast_command
FN:82,_RNvNtNtCscQNPXBVttCD_5ruchy8handlers8commands18handle_fmt_command
FN:876,_RNvNtNtCscQNPXBVttCD_5ruchy8handlers8commands19analyze_ast_quality
FN:673,_RNvNtNtCscQNPXBVttCD_5ruchy8handlers8commands19calculate_ast_depth
FN:564,_RNvNtNtCscQNPXBVttCD_5ruchy8handlers8commands19collect_ruchy_files
FN:943,_RNvNtNtCscQNPXBVttCD_5ruchy8handlers8commands19count_lines_in_expr
FN:145,_RNvNtNtCscQNPXBVttCD_5ruchy8handlers8commands19handle_lint_command
FN:784,_RNvNtNtCscQNPXBVttCD_5ruchy8handlers8commands20calculate_complexity
FN:584,_RNvNtNtCscQNPXBVttCD_5ruchy8handlers8commands20calculate_file_score
FN:374,_RNvNtNtCscQNPXBVttCD_5ruchy8handlers8commands20handle_score_command
FN:958,_RNvNtNtCscQNPXBVttCD_5ruchy8handlers8commands21calculate_max_nesting
FN:454,_RNvNtNtCscQNPXBVttCD_5ruchy8handlers8commands22handle_directory_score
FN:303,_RNvNtNtCscQNPXBVttCD_5ruchy8handlers8commands22handle_runtime_command
FN:693,_RNvNtNtCscQNPXBVttCD_5ruchy8handlers8commands23calculate_quality_score
FN:400,_RNvNtNtCscQNPXBVttCD_5ruchy8handlers8commands24handle_single_file_score
FN:1016,_RNvNtNtCscQNPXBVttCD_5ruchy8handlers8commands26count_assertions_recursive
FN:236,_RNvNtNtCscQNPXBVttCD_5ruchy8handlers8commands26handle_provability_command
FN:678,_RNvNtNtCscQNPXBVttCD_5ruchy8handlers8commands27calculate_provability_score
FN:596,_RNvNtNtCscQNPXBVttCD_5ruchy8handlers8commands27handle_quality_gate_command
FN:788,_RNvNvNtNtCscQNPXBVttCD_5ruchy8handlers8commands20calculate_complexity14count_branches
FN:961,_RNvNvNtNtCscQNPXBVttCD_5ruchy8handlers8commands21calculate_max_nesting14nesting_helper
FNDA:0,_RNCNvNtNtCscQNPXBVttCD_5ruchy8handlers8commands22handle_directory_scores_0B7_
FNDA:0,_RNCNvNvNtNtCscQNPXBVttCD_5ruchy8handlers8commands21calculate_max_nesting14nesting_helpers0_0B9_
FNDA:0,_RNCNvNvNtNtCscQNPXBVttCD_5ruchy8handlers8commands21calculate_max_nesting14nesting_helpers_0B9_
FNDA:0,_RNCNvNtNtCscQNPXBVttCD_5ruchy8handlers8commands18handle_ast_command0B7_
FNDA:0,_RNCNvNtNtCscQNPXBVttCD_5ruchy8handlers8commands18handle_fmt_command0B7_
FNDA:0,_RNCNvNtNtCscQNPXBVttCD_5ruchy8handlers8commands19handle_lint_command0B7_
FNDA:0,_RNCNvNtNtCscQNPXBVttCD_5ruchy8handlers8commands20calculate_file_score0B7_
FNDA:0,_RNCNvNtNtCscQNPXBVttCD_5ruchy8handlers8commands20calculate_file_scores_0B7_
FNDA:0,_RNCNvNtNtCscQNPXBVttCD_5ruchy8handlers8commands22handle_runtime_command0B7_
FNDA:0,_RNCNvNtNtCscQNPXBVttCD_5ruchy8handlers8commands24handle_single_file_score0B7_
FNDA:0,_RNCNvNtNtCscQNPXBVttCD_5ruchy8handlers8commands26handle_provability_command0B7_
FNDA:0,_RNCNvNtNtCscQNPXBVttCD_5ruchy8handlers8commands27handle_quality_gate_command0B7_
FNDA:0,_RNCNvNtNtCscQNPXBVttCD_5ruchy8handlers8commands19analyze_ast_quality0B7_
FNDA:0,_RNCNvNtNtCscQNPXBVttCD_5ruchy8handlers8commands19collect_ruchy_files0B7_
FNDA:0,_RNCNvNtNtCscQNPXBVttCD_5ruchy8handlers8commands19count_lines_in_expr0B7_
FNDA:0,_RNCNvNtNtCscQNPXBVttCD_5ruchy8handlers8commands19handle_lint_commands0_0B7_
FNDA:0,_RNCNvNtNtCscQNPXBVttCD_5ruchy8handlers8commands19handle_lint_commands_0B7_
FNDA:0,_RNCNvNtNtCscQNPXBVttCD_5ruchy8handlers8commands22handle_directory_score0B7_
FNDA:0,_RNCNvNtNtCscQNPXBVttCD_5ruchy8handlers8commands24handle_single_file_scores_0B7_
FNDA:0,_RNCNvNtNtCscQNPXBVttCD_5ruchy8handlers8commands27handle_quality_gate_commands_0B7_
FNDA:0,_RNCNvNvNtNtCscQNPXBVttCD_5ruchy8handlers8commands21calculate_max_nesting14nesting_helper0B9_
FNDA:0,_RNvNtNtCscQNPXBVttCD_5ruchy8handlers8commands15count_ast_nodes
FNDA:0,_RNvNtNtCscQNPXBVttCD_5ruchy8handlers8commands15extract_symbols
FNDA:0,_RNvNtNtCscQNPXBVttCD_5ruchy8handlers8commands18analyze_complexity
FNDA:0,_RNvNtNtCscQNPXBVttCD_5ruchy8handlers8commands18handle_ast_command
FNDA:0,_RNvNtNtCscQNPXBVttCD_5ruchy8handlers8commands18handle_fmt_command
FNDA:0,_RNvNtNtCscQNPXBVttCD_5ruchy8handlers8commands19analyze_ast_quality
FNDA:0,_RNvNtNtCscQNPXBVttCD_5ruchy8handlers8commands19calculate_ast_depth
FNDA:0,_RNvNtNtCscQNPXBVttCD_5ruchy8handlers8commands19collect_ruchy_files
FNDA:0,_RNvNtNtCscQNPXBVttCD_5ruchy8handlers8commands19count_lines_in_expr
FNDA:0,_RNvNtNtCscQNPXBVttCD_5ruchy8handlers8commands19handle_lint_command
FNDA:0,_RNvNtNtCscQNPXBVttCD_5ruchy8handlers8commands20calculate_complexity
FNDA:0,_RNvNtNtCscQNPXBVttCD_5ruchy8handlers8commands20calculate_file_score
FNDA:0,_RNvNtNtCscQNPXBVttCD_5ruchy8handlers8commands20handle_score_command
FNDA:0,_RNvNtNtCscQNPXBVttCD_5ruchy8handlers8commands21calculate_max_nesting
FNDA:0,_RNvNtNtCscQNPXBVttCD_5ruchy8handlers8commands22handle_directory_score
FNDA:0,_RNvNtNtCscQNPXBVttCD_5ruchy8handlers8commands22handle_runtime_command
FNDA:0,_RNvNtNtCscQNPXBVttCD_5ruchy8handlers8commands23calculate_quality_score
FNDA:0,_RNvNtNtCscQNPXBVttCD_5ruchy8handlers8commands24handle_single_file_score
FNDA:0,_RNvNtNtCscQNPXBVttCD_5ruchy8handlers8commands26count_assertions_recursive
FNDA:0,_RNvNtNtCscQNPXBVttCD_5ruchy8handlers8commands26handle_provability_command
FNDA:0,_RNvNtNtCscQNPXBVttCD_5ruchy8handlers8commands27calculate_provability_score
FNDA:0,_RNvNtNtCscQNPXBVttCD_5ruchy8handlers8commands27handle_quality_gate_command
FNDA:0,_RNvNvNtNtCscQNPXBVttCD_5ruchy8handlers8commands20calculate_complexity14count_branches
FNDA:0,_RNvNvNtNtCscQNPXBVttCD_5ruchy8handlers8commands21calculate_max_nesting14nesting_helper
FNF:45
FNH:0
DA:11,0
DA:12,0
DA:13,0
DA:14,0
DA:15,0
DA:16,0
DA:17,0
DA:18,0
DA:19,0
DA:20,0
DA:21,0
DA:22,0
DA:24,0
DA:25,0
DA:29,0
DA:31,0
DA:32,0
DA:33,0
DA:34,0
DA:35,0
DA:36,0
DA:37,0
DA:38,0
DA:39,0
DA:40,0
DA:41,0
DA:42,0
DA:43,0
DA:44,0
DA:45,0
DA:46,0
DA:47,0
DA:48,0
DA:49,0
DA:50,0
DA:51,0
DA:52,0
DA:53,0
DA:54,0
DA:55,0
DA:56,0
DA:57,0
DA:58,0
DA:59,0
DA:60,0
DA:61,0
DA:62,0
DA:63,0
DA:64,0
DA:65,0
DA:67,0
DA:68,0
DA:69,0
DA:71,0
DA:72,0
DA:73,0
DA:74,0
DA:75,0
DA:76,0
DA:78,0
DA:79,0
DA:82,0
DA:83,0
DA:84,0
DA:85,0
DA:86,0
DA:87,0
DA:88,0
DA:89,0
DA:90,0
DA:91,0
DA:94,0
DA:95,0
DA:97,0
DA:98,0
DA:101,0
DA:102,0
DA:104,0
DA:106,0
DA:107,0
DA:108,0
DA:109,0
DA:110,0
DA:112,0
DA:113,0
DA:114,0
DA:115,0
DA:117,0
DA:118,0
DA:120,0
DA:121,0
DA:122,0
DA:123,0
DA:124,0
DA:126,0
DA:128,0
DA:129,0
DA:130,0
DA:131,0
DA:133,0
DA:134,0
DA:136,0
DA:137,0
DA:138,0
DA:139,0
DA:141,0
DA:142,0
DA:145,0
DA:146,0
DA:147,0
DA:148,0
DA:149,0
DA:150,0
DA:151,0
DA:152,0
DA:153,0
DA:154,0
DA:157,0
DA:158,0
DA:160,0
DA:161,0
DA:163,0
DA:166,0
DA:167,0
DA:168,0
DA:170,0
DA:171,0
DA:172,0
DA:174,0
DA:176,0
DA:178,0
DA:179,0
DA:181,0
DA:184,0
DA:185,0
DA:186,0
DA:188,0
DA:189,0
DA:191,0
DA:193,0
DA:194,0
DA:195,0
DA:197,0
DA:200,0
DA:201,0
DA:206,0
DA:207,0
DA:208,0
DA:212,0
DA:213,0
DA:214,0
DA:215,0
DA:217,0
DA:219,0
DA:220,0
DA:221,0
DA:222,0
DA:223,0
DA:224,0
DA:228,0
DA:229,0
DA:230,0
DA:232,0
DA:233,0
DA:236,0
DA:237,0
DA:238,0
DA:239,0
DA:240,0
DA:241,0
DA:242,0
DA:243,0
DA:244,0
DA:245,0
DA:246,0
DA:247,0
DA:249,0
DA:250,0
DA:252,0
DA:255,0
DA:256,0
DA:257,0
DA:258,0
DA:259,0
DA:260,0
DA:261,0
DA:262,0
DA:264,0
DA:265,0
DA:266,0
DA:267,0
DA:268,0
DA:269,0
DA:271,0
DA:272,0
DA:273,0
DA:274,0
DA:276,0
DA:277,0
DA:278,0
DA:279,0
DA:281,0
DA:282,0
DA:283,0
DA:284,0
DA:286,0
DA:287,0
DA:288,0
DA:289,0
DA:290,0
DA:292,0
DA:293,0
DA:294,0
DA:295,0
DA:296,0
DA:297,0
DA:299,0
DA:300,0
DA:303,0
DA:304,0
DA:305,0
DA:306,0
DA:307,0
DA:308,0
DA:309,0
DA:310,0
DA:311,0
DA:312,0
DA:313,0
DA:314,0
DA:316,0
DA:317,0
DA:319,0
DA:321,0
DA:322,0
DA:323,0
DA:324,0
DA:325,0
DA:327,0
DA:328,0
DA:329,0
DA:330,0
DA:331,0
DA:333,0
DA:334,0
DA:335,0
DA:336,0
DA:337,0
DA:338,0
DA:340,0
DA:341,0
DA:342,0
DA:343,0
DA:344,0
DA:346,0
DA:347,0
DA:348,0
DA:349,0
DA:350,0
DA:352,0
DA:353,0
DA:354,0
DA:355,0
DA:356,0
DA:357,0
DA:358,0
DA:359,0
DA:360,0
DA:361,0
DA:363,0
DA:364,0
DA:365,0
DA:366,0
DA:367,0
DA:368,0
DA:370,0
DA:371,0
DA:374,0
DA:375,0
DA:376,0
DA:377,0
DA:378,0
DA:379,0
DA:380,0
DA:381,0
DA:382,0
DA:383,0
DA:384,0
DA:385,0
DA:386,0
DA:387,0
DA:388,0
DA:390,0
DA:391,0
DA:393,0
DA:395,0
DA:397,0
DA:400,0
DA:401,0
DA:402,0
DA:403,0
DA:404,0
DA:405,0
DA:406,0
DA:407,0
DA:408,0
DA:410,0
DA:411,0
DA:414,0
DA:416,0
DA:417,0
DA:418,0
DA:419,0
DA:420,0
DA:421,0
DA:422,0
DA:424,0
DA:425,0
DA:426,0
DA:427,0
DA:428,0
DA:429,0
DA:435,0
DA:436,0
DA:437,0
DA:438,0
DA:439,0
DA:440,0
DA:443,0
DA:444,0
DA:445,0
DA:446,0
DA:447,0
DA:448,0
DA:450,0
DA:451,0
DA:454,0
DA:455,0
DA:456,0
DA:457,0
DA:458,0
DA:459,0
DA:460,0
DA:464,0
DA:465,0
DA:467,0
DA:468,0
DA:469,0
DA:470,0
DA:471,0
DA:472,0
DA:473,0
DA:474,0
DA:475,0
DA:477,0
DA:478,0
DA:479,0
DA:480,0
DA:481,0
DA:482,0
DA:483,0
DA:488,0
DA:489,0
DA:490,0
DA:491,0
DA:492,0
DA:493,0
DA:494,0
DA:495,0
DA:498,0
DA:499,0
DA:501,0
DA:502,0
DA:503,0
DA:504,0
DA:505,0
DA:506,0
DA:507,0
DA:508,0
DA:509,0
DA:510,0
DA:514,0
DA:515,0
DA:516,0
DA:518,0
DA:520,0
DA:521,0
DA:522,0
DA:523,0
DA:524,0
DA:525,0
DA:526,0
DA:527,0
DA:528,0
DA:529,0
DA:530,0
DA:532,0
DA:533,0
DA:534,0
DA:535,0
DA:536,0
DA:537,0
DA:538,0
DA:539,0
DA:545,0
DA:546,0
DA:547,0
DA:548,0
DA:549,0
DA:550,0
DA:553,0
DA:554,0
DA:555,0
DA:556,0
DA:557,0
DA:558,0
DA:560,0
DA:561,0
DA:564,0
DA:565,0
DA:566,0
DA:567,0
DA:569,0
DA:570,0
DA:571,0
DA:573,0
DA:574,0
DA:575,0
DA:576,0
DA:577,0
DA:580,0
DA:581,0
DA:584,0
DA:585,0
DA:586,0
DA:588,0
DA:589,0
DA:590,0
DA:592,0
DA:593,0
DA:596,0
DA:597,0
DA:598,0
DA:599,0
DA:600,0
DA:601,0
DA:602,0
DA:603,0
DA:604,0
DA:605,0
DA:606,0
DA:607,0
DA:609,0
DA:610,0
DA:613,0
DA:614,0
DA:617,0
DA:618,0
DA:619,0
DA:620,0
DA:621,0
DA:622,0
DA:623,0
DA:627,0
DA:628,0
DA:629,0
DA:630,0
DA:632,0
DA:634,0
DA:636,0
DA:637,0
DA:638,0
DA:639,0
DA:640,0
DA:641,0
DA:643,0
DA:644,0
DA:645,0
DA:646,0
DA:647,0
DA:649,0
DA:652,0
DA:653,0
DA:654,0
DA:656,0
DA:657,0
DA:658,0
DA:660,0
DA:661,0
DA:662,0
DA:664,0
DA:665,0
DA:668,0
DA:670,0
DA:671,0
DA:673,0
DA:675,0
DA:676,0
DA:678,0
DA:680,0
DA:681,0
DA:682,0
DA:684,0
DA:685,0
DA:686,0
DA:689,0
DA:690,0
DA:691,0
DA:693,0
DA:696,0
DA:697,0
DA:700,0
DA:701,0
DA:702,0
DA:703,0
DA:704,0
DA:705,0
DA:706,0
DA:707,0
DA:710,0
DA:714,0
DA:717,0
DA:718,0
DA:719,0
DA:720,0
DA:721,0
DA:722,0
DA:723,0
DA:724,0
DA:725,0
DA:727,0
DA:730,0
DA:731,0
DA:732,0
DA:733,0
DA:734,0
DA:735,0
DA:736,0
DA:737,0
DA:739,0
DA:743,0
DA:744,0
DA:745,0
DA:746,0
DA:747,0
DA:748,0
DA:749,0
DA:750,0
DA:752,0
DA:755,0
DA:756,0
DA:758,0
DA:760,0
DA:761,0
DA:762,0
DA:763,0
DA:766,0
DA:767,0
DA:768,0
DA:771,0
DA:772,0
DA:773,0
DA:774,0
DA:775,0
DA:776,0
DA:777,0
DA:778,0
DA:781,0
DA:782,0
DA:784,0
DA:788,0
DA:791,0
DA:792,0
DA:794,0
DA:795,0
DA:796,0
DA:797,0
DA:798,0
DA:799,0
DA:800,0
DA:802,0
DA:804,0
DA:805,0
DA:806,0
DA:807,0
DA:808,0
DA:809,0
DA:811,0
DA:813,0
DA:815,0
DA:817,0
DA:819,0
DA:822,0
DA:823,0
DA:824,0
DA:826,0
DA:827,0
DA:828,0
DA:830,0
DA:831,0
DA:833,0
DA:835,0
DA:837,0
DA:838,0
DA:840,0
DA:842,0
DA:845,0
DA:847,0
DA:848,0
DA:850,0
DA:852,0
DA:854,0
DA:855,0
DA:856,0
DA:857,0
DA:858,0
DA:859,0
DA:861,0
DA:876,0
DA:880,0
DA:881,0
DA:882,0
DA:885,0
DA:888,0
DA:889,0
DA:890,0
DA:891,0
DA:893,0
DA:896,0
DA:897,0
DA:900,0
DA:901,0
DA:903,0
DA:905,0
DA:906,0
DA:908,0
DA:909,0
DA:910,0
DA:912,0
DA:913,0
DA:914,0
DA:915,0
DA:916,0
DA:917,0
DA:918,0
DA:921,0
DA:922,0
DA:923,0
DA:924,0
DA:926,0
DA:927,0
DA:928,0
DA:929,0
DA:930,0
DA:931,0
DA:933,0
DA:934,0
DA:935,0
DA:936,0
DA:937,0
DA:939,0
DA:941,0
DA:943,0
DA:947,0
DA:948,0
DA:949,0
DA:950,0
DA:951,0
DA:952,0
DA:954,0
DA:956,0
DA:958,0
DA:961,0
DA:964,0
DA:965,0
DA:967,0
DA:969,0
DA:971,0
DA:973,0
DA:975,0
DA:976,0
DA:977,0
DA:978,0
DA:979,0
DA:981,0
DA:983,0
DA:984,0
DA:985,0
DA:986,0
DA:988,0
DA:990,0
DA:992,0
DA:993,0
DA:994,0
DA:995,0
DA:997,0
DA:998,0
DA:999,0
DA:1000,0
DA:1002,0
DA:1004,0
DA:1005,0
DA:1006,0
DA:1007,0
DA:1009,0
DA:1011,0
DA:1013,0
DA:1014,0
DA:1016,0
DA:1017,0
DA:1018,0
DA:1019,0
DA:1020,0
DA:1023,0
DA:1025,0
DA:1026,0
DA:1027,0
DA:1028,0
DA:1029,0
DA:1031,0
DA:1032,0
DA:1033,0
DA:1034,0
DA:1035,0
DA:1036,0
DA:1038,0
DA:1039,0
DA:1040,0
DA:1041,0
DA:1043,0
DA:1044,0
DA:1045,0
DA:1046,0
DA:1047,0
DA:1048,0
DA:1050,0
DA:1052,0
DA:1060,0
DA:1061,0
DA:1062,0
DA:1063,0
DA:1064,0
DA:1065,0
DA:1066,0
BRF:0
BRH:0
LF:766
LH:0
end_of_record
SF:/home/noah/src/ruchy/src/bin/handlers/mod.rs
FN:1039,_RNCNvNtCscQNPXBVttCD_5ruchy8handlers25handle_run_enhanced_testss1_0B5_
FN:225,_RNCNvNtCscQNPXBVttCD_5ruchy8handlers18handle_run_command0B5_
FN:1067,_RNCNvNtCscQNPXBVttCD_5ruchy8handlers19run_ruchy_test_file0B5_
FN:1080,_RNCNvNtCscQNPXBVttCD_5ruchy8handlers19run_ruchy_test_files_0B5_
FN:147,_RNCNvNtCscQNPXBVttCD_5ruchy8handlers20handle_parse_command0B5_
FN:344,_RNCNvNtCscQNPXBVttCD_5ruchy8handlers20handle_prove_command0B5_
FN:368,_RNCNvNtCscQNPXBVttCD_5ruchy8handlers20handle_prove_commands0_0B5_
FN:488,_RNCNvNtCscQNPXBVttCD_5ruchy8handlers20handle_prove_commands1_0B5_
FN:349,_RNCNvNtCscQNPXBVttCD_5ruchy8handlers20handle_prove_commands_0B5_
FN:94,_RNCNvNtCscQNPXBVttCD_5ruchy8handlers21handle_file_execution0B5_
FN:186,_RNCNvNtCscQNPXBVttCD_5ruchy8handlers24handle_transpile_command0B5_
FN:206,_RNCNvNtCscQNPXBVttCD_5ruchy8handlers24handle_transpile_commands3_0B5_
FN:233,_RNCNvNtCscQNPXBVttCD_5ruchy8handlers18handle_run_commands0_0B5_
FN:740,_RNCNvNtCscQNPXBVttCD_5ruchy8handlers19handle_test_command0B5_
FN:743,_RNCNvNtCscQNPXBVttCD_5ruchy8handlers19handle_test_commands_0B5_
FN:825,_RNCNvNtCscQNPXBVttCD_5ruchy8handlers21handle_watch_and_test0B5_
FN:837,_RNCNvNtCscQNPXBVttCD_5ruchy8handlers21handle_watch_and_tests0_0B5_
FN:825,_RNCNvNtCscQNPXBVttCD_5ruchy8handlers21handle_watch_and_tests_0B5_
FN:199,_RNCNvNtCscQNPXBVttCD_5ruchy8handlers24handle_transpile_commands1_0B5_
FN:882,_RNCNvNtCscQNPXBVttCD_5ruchy8handlers25handle_run_enhanced_tests0B5_
FN:894,_RNCNvNtCscQNPXBVttCD_5ruchy8handlers25handle_run_enhanced_testss0_0B5_
FN:890,_RNCNvNtCscQNPXBVttCD_5ruchy8handlers25handle_run_enhanced_testss_0B5_
FN:1822,_RNCNvNtCscQNPXBVttCD_5ruchy8handlers30handle_replay_to_tests_command0B5_
FN:497,_RNvNtCscQNPXBVttCD_5ruchy8handlers17print_prover_help
FN:219,_RNvNtCscQNPXBVttCD_5ruchy8handlers18handle_run_command
FN:126,_RNvNtCscQNPXBVttCD_5ruchy8handlers18handle_stdin_input
FN:652,_RNvNtCscQNPXBVttCD_5ruchy8handlers19handle_check_syntax
FN:26,_RNvNtCscQNPXBVttCD_5ruchy8handlers19handle_eval_command
FN:529,_RNvNtCscQNPXBVttCD_5ruchy8handlers19handle_repl_command
FN:728,_RNvNtCscQNPXBVttCD_5ruchy8handlers19handle_test_command
FN:1061,_RNvNtCscQNPXBVttCD_5ruchy8handlers19run_ruchy_test_file
FN:643,_RNvNtCscQNPXBVttCD_5ruchy8handlers20handle_check_command
FN:141,_RNvNtCscQNPXBVttCD_5ruchy8handlers20handle_parse_command
FN:289,_RNvNtCscQNPXBVttCD_5ruchy8handlers20handle_prove_command
FN:92,_RNvNtCscQNPXBVttCD_5ruchy8handlers21handle_file_execution
FN:809,_RNvNtCscQNPXBVttCD_5ruchy8handlers21handle_watch_and_test
FN:567,_RNvNtCscQNPXBVttCD_5ruchy8handlers22handle_compile_command
FN:1208,_RNvNtCscQNPXBVttCD_5ruchy8handlers22handle_complex_command
FN:670,_RNvNtCscQNPXBVttCD_5ruchy8handlers22handle_watch_and_check
FN:1092,_RNvNtCscQNPXBVttCD_5ruchy8handlers22verify_proofs_from_ast
FN:767,_RNvNtCscQNPXBVttCD_5ruchy8handlers23handle_coverage_command
FN:163,_RNvNtCscQNPXBVttCD_5ruchy8handlers24handle_transpile_command
FN:860,_RNvNtCscQNPXBVttCD_5ruchy8handlers25handle_run_enhanced_tests
FN:1790,_RNvNtCscQNPXBVttCD_5ruchy8handlers30handle_replay_to_tests_command
FN:1845,_RNCNvNtCscQNPXBVttCD_5ruchy8handlers30handle_replay_to_tests_commands_0B5_
FNDA:0,_RNCNvNtCscQNPXBVttCD_5ruchy8handlers25handle_run_enhanced_testss1_0B5_
FNDA:0,_RNCNvNtCscQNPXBVttCD_5ruchy8handlers18handle_run_command0B5_
FNDA:0,_RNCNvNtCscQNPXBVttCD_5ruchy8handlers19run_ruchy_test_file0B5_
FNDA:0,_RNCNvNtCscQNPXBVttCD_5ruchy8handlers19run_ruchy_test_files_0B5_
FNDA:0,_RNCNvNtCscQNPXBVttCD_5ruchy8handlers20handle_parse_command0B5_
FNDA:0,_RNCNvNtCscQNPXBVttCD_5ruchy8handlers20handle_prove_command0B5_
FNDA:0,_RNCNvNtCscQNPXBVttCD_5ruchy8handlers20handle_prove_commands0_0B5_
FNDA:0,_RNCNvNtCscQNPXBVttCD_5ruchy8handlers20handle_prove_commands1_0B5_
FNDA:0,_RNCNvNtCscQNPXBVttCD_5ruchy8handlers20handle_prove_commands_0B5_
FNDA:0,_RNCNvNtCscQNPXBVttCD_5ruchy8handlers21handle_file_execution0B5_
FNDA:0,_RNCNvNtCscQNPXBVttCD_5ruchy8handlers24handle_transpile_command0B5_
FNDA:0,_RNCNvNtCscQNPXBVttCD_5ruchy8handlers24handle_transpile_commands3_0B5_
FNDA:0,_RNCNvNtCscQNPXBVttCD_5ruchy8handlers18handle_run_commands0_0B5_
FNDA:0,_RNCNvNtCscQNPXBVttCD_5ruchy8handlers19handle_test_command0B5_
FNDA:0,_RNCNvNtCscQNPXBVttCD_5ruchy8handlers19handle_test_commands_0B5_
FNDA:0,_RNCNvNtCscQNPXBVttCD_5ruchy8handlers21handle_watch_and_test0B5_
FNDA:0,_RNCNvNtCscQNPXBVttCD_5ruchy8handlers21handle_watch_and_tests0_0B5_
FNDA:0,_RNCNvNtCscQNPXBVttCD_5ruchy8handlers21handle_watch_and_tests_0B5_
FNDA:0,_RNCNvNtCscQNPXBVttCD_5ruchy8handlers24handle_transpile_commands1_0B5_
FNDA:0,_RNCNvNtCscQNPXBVttCD_5ruchy8handlers25handle_run_enhanced_tests0B5_
FNDA:0,_RNCNvNtCscQNPXBVttCD_5ruchy8handlers25handle_run_enhanced_testss0_0B5_
FNDA:0,_RNCNvNtCscQNPXBVttCD_5ruchy8handlers25handle_run_enhanced_testss_0B5_
FNDA:0,_RNCNvNtCscQNPXBVttCD_5ruchy8handlers30handle_replay_to_tests_command0B5_
FNDA:0,_RNvNtCscQNPXBVttCD_5ruchy8handlers17print_prover_help
FNDA:0,_RNvNtCscQNPXBVttCD_5ruchy8handlers18handle_run_command
FNDA:0,_RNvNtCscQNPXBVttCD_5ruchy8handlers18handle_stdin_input
FNDA:0,_RNvNtCscQNPXBVttCD_5ruchy8handlers19handle_check_syntax
FNDA:0,_RNvNtCscQNPXBVttCD_5ruchy8handlers19handle_eval_command
FNDA:0,_RNvNtCscQNPXBVttCD_5ruchy8handlers19handle_repl_command
FNDA:0,_RNvNtCscQNPXBVttCD_5ruchy8handlers19handle_test_command
FNDA:0,_RNvNtCscQNPXBVttCD_5ruchy8handlers19run_ruchy_test_file
FNDA:0,_RNvNtCscQNPXBVttCD_5ruchy8handlers20handle_check_command
FNDA:0,_RNvNtCscQNPXBVttCD_5ruchy8handlers20handle_parse_command
FNDA:0,_RNvNtCscQNPXBVttCD_5ruchy8handlers20handle_prove_command
FNDA:0,_RNvNtCscQNPXBVttCD_5ruchy8handlers21handle_file_execution
FNDA:0,_RNvNtCscQNPXBVttCD_5ruchy8handlers21handle_watch_and_test
FNDA:0,_RNvNtCscQNPXBVttCD_5ruchy8handlers22handle_compile_command
FNDA:0,_RNvNtCscQNPXBVttCD_5ruchy8handlers22handle_complex_command
FNDA:0,_RNvNtCscQNPXBVttCD_5ruchy8handlers22handle_watch_and_check
FNDA:0,_RNvNtCscQNPXBVttCD_5ruchy8handlers22verify_proofs_from_ast
FNDA:0,_RNvNtCscQNPXBVttCD_5ruchy8handlers23handle_coverage_command
FNDA:0,_RNvNtCscQNPXBVttCD_5ruchy8handlers24handle_transpile_command
FNDA:0,_RNvNtCscQNPXBVttCD_5ruchy8handlers25handle_run_enhanced_tests
FNDA:0,_RNvNtCscQNPXBVttCD_5ruchy8handlers30handle_replay_to_tests_command
FNDA:0,_RNCNvNtCscQNPXBVttCD_5ruchy8handlers30handle_replay_to_tests_commands_0B5_
FNF:45
FNH:0
DA:26,0
DA:27,0
DA:28,0
DA:29,0
DA:31,0
DA:32,0
DA:33,0
DA:34,0
DA:35,0
DA:36,0
DA:38,0
DA:39,0
DA:40,0
DA:41,0
DA:42,0
DA:43,0
DA:44,0
DA:45,0
DA:46,0
DA:48,0
DA:49,0
DA:50,0
DA:51,0
DA:53,0
DA:55,0
DA:56,0
DA:57,0
DA:58,0
DA:60,0
DA:61,0
DA:62,0
DA:63,0
DA:64,0
DA:65,0
DA:66,0
DA:67,0
DA:68,0
DA:69,0
DA:70,0
DA:71,0
DA:72,0
DA:74,0
DA:77,0
DA:92,0
DA:93,0
DA:94,0
DA:97,0
DA:98,0
DA:99,0
DA:101,0
DA:102,0
DA:103,0
DA:104,0
DA:106,0
DA:107,0
DA:108,0
DA:111,0
DA:126,0
DA:127,0
DA:128,0
DA:129,0
DA:130,0
DA:131,0
DA:133,0
DA:134,0
DA:135,0
DA:138,0
DA:141,0
DA:142,0
DA:143,0
DA:144,0
DA:146,0
DA:147,0
DA:149,0
DA:150,0
DA:151,0
DA:152,0
DA:153,0
DA:155,0
DA:156,0
DA:157,0
DA:160,0
DA:163,0
DA:164,0
DA:165,0
DA:166,0
DA:167,0
DA:168,0
DA:169,0
DA:170,0
DA:171,0
DA:172,0
DA:173,0
DA:174,0
DA:176,0
DA:178,0
DA:179,0
DA:180,0
DA:181,0
DA:182,0
DA:183,0
DA:185,0
DA:186,0
DA:189,0
DA:190,0
DA:191,0
DA:193,0
DA:194,0
DA:195,0
DA:196,0
DA:198,0
DA:199,0
DA:200,0
DA:204,0
DA:205,0
DA:206,0
DA:208,0
DA:209,0
DA:210,0
DA:211,0
DA:212,0
DA:213,0
DA:215,0
DA:216,0
DA:219,0
DA:220,0
DA:221,0
DA:222,0
DA:224,0
DA:225,0
DA:227,0
DA:228,0
DA:229,0
DA:231,0
DA:232,0
DA:233,0
DA:234,0
DA:237,0
DA:238,0
DA:239,0
DA:240,0
DA:242,0
DA:243,0
DA:244,0
DA:245,0
DA:248,0
DA:249,0
DA:250,0
DA:253,0
DA:254,0
DA:255,0
DA:256,0
DA:257,0
DA:258,0
DA:259,0
DA:260,0
DA:262,0
DA:263,0
DA:264,0
DA:265,0
DA:266,0
DA:269,0
DA:270,0
DA:271,0
DA:274,0
DA:275,0
DA:276,0
DA:277,0
DA:281,0
DA:282,0
DA:283,0
DA:285,0
DA:286,0
DA:289,0
DA:290,0
DA:291,0
DA:292,0
DA:293,0
DA:294,0
DA:295,0
DA:296,0
DA:297,0
DA:298,0
DA:299,0
DA:300,0
DA:307,0
DA:308,0
DA:309,0
DA:312,0
DA:313,0
DA:314,0
DA:315,0
DA:317,0
DA:318,0
DA:323,0
DA:326,0
DA:327,0
DA:329,0
DA:330,0
DA:331,0
DA:332,0
DA:333,0
DA:334,0
DA:335,0
DA:338,0
DA:339,0
DA:340,0
DA:341,0
DA:343,0
DA:344,0
DA:347,0
DA:348,0
DA:349,0
DA:352,0
DA:353,0
DA:354,0
DA:357,0
DA:358,0
DA:359,0
DA:362,0
DA:363,0
DA:364,0
DA:365,0
DA:367,0
DA:368,0
DA:370,0
DA:371,0
DA:375,0
DA:376,0
DA:377,0
DA:379,0
DA:383,0
DA:384,0
DA:386,0
DA:387,0
DA:388,0
DA:390,0
DA:391,0
DA:392,0
DA:395,0
DA:396,0
DA:397,0
DA:398,0
DA:400,0
DA:401,0
DA:402,0
DA:403,0
DA:404,0
DA:405,0
DA:406,0
DA:407,0
DA:408,0
DA:409,0
DA:410,0
DA:413,0
DA:414,0
DA:415,0
DA:416,0
DA:417,0
DA:418,0
DA:420,0
DA:421,0
DA:422,0
DA:423,0
DA:424,0
DA:425,0
DA:426,0
DA:427,0
DA:428,0
DA:431,0
DA:432,0
DA:433,0
DA:434,0
DA:435,0
DA:438,0
DA:439,0
DA:440,0
DA:441,0
DA:442,0
DA:444,0
DA:445,0
DA:446,0
DA:452,0
DA:453,0
DA:454,0
DA:455,0
DA:456,0
DA:459,0
DA:460,0
DA:461,0
DA:462,0
DA:463,0
DA:464,0
DA:465,0
DA:466,0
DA:467,0
DA:468,0
DA:469,0
DA:470,0
DA:475,0
DA:476,0
DA:477,0
DA:478,0
DA:480,0
DA:481,0
DA:482,0
DA:483,0
DA:484,0
DA:487,0
DA:488,0
DA:490,0
DA:491,0
DA:492,0
DA:494,0
DA:495,0
DA:497,0
DA:498,0
DA:499,0
DA:500,0
DA:501,0
DA:502,0
DA:503,0
DA:504,0
DA:505,0
DA:506,0
DA:507,0
DA:508,0
DA:509,0
DA:510,0
DA:511,0
DA:512,0
DA:513,0
DA:514,0
DA:515,0
DA:516,0
DA:517,0
DA:529,0
DA:532,0
DA:533,0
DA:534,0
DA:535,0
DA:536,0
DA:537,0
DA:540,0
DA:542,0
DA:543,0
DA:545,0
DA:547,0
DA:567,0
DA:568,0
DA:569,0
DA:570,0
DA:571,0
DA:572,0
DA:573,0
DA:574,0
DA:580,0
DA:581,0
DA:582,0
DA:583,0
DA:584,0
DA:586,0
DA:588,0
DA:589,0
DA:590,0
DA:591,0
DA:592,0
DA:593,0
DA:594,0
DA:595,0
DA:597,0
DA:598,0
DA:599,0
DA:600,0
DA:601,0
DA:602,0
DA:609,0
DA:610,0
DA:611,0
DA:614,0
DA:615,0
DA:616,0
DA:617,0
DA:620,0
DA:621,0
DA:622,0
DA:626,0
DA:627,0
DA:643,0
DA:644,0
DA:645,0
DA:647,0
DA:649,0
DA:652,0
DA:655,0
DA:656,0
DA:657,0
DA:659,0
DA:660,0
DA:662,0
DA:663,0
DA:664,0
DA:667,0
DA:670,0
DA:675,0
DA:676,0
DA:677,0
DA:678,0
DA:680,0
DA:683,0
DA:686,0
DA:689,0
DA:691,0
DA:692,0
DA:695,0
DA:696,0
DA:699,0
DA:700,0
DA:701,0
DA:702,0
DA:703,0
DA:705,0
DA:728,0
DA:729,0
DA:730,0
DA:731,0
DA:732,0
DA:733,0
DA:734,0
DA:735,0
DA:736,0
DA:737,0
DA:738,0
DA:739,0
DA:740,0
DA:741,0
DA:743,0
DA:744,0
DA:745,0
DA:746,0
DA:747,0
DA:748,0
DA:749,0
DA:750,0
DA:751,0
DA:752,0
DA:755,0
DA:767,0
DA:768,0
DA:769,0
DA:770,0
DA:771,0
DA:772,0
DA:775,0
DA:776,0
DA:777,0
DA:778,0
DA:779,0
DA:782,0
DA:785,0
DA:788,0
DA:789,0
DA:790,0
DA:791,0
DA:793,0
DA:796,0
DA:797,0
DA:798,0
DA:799,0
DA:800,0
DA:801,0
DA:803,0
DA:805,0
DA:806,0
DA:809,0
DA:814,0
DA:815,0
DA:816,0
DA:817,0
DA:819,0
DA:822,0
DA:825,0
DA:826,0
DA:827,0
DA:830,0
DA:833,0
DA:834,0
DA:835,0
DA:836,0
DA:837,0
DA:838,0
DA:839,0
DA:840,0
DA:841,0
DA:842,0
DA:843,0
DA:844,0
DA:845,0
DA:846,0
DA:849,0
DA:850,0
DA:851,0
DA:852,0
DA:853,0
DA:854,0
DA:860,0
DA:861,0
DA:862,0
DA:863,0
DA:864,0
DA:865,0
DA:866,0
DA:867,0
DA:868,0
DA:869,0
DA:874,0
DA:875,0
DA:876,0
DA:879,0
DA:881,0
DA:882,0
DA:883,0
DA:884,0
DA:885,0
DA:887,0
DA:888,0
DA:889,0
DA:890,0
DA:892,0
DA:893,0
DA:894,0
DA:895,0
DA:896,0
DA:897,0
DA:898,0
DA:899,0
DA:900,0
DA:901,0
DA:904,0
DA:907,0
DA:908,0
DA:909,0
DA:910,0
DA:912,0
DA:913,0
DA:914,0
DA:915,0
DA:917,0
DA:920,0
DA:921,0
DA:922,0
DA:923,0
DA:925,0
DA:926,0
DA:927,0
DA:929,0
DA:931,0
DA:932,0
DA:933,0
DA:934,0
DA:935,0
DA:936,0
DA:937,0
DA:939,0
DA:940,0
DA:941,0
DA:942,0
DA:943,0
DA:944,0
DA:945,0
DA:946,0
DA:947,0
DA:951,0
DA:952,0
DA:953,0
DA:956,0
DA:958,0
DA:959,0
DA:960,0
DA:963,0
DA:964,0
DA:965,0
DA:966,0
DA:967,0
DA:968,0
DA:969,0
DA:972,0
DA:973,0
DA:974,0
DA:975,0
DA:976,0
DA:977,0
DA:979,0
DA:982,0
DA:985,0
DA:988,0
DA:989,0
DA:990,0
DA:991,0
DA:995,0
DA:996,0
DA:998,0
DA:999,0
DA:1000,0
DA:1001,0
DA:1005,0
DA:1006,0
DA:1007,0
DA:1008,0
DA:1010,0
DA:1011,0
DA:1012,0
DA:1013,0
DA:1014,0
DA:1016,0
DA:1019,0
DA:1022,0
DA:1023,0
DA:1024,0
DA:1025,0
DA:1026,0
DA:1027,0
DA:1029,0
DA:1030,0
DA:1033,0
DA:1034,0
DA:1035,0
DA:1036,0
DA:1037,0
DA:1038,0
DA:1039,0
DA:1040,0
DA:1041,0
DA:1042,0
DA:1043,0
DA:1044,0
DA:1046,0
DA:1048,0
DA:1049,0
DA:1052,0
DA:1053,0
DA:1054,0
DA:1056,0
DA:1057,0
DA:1058,0
DA:1061,0
DA:1066,0
DA:1067,0
DA:1069,0
DA:1070,0
DA:1071,0
DA:1073,0
DA:1074,0
DA:1075,0
DA:1078,0
DA:1079,0
DA:1080,0
DA:1082,0
DA:1083,0
DA:1084,0
DA:1088,0
DA:1089,0
DA:1092,0
DA:1093,0
DA:1094,0
DA:1095,0
DA:1096,0
DA:1097,0
DA:1098,0
DA:1102,0
DA:1104,0
DA:1105,0
DA:1106,0
DA:1107,0
DA:1108,0
DA:1109,0
DA:1110,0
DA:1111,0
DA:1112,0
DA:1113,0
DA:1114,0
DA:1115,0
DA:1117,0
DA:1118,0
DA:1119,0
DA:1120,0
DA:1121,0
DA:1122,0
DA:1124,0
DA:1125,0
DA:1126,0
DA:1127,0
DA:1128,0
DA:1129,0
DA:1132,0
DA:1134,0
DA:1135,0
DA:1136,0
DA:1138,0
DA:1139,0
DA:1140,0
DA:1141,0
DA:1142,0
DA:1143,0
DA:1144,0
DA:1145,0
DA:1147,0
DA:1150,0
DA:1151,0
DA:1152,0
DA:1153,0
DA:1154,0
DA:1155,0
DA:1156,0
DA:1157,0
DA:1159,0
DA:1160,0
DA:1161,0
DA:1162,0
DA:1163,0
DA:1164,0
DA:1165,0
DA:1166,0
DA:1167,0
DA:1168,0
DA:1169,0
DA:1172,0
DA:1173,0
DA:1174,0
DA:1175,0
DA:1176,0
DA:1177,0
DA:1178,0
DA:1180,0
DA:1185,0
DA:1186,0
DA:1187,0
DA:1189,0
DA:1190,0
DA:1208,0
DA:1209,0
DA:1211,0
DA:1212,0
DA:1213,0
DA:1214,0
DA:1215,0
DA:1216,0
DA:1217,0
DA:1218,0
DA:1220,0
DA:1221,0
DA:1222,0
DA:1223,0
DA:1224,0
DA:1225,0
DA:1226,0
DA:1227,0
DA:1228,0
DA:1232,0
DA:1233,0
DA:1234,0
DA:1235,0
DA:1236,0
DA:1237,0
DA:1238,0
DA:1239,0
DA:1241,0
DA:1242,0
DA:1243,0
DA:1244,0
DA:1245,0
DA:1246,0
DA:1247,0
DA:1248,0
DA:1249,0
DA:1253,0
DA:1254,0
DA:1255,0
DA:1256,0
DA:1257,0
DA:1258,0
DA:1259,0
DA:1260,0
DA:1262,0
DA:1263,0
DA:1264,0
DA:1265,0
DA:1266,0
DA:1267,0
DA:1268,0
DA:1269,0
DA:1270,0
DA:1274,0
DA:1275,0
DA:1276,0
DA:1277,0
DA:1278,0
DA:1279,0
DA:1280,0
DA:1281,0
DA:1282,0
DA:1283,0
DA:1284,0
DA:1285,0
DA:1287,0
DA:1288,0
DA:1289,0
DA:1290,0
DA:1291,0
DA:1292,0
DA:1293,0
DA:1294,0
DA:1295,0
DA:1296,0
DA:1297,0
DA:1298,0
DA:1299,0
DA:1303,0
DA:1304,0
DA:1306,0
DA:1307,0
DA:1308,0
DA:1310,0
DA:1313,0
DA:1314,0
DA:1315,0
DA:1316,0
DA:1317,0
DA:1318,0
DA:1319,0
DA:1320,0
DA:1321,0
DA:1325,0
DA:1326,0
DA:1327,0
DA:1328,0
DA:1329,0
DA:1330,0
DA:1336,0
DA:1337,0
DA:1338,0
DA:1339,0
DA:1340,0
DA:1341,0
DA:1342,0
DA:1343,0
DA:1348,0
DA:1350,0
DA:1351,0
DA:1352,0
DA:1353,0
DA:1354,0
DA:1357,0
DA:1358,0
DA:1360,0
DA:1362,0
DA:1363,0
DA:1364,0
DA:1365,0
DA:1366,0
DA:1367,0
DA:1368,0
DA:1369,0
DA:1370,0
DA:1371,0
DA:1372,0
DA:1373,0
DA:1376,0
DA:1377,0
DA:1381,0
DA:1382,0
DA:1383,0
DA:1384,0
DA:1385,0
DA:1386,0
DA:1387,0
DA:1388,0
DA:1389,0
DA:1390,0
DA:1392,0
DA:1393,0
DA:1394,0
DA:1395,0
DA:1396,0
DA:1397,0
DA:1398,0
DA:1399,0
DA:1400,0
DA:1401,0
DA:1402,0
DA:1405,0
DA:1406,0
DA:1408,0
DA:1409,0
DA:1413,0
DA:1414,0
DA:1768,0
DA:1790,0
DA:1791,0
DA:1792,0
DA:1793,0
DA:1794,0
DA:1795,0
DA:1796,0
DA:1801,0
DA:1802,0
DA:1805,0
DA:1806,0
DA:1807,0
DA:1808,0
DA:1809,0
DA:1810,0
DA:1812,0
DA:1813,0
DA:1814,0
DA:1817,0
DA:1818,0
DA:1821,0
DA:1822,0
DA:1823,0
DA:1825,0
DA:1826,0
DA:1827,0
DA:1828,0
DA:1829,0
DA:1830,0
DA:1831,0
DA:1832,0
DA:1833,0
DA:1837,0
DA:1838,0
DA:1840,0
DA:1841,0
DA:1844,0
DA:1845,0
DA:1846,0
DA:1847,0
DA:1848,0
DA:1849,0
DA:1851,0
DA:1853,0
DA:1854,0
DA:1856,0
DA:1857,0
DA:1858,0
DA:1859,0
DA:1861,0
DA:1863,0
DA:1864,0
DA:1866,0
DA:1867,0
DA:1868,0
DA:1869,0
DA:1870,0
DA:1871,0
DA:1872,0
DA:1873,0
DA:1874,0
DA:1875,0
DA:1879,0
DA:1880,0
DA:1883,0
DA:1884,0
DA:1885,0
DA:1886,0
DA:1889,0
DA:1890,0
DA:1891,0
DA:1894,0
DA:1896,0
DA:1897,0
DA:1900,0
DA:1901,0
DA:1902,0
DA:1903,0
DA:1906,0
DA:1907,0
DA:1909,0
DA:1910,0
DA:1911,0
DA:1912,0
DA:1914,0
DA:1915,0
DA:1916,0
DA:1917,0
DA:1919,0
DA:1920,0
DA:1921,0
DA:1922,0
DA:1923,0
DA:1924,0
DA:1925,0
DA:1926,0
DA:1927,0
DA:1928,0
DA:1929,0
DA:1931,0
DA:1932,0
DA:1933,0
DA:1934,0
DA:1936,0
DA:1938,0
DA:1939,0
BRF:0
BRH:0
LF:1028
LH:0
end_of_record
SF:/home/noah/src/ruchy/src/bin/ruchy.rs
FN:1007,_RNvCscQNPXBVttCD_5ruchy12check_syntax
FN:986,_RNvCscQNPXBVttCD_5ruchy8run_file
FN:45,_RNvXCscQNPXBVttCD_5ruchyNtB2_12FormatConfigNtNtCs66KPHxksi63_4core7default7Default7default
FN:981,_RNvCscQNPXBVttCD_5ruchy23handle_advanced_command
FN:897,_RNvCscQNPXBVttCD_5ruchy4main
FNDA:0,_RNvCscQNPXBVttCD_5ruchy12check_syntax
FNDA:0,_RNvCscQNPXBVttCD_5ruchy8run_file
FNDA:0,_RNvXCscQNPXBVttCD_5ruchyNtB2_12FormatConfigNtNtCs66KPHxksi63_4core7default7Default7default
FNDA:0,_RNvCscQNPXBVttCD_5ruchy23handle_advanced_command
FNDA:0,_RNvCscQNPXBVttCD_5ruchy4main
FNF:5
FNH:0
DA:45,0
DA:46,0
DA:47,0
DA:48,0
DA:49,0
DA:50,0
DA:51,0
DA:897,0
DA:898,0
DA:901,0
DA:902,0
DA:903,0
DA:906,0
DA:907,0
DA:908,0
DA:911,0
DA:912,0
DA:913,0
DA:915,0
DA:916,0
DA:917,0
DA:918,0
DA:921,0
DA:922,0
DA:923,0
DA:926,0
DA:928,0
DA:929,0
DA:931,0
DA:932,0
DA:934,0
DA:935,0
DA:938,0
DA:939,0
DA:940,0
DA:941,0
DA:942,0
DA:943,0
DA:945,0
DA:947,0
DA:948,0
DA:951,0
DA:952,0
DA:953,0
DA:954,0
DA:955,0
DA:956,0
DA:957,0
DA:958,0
DA:959,0
DA:961,0
DA:962,0
DA:963,0
DA:964,0
DA:965,0
DA:966,0
DA:967,0
DA:968,0
DA:969,0
DA:970,0
DA:971,0
DA:973,0
DA:974,0
DA:978,0
DA:979,0
DA:981,0
DA:983,0
DA:984,0
DA:986,0
DA:987,0
DA:990,0
DA:991,0
DA:992,0
DA:994,0
DA:995,0
DA:996,0
DA:997,0
DA:999,0
DA:1000,0
DA:1001,0
DA:1004,0
DA:1007,0
DA:1009,0
DA:1010,0
DA:1011,0
DA:1013,0
DA:1014,0
DA:1016,0
DA:1017,0
DA:1018,0
DA:1021,0
BRF:0
BRH:0
LF:91
LH:0
end_of_record
SF:/home/noah/src/ruchy/src/frontend/arena.rs
FN:31,_RINvMNtNtCsdG3rhVUllIu_5ruchy8frontend5arenaNtB3_5Arena5allocpEB7_
FN:118,_RNvMs2_NtNtCsdG3rhVUllIu_5ruchy8frontend5arenaINtB5_13BumpAllocatorpE13with_capacityB9_
FN:135,_RNvMs2_NtNtCsdG3rhVUllIu_5ruchy8frontend5arenaINtB5_13BumpAllocatorpE3getB9_
FN:143,_RNvMs2_NtNtCsdG3rhVUllIu_5ruchy8frontend5arenaINtB5_13BumpAllocatorpE3lenB9_
FN:126,_RNvMs2_NtNtCsdG3rhVUllIu_5ruchy8frontend5arenaINtB5_13BumpAllocatorpE5allocB9_
FN:153,_RNvMs2_NtNtCsdG3rhVUllIu_5ruchy8frontend5arenaINtB5_13BumpAllocatorpE5clearB9_
FN:148,_RNvMs2_NtNtCsdG3rhVUllIu_5ruchy8frontend5arenaINtB5_13BumpAllocatorpE8is_emptyB9_
FN:160,_RNvXININtNtCsdG3rhVUllIu_5ruchy8frontend5arenas3_0pEINtB5_13BumpAllocatorpENtNtCs66KPHxksi63_4core7default7Default7defaultB9_
FN:92,_RNCNvMs0_NtNtCsdG3rhVUllIu_5ruchy8frontend5arenaNtB7_14StringInterner5stats0Bb_
FN:41,_RNvMNtNtCsdG3rhVUllIu_5ruchy8frontend5arenaNtB2_5Arena15total_allocated
FN:23,_RNvMNtNtCsdG3rhVUllIu_5ruchy8frontend5arenaNtB2_5Arena3new
FN:51,_RNvMNtNtCsdG3rhVUllIu_5ruchy8frontend5arenaNtB2_5Arena5clear
FN:46,_RNvMNtNtCsdG3rhVUllIu_5ruchy8frontend5arenaNtB2_5Arena9num_items
FN:70,_RNvMs0_NtNtCsdG3rhVUllIu_5ruchy8frontend5arenaNtB5_14StringInterner3new
FN:97,_RNvMs0_NtNtCsdG3rhVUllIu_5ruchy8frontend5arenaNtB5_14StringInterner5clear
FN:90,_RNvMs0_NtNtCsdG3rhVUllIu_5ruchy8frontend5arenaNtB5_14StringInterner5stats
FN:77,_RNvMs0_NtNtCsdG3rhVUllIu_5ruchy8frontend5arenaNtB5_14StringInterner6intern
FN:103,_RNvXs1_NtNtCsdG3rhVUllIu_5ruchy8frontend5arenaNtB5_14StringInternerNtNtCs66KPHxksi63_4core7default7Default7default
FN:58,_RNvXs_NtNtCsdG3rhVUllIu_5ruchy8frontend5arenaNtB4_5ArenaNtNtCs66KPHxksi63_4core7default7Default7default
FNDA:0,_RINvMNtNtCsdG3rhVUllIu_5ruchy8frontend5arenaNtB3_5Arena5allocpEB7_
FNDA:0,_RNvMs2_NtNtCsdG3rhVUllIu_5ruchy8frontend5arenaINtB5_13BumpAllocatorpE13with_capacityB9_
FNDA:0,_RNvMs2_NtNtCsdG3rhVUllIu_5ruchy8frontend5arenaINtB5_13BumpAllocatorpE3getB9_
FNDA:0,_RNvMs2_NtNtCsdG3rhVUllIu_5ruchy8frontend5arenaINtB5_13BumpAllocatorpE3lenB9_
FNDA:0,_RNvMs2_NtNtCsdG3rhVUllIu_5ruchy8frontend5arenaINtB5_13BumpAllocatorpE5allocB9_
FNDA:0,_RNvMs2_NtNtCsdG3rhVUllIu_5ruchy8frontend5arenaINtB5_13BumpAllocatorpE5clearB9_
FNDA:0,_RNvMs2_NtNtCsdG3rhVUllIu_5ruchy8frontend5arenaINtB5_13BumpAllocatorpE8is_emptyB9_
FNDA:0,_RNvXININtNtCsdG3rhVUllIu_5ruchy8frontend5arenas3_0pEINtB5_13BumpAllocatorpENtNtCs66KPHxksi63_4core7default7Default7defaultB9_
FNDA:0,_RNCNvMs0_NtNtCsdG3rhVUllIu_5ruchy8frontend5arenaNtB7_14StringInterner5stats0Bb_
FNDA:0,_RNvMNtNtCsdG3rhVUllIu_5ruchy8frontend5arenaNtB2_5Arena15total_allocated
FNDA:131,_RNvMNtNtCsdG3rhVUllIu_5ruchy8frontend5arenaNtB2_5Arena3new
FNDA:0,_RNvMNtNtCsdG3rhVUllIu_5ruchy8frontend5arenaNtB2_5Arena5clear
FNDA:0,_RNvMNtNtCsdG3rhVUllIu_5ruchy8frontend5arenaNtB2_5Arena9num_items
FNDA:131,_RNvMs0_NtNtCsdG3rhVUllIu_5ruchy8frontend5arenaNtB5_14StringInterner3new
FNDA:0,_RNvMs0_NtNtCsdG3rhVUllIu_5ruchy8frontend5arenaNtB5_14StringInterner5clear
FNDA:0,_RNvMs0_NtNtCsdG3rhVUllIu_5ruchy8frontend5arenaNtB5_14StringInterner5stats
FNDA:0,_RNvMs0_NtNtCsdG3rhVUllIu_5ruchy8frontend5arenaNtB5_14StringInterner6intern
FNDA:0,_RNvXs1_NtNtCsdG3rhVUllIu_5ruchy8frontend5arenaNtB5_14StringInternerNtNtCs66KPHxksi63_4core7default7Default7default
FNDA:0,_RNvXs_NtNtCsdG3rhVUllIu_5ruchy8frontend5arenaNtB4_5ArenaNtNtCs66KPHxksi63_4core7default7Default7default
FNF:19
FNH:2
DA:23,131
DA:24,131
DA:25,131
DA:26,131
DA:27,131
DA:28,131
DA:31,0
DA:32,0
DA:33,0
DA:34,0
DA:35,0
DA:36,0
DA:37,0
DA:38,0
DA:41,0
DA:42,0
DA:43,0
DA:46,0
DA:47,0
DA:48,0
DA:51,0
DA:52,0
DA:53,0
DA:54,0
DA:58,0
DA:59,0
DA:60,0
DA:70,131
DA:71,131
DA:72,131
DA:73,131
DA:74,131
DA:77,0
DA:78,0
DA:80,0
DA:81,0
DA:83,0
DA:84,0
DA:85,0
DA:87,0
DA:90,0
DA:91,0
DA:92,0
DA:93,0
DA:94,0
DA:97,0
DA:98,0
DA:99,0
DA:103,0
DA:104,0
DA:105,0
DA:118,0
DA:119,0
DA:120,0
DA:121,0
DA:122,0
DA:123,0
DA:126,0
DA:127,0
DA:128,0
DA:129,0
DA:130,0
DA:131,0
DA:132,0
DA:135,0
DA:136,0
DA:137,0
DA:139,0
DA:140,0
DA:143,0
DA:144,0
DA:145,0
DA:148,0
DA:149,0
DA:150,0
DA:153,0
DA:154,0
DA:155,0
DA:156,0
DA:160,0
DA:161,0
DA:162,0
BRF:0
BRH:0
LF:83
LH:11
end_of_record
SF:/home/noah/src/ruchy/src/frontend/ast.rs
FN:548,_RNCNvMs2_NtNtCsdG3rhVUllIu_5ruchy8frontend3astNtB7_7Pattern12primary_name0Bb_
FN:566,_RNCNvMs2_NtNtCsdG3rhVUllIu_5ruchy8frontend3astNtB7_7Pattern12primary_names0_0Bb_
FN:554,_RNCNvMs2_NtNtCsdG3rhVUllIu_5ruchy8frontend3astNtB7_7Pattern12primary_names_0Bb_
FN:15,_RNvMNtNtCsdG3rhVUllIu_5ruchy8frontend3astNtB2_4Span3new
FN:20,_RNvMNtNtCsdG3rhVUllIu_5ruchy8frontend3astNtB2_4Span5merge
FN:346,_RNvMs0_NtNtCsdG3rhVUllIu_5ruchy8frontend3astNtB5_7Literal10from_value
FN:426,_RNvMs1_NtNtCsdG3rhVUllIu_5ruchy8frontend3astNtB5_5Param4name
FN:540,_RNvMs2_NtNtCsdG3rhVUllIu_5ruchy8frontend3astNtB5_7Pattern12primary_name
FN:643,_RNvMs3_NtNtCsdG3rhVUllIu_5ruchy8frontend3astNtB5_10ImportItem13is_url_import
FN:47,_RNvMs_NtNtCsdG3rhVUllIu_5ruchy8frontend3astNtB4_4Expr15with_attributes
FN:38,_RNvMs_NtNtCsdG3rhVUllIu_5ruchy8frontend3astNtB4_4Expr3new
FN:660,_RNvXs4_NtNtCsdG3rhVUllIu_5ruchy8frontend3astNtB5_8BinaryOpNtNtCs66KPHxksi63_4core3fmt7Display3fmt
FN:686,_RNvXs5_NtNtCsdG3rhVUllIu_5ruchy8frontend3astNtB5_7UnaryOpNtNtCs66KPHxksi63_4core3fmt7Display3fmt
FNDA:0,_RNCNvMs2_NtNtCsdG3rhVUllIu_5ruchy8frontend3astNtB7_7Pattern12primary_name0Bb_
FNDA:0,_RNCNvMs2_NtNtCsdG3rhVUllIu_5ruchy8frontend3astNtB7_7Pattern12primary_names0_0Bb_
FNDA:0,_RNCNvMs2_NtNtCsdG3rhVUllIu_5ruchy8frontend3astNtB7_7Pattern12primary_names_0Bb_
FNDA:573,_RNvMNtNtCsdG3rhVUllIu_5ruchy8frontend3astNtB2_4Span3new
FNDA:105,_RNvMNtNtCsdG3rhVUllIu_5ruchy8frontend3astNtB2_4Span5merge
FNDA:0,_RNvMs0_NtNtCsdG3rhVUllIu_5ruchy8frontend3astNtB5_7Literal10from_value
FNDA:4,_RNvMs1_NtNtCsdG3rhVUllIu_5ruchy8frontend3astNtB5_5Param4name
FNDA:4,_RNvMs2_NtNtCsdG3rhVUllIu_5ruchy8frontend3astNtB5_7Pattern12primary_name
FNDA:0,_RNvMs3_NtNtCsdG3rhVUllIu_5ruchy8frontend3astNtB5_10ImportItem13is_url_import
FNDA:0,_RNvMs_NtNtCsdG3rhVUllIu_5ruchy8frontend3astNtB4_4Expr15with_attributes
FNDA:389,_RNvMs_NtNtCsdG3rhVUllIu_5ruchy8frontend3astNtB4_4Expr3new
FNDA:0,_RNvXs4_NtNtCsdG3rhVUllIu_5ruchy8frontend3astNtB5_8BinaryOpNtNtCs66KPHxksi63_4core3fmt7Display3fmt
FNDA:0,_RNvXs5_NtNtCsdG3rhVUllIu_5ruchy8frontend3astNtB5_7UnaryOpNtNtCs66KPHxksi63_4core3fmt7Display3fmt
FNF:13
FNH:5
DA:15,573
DA:16,573
DA:17,573
DA:20,105
DA:21,105
DA:22,105
DA:23,105
DA:24,105
DA:25,105
DA:38,389
DA:39,389
DA:40,389
DA:41,389
DA:42,389
DA:43,389
DA:44,389
DA:47,0
DA:48,0
DA:49,0
DA:50,0
DA:51,0
DA:52,0
DA:53,0
DA:346,0
DA:348,0
DA:349,0
DA:350,0
DA:351,0
DA:352,0
DA:353,0
DA:354,0
DA:355,0
DA:357,0
DA:426,4
DA:427,4
DA:428,4
DA:540,4
DA:541,4
DA:542,4
DA:543,0
DA:544,0
DA:546,0
DA:547,0
DA:548,0
DA:550,0
DA:552,0
DA:553,0
DA:554,0
DA:556,0
DA:558,0
DA:560,0
DA:561,0
DA:562,0
DA:564,0
DA:565,0
DA:566,0
DA:568,0
DA:569,0
DA:570,0
DA:571,0
DA:572,0
DA:574,4
DA:643,0
DA:644,0
DA:645,0
DA:660,0
DA:661,0
DA:662,0
DA:663,0
DA:664,0
DA:665,0
DA:666,0
DA:667,0
DA:668,0
DA:669,0
DA:670,0
DA:671,0
DA:672,0
DA:673,0
DA:674,0
DA:675,0
DA:676,0
DA:677,0
DA:678,0
DA:679,0
DA:680,0
DA:682,0
DA:686,0
DA:687,0
DA:688,0
DA:689,0
DA:690,0
DA:691,0
DA:693,0
BRF:0
BRH:0
LF:97
LH:23
end_of_record
SF:/home/noah/src/ruchy/src/frontend/diagnostics.rs
FN:34,_RNvMNtNtCsdG3rhVUllIu_5ruchy8frontend11diagnosticsNtB2_10Diagnostic13with_filename
FN:39,_RNvMNtNtCsdG3rhVUllIu_5ruchy8frontend11diagnosticsNtB2_10Diagnostic14add_suggestion
FN:74,_RNvMNtNtCsdG3rhVUllIu_5ruchy8frontend11diagnosticsNtB2_10Diagnostic14format_colored
FN:44,_RNvMNtNtCsdG3rhVUllIu_5ruchy8frontend11diagnosticsNtB2_10Diagnostic18get_source_context
FN:25,_RNvMNtNtCsdG3rhVUllIu_5ruchy8frontend11diagnosticsNtB2_10Diagnostic3new
FN:167,_RNvNtNtCsdG3rhVUllIu_5ruchy8frontend11diagnostics17suggest_for_error
FN:161,_RNvXs_NtNtCsdG3rhVUllIu_5ruchy8frontend11diagnosticsNtB4_10DiagnosticNtNtCs66KPHxksi63_4core3fmt7Display3fmt
FNDA:0,_RNvMNtNtCsdG3rhVUllIu_5ruchy8frontend11diagnosticsNtB2_10Diagnostic13with_filename
FNDA:0,_RNvMNtNtCsdG3rhVUllIu_5ruchy8frontend11diagnosticsNtB2_10Diagnostic14add_suggestion
FNDA:0,_RNvMNtNtCsdG3rhVUllIu_5ruchy8frontend11diagnosticsNtB2_10Diagnostic14format_colored
FNDA:0,_RNvMNtNtCsdG3rhVUllIu_5ruchy8frontend11diagnosticsNtB2_10Diagnostic18get_source_context
FNDA:0,_RNvMNtNtCsdG3rhVUllIu_5ruchy8frontend11diagnosticsNtB2_10Diagnostic3new
FNDA:0,_RNvNtNtCsdG3rhVUllIu_5ruchy8frontend11diagnostics17suggest_for_error
FNDA:0,_RNvXs_NtNtCsdG3rhVUllIu_5ruchy8frontend11diagnosticsNtB4_10DiagnosticNtNtCs66KPHxksi63_4core3fmt7Display3fmt
FNF:7
FNH:0
DA:25,0
DA:26,0
DA:27,0
DA:28,0
DA:29,0
DA:30,0
DA:31,0
DA:32,0
DA:34,0
DA:35,0
DA:36,0
DA:37,0
DA:39,0
DA:40,0
DA:41,0
DA:44,0
DA:45,0
DA:48,0
DA:49,0
DA:50,0
DA:52,0
DA:53,0
DA:54,0
DA:55,0
DA:56,0
DA:57,0
DA:58,0
DA:59,0
DA:63,0
DA:66,0
DA:67,0
DA:68,0
DA:70,0
DA:71,0
DA:74,0
DA:75,0
DA:78,0
DA:79,0
DA:80,0
DA:81,0
DA:82,0
DA:84,0
DA:85,0
DA:88,0
DA:89,0
DA:90,0
DA:91,0
DA:92,0
DA:93,0
DA:94,0
DA:95,0
DA:96,0
DA:97,0
DA:98,0
DA:99,0
DA:100,0
DA:101,0
DA:102,0
DA:103,0
DA:104,0
DA:105,0
DA:106,0
DA:109,0
DA:110,0
DA:112,0
DA:113,0
DA:114,0
DA:117,0
DA:118,0
DA:119,0
DA:120,0
DA:123,0
DA:124,0
DA:125,0
DA:126,0
DA:127,0
DA:130,0
DA:131,0
DA:132,0
DA:133,0
DA:134,0
DA:135,0
DA:136,0
DA:137,0
DA:138,0
DA:139,0
DA:140,0
DA:141,0
DA:145,0
DA:146,0
DA:147,0
DA:148,0
DA:149,0
DA:150,0
DA:151,0
DA:153,0
DA:155,0
DA:156,0
DA:157,0
DA:161,0
DA:162,0
DA:163,0
DA:167,0
DA:168,0
DA:171,0
DA:172,0
DA:173,0
DA:174,0
DA:175,0
DA:176,0
DA:177,0
DA:178,0
DA:179,0
DA:180,0
DA:183,0
DA:184,0
DA:185,0
DA:186,0
DA:187,0
DA:188,0
DA:189,0
DA:190,0
DA:191,0
DA:192,0
DA:195,0
DA:196,0
DA:197,0
DA:198,0
DA:199,0
DA:200,0
DA:201,0
DA:202,0
DA:203,0
DA:204,0
DA:205,0
DA:206,0
DA:207,0
DA:208,0
DA:209,0
DA:210,0
DA:211,0
DA:212,0
DA:213,0
DA:214,0
DA:215,0
DA:216,0
DA:217,0
DA:218,0
DA:219,0
DA:220,0
DA:221,0
DA:222,0
DA:223,0
DA:224,0
DA:226,0
DA:227,0
BRF:0
BRH:0
LF:156
LH:0
end_of_record
SF:/home/noah/src/ruchy/src/frontend/error_recovery.rs
FN:741,_RNCNvMs1_NtNtCsdG3rhVUllIu_5ruchy8frontend14error_recoveryNtB7_14RecoveryParser11synchronize0Bb_
FN:765,_RNCNvMs1_NtNtCsdG3rhVUllIu_5ruchy8frontend14error_recoveryNtB7_14RecoveryParser14synchronize_to0Bb_
FN:151,_RNvMs0_NtNtCsdG3rhVUllIu_5ruchy8frontend14error_recoveryNtB5_10ParseError12with_context
FN:135,_RNvMs0_NtNtCsdG3rhVUllIu_5ruchy8frontend14error_recoveryNtB5_10ParseError13missing_token
FN:165,_RNvMs0_NtNtCsdG3rhVUllIu_5ruchy8frontend14error_recoveryNtB5_10ParseError13with_severity
FN:118,_RNvMs0_NtNtCsdG3rhVUllIu_5ruchy8frontend14error_recoveryNtB5_10ParseError16unexpected_token
FN:104,_RNvMs0_NtNtCsdG3rhVUllIu_5ruchy8frontend14error_recoveryNtB5_10ParseError3new
FN:172,_RNvMs0_NtNtCsdG3rhVUllIu_5ruchy8frontend14error_recoveryNtB5_10ParseError9with_code
FN:158,_RNvMs0_NtNtCsdG3rhVUllIu_5ruchy8frontend14error_recoveryNtB5_10ParseError9with_hint
FN:773,_RNvMs1_NtNtCsdG3rhVUllIu_5ruchy8frontend14error_recoveryNtB5_14RecoveryParser10precedence
FN:718,_RNvMs1_NtNtCsdG3rhVUllIu_5ruchy8frontend14error_recoveryNtB5_14RecoveryParser11synchronize
FN:685,_RNvMs1_NtNtCsdG3rhVUllIu_5ruchy8frontend14error_recoveryNtB5_14RecoveryParser12record_error
FN:755,_RNvMs1_NtNtCsdG3rhVUllIu_5ruchy8frontend14error_recoveryNtB5_14RecoveryParser14synchronize_to
FN:672,_RNvMs1_NtNtCsdG3rhVUllIu_5ruchy8frontend14error_recoveryNtB5_14RecoveryParser17create_ghost_node
FN:699,_RNvMs1_NtNtCsdG3rhVUllIu_5ruchy8frontend14error_recoveryNtB5_14RecoveryParser17expect_or_recover
FN:398,_RNvMs1_NtNtCsdG3rhVUllIu_5ruchy8frontend14error_recoveryNtB5_14RecoveryParser17parse_if_recovery
FN:438,_RNvMs1_NtNtCsdG3rhVUllIu_5ruchy8frontend14error_recoveryNtB5_14RecoveryParser18parse_let_recovery
FN:790,_RNvMs1_NtNtCsdG3rhVUllIu_5ruchy8frontend14error_recoveryNtB5_14RecoveryParser18token_to_binary_op
FN:239,_RNvMs1_NtNtCsdG3rhVUllIu_5ruchy8frontend14error_recoveryNtB5_14RecoveryParser19parse_expr_recovery
FN:563,_RNvMs1_NtNtCsdG3rhVUllIu_5ruchy8frontend14error_recoveryNtB5_14RecoveryParser19parse_list_recovery
FN:646,_RNvMs1_NtNtCsdG3rhVUllIu_5ruchy8frontend14error_recoveryNtB5_14RecoveryParser19parse_type_recovery
FN:208,_RNvMs1_NtNtCsdG3rhVUllIu_5ruchy8frontend14error_recoveryNtB5_14RecoveryParser19parse_with_recovery
FN:528,_RNvMs1_NtNtCsdG3rhVUllIu_5ruchy8frontend14error_recoveryNtB5_14RecoveryParser20parse_block_recovery
FN:588,_RNvMs1_NtNtCsdG3rhVUllIu_5ruchy8frontend14error_recoveryNtB5_14RecoveryParser20parse_paren_recovery
FN:595,_RNvMs1_NtNtCsdG3rhVUllIu_5ruchy8frontend14error_recoveryNtB5_14RecoveryParser21parse_params_recovery
FN:313,_RNvMs1_NtNtCsdG3rhVUllIu_5ruchy8frontend14error_recoveryNtB5_14RecoveryParser21parse_prefix_recovery
FN:486,_RNvMs1_NtNtCsdG3rhVUllIu_5ruchy8frontend14error_recoveryNtB5_14RecoveryParser23parse_function_recovery
FN:243,_RNvMs1_NtNtCsdG3rhVUllIu_5ruchy8frontend14error_recoveryNtB5_14RecoveryParser35parse_expr_with_precedence_recovery
FN:197,_RNvMs1_NtNtCsdG3rhVUllIu_5ruchy8frontend14error_recoveryNtB5_14RecoveryParser3new
FN:62,_RNvXNtNtCsdG3rhVUllIu_5ruchy8frontend14error_recoveryNtB2_10ParseErrorNtNtCs66KPHxksi63_4core3fmt7Display3fmt
FNDA:0,_RNCNvMs1_NtNtCsdG3rhVUllIu_5ruchy8frontend14error_recoveryNtB7_14RecoveryParser11synchronize0Bb_
FNDA:0,_RNCNvMs1_NtNtCsdG3rhVUllIu_5ruchy8frontend14error_recoveryNtB7_14RecoveryParser14synchronize_to0Bb_
FNDA:0,_RNvMs0_NtNtCsdG3rhVUllIu_5ruchy8frontend14error_recoveryNtB5_10ParseError12with_context
FNDA:0,_RNvMs0_NtNtCsdG3rhVUllIu_5ruchy8frontend14error_recoveryNtB5_10ParseError13missing_token
FNDA:0,_RNvMs0_NtNtCsdG3rhVUllIu_5ruchy8frontend14error_recoveryNtB5_10ParseError13with_severity
FNDA:0,_RNvMs0_NtNtCsdG3rhVUllIu_5ruchy8frontend14error_recoveryNtB5_10ParseError16unexpected_token
FNDA:0,_RNvMs0_NtNtCsdG3rhVUllIu_5ruchy8frontend14error_recoveryNtB5_10ParseError3new
FNDA:0,_RNvMs0_NtNtCsdG3rhVUllIu_5ruchy8frontend14error_recoveryNtB5_10ParseError9with_code
FNDA:0,_RNvMs0_NtNtCsdG3rhVUllIu_5ruchy8frontend14error_recoveryNtB5_10ParseError9with_hint
FNDA:0,_RNvMs1_NtNtCsdG3rhVUllIu_5ruchy8frontend14error_recoveryNtB5_14RecoveryParser10precedence
FNDA:0,_RNvMs1_NtNtCsdG3rhVUllIu_5ruchy8frontend14error_recoveryNtB5_14RecoveryParser11synchronize
FNDA:0,_RNvMs1_NtNtCsdG3rhVUllIu_5ruchy8frontend14error_recoveryNtB5_14RecoveryParser12record_error
FNDA:0,_RNvMs1_NtNtCsdG3rhVUllIu_5ruchy8frontend14error_recoveryNtB5_14RecoveryParser14synchronize_to
FNDA:0,_RNvMs1_NtNtCsdG3rhVUllIu_5ruchy8frontend14error_recoveryNtB5_14RecoveryParser17create_ghost_node
FNDA:0,_RNvMs1_NtNtCsdG3rhVUllIu_5ruchy8frontend14error_recoveryNtB5_14RecoveryParser17expect_or_recover
FNDA:0,_RNvMs1_NtNtCsdG3rhVUllIu_5ruchy8frontend14error_recoveryNtB5_14RecoveryParser17parse_if_recovery
FNDA:0,_RNvMs1_NtNtCsdG3rhVUllIu_5ruchy8frontend14error_recoveryNtB5_14RecoveryParser18parse_let_recovery
FNDA:0,_RNvMs1_NtNtCsdG3rhVUllIu_5ruchy8frontend14error_recoveryNtB5_14RecoveryParser18token_to_binary_op
FNDA:0,_RNvMs1_NtNtCsdG3rhVUllIu_5ruchy8frontend14error_recoveryNtB5_14RecoveryParser19parse_expr_recovery
FNDA:0,_RNvMs1_NtNtCsdG3rhVUllIu_5ruchy8frontend14error_recoveryNtB5_14RecoveryParser19parse_list_recovery
FNDA:0,_RNvMs1_NtNtCsdG3rhVUllIu_5ruchy8frontend14error_recoveryNtB5_14RecoveryParser19parse_type_recovery
FNDA:0,_RNvMs1_NtNtCsdG3rhVUllIu_5ruchy8frontend14error_recoveryNtB5_14RecoveryParser19parse_with_recovery
FNDA:0,_RNvMs1_NtNtCsdG3rhVUllIu_5ruchy8frontend14error_recoveryNtB5_14RecoveryParser20parse_block_recovery
FNDA:0,_RNvMs1_NtNtCsdG3rhVUllIu_5ruchy8frontend14error_recoveryNtB5_14RecoveryParser20parse_paren_recovery
FNDA:0,_RNvMs1_NtNtCsdG3rhVUllIu_5ruchy8frontend14error_recoveryNtB5_14RecoveryParser21parse_params_recovery
FNDA:0,_RNvMs1_NtNtCsdG3rhVUllIu_5ruchy8frontend14error_recoveryNtB5_14RecoveryParser21parse_prefix_recovery
FNDA:0,_RNvMs1_NtNtCsdG3rhVUllIu_5ruchy8frontend14error_recoveryNtB5_14RecoveryParser23parse_function_recovery
FNDA:0,_RNvMs1_NtNtCsdG3rhVUllIu_5ruchy8frontend14error_recoveryNtB5_14RecoveryParser35parse_expr_with_precedence_recovery
FNDA:0,_RNvMs1_NtNtCsdG3rhVUllIu_5ruchy8frontend14error_recoveryNtB5_14RecoveryParser3new
FNDA:0,_RNvXNtNtCsdG3rhVUllIu_5ruchy8frontend14error_recoveryNtB2_10ParseErrorNtNtCs66KPHxksi63_4core3fmt7Display3fmt
FNF:30
FNH:0
DA:62,0
DA:64,0
DA:67,0
DA:68,0
DA:69,0
DA:72,0
DA:75,0
DA:76,0
DA:77,0
DA:78,0
DA:79,0
DA:80,0
DA:83,0
DA:84,0
DA:85,0
DA:86,0
DA:87,0
DA:88,0
DA:89,0
DA:92,0
DA:93,0
DA:94,0
DA:96,0
DA:97,0
DA:104,0
DA:105,0
DA:106,0
DA:107,0
DA:108,0
DA:109,0
DA:110,0
DA:111,0
DA:112,0
DA:113,0
DA:114,0
DA:115,0
DA:118,0
DA:119,0
DA:120,0
DA:121,0
DA:122,0
DA:123,0
DA:124,0
DA:125,0
DA:126,0
DA:127,0
DA:128,0
DA:129,0
DA:130,0
DA:131,0
DA:132,0
DA:135,0
DA:136,0
DA:137,0
DA:138,0
DA:139,0
DA:140,0
DA:141,0
DA:142,0
DA:143,0
DA:144,0
DA:145,0
DA:146,0
DA:147,0
DA:151,0
DA:152,0
DA:153,0
DA:154,0
DA:158,0
DA:159,0
DA:160,0
DA:161,0
DA:165,0
DA:166,0
DA:167,0
DA:168,0
DA:172,0
DA:173,0
DA:174,0
DA:175,0
DA:197,0
DA:198,0
DA:199,0
DA:200,0
DA:201,0
DA:202,0
DA:203,0
DA:204,0
DA:205,0
DA:208,0
DA:209,0
DA:210,0
DA:211,0
DA:212,0
DA:213,0
DA:214,0
DA:215,0
DA:217,0
DA:218,0
DA:219,0
DA:220,0
DA:221,0
DA:222,0
DA:224,0
DA:226,0
DA:227,0
DA:228,0
DA:230,0
DA:231,0
DA:232,0
DA:233,0
DA:234,0
DA:237,0
DA:239,0
DA:240,0
DA:241,0
DA:243,0
DA:244,0
DA:246,0
DA:249,0
DA:250,0
DA:251,0
DA:252,0
DA:253,0
DA:255,0
DA:256,0
DA:258,0
DA:259,0
DA:262,0
DA:263,0
DA:264,0
DA:266,0
DA:267,0
DA:268,0
DA:269,0
DA:270,0
DA:272,0
DA:273,0
DA:274,0
DA:275,0
DA:276,0
DA:277,0
DA:279,0
DA:283,0
DA:285,0
DA:288,0
DA:289,0
DA:290,0
DA:291,0
DA:293,0
DA:296,0
DA:297,0
DA:298,0
DA:299,0
DA:300,0
DA:301,0
DA:302,0
DA:303,0
DA:306,0
DA:310,0
DA:311,0
DA:313,0
DA:316,0
DA:317,0
DA:318,0
DA:319,0
DA:320,0
DA:321,0
DA:323,0
DA:324,0
DA:326,0
DA:327,0
DA:328,0
DA:329,0
DA:330,0
DA:331,0
DA:333,0
DA:334,0
DA:335,0
DA:336,0
DA:337,0
DA:339,0
DA:340,0
DA:341,0
DA:342,0
DA:343,0
DA:345,0
DA:346,0
DA:347,0
DA:348,0
DA:349,0
DA:351,0
DA:352,0
DA:353,0
DA:354,0
DA:355,0
DA:357,0
DA:358,0
DA:359,0
DA:360,0
DA:361,0
DA:362,0
DA:363,0
DA:366,0
DA:367,0
DA:368,0
DA:369,0
DA:370,0
DA:373,0
DA:374,0
DA:376,0
DA:377,0
DA:378,0
DA:379,0
DA:382,0
DA:383,0
DA:386,0
DA:387,0
DA:388,0
DA:390,0
DA:394,0
DA:395,0
DA:396,0
DA:398,0
DA:399,0
DA:401,0
DA:402,0
DA:404,0
DA:405,0
DA:406,0
DA:408,0
DA:411,0
DA:412,0
DA:414,0
DA:415,0
DA:416,0
DA:417,0
DA:419,0
DA:422,0
DA:423,0
DA:425,0
DA:428,0
DA:429,0
DA:430,0
DA:431,0
DA:432,0
DA:433,0
DA:434,0
DA:436,0
DA:438,0
DA:439,0
DA:441,0
DA:442,0
DA:444,0
DA:445,0
DA:446,0
DA:448,0
DA:451,0
DA:453,0
DA:454,0
DA:456,0
DA:457,0
DA:458,0
DA:460,0
DA:463,0
DA:464,0
DA:465,0
DA:466,0
DA:467,0
DA:470,0
DA:473,0
DA:474,0
DA:475,0
DA:476,0
DA:477,0
DA:478,0
DA:479,0
DA:480,0
DA:481,0
DA:482,0
DA:484,0
DA:486,0
DA:487,0
DA:489,0
DA:490,0
DA:492,0
DA:493,0
DA:494,0
DA:496,0
DA:499,0
DA:500,0
DA:501,0
DA:503,0
DA:504,0
DA:505,0
DA:507,0
DA:510,0
DA:511,0
DA:513,0
DA:514,0
DA:515,0
DA:516,0
DA:517,0
DA:518,0
DA:519,0
DA:520,0
DA:521,0
DA:522,0
DA:523,0
DA:524,0
DA:526,0
DA:528,0
DA:529,0
DA:530,0
DA:531,0
DA:532,0
DA:533,0
DA:535,0
DA:536,0
DA:537,0
DA:538,0
DA:540,0
DA:541,0
DA:542,0
DA:543,0
DA:547,0
DA:548,0
DA:549,0
DA:552,0
DA:554,0
DA:555,0
DA:557,0
DA:560,0
DA:561,0
DA:563,0
DA:564,0
DA:565,0
DA:567,0
DA:568,0
DA:569,0
DA:570,0
DA:571,0
DA:572,0
DA:575,0
DA:576,0
DA:577,0
DA:578,0
DA:582,0
DA:583,0
DA:585,0
DA:586,0
DA:588,0
DA:589,0
DA:590,0
DA:591,0
DA:592,0
DA:593,0
DA:595,0
DA:596,0
DA:598,0
DA:599,0
DA:600,0
DA:603,0
DA:604,0
DA:605,0
DA:606,0
DA:608,0
DA:609,0
DA:612,0
DA:613,0
DA:614,0
DA:617,0
DA:618,0
DA:619,0
DA:620,0
DA:623,0
DA:624,0
DA:625,0
DA:626,0
DA:627,0
DA:628,0
DA:629,0
DA:631,0
DA:632,0
DA:633,0
DA:634,0
DA:635,0
DA:637,0
DA:638,0
DA:643,0
DA:644,0
DA:646,0
DA:647,0
DA:649,0
DA:651,0
DA:652,0
DA:653,0
DA:655,0
DA:658,0
DA:659,0
DA:660,0
DA:661,0
DA:662,0
DA:663,0
DA:665,0
DA:668,0
DA:669,0
DA:672,0
DA:673,0
DA:674,0
DA:675,0
DA:676,0
DA:677,0
DA:678,0
DA:679,0
DA:680,0
DA:682,0
DA:685,0
DA:686,0
DA:688,0
DA:689,0
DA:690,0
DA:691,0
DA:692,0
DA:693,0
DA:694,0
DA:695,0
DA:696,0
DA:699,0
DA:700,0
DA:701,0
DA:702,0
DA:703,0
DA:704,0
DA:707,0
DA:708,0
DA:709,0
DA:711,0
DA:712,0
DA:715,0
DA:718,0
DA:719,0
DA:722,0
DA:723,0
DA:724,0
DA:725,0
DA:726,0
DA:727,0
DA:728,0
DA:729,0
DA:730,0
DA:732,0
DA:735,0
DA:736,0
DA:738,0
DA:739,0
DA:741,0
DA:742,0
DA:743,0
DA:744,0
DA:745,0
DA:746,0
DA:747,0
DA:748,0
DA:751,0
DA:752,0
DA:755,0
DA:756,0
DA:759,0
DA:760,0
DA:762,0
DA:763,0
DA:765,0
DA:766,0
DA:767,0
DA:768,0
DA:769,0
DA:771,0
DA:773,0
DA:774,0
DA:775,0
DA:776,0
DA:777,0
DA:778,0
DA:779,0
DA:780,0
DA:781,0
DA:782,0
DA:783,0
DA:784,0
DA:785,0
DA:786,0
DA:788,0
DA:790,0
DA:791,0
DA:792,0
DA:793,0
DA:794,0
DA:795,0
DA:796,0
DA:797,0
DA:798,0
DA:799,0
DA:800,0
DA:801,0
DA:802,0
DA:803,0
DA:804,0
DA:805,0
DA:806,0
DA:807,0
DA:808,0
DA:809,0
DA:810,0
DA:812,0
BRF:0
BRH:0
LF:517
LH:0
end_of_record
SF:/home/noah/src/ruchy/src/frontend/lexer.rs
FN:501,_RNCNvMs_NtNtCsdG3rhVUllIu_5ruchy8frontend5lexerNtB6_11TokenStream17peek_nth_is_colon0Ba_
FN:504,_RNCNvMs_NtNtCsdG3rhVUllIu_5ruchy8frontend5lexerNtB6_11TokenStream17peek_nth_is_colons_0Ba_
FN:462,_RNCNvMs_NtNtCsdG3rhVUllIu_5ruchy8frontend5lexerNtB6_11TokenStream4next0Ba_
FN:71,_RNCNvNvNvXs0_NtNtCsdG3rhVUllIu_5ruchy8frontend5lexerNtBb_5TokenNtCscr7hnAWwkoG_5logos5Logos3lex14goto21_ctx21_x8callback0Bf_
FN:71,_RNCNvNvNvXs0_NtNtCsdG3rhVUllIu_5ruchy8frontend5lexerNtBb_5TokenNtCscr7hnAWwkoG_5logos5Logos3lex8goto21_x8callback0Bf_
FN:394,_RNvMNtNtCsdG3rhVUllIu_5ruchy8frontend5lexerNtB2_5Token11is_unary_op
FN:369,_RNvMNtNtCsdG3rhVUllIu_5ruchy8frontend5lexerNtB2_5Token12is_binary_op
FN:402,_RNvMNtNtCsdG3rhVUllIu_5ruchy8frontend5lexerNtB2_5Token16is_assignment_op
FN:451,_RNvMs_NtNtCsdG3rhVUllIu_5ruchy8frontend5lexerNtB4_11TokenStream12set_position
FN:499,_RNvMs_NtNtCsdG3rhVUllIu_5ruchy8frontend5lexerNtB4_11TokenStream17peek_nth_is_colon
FN:434,_RNvMs_NtNtCsdG3rhVUllIu_5ruchy8frontend5lexerNtB4_11TokenStream3new
FN:457,_RNvMs_NtNtCsdG3rhVUllIu_5ruchy8frontend5lexerNtB4_11TokenStream4next
FN:469,_RNvMs_NtNtCsdG3rhVUllIu_5ruchy8frontend5lexerNtB4_11TokenStream4peek
FN:513,_RNvMs_NtNtCsdG3rhVUllIu_5ruchy8frontend5lexerNtB4_11TokenStream6expect
FN:522,_RNvMs_NtNtCsdG3rhVUllIu_5ruchy8frontend5lexerNtB4_11TokenStream7advance
FN:476,_RNvMs_NtNtCsdG3rhVUllIu_5ruchy8frontend5lexerNtB4_11TokenStream8peek_nth
FN:443,_RNvMs_NtNtCsdG3rhVUllIu_5ruchy8frontend5lexerNtB4_11TokenStream8position
FN:7,_RNvNtNtCsdG3rhVUllIu_5ruchy8frontend5lexer15process_escapes
FN:62,_RNvNvXs0_NtNtCsdG3rhVUllIu_5ruchy8frontend5lexerNtB7_5TokenNtCscr7hnAWwkoG_5logos5Logos3lex12goto9_ctx8_x
FN:62,_RNvNvXs0_NtNtCsdG3rhVUllIu_5ruchy8frontend5lexerNtB7_5TokenNtCscr7hnAWwkoG_5logos5Logos3lex14goto65_ctx64_x
FN:62,_RNvNvXs0_NtNtCsdG3rhVUllIu_5ruchy8frontend5lexerNtB7_5TokenNtCscr7hnAWwkoG_5logos5Logos3lex14goto79_ctx78_x
FN:62,_RNvNvXs0_NtNtCsdG3rhVUllIu_5ruchy8frontend5lexerNtB7_5TokenNtCscr7hnAWwkoG_5logos5Logos3lex16goto286_ctx161_x
FN:62,_RNvNvXs0_NtNtCsdG3rhVUllIu_5ruchy8frontend5lexerNtB7_5TokenNtCscr7hnAWwkoG_5logos5Logos3lex16goto298_ctx161_x
FN:62,_RNvNvXs0_NtNtCsdG3rhVUllIu_5ruchy8frontend5lexerNtB7_5TokenNtCscr7hnAWwkoG_5logos5Logos3lex16goto300_ctx161_x
FN:62,_RNvNvXs0_NtNtCsdG3rhVUllIu_5ruchy8frontend5lexerNtB7_5TokenNtCscr7hnAWwkoG_5logos5Logos3lex16goto311_ctx161_x
FN:62,_RNvNvXs0_NtNtCsdG3rhVUllIu_5ruchy8frontend5lexerNtB7_5TokenNtCscr7hnAWwkoG_5logos5Logos3lex16goto329_ctx161_x
FN:62,_RNvNvXs0_NtNtCsdG3rhVUllIu_5ruchy8frontend5lexerNtB7_5TokenNtCscr7hnAWwkoG_5logos5Logos3lex16goto331_ctx161_x
FN:62,_RNvNvXs0_NtNtCsdG3rhVUllIu_5ruchy8frontend5lexerNtB7_5TokenNtCscr7hnAWwkoG_5logos5Logos3lex16goto333_ctx161_x
FN:62,_RNvNvXs0_NtNtCsdG3rhVUllIu_5ruchy8frontend5lexerNtB7_5TokenNtCscr7hnAWwkoG_5logos5Logos3lex16goto368_ctx161_x
FN:62,_RNvNvXs0_NtNtCsdG3rhVUllIu_5ruchy8frontend5lexerNtB7_5TokenNtCscr7hnAWwkoG_5logos5Logos3lex16goto370_ctx161_x
FN:62,_RNvNvXs0_NtNtCsdG3rhVUllIu_5ruchy8frontend5lexerNtB7_5TokenNtCscr7hnAWwkoG_5logos5Logos3lex16goto372_ctx161_x
FN:62,_RNvNvXs0_NtNtCsdG3rhVUllIu_5ruchy8frontend5lexerNtB7_5TokenNtCscr7hnAWwkoG_5logos5Logos3lex16goto374_ctx161_x
FN:62,_RNvNvXs0_NtNtCsdG3rhVUllIu_5ruchy8frontend5lexerNtB7_5TokenNtCscr7hnAWwkoG_5logos5Logos3lex16goto384_ctx161_x
FN:62,_RNvNvXs0_NtNtCsdG3rhVUllIu_5ruchy8frontend5lexerNtB7_5TokenNtCscr7hnAWwkoG_5logos5Logos3lex16goto386_ctx161_x
FN:62,_RNvNvXs0_NtNtCsdG3rhVUllIu_5ruchy8frontend5lexerNtB7_5TokenNtCscr7hnAWwkoG_5logos5Logos3lex16goto420_ctx161_x
FN:62,_RNvNvXs0_NtNtCsdG3rhVUllIu_5ruchy8frontend5lexerNtB7_5TokenNtCscr7hnAWwkoG_5logos5Logos3lex16goto422_ctx161_x
FN:62,_RNvNvXs0_NtNtCsdG3rhVUllIu_5ruchy8frontend5lexerNtB7_5TokenNtCscr7hnAWwkoG_5logos5Logos3lex16goto424_ctx161_x
FN:62,_RNvNvXs0_NtNtCsdG3rhVUllIu_5ruchy8frontend5lexerNtB7_5TokenNtCscr7hnAWwkoG_5logos5Logos3lex16goto433_ctx161_x
FN:62,_RNvNvXs0_NtNtCsdG3rhVUllIu_5ruchy8frontend5lexerNtB7_5TokenNtCscr7hnAWwkoG_5logos5Logos3lex16goto435_ctx161_x
FN:62,_RNvNvXs0_NtNtCsdG3rhVUllIu_5ruchy8frontend5lexerNtB7_5TokenNtCscr7hnAWwkoG_5logos5Logos3lex16goto437_ctx161_x
FN:62,_RNvNvXs0_NtNtCsdG3rhVUllIu_5ruchy8frontend5lexerNtB7_5TokenNtCscr7hnAWwkoG_5logos5Logos3lex16goto463_ctx162_x
FN:62,_RNvNvXs0_NtNtCsdG3rhVUllIu_5ruchy8frontend5lexerNtB7_5TokenNtCscr7hnAWwkoG_5logos5Logos3lex16goto465_ctx162_x
FN:62,_RNvNvXs0_NtNtCsdG3rhVUllIu_5ruchy8frontend5lexerNtB7_5TokenNtCscr7hnAWwkoG_5logos5Logos3lex16goto476_ctx161_x
FN:62,_RNvNvXs0_NtNtCsdG3rhVUllIu_5ruchy8frontend5lexerNtB7_5TokenNtCscr7hnAWwkoG_5logos5Logos3lex16goto478_ctx161_x
FN:62,_RNvNvXs0_NtNtCsdG3rhVUllIu_5ruchy8frontend5lexerNtB7_5TokenNtCscr7hnAWwkoG_5logos5Logos3lex16goto480_ctx161_x
FN:62,_RNvNvXs0_NtNtCsdG3rhVUllIu_5ruchy8frontend5lexerNtB7_5TokenNtCscr7hnAWwkoG_5logos5Logos3lex16goto482_ctx161_x
FN:62,_RNvNvXs0_NtNtCsdG3rhVUllIu_5ruchy8frontend5lexerNtB7_5TokenNtCscr7hnAWwkoG_5logos5Logos3lex16goto522_ctx161_x
FN:62,_RNvNvXs0_NtNtCsdG3rhVUllIu_5ruchy8frontend5lexerNtB7_5TokenNtCscr7hnAWwkoG_5logos5Logos3lex16goto524_ctx161_x
FN:62,_RNvNvXs0_NtNtCsdG3rhVUllIu_5ruchy8frontend5lexerNtB7_5TokenNtCscr7hnAWwkoG_5logos5Logos3lex16goto536_ctx161_x
FN:62,_RNvNvXs0_NtNtCsdG3rhVUllIu_5ruchy8frontend5lexerNtB7_5TokenNtCscr7hnAWwkoG_5logos5Logos3lex16goto538_ctx161_x
FN:62,_RNvNvXs0_NtNtCsdG3rhVUllIu_5ruchy8frontend5lexerNtB7_5TokenNtCscr7hnAWwkoG_5logos5Logos3lex16goto540_ctx161_x
FNDA:0,_RNCNvMs_NtNtCsdG3rhVUllIu_5ruchy8frontend5lexerNtB6_11TokenStream17peek_nth_is_colon0Ba_
FNDA:0,_RNCNvMs_NtNtCsdG3rhVUllIu_5ruchy8frontend5lexerNtB6_11TokenStream17peek_nth_is_colons_0Ba_
FNDA:572,_RNCNvMs_NtNtCsdG3rhVUllIu_5ruchy8frontend5lexerNtB6_11TokenStream4next0Ba_
FNDA:409,_RNCNvNvNvXs0_NtNtCsdG3rhVUllIu_5ruchy8frontend5lexerNtBb_5TokenNtCscr7hnAWwkoG_5logos5Logos3lex14goto21_ctx21_x8callback0Bf_
FNDA:0,_RNCNvNvNvXs0_NtNtCsdG3rhVUllIu_5ruchy8frontend5lexerNtBb_5TokenNtCscr7hnAWwkoG_5logos5Logos3lex8goto21_x8callback0Bf_
FNDA:0,_RNvMNtNtCsdG3rhVUllIu_5ruchy8frontend5lexerNtB2_5Token11is_unary_op
FNDA:0,_RNvMNtNtCsdG3rhVUllIu_5ruchy8frontend5lexerNtB2_5Token12is_binary_op
FNDA:40,_RNvMNtNtCsdG3rhVUllIu_5ruchy8frontend5lexerNtB2_5Token16is_assignment_op
FNDA:3,_RNvMs_NtNtCsdG3rhVUllIu_5ruchy8frontend5lexerNtB4_11TokenStream12set_position
FNDA:0,_RNvMs_NtNtCsdG3rhVUllIu_5ruchy8frontend5lexerNtB4_11TokenStream17peek_nth_is_colon
FNDA:131,_RNvMs_NtNtCsdG3rhVUllIu_5ruchy8frontend5lexerNtB4_11TokenStream3new
FNDA:2015,_RNvMs_NtNtCsdG3rhVUllIu_5ruchy8frontend5lexerNtB4_11TokenStream4next
FNDA:1998,_RNvMs_NtNtCsdG3rhVUllIu_5ruchy8frontend5lexerNtB4_11TokenStream4peek
FNDA:236,_RNvMs_NtNtCsdG3rhVUllIu_5ruchy8frontend5lexerNtB4_11TokenStream6expect
FNDA:336,_RNvMs_NtNtCsdG3rhVUllIu_5ruchy8frontend5lexerNtB4_11TokenStream7advance
FNDA:0,_RNvMs_NtNtCsdG3rhVUllIu_5ruchy8frontend5lexerNtB4_11TokenStream8peek_nth
FNDA:3,_RNvMs_NtNtCsdG3rhVUllIu_5ruchy8frontend5lexerNtB4_11TokenStream8position
FNDA:4,_RNvNtNtCsdG3rhVUllIu_5ruchy8frontend5lexer15process_escapes
FNDA:0,_RNvNvXs0_NtNtCsdG3rhVUllIu_5ruchy8frontend5lexerNtB7_5TokenNtCscr7hnAWwkoG_5logos5Logos3lex12goto9_ctx8_x
FNDA:16,_RNvNvXs0_NtNtCsdG3rhVUllIu_5ruchy8frontend5lexerNtB7_5TokenNtCscr7hnAWwkoG_5logos5Logos3lex14goto65_ctx64_x
FNDA:0,_RNvNvXs0_NtNtCsdG3rhVUllIu_5ruchy8frontend5lexerNtB7_5TokenNtCscr7hnAWwkoG_5logos5Logos3lex14goto79_ctx78_x
FNDA:0,_RNvNvXs0_NtNtCsdG3rhVUllIu_5ruchy8frontend5lexerNtB7_5TokenNtCscr7hnAWwkoG_5logos5Logos3lex16goto286_ctx161_x
FNDA:0,_RNvNvXs0_NtNtCsdG3rhVUllIu_5ruchy8frontend5lexerNtB7_5TokenNtCscr7hnAWwkoG_5logos5Logos3lex16goto298_ctx161_x
FNDA:0,_RNvNvXs0_NtNtCsdG3rhVUllIu_5ruchy8frontend5lexerNtB7_5TokenNtCscr7hnAWwkoG_5logos5Logos3lex16goto300_ctx161_x
FNDA:0,_RNvNvXs0_NtNtCsdG3rhVUllIu_5ruchy8frontend5lexerNtB7_5TokenNtCscr7hnAWwkoG_5logos5Logos3lex16goto311_ctx161_x
FNDA:0,_RNvNvXs0_NtNtCsdG3rhVUllIu_5ruchy8frontend5lexerNtB7_5TokenNtCscr7hnAWwkoG_5logos5Logos3lex16goto329_ctx161_x
FNDA:0,_RNvNvXs0_NtNtCsdG3rhVUllIu_5ruchy8frontend5lexerNtB7_5TokenNtCscr7hnAWwkoG_5logos5Logos3lex16goto331_ctx161_x
FNDA:0,_RNvNvXs0_NtNtCsdG3rhVUllIu_5ruchy8frontend5lexerNtB7_5TokenNtCscr7hnAWwkoG_5logos5Logos3lex16goto333_ctx161_x
FNDA:0,_RNvNvXs0_NtNtCsdG3rhVUllIu_5ruchy8frontend5lexerNtB7_5TokenNtCscr7hnAWwkoG_5logos5Logos3lex16goto368_ctx161_x
FNDA:0,_RNvNvXs0_NtNtCsdG3rhVUllIu_5ruchy8frontend5lexerNtB7_5TokenNtCscr7hnAWwkoG_5logos5Logos3lex16goto370_ctx161_x
FNDA:0,_RNvNvXs0_NtNtCsdG3rhVUllIu_5ruchy8frontend5lexerNtB7_5TokenNtCscr7hnAWwkoG_5logos5Logos3lex16goto372_ctx161_x
FNDA:0,_RNvNvXs0_NtNtCsdG3rhVUllIu_5ruchy8frontend5lexerNtB7_5TokenNtCscr7hnAWwkoG_5logos5Logos3lex16goto374_ctx161_x
FNDA:0,_RNvNvXs0_NtNtCsdG3rhVUllIu_5ruchy8frontend5lexerNtB7_5TokenNtCscr7hnAWwkoG_5logos5Logos3lex16goto384_ctx161_x
FNDA:0,_RNvNvXs0_NtNtCsdG3rhVUllIu_5ruchy8frontend5lexerNtB7_5TokenNtCscr7hnAWwkoG_5logos5Logos3lex16goto386_ctx161_x
FNDA:0,_RNvNvXs0_NtNtCsdG3rhVUllIu_5ruchy8frontend5lexerNtB7_5TokenNtCscr7hnAWwkoG_5logos5Logos3lex16goto420_ctx161_x
FNDA:0,_RNvNvXs0_NtNtCsdG3rhVUllIu_5ruchy8frontend5lexerNtB7_5TokenNtCscr7hnAWwkoG_5logos5Logos3lex16goto422_ctx161_x
FNDA:0,_RNvNvXs0_NtNtCsdG3rhVUllIu_5ruchy8frontend5lexerNtB7_5TokenNtCscr7hnAWwkoG_5logos5Logos3lex16goto424_ctx161_x
FNDA:0,_RNvNvXs0_NtNtCsdG3rhVUllIu_5ruchy8frontend5lexerNtB7_5TokenNtCscr7hnAWwkoG_5logos5Logos3lex16goto433_ctx161_x
FNDA:0,_RNvNvXs0_NtNtCsdG3rhVUllIu_5ruchy8frontend5lexerNtB7_5TokenNtCscr7hnAWwkoG_5logos5Logos3lex16goto435_ctx161_x
FNDA:0,_RNvNvXs0_NtNtCsdG3rhVUllIu_5ruchy8frontend5lexerNtB7_5TokenNtCscr7hnAWwkoG_5logos5Logos3lex16goto437_ctx161_x
FNDA:0,_RNvNvXs0_NtNtCsdG3rhVUllIu_5ruchy8frontend5lexerNtB7_5TokenNtCscr7hnAWwkoG_5logos5Logos3lex16goto463_ctx162_x
FNDA:0,_RNvNvXs0_NtNtCsdG3rhVUllIu_5ruchy8frontend5lexerNtB7_5TokenNtCscr7hnAWwkoG_5logos5Logos3lex16goto465_ctx162_x
FNDA:0,_RNvNvXs0_NtNtCsdG3rhVUllIu_5ruchy8frontend5lexerNtB7_5TokenNtCscr7hnAWwkoG_5logos5Logos3lex16goto476_ctx161_x
FNDA:0,_RNvNvXs0_NtNtCsdG3rhVUllIu_5ruchy8frontend5lexerNtB7_5TokenNtCscr7hnAWwkoG_5logos5Logos3lex16goto478_ctx161_x
FNDA:0,_RNvNvXs0_NtNtCsdG3rhVUllIu_5ruchy8frontend5lexerNtB7_5TokenNtCscr7hnAWwkoG_5logos5Logos3lex16goto480_ctx161_x
FNDA:0,_RNvNvXs0_NtNtCsdG3rhVUllIu_5ruchy8frontend5lexerNtB7_5TokenNtCscr7hnAWwkoG_5logos5Logos3lex16goto482_ctx161_x
FNDA:0,_RNvNvXs0_NtNtCsdG3rhVUllIu_5ruchy8frontend5lexerNtB7_5TokenNtCscr7hnAWwkoG_5logos5Logos3lex16goto522_ctx161_x
FNDA:0,_RNvNvXs0_NtNtCsdG3rhVUllIu_5ruchy8frontend5lexerNtB7_5TokenNtCscr7hnAWwkoG_5logos5Logos3lex16goto524_ctx161_x
FNDA:0,_RNvNvXs0_NtNtCsdG3rhVUllIu_5ruchy8frontend5lexerNtB7_5TokenNtCscr7hnAWwkoG_5logos5Logos3lex16goto536_ctx161_x
FNDA:0,_RNvNvXs0_NtNtCsdG3rhVUllIu_5ruchy8frontend5lexerNtB7_5TokenNtCscr7hnAWwkoG_5logos5Logos3lex16goto538_ctx161_x
FNDA:0,_RNvNvXs0_NtNtCsdG3rhVUllIu_5ruchy8frontend5lexerNtB7_5TokenNtCscr7hnAWwkoG_5logos5Logos3lex16goto540_ctx161_x
FNF:18
FNH:12
DA:7,4
DA:8,4
DA:9,4
DA:11,20
DA:12,16
DA:13,0
DA:14,0
DA:15,0
DA:16,0
DA:17,0
DA:18,0
DA:19,0
DA:20,0
DA:21,0
DA:23,0
DA:24,0
DA:25,0
DA:26,0
DA:27,0
DA:28,0
DA:29,0
DA:32,0
DA:33,0
DA:34,0
DA:35,0
DA:36,0
DA:37,0
DA:38,0
DA:39,0
DA:40,0
DA:41,0
DA:42,0
DA:43,0
DA:44,0
DA:45,0
DA:46,0
DA:48,0
DA:49,0
DA:50,0
DA:51,0
DA:52,0
DA:54,16
DA:55,16
DA:56,16
DA:59,4
DA:60,4
DA:62,16
DA:71,409
DA:369,0
DA:370,0
DA:371,0
DA:391,0
DA:394,0
DA:395,0
DA:396,0
DA:399,0
DA:402,40
DA:403,40
DA:404,40
DA:417,40
DA:434,131
DA:435,131
DA:436,131
DA:437,131
DA:438,131
DA:439,131
DA:443,3
DA:444,3
DA:445,3
DA:446,3
DA:447,3
DA:448,3
DA:451,3
DA:452,3
DA:453,3
DA:454,3
DA:457,2015
DA:458,2015
DA:459,572
DA:460,1443
DA:462,1443
DA:463,572
DA:464,572
DA:465,572
DA:466,572
DA:467,2015
DA:469,1998
DA:470,1998
DA:471,1443
DA:472,1443
DA:473,1998
DA:474,1998
DA:476,0
DA:478,0
DA:479,0
DA:480,0
DA:483,0
DA:484,0
DA:487,0
DA:490,0
DA:491,0
DA:493,0
DA:495,0
DA:497,0
DA:499,0
DA:500,0
DA:501,0
DA:503,0
DA:504,0
DA:506,0
DA:513,236
DA:514,236
DA:515,236
DA:516,0
DA:517,0
DA:519,236
DA:522,336
DA:523,336
DA:524,336
BRF:0
BRH:0
LF:122
LH:56
end_of_record
SF:/home/noah/src/ruchy/src/frontend/parser/actors.rs
FN:12,_RNvNtNtNtCsdG3rhVUllIu_5ruchy8frontend6parser6actors11parse_actor
FNDA:0,_RNvNtNtNtCsdG3rhVUllIu_5ruchy8frontend6parser6actors11parse_actor
FNF:1
FNH:0
DA:12,0
DA:13,0
DA:16,0
DA:17,0
DA:18,0
DA:19,0
DA:21,0
DA:24,0
DA:26,0
DA:27,0
DA:30,0
DA:31,0
DA:33,0
DA:34,0
DA:37,0
DA:38,0
DA:39,0
DA:40,0
DA:41,0
DA:43,0
DA:46,0
DA:47,0
DA:49,0
DA:50,0
DA:51,0
DA:52,0
DA:53,0
DA:56,0
DA:57,0
DA:59,0
DA:60,0
DA:61,0
DA:64,0
DA:65,0
DA:66,0
DA:69,0
DA:71,0
DA:73,0
DA:75,0
DA:76,0
DA:77,0
DA:78,0
DA:79,0
DA:81,0
DA:85,0
DA:86,0
DA:88,0
DA:92,0
DA:95,0
DA:96,0
DA:99,0
DA:102,0
DA:103,0
DA:104,0
DA:105,0
DA:106,0
DA:109,0
DA:110,0
DA:111,0
DA:114,0
DA:118,0
DA:119,0
DA:120,0
DA:121,0
DA:123,0
DA:127,0
DA:128,0
DA:130,0
DA:134,0
DA:135,0
DA:136,0
DA:138,0
DA:142,0
DA:144,0
DA:145,0
DA:146,0
DA:147,0
DA:148,0
DA:152,0
DA:153,0
DA:154,0
DA:155,0
DA:157,0
DA:160,0
DA:161,0
DA:164,0
DA:166,0
DA:167,0
DA:168,0
DA:170,0
DA:171,0
DA:172,0
DA:173,0
DA:174,0
DA:177,0
DA:178,0
DA:180,0
DA:181,0
DA:182,0
DA:186,0
DA:188,0
DA:189,0
DA:190,0
DA:191,0
DA:192,0
DA:193,0
DA:194,0
DA:195,0
DA:196,0
BRF:0
BRH:0
LF:109
LH:0
end_of_record
SF:/home/noah/src/ruchy/src/frontend/parser/collections.rs
FN:33,_RNvNtNtNtCsdG3rhVUllIu_5ruchy8frontend6parser11collections11parse_block
FN:172,_RNvNtNtNtCsdG3rhVUllIu_5ruchy8frontend6parser11collections17is_object_literal
FN:230,_RNvNtNtNtCsdG3rhVUllIu_5ruchy8frontend6parser11collections25parse_object_literal_body
FN:455,_RNvNtNtNtCsdG3rhVUllIu_5ruchy8frontend6parser11collections10parse_list
FN:708,_RNvNtNtNtCsdG3rhVUllIu_5ruchy8frontend6parser11collections15parse_dataframe
FN:491,_RNvNtNtNtCsdG3rhVUllIu_5ruchy8frontend6parser11collections18parse_list_element
FN:534,_RNvNtNtNtCsdG3rhVUllIu_5ruchy8frontend6parser11collections20parse_condition_expr
FN:573,_RNvNtNtNtCsdG3rhVUllIu_5ruchy8frontend6parser11collections20parse_condition_term
FN:632,_RNvNtNtNtCsdG3rhVUllIu_5ruchy8frontend6parser11collections24parse_list_comprehension
FN:793,_RNvNtNtNtCsdG3rhVUllIu_5ruchy8frontend6parser11collections27parse_legacy_dataframe_rows
FNDA:5,_RNvNtNtNtCsdG3rhVUllIu_5ruchy8frontend6parser11collections11parse_block
FNDA:5,_RNvNtNtNtCsdG3rhVUllIu_5ruchy8frontend6parser11collections17is_object_literal
FNDA:0,_RNvNtNtNtCsdG3rhVUllIu_5ruchy8frontend6parser11collections25parse_object_literal_body
FNDA:0,_RNvNtNtNtCsdG3rhVUllIu_5ruchy8frontend6parser11collections10parse_list
FNDA:0,_RNvNtNtNtCsdG3rhVUllIu_5ruchy8frontend6parser11collections15parse_dataframe
FNDA:0,_RNvNtNtNtCsdG3rhVUllIu_5ruchy8frontend6parser11collections18parse_list_element
FNDA:0,_RNvNtNtNtCsdG3rhVUllIu_5ruchy8frontend6parser11collections20parse_condition_expr
FNDA:0,_RNvNtNtNtCsdG3rhVUllIu_5ruchy8frontend6parser11collections20parse_condition_term
FNDA:0,_RNvNtNtNtCsdG3rhVUllIu_5ruchy8frontend6parser11collections24parse_list_comprehension
FNDA:0,_RNvNtNtNtCsdG3rhVUllIu_5ruchy8frontend6parser11collections27parse_legacy_dataframe_rows
FNF:10
FNH:2
DA:33,5
DA:34,5
DA:39,5
DA:40,0
DA:41,5
DA:43,5
DA:44,5
DA:45,5
DA:46,0
DA:47,5
DA:49,5
DA:51,0
DA:52,0
DA:55,0
DA:56,0
DA:57,0
DA:60,0
DA:61,0
DA:64,0
DA:67,0
DA:69,0
DA:70,0
DA:74,0
DA:75,0
DA:76,0
DA:79,0
DA:80,0
DA:81,0
DA:82,0
DA:83,0
DA:84,0
DA:86,0
DA:87,0
DA:88,0
DA:90,0
DA:91,0
DA:92,0
DA:96,0
DA:97,0
DA:98,0
DA:99,0
DA:101,0
DA:105,0
DA:106,0
DA:107,0
DA:108,0
DA:109,0
DA:110,0
DA:111,0
DA:112,0
DA:113,0
DA:115,0
DA:119,0
DA:120,0
DA:124,0
DA:125,0
DA:128,5
DA:132,5
DA:133,0
DA:134,5
DA:136,5
DA:137,5
DA:138,0
DA:141,5
DA:144,5
DA:145,0
DA:147,5
DA:149,5
DA:172,5
DA:180,5
DA:181,0
DA:182,5
DA:185,5
DA:186,0
DA:187,5
DA:190,5
DA:193,3
DA:194,3
DA:195,3
DA:196,3
DA:199,3
DA:200,3
DA:202,2
DA:204,5
DA:230,0
DA:231,0
DA:233,0
DA:235,0
DA:236,0
DA:237,0
DA:238,0
DA:242,0
DA:243,0
DA:244,0
DA:245,0
DA:246,0
DA:247,0
DA:249,0
DA:250,0
DA:251,0
DA:252,0
DA:256,0
DA:257,0
DA:260,0
DA:261,0
DA:264,0
DA:265,0
DA:268,0
DA:269,0
DA:272,0
DA:273,0
DA:276,0
DA:277,0
DA:280,0
DA:281,0
DA:284,0
DA:285,0
DA:288,0
DA:289,0
DA:292,0
DA:293,0
DA:296,0
DA:297,0
DA:300,0
DA:301,0
DA:304,0
DA:305,0
DA:308,0
DA:309,0
DA:312,0
DA:313,0
DA:316,0
DA:317,0
DA:320,0
DA:321,0
DA:324,0
DA:325,0
DA:328,0
DA:329,0
DA:332,0
DA:333,0
DA:336,0
DA:337,0
DA:340,0
DA:341,0
DA:344,0
DA:345,0
DA:348,0
DA:349,0
DA:352,0
DA:353,0
DA:356,0
DA:357,0
DA:360,0
DA:361,0
DA:364,0
DA:365,0
DA:368,0
DA:369,0
DA:372,0
DA:373,0
DA:376,0
DA:377,0
DA:380,0
DA:381,0
DA:384,0
DA:385,0
DA:388,0
DA:389,0
DA:392,0
DA:393,0
DA:396,0
DA:397,0
DA:399,0
DA:402,0
DA:406,0
DA:407,0
DA:408,0
DA:409,0
DA:411,0
DA:412,0
DA:416,0
DA:417,0
DA:418,0
DA:419,0
DA:420,0
DA:423,0
DA:425,0
DA:426,0
DA:455,0
DA:456,0
DA:459,0
DA:460,0
DA:461,0
DA:462,0
DA:465,0
DA:468,0
DA:469,0
DA:470,0
DA:473,0
DA:475,0
DA:476,0
DA:478,0
DA:479,0
DA:480,0
DA:482,0
DA:485,0
DA:487,0
DA:488,0
DA:491,0
DA:493,0
DA:494,0
DA:495,0
DA:496,0
DA:497,0
DA:498,0
DA:499,0
DA:500,0
DA:503,0
DA:505,0
DA:534,0
DA:536,0
DA:540,0
DA:543,0
DA:544,0
DA:553,0
DA:554,0
DA:555,0
DA:556,0
DA:557,0
DA:558,0
DA:559,0
DA:560,0
DA:561,0
DA:562,0
DA:565,0
DA:569,0
DA:570,0
DA:573,0
DA:575,0
DA:578,0
DA:579,0
DA:581,0
DA:582,0
DA:583,0
DA:584,0
DA:587,0
DA:588,0
DA:589,0
DA:591,0
DA:592,0
DA:593,0
DA:594,0
DA:595,0
DA:596,0
DA:600,0
DA:601,0
DA:602,0
DA:603,0
DA:604,0
DA:605,0
DA:606,0
DA:607,0
DA:609,0
DA:610,0
DA:611,0
DA:612,0
DA:613,0
DA:614,0
DA:615,0
DA:616,0
DA:617,0
DA:618,0
DA:619,0
DA:623,0
DA:625,0
DA:629,0
DA:630,0
DA:632,0
DA:633,0
DA:634,0
DA:635,0
DA:636,0
DA:640,0
DA:643,0
DA:644,0
DA:645,0
DA:646,0
DA:648,0
DA:651,0
DA:654,0
DA:657,0
DA:658,0
DA:661,0
DA:662,0
DA:664,0
DA:667,0
DA:669,0
DA:670,0
DA:671,0
DA:672,0
DA:673,0
DA:674,0
DA:675,0
DA:676,0
DA:677,0
DA:678,0
DA:708,0
DA:709,0
DA:712,0
DA:713,0
DA:715,0
DA:718,0
DA:719,0
DA:720,0
DA:721,0
DA:726,0
DA:727,0
DA:728,0
DA:729,0
DA:731,0
DA:735,0
DA:737,0
DA:740,0
DA:742,0
DA:745,0
DA:749,0
DA:750,0
DA:751,0
DA:754,0
DA:755,0
DA:756,0
DA:757,0
DA:758,0
DA:759,0
DA:760,0
DA:761,0
DA:762,0
DA:763,0
DA:764,0
DA:765,0
DA:766,0
DA:767,0
DA:768,0
DA:769,0
DA:773,0
DA:774,0
DA:775,0
DA:777,0
DA:779,0
DA:780,0
DA:782,0
DA:786,0
DA:788,0
DA:789,0
DA:793,0
DA:794,0
DA:795,0
DA:796,0
DA:797,0
DA:801,0
DA:802,0
DA:803,0
DA:805,0
DA:809,0
DA:810,0
DA:812,0
DA:813,0
DA:815,0
DA:817,0
DA:818,0
DA:819,0
DA:820,0
DA:824,0
DA:825,0
DA:826,0
DA:829,0
DA:830,0
DA:831,0
DA:832,0
DA:837,0
DA:838,0
DA:839,0
DA:840,0
DA:841,0
DA:842,0
DA:845,0
DA:847,0
DA:848,0
BRF:0
BRH:0
LF:389
LH:32
end_of_record
SF:/home/noah/src/ruchy/src/frontend/parser/core.rs
FN:19,_RNvMNtNtNtCsdG3rhVUllIu_5ruchy8frontend6parser4coreNtB2_6Parser10get_errors
FN:102,_RNvMNtNtNtCsdG3rhVUllIu_5ruchy8frontend6parser4coreNtB2_6Parser10parse_expr
FN:124,_RNvMNtNtNtCsdG3rhVUllIu_5ruchy8frontend6parser4coreNtB2_6Parser26parse_expr_with_precedence
FN:11,_RNvMNtNtNtCsdG3rhVUllIu_5ruchy8frontend6parser4coreNtB2_6Parser3new
FN:56,_RNvMNtNtNtCsdG3rhVUllIu_5ruchy8frontend6parser4coreNtB2_6Parser5parse
FNDA:0,_RNvMNtNtNtCsdG3rhVUllIu_5ruchy8frontend6parser4coreNtB2_6Parser10get_errors
FNDA:0,_RNvMNtNtNtCsdG3rhVUllIu_5ruchy8frontend6parser4coreNtB2_6Parser10parse_expr
FNDA:0,_RNvMNtNtNtCsdG3rhVUllIu_5ruchy8frontend6parser4coreNtB2_6Parser26parse_expr_with_precedence
FNDA:131,_RNvMNtNtNtCsdG3rhVUllIu_5ruchy8frontend6parser4coreNtB2_6Parser3new
FNDA:131,_RNvMNtNtNtCsdG3rhVUllIu_5ruchy8frontend6parser4coreNtB2_6Parser5parse
FNF:5
FNH:2
DA:11,131
DA:12,131
DA:13,131
DA:14,131
DA:15,131
DA:19,0
DA:20,0
DA:21,0
DA:56,131
DA:58,131
DA:60,261
DA:61,131
DA:62,131
DA:63,130
DA:64,130
DA:67,130
DA:68,0
DA:69,130
DA:72,130
DA:73,0
DA:74,130
DA:75,130
DA:77,0
DA:78,0
DA:79,0
DA:80,0
DA:81,0
DA:83,131
DA:102,0
DA:103,0
DA:104,0
DA:124,0
DA:125,0
DA:126,0
BRF:0
BRH:0
LF:34
LH:18
end_of_record
SF:/home/noah/src/ruchy/src/frontend/parser/expressions.rs
FN:1388,_RNCNvNtNtNtCsdG3rhVUllIu_5ruchy8frontend6parser11expressions22parse_trait_definition0B9_
FN:1971,_RNCNvNtNtNtCsdG3rhVUllIu_5ruchy8frontend6parser11expressions23create_actor_expression0B9_
FN:1978,_RNCNvNtNtNtCsdG3rhVUllIu_5ruchy8frontend6parser11expressions23create_actor_expressions_0B9_
FN:1267,_RNCNvNtNtNtCsdG3rhVUllIu_5ruchy8frontend6parser11expressions23parse_lambda_expressions_0B9_
FN:1328,_RNCNvNtNtNtCsdG3rhVUllIu_5ruchy8frontend6parser11expressions23parse_struct_definition0B9_
FN:1633,_RNCNvNtNtNtCsdG3rhVUllIu_5ruchy8frontend6parser11expressions24create_dataframe_columns0B9_
FN:1062,_RNCNvNtNtNtCsdG3rhVUllIu_5ruchy8frontend6parser11expressions14parse_for_loop0B9_
FN:1070,_RNCNvNtNtNtCsdG3rhVUllIu_5ruchy8frontend6parser11expressions14parse_for_loops0_0B9_
FN:1066,_RNCNvNtNtNtCsdG3rhVUllIu_5ruchy8frontend6parser11expressions14parse_for_loops_0B9_
FN:1040,_RNCNvNtNtNtCsdG3rhVUllIu_5ruchy8frontend6parser11expressions16parse_while_loop0B9_
FN:1044,_RNCNvNtNtNtCsdG3rhVUllIu_5ruchy8frontend6parser11expressions16parse_while_loops_0B9_
FN:1149,_RNCNvNtNtNtCsdG3rhVUllIu_5ruchy8frontend6parser11expressions18parse_list_literal0B9_
FN:1993,_RNCNvNtNtNtCsdG3rhVUllIu_5ruchy8frontend6parser11expressions18token_to_binary_op0B9_
FN:1995,_RNCNvNtNtNtCsdG3rhVUllIu_5ruchy8frontend6parser11expressions18token_to_binary_ops0_0B9_
FN:1994,_RNCNvNtNtNtCsdG3rhVUllIu_5ruchy8frontend6parser11expressions18token_to_binary_ops_0B9_
FN:655,_RNCNvNtNtNtCsdG3rhVUllIu_5ruchy8frontend6parser11expressions19parse_if_expression0B9_
FN:665,_RNCNvNtNtNtCsdG3rhVUllIu_5ruchy8frontend6parser11expressions19parse_if_expressions0_0B9_
FN:659,_RNCNvNtNtNtCsdG3rhVUllIu_5ruchy8frontend6parser11expressions19parse_if_expressions_0B9_
FN:687,_RNCNvNtNtNtCsdG3rhVUllIu_5ruchy8frontend6parser11expressions22parse_match_expression0B9_
FN:698,_RNCNvNtNtNtCsdG3rhVUllIu_5ruchy8frontend6parser11expressions22parse_match_expressions0_0B9_
FN:691,_RNCNvNtNtNtCsdG3rhVUllIu_5ruchy8frontend6parser11expressions22parse_match_expressions_0B9_
FN:752,_RNCNvNtNtNtCsdG3rhVUllIu_5ruchy8frontend6parser11expressions22parse_single_match_arms_0B9_
FN:1260,_RNCNvNtNtNtCsdG3rhVUllIu_5ruchy8frontend6parser11expressions23parse_lambda_expression0B9_
FN:5,_RNvNtNtNtCsdG3rhVUllIu_5ruchy8frontend6parser11expressions12parse_prefix
FN:2049,_RNvNtNtNtCsdG3rhVUllIu_5ruchy8frontend6parser11expressions14get_precedence
FN:1054,_RNvNtNtNtCsdG3rhVUllIu_5ruchy8frontend6parser11expressions14parse_for_loop
FN:1659,_RNvNtNtNtCsdG3rhVUllIu_5ruchy8frontend6parser11expressions15parse_enum_name
FN:213,_RNvNtNtNtCsdG3rhVUllIu_5ruchy8frontend6parser11expressions15parse_pub_token
FN:1854,_RNvNtNtNtCsdG3rhVUllIu_5ruchy8frontend6parser11expressions16parse_actor_body
FN:1842,_RNvNtNtNtCsdG3rhVUllIu_5ruchy8frontend6parser11expressions16parse_actor_name
FN:1403,_RNvNtNtNtCsdG3rhVUllIu_5ruchy8frontend6parser11expressions16parse_impl_block
FN:707,_RNvNtNtNtCsdG3rhVUllIu_5ruchy8frontend6parser11expressions16parse_match_arms
FN:1011,_RNvNtNtNtCsdG3rhVUllIu_5ruchy8frontend6parser11expressions16parse_or_pattern
FN:1035,_RNvNtNtNtCsdG3rhVUllIu_5ruchy8frontend6parser11expressions16parse_while_loop
FN:230,_RNvNtNtNtCsdG3rhVUllIu_5ruchy8frontend6parser11expressions17parse_break_token
FN:1088,_RNvNtNtNtCsdG3rhVUllIu_5ruchy8frontend6parser11expressions17parse_for_pattern
FN:425,_RNvNtNtNtCsdG3rhVUllIu_5ruchy8frontend6parser11expressions17parse_let_pattern
FN:316,_RNvNtNtNtCsdG3rhVUllIu_5ruchy8frontend6parser11expressions18parse_import_token
FN:326,_RNvNtNtNtCsdG3rhVUllIu_5ruchy8frontend6parser11expressions18parse_lambda_token
FN:1115,_RNvNtNtNtCsdG3rhVUllIu_5ruchy8frontend6parser11expressions18parse_list_literal
FN:628,_RNvNtNtNtCsdG3rhVUllIu_5ruchy8frontend6parser11expressions18parse_list_pattern
FN:260,_RNvNtNtNtCsdG3rhVUllIu_5ruchy8frontend6parser11expressions18parse_return_token
FN:1751,_RNvNtNtNtCsdG3rhVUllIu_5ruchy8frontend6parser11expressions18parse_variant_name
FN:1990,_RNvNtNtNtCsdG3rhVUllIu_5ruchy8frontend6parser11expressions18token_to_binary_op
FN:1686,_RNvNtNtNtCsdG3rhVUllIu_5ruchy8frontend6parser11expressions19parse_enum_variants
FN:650,_RNvNtNtNtCsdG3rhVUllIu_5ruchy8frontend6parser11expressions19parse_if_expression
FN:458,_RNvNtNtNtCsdG3rhVUllIu_5ruchy8frontend6parser11expressions19parse_let_in_clause
FN:387,_RNvNtNtNtCsdG3rhVUllIu_5ruchy8frontend6parser11expressions19parse_let_statement
FN:77,_RNvNtNtNtCsdG3rhVUllIu_5ruchy8frontend6parser11expressions19parse_literal_token
FN:769,_RNvNtNtNtCsdG3rhVUllIu_5ruchy8frontend6parser11expressions19parse_match_pattern
FN:600,_RNvNtNtNtCsdG3rhVUllIu_5ruchy8frontend6parser11expressions19parse_tuple_pattern
FN:1494,_RNvNtNtNtCsdG3rhVUllIu_5ruchy8frontend6parser11expressions19parse_use_statement
FN:526,_RNvNtNtNtCsdG3rhVUllIu_5ruchy8frontend6parser11expressions19parse_var_statement
FN:2039,_RNvNtNtNtCsdG3rhVUllIu_5ruchy8frontend6parser11expressions20map_bitwise_operator
FN:2028,_RNvNtNtNtCsdG3rhVUllIu_5ruchy8frontend6parser11expressions20map_logical_operator
FN:245,_RNvNtNtNtCsdG3rhVUllIu_5ruchy8frontend6parser11expressions20parse_continue_token
FN:1798,_RNvNtNtNtCsdG3rhVUllIu_5ruchy8frontend6parser11expressions20parse_generic_params
FN:414,_RNvNtNtNtCsdG3rhVUllIu_5ruchy8frontend6parser11expressions20parse_let_mutability
FN:852,_RNvNtNtNtCsdG3rhVUllIu_5ruchy8frontend6parser11expressions20parse_option_pattern
FN:787,_RNvNtNtNtCsdG3rhVUllIu_5ruchy8frontend6parser11expressions20parse_single_pattern
FN:1702,_RNvNtNtNtCsdG3rhVUllIu_5ruchy8frontend6parser11expressions20parse_single_variant
FN:1778,_RNvNtNtNtCsdG3rhVUllIu_5ruchy8frontend6parser11expressions20parse_variant_fields
FN:470,_RNvNtNtNtCsdG3rhVUllIu_5ruchy8frontend6parser11expressions21create_let_expression
FN:1645,_RNvNtNtNtCsdG3rhVUllIu_5ruchy8frontend6parser11expressions21parse_enum_definition
FN:813,_RNvNtNtNtCsdG3rhVUllIu_5ruchy8frontend6parser11expressions21parse_literal_pattern
FN:1941,_RNvNtNtNtCsdG3rhVUllIu_5ruchy8frontend6parser11expressions22parse_actor_bare_field
FN:1821,_RNvNtNtNtCsdG3rhVUllIu_5ruchy8frontend6parser11expressions22parse_actor_definition
FN:1568,_RNvNtNtNtCsdG3rhVUllIu_5ruchy8frontend6parser11expressions22parse_dataframe_header
FN:112,_RNvNtNtNtCsdG3rhVUllIu_5ruchy8frontend6parser11expressions22parse_identifier_token
FN:1460,_RNvNtNtNtCsdG3rhVUllIu_5ruchy8frontend6parser11expressions22parse_import_statement
FN:1210,_RNvNtNtNtCsdG3rhVUllIu_5ruchy8frontend6parser11expressions22parse_lambda_from_expr
FN:1197,_RNvNtNtNtCsdG3rhVUllIu_5ruchy8frontend6parser11expressions22parse_lambda_no_params
FN:682,_RNvNtNtNtCsdG3rhVUllIu_5ruchy8frontend6parser11expressions22parse_match_expression
FN:735,_RNvNtNtNtCsdG3rhVUllIu_5ruchy8frontend6parser11expressions22parse_single_match_arm
FN:1341,_RNvNtNtNtCsdG3rhVUllIu_5ruchy8frontend6parser11expressions22parse_trait_definition
FN:806,_RNvNtNtNtCsdG3rhVUllIu_5ruchy8frontend6parser11expressions22parse_wildcard_pattern
FN:1963,_RNvNtNtNtCsdG3rhVUllIu_5ruchy8frontend6parser11expressions23create_actor_expression
FN:2000,_RNvNtNtNtCsdG3rhVUllIu_5ruchy8frontend6parser11expressions23map_arithmetic_operator
FN:2014,_RNvNtNtNtCsdG3rhVUllIu_5ruchy8frontend6parser11expressions23map_comparison_operator
FN:1884,_RNvNtNtNtCsdG3rhVUllIu_5ruchy8frontend6parser11expressions23parse_actor_state_field
FN:276,_RNvNtNtNtCsdG3rhVUllIu_5ruchy8frontend6parser11expressions23parse_constructor_token
FN:1577,_RNvNtNtNtCsdG3rhVUllIu_5ruchy8frontend6parser11expressions23parse_dataframe_columns
FN:1555,_RNvNtNtNtCsdG3rhVUllIu_5ruchy8frontend6parser11expressions23parse_dataframe_literal
FN:1238,_RNvNtNtNtCsdG3rhVUllIu_5ruchy8frontend6parser11expressions23parse_lambda_expression
FN:1678,_RNvNtNtNtCsdG3rhVUllIu_5ruchy8frontend6parser11expressions23parse_optional_generics
FN:169,_RNvNtNtNtCsdG3rhVUllIu_5ruchy8frontend6parser11expressions23parse_parentheses_token
FN:1280,_RNvNtNtNtCsdG3rhVUllIu_5ruchy8frontend6parser11expressions23parse_struct_definition
FN:1632,_RNvNtNtNtCsdG3rhVUllIu_5ruchy8frontend6parser11expressions24create_dataframe_columns
FN:293,_RNvNtNtNtCsdG3rhVUllIu_5ruchy8frontend6parser11expressions24parse_control_flow_token
FN:924,_RNvNtNtNtCsdG3rhVUllIu_5ruchy8frontend6parser11expressions24parse_match_list_pattern
FN:1911,_RNvNtNtNtCsdG3rhVUllIu_5ruchy8frontend6parser11expressions25parse_actor_receive_block
FN:967,_RNvNtNtNtCsdG3rhVUllIu_5ruchy8frontend6parser11expressions25parse_constructor_pattern
FN:447,_RNvNtNtNtCsdG3rhVUllIu_5ruchy8frontend6parser11expressions25parse_let_type_annotation
FN:898,_RNvNtNtNtCsdG3rhVUllIu_5ruchy8frontend6parser11expressions25parse_match_tuple_pattern
FN:305,_RNvNtNtNtCsdG3rhVUllIu_5ruchy8frontend6parser11expressions26parse_data_structure_token
FN:336,_RNvNtNtNtCsdG3rhVUllIu_5ruchy8frontend6parser11expressions26parse_function_block_token
FN:145,_RNvNtNtNtCsdG3rhVUllIu_5ruchy8frontend6parser11expressions26parse_unary_operator_token
FN:1729,_RNvNtNtNtCsdG3rhVUllIu_5ruchy8frontend6parser11expressions26parse_variant_discriminant
FN:378,_RNvNtNtNtCsdG3rhVUllIu_5ruchy8frontend6parser11expressions27parse_collection_enum_token
FN:1604,_RNvNtNtNtCsdG3rhVUllIu_5ruchy8frontend6parser11expressions27parse_dataframe_column_name
FN:366,_RNvNtNtNtCsdG3rhVUllIu_5ruchy8frontend6parser11expressions29parse_control_statement_token
FN:1622,_RNvNtNtNtCsdG3rhVUllIu_5ruchy8frontend6parser11expressions29parse_dataframe_column_values
FN:1154,_RNvNtNtNtCsdG3rhVUllIu_5ruchy8frontend6parser11expressions29parse_list_comprehension_body
FN:1595,_RNvNtNtNtCsdG3rhVUllIu_5ruchy8frontend6parser11expressions29parse_single_dataframe_column
FN:356,_RNvNtNtNtCsdG3rhVUllIu_5ruchy8frontend6parser11expressions30parse_special_definition_token
FN:346,_RNvNtNtNtCsdG3rhVUllIu_5ruchy8frontend6parser11expressions32parse_variable_declaration_token
FN:880,_RNvNtNtNtCsdG3rhVUllIu_5ruchy8frontend6parser11expressions39parse_identifier_or_constructor_pattern
FNDA:0,_RNCNvNtNtNtCsdG3rhVUllIu_5ruchy8frontend6parser11expressions22parse_trait_definition0B9_
FNDA:0,_RNCNvNtNtNtCsdG3rhVUllIu_5ruchy8frontend6parser11expressions23create_actor_expression0B9_
FNDA:0,_RNCNvNtNtNtCsdG3rhVUllIu_5ruchy8frontend6parser11expressions23create_actor_expressions_0B9_
FNDA:0,_RNCNvNtNtNtCsdG3rhVUllIu_5ruchy8frontend6parser11expressions23parse_lambda_expressions_0B9_
FNDA:0,_RNCNvNtNtNtCsdG3rhVUllIu_5ruchy8frontend6parser11expressions23parse_struct_definition0B9_
FNDA:0,_RNCNvNtNtNtCsdG3rhVUllIu_5ruchy8frontend6parser11expressions24create_dataframe_columns0B9_
FNDA:0,_RNCNvNtNtNtCsdG3rhVUllIu_5ruchy8frontend6parser11expressions14parse_for_loop0B9_
FNDA:0,_RNCNvNtNtNtCsdG3rhVUllIu_5ruchy8frontend6parser11expressions14parse_for_loops0_0B9_
FNDA:0,_RNCNvNtNtNtCsdG3rhVUllIu_5ruchy8frontend6parser11expressions14parse_for_loops_0B9_
FNDA:0,_RNCNvNtNtNtCsdG3rhVUllIu_5ruchy8frontend6parser11expressions16parse_while_loop0B9_
FNDA:0,_RNCNvNtNtNtCsdG3rhVUllIu_5ruchy8frontend6parser11expressions16parse_while_loops_0B9_
FNDA:0,_RNCNvNtNtNtCsdG3rhVUllIu_5ruchy8frontend6parser11expressions18parse_list_literal0B9_
FNDA:41,_RNCNvNtNtNtCsdG3rhVUllIu_5ruchy8frontend6parser11expressions18token_to_binary_op0B9_
FNDA:38,_RNCNvNtNtNtCsdG3rhVUllIu_5ruchy8frontend6parser11expressions18token_to_binary_ops0_0B9_
FNDA:39,_RNCNvNtNtNtCsdG3rhVUllIu_5ruchy8frontend6parser11expressions18token_to_binary_ops_0B9_
FNDA:0,_RNCNvNtNtNtCsdG3rhVUllIu_5ruchy8frontend6parser11expressions19parse_if_expression0B9_
FNDA:0,_RNCNvNtNtNtCsdG3rhVUllIu_5ruchy8frontend6parser11expressions19parse_if_expressions0_0B9_
FNDA:0,_RNCNvNtNtNtCsdG3rhVUllIu_5ruchy8frontend6parser11expressions19parse_if_expressions_0B9_
FNDA:0,_RNCNvNtNtNtCsdG3rhVUllIu_5ruchy8frontend6parser11expressions22parse_match_expression0B9_
FNDA:0,_RNCNvNtNtNtCsdG3rhVUllIu_5ruchy8frontend6parser11expressions22parse_match_expressions0_0B9_
FNDA:0,_RNCNvNtNtNtCsdG3rhVUllIu_5ruchy8frontend6parser11expressions22parse_match_expressions_0B9_
FNDA:0,_RNCNvNtNtNtCsdG3rhVUllIu_5ruchy8frontend6parser11expressions22parse_single_match_arms_0B9_
FNDA:0,_RNCNvNtNtNtCsdG3rhVUllIu_5ruchy8frontend6parser11expressions23parse_lambda_expression0B9_
FNDA:290,_RNvNtNtNtCsdG3rhVUllIu_5ruchy8frontend6parser11expressions12parse_prefix
FNDA:24,_RNvNtNtNtCsdG3rhVUllIu_5ruchy8frontend6parser11expressions14get_precedence
FNDA:0,_RNvNtNtNtCsdG3rhVUllIu_5ruchy8frontend6parser11expressions14parse_for_loop
FNDA:0,_RNvNtNtNtCsdG3rhVUllIu_5ruchy8frontend6parser11expressions15parse_enum_name
FNDA:0,_RNvNtNtNtCsdG3rhVUllIu_5ruchy8frontend6parser11expressions15parse_pub_token
FNDA:0,_RNvNtNtNtCsdG3rhVUllIu_5ruchy8frontend6parser11expressions16parse_actor_body
FNDA:0,_RNvNtNtNtCsdG3rhVUllIu_5ruchy8frontend6parser11expressions16parse_actor_name
FNDA:0,_RNvNtNtNtCsdG3rhVUllIu_5ruchy8frontend6parser11expressions16parse_impl_block
FNDA:0,_RNvNtNtNtCsdG3rhVUllIu_5ruchy8frontend6parser11expressions16parse_match_arms
FNDA:0,_RNvNtNtNtCsdG3rhVUllIu_5ruchy8frontend6parser11expressions16parse_or_pattern
FNDA:0,_RNvNtNtNtCsdG3rhVUllIu_5ruchy8frontend6parser11expressions16parse_while_loop
FNDA:0,_RNvNtNtNtCsdG3rhVUllIu_5ruchy8frontend6parser11expressions17parse_break_token
FNDA:0,_RNvNtNtNtCsdG3rhVUllIu_5ruchy8frontend6parser11expressions17parse_for_pattern
FNDA:106,_RNvNtNtNtCsdG3rhVUllIu_5ruchy8frontend6parser11expressions17parse_let_pattern
FNDA:0,_RNvNtNtNtCsdG3rhVUllIu_5ruchy8frontend6parser11expressions18parse_import_token
FNDA:0,_RNvNtNtNtCsdG3rhVUllIu_5ruchy8frontend6parser11expressions18parse_lambda_token
FNDA:1,_RNvNtNtNtCsdG3rhVUllIu_5ruchy8frontend6parser11expressions18parse_list_literal
FNDA:0,_RNvNtNtNtCsdG3rhVUllIu_5ruchy8frontend6parser11expressions18parse_list_pattern
FNDA:0,_RNvNtNtNtCsdG3rhVUllIu_5ruchy8frontend6parser11expressions18parse_return_token
FNDA:0,_RNvNtNtNtCsdG3rhVUllIu_5ruchy8frontend6parser11expressions18parse_variant_name
FNDA:62,_RNvNtNtNtCsdG3rhVUllIu_5ruchy8frontend6parser11expressions18token_to_binary_op
FNDA:0,_RNvNtNtNtCsdG3rhVUllIu_5ruchy8frontend6parser11expressions19parse_enum_variants
FNDA:1,_RNvNtNtNtCsdG3rhVUllIu_5ruchy8frontend6parser11expressions19parse_if_expression
FNDA:105,_RNvNtNtNtCsdG3rhVUllIu_5ruchy8frontend6parser11expressions19parse_let_in_clause
FNDA:106,_RNvNtNtNtCsdG3rhVUllIu_5ruchy8frontend6parser11expressions19parse_let_statement
FNDA:149,_RNvNtNtNtCsdG3rhVUllIu_5ruchy8frontend6parser11expressions19parse_literal_token
FNDA:0,_RNvNtNtNtCsdG3rhVUllIu_5ruchy8frontend6parser11expressions19parse_match_pattern
FNDA:0,_RNvNtNtNtCsdG3rhVUllIu_5ruchy8frontend6parser11expressions19parse_tuple_pattern
FNDA:0,_RNvNtNtNtCsdG3rhVUllIu_5ruchy8frontend6parser11expressions19parse_use_statement
FNDA:0,_RNvNtNtNtCsdG3rhVUllIu_5ruchy8frontend6parser11expressions19parse_var_statement
FNDA:38,_RNvNtNtNtCsdG3rhVUllIu_5ruchy8frontend6parser11expressions20map_bitwise_operator
FNDA:39,_RNvNtNtNtCsdG3rhVUllIu_5ruchy8frontend6parser11expressions20map_logical_operator
FNDA:0,_RNvNtNtNtCsdG3rhVUllIu_5ruchy8frontend6parser11expressions20parse_continue_token
FNDA:0,_RNvNtNtNtCsdG3rhVUllIu_5ruchy8frontend6parser11expressions20parse_generic_params
FNDA:106,_RNvNtNtNtCsdG3rhVUllIu_5ruchy8frontend6parser11expressions20parse_let_mutability
FNDA:0,_RNvNtNtNtCsdG3rhVUllIu_5ruchy8frontend6parser11expressions20parse_option_pattern
FNDA:0,_RNvNtNtNtCsdG3rhVUllIu_5ruchy8frontend6parser11expressions20parse_single_pattern
FNDA:0,_RNvNtNtNtCsdG3rhVUllIu_5ruchy8frontend6parser11expressions20parse_single_variant
FNDA:0,_RNvNtNtNtCsdG3rhVUllIu_5ruchy8frontend6parser11expressions20parse_variant_fields
FNDA:105,_RNvNtNtNtCsdG3rhVUllIu_5ruchy8frontend6parser11expressions21create_let_expression
FNDA:0,_RNvNtNtNtCsdG3rhVUllIu_5ruchy8frontend6parser11expressions21parse_enum_definition
FNDA:0,_RNvNtNtNtCsdG3rhVUllIu_5ruchy8frontend6parser11expressions21parse_literal_pattern
FNDA:0,_RNvNtNtNtCsdG3rhVUllIu_5ruchy8frontend6parser11expressions22parse_actor_bare_field
FNDA:0,_RNvNtNtNtCsdG3rhVUllIu_5ruchy8frontend6parser11expressions22parse_actor_definition
FNDA:0,_RNvNtNtNtCsdG3rhVUllIu_5ruchy8frontend6parser11expressions22parse_dataframe_header
FNDA:19,_RNvNtNtNtCsdG3rhVUllIu_5ruchy8frontend6parser11expressions22parse_identifier_token
FNDA:0,_RNvNtNtNtCsdG3rhVUllIu_5ruchy8frontend6parser11expressions22parse_import_statement
FNDA:0,_RNvNtNtNtCsdG3rhVUllIu_5ruchy8frontend6parser11expressions22parse_lambda_from_expr
FNDA:0,_RNvNtNtNtCsdG3rhVUllIu_5ruchy8frontend6parser11expressions22parse_lambda_no_params
FNDA:0,_RNvNtNtNtCsdG3rhVUllIu_5ruchy8frontend6parser11expressions22parse_match_expression
FNDA:0,_RNvNtNtNtCsdG3rhVUllIu_5ruchy8frontend6parser11expressions22parse_single_match_arm
FNDA:0,_RNvNtNtNtCsdG3rhVUllIu_5ruchy8frontend6parser11expressions22parse_trait_definition
FNDA:0,_RNvNtNtNtCsdG3rhVUllIu_5ruchy8frontend6parser11expressions22parse_wildcard_pattern
FNDA:0,_RNvNtNtNtCsdG3rhVUllIu_5ruchy8frontend6parser11expressions23create_actor_expression
FNDA:62,_RNvNtNtNtCsdG3rhVUllIu_5ruchy8frontend6parser11expressions23map_arithmetic_operator
FNDA:41,_RNvNtNtNtCsdG3rhVUllIu_5ruchy8frontend6parser11expressions23map_comparison_operator
FNDA:0,_RNvNtNtNtCsdG3rhVUllIu_5ruchy8frontend6parser11expressions23parse_actor_state_field
FNDA:0,_RNvNtNtNtCsdG3rhVUllIu_5ruchy8frontend6parser11expressions23parse_constructor_token
FNDA:0,_RNvNtNtNtCsdG3rhVUllIu_5ruchy8frontend6parser11expressions23parse_dataframe_columns
FNDA:0,_RNvNtNtNtCsdG3rhVUllIu_5ruchy8frontend6parser11expressions23parse_dataframe_literal
FNDA:0,_RNvNtNtNtCsdG3rhVUllIu_5ruchy8frontend6parser11expressions23parse_lambda_expression
FNDA:0,_RNvNtNtNtCsdG3rhVUllIu_5ruchy8frontend6parser11expressions23parse_optional_generics
FNDA:5,_RNvNtNtNtCsdG3rhVUllIu_5ruchy8frontend6parser11expressions23parse_parentheses_token
FNDA:0,_RNvNtNtNtCsdG3rhVUllIu_5ruchy8frontend6parser11expressions23parse_struct_definition
FNDA:0,_RNvNtNtNtCsdG3rhVUllIu_5ruchy8frontend6parser11expressions24create_dataframe_columns
FNDA:1,_RNvNtNtNtCsdG3rhVUllIu_5ruchy8frontend6parser11expressions24parse_control_flow_token
FNDA:0,_RNvNtNtNtCsdG3rhVUllIu_5ruchy8frontend6parser11expressions24parse_match_list_pattern
FNDA:0,_RNvNtNtNtCsdG3rhVUllIu_5ruchy8frontend6parser11expressions25parse_actor_receive_block
FNDA:0,_RNvNtNtNtCsdG3rhVUllIu_5ruchy8frontend6parser11expressions25parse_constructor_pattern
FNDA:106,_RNvNtNtNtCsdG3rhVUllIu_5ruchy8frontend6parser11expressions25parse_let_type_annotation
FNDA:0,_RNvNtNtNtCsdG3rhVUllIu_5ruchy8frontend6parser11expressions25parse_match_tuple_pattern
FNDA:0,_RNvNtNtNtCsdG3rhVUllIu_5ruchy8frontend6parser11expressions26parse_data_structure_token
FNDA:8,_RNvNtNtNtCsdG3rhVUllIu_5ruchy8frontend6parser11expressions26parse_function_block_token
FNDA:0,_RNvNtNtNtCsdG3rhVUllIu_5ruchy8frontend6parser11expressions26parse_unary_operator_token
FNDA:0,_RNvNtNtNtCsdG3rhVUllIu_5ruchy8frontend6parser11expressions26parse_variant_discriminant
FNDA:1,_RNvNtNtNtCsdG3rhVUllIu_5ruchy8frontend6parser11expressions27parse_collection_enum_token
FNDA:0,_RNvNtNtNtCsdG3rhVUllIu_5ruchy8frontend6parser11expressions27parse_dataframe_column_name
FNDA:0,_RNvNtNtNtCsdG3rhVUllIu_5ruchy8frontend6parser11expressions29parse_control_statement_token
FNDA:0,_RNvNtNtNtCsdG3rhVUllIu_5ruchy8frontend6parser11expressions29parse_dataframe_column_values
FNDA:0,_RNvNtNtNtCsdG3rhVUllIu_5ruchy8frontend6parser11expressions29parse_list_comprehension_body
FNDA:0,_RNvNtNtNtCsdG3rhVUllIu_5ruchy8frontend6parser11expressions29parse_single_dataframe_column
FNDA:0,_RNvNtNtNtCsdG3rhVUllIu_5ruchy8frontend6parser11expressions30parse_special_definition_token
FNDA:106,_RNvNtNtNtCsdG3rhVUllIu_5ruchy8frontend6parser11expressions32parse_variable_declaration_token
FNDA:0,_RNvNtNtNtCsdG3rhVUllIu_5ruchy8frontend6parser11expressions39parse_identifier_or_constructor_pattern
FNF:107
FNH:25
DA:5,290
DA:6,290
DA:7,1
DA:10,289
DA:11,289
DA:13,289
DA:17,149
DA:21,19
DA:25,0
DA:29,8
DA:33,106
DA:37,1
DA:41,0
DA:45,5
DA:49,0
DA:53,0
DA:57,0
DA:61,0
DA:65,1
DA:69,0
DA:71,0
DA:73,290
DA:77,149
DA:78,149
DA:79,143
DA:80,143
DA:81,143
DA:83,0
DA:84,0
DA:85,0
DA:87,4
DA:88,4
DA:89,4
DA:91,0
DA:92,0
DA:95,0
DA:96,0
DA:98,0
DA:99,0
DA:100,0
DA:102,2
DA:103,2
DA:104,2
DA:106,0
DA:108,149
DA:112,19
DA:113,19
DA:114,19
DA:115,19
DA:117,19
DA:118,0
DA:119,0
DA:120,0
DA:121,0
DA:122,0
DA:123,0
DA:124,0
DA:125,0
DA:126,0
DA:127,0
DA:128,0
DA:129,0
DA:130,0
DA:132,19
DA:136,0
DA:137,0
DA:139,0
DA:141,19
DA:145,0
DA:146,0
DA:148,0
DA:149,0
DA:150,0
DA:151,0
DA:152,0
DA:153,0
DA:156,0
DA:157,0
DA:158,0
DA:159,0
DA:160,0
DA:161,0
DA:163,0
DA:165,0
DA:169,5
DA:170,5
DA:172,5
DA:173,0
DA:174,0
DA:177,5
DA:180,5
DA:182,0
DA:184,0
DA:185,0
DA:188,0
DA:189,0
DA:190,0
DA:192,0
DA:195,0
DA:196,0
DA:199,5
DA:202,5
DA:203,0
DA:205,5
DA:209,5
DA:213,0
DA:214,0
DA:216,0
DA:218,0
DA:219,0
DA:220,0
DA:221,0
DA:222,0
DA:223,0
DA:225,0
DA:226,0
DA:230,0
DA:231,0
DA:233,0
DA:234,0
DA:235,0
DA:236,0
DA:238,0
DA:240,0
DA:241,0
DA:245,0
DA:246,0
DA:248,0
DA:249,0
DA:250,0
DA:251,0
DA:253,0
DA:255,0
DA:256,0
DA:260,0
DA:261,0
DA:263,0
DA:264,0
DA:266,0
DA:269,0
DA:271,0
DA:272,0
DA:276,0
DA:277,0
DA:278,0
DA:279,0
DA:280,0
DA:281,0
DA:282,0
DA:283,0
DA:284,0
DA:287,0
DA:288,0
DA:289,0
DA:293,1
DA:294,1
DA:295,1
DA:296,0
DA:297,0
DA:298,0
DA:299,0
DA:301,1
DA:305,0
DA:306,0
DA:307,0
DA:308,0
DA:309,0
DA:310,0
DA:312,0
DA:316,0
DA:317,0
DA:318,0
DA:319,0
DA:320,0
DA:322,0
DA:326,0
DA:327,0
DA:328,0
DA:329,0
DA:330,0
DA:332,0
DA:336,8
DA:337,8
DA:338,3
DA:339,5
DA:340,0
DA:342,8
DA:346,106
DA:347,106
DA:348,106
DA:349,0
DA:350,0
DA:352,106
DA:356,0
DA:357,0
DA:358,0
DA:359,0
DA:360,0
DA:362,0
DA:366,0
DA:367,0
DA:368,0
DA:369,0
DA:370,0
DA:371,0
DA:372,0
DA:374,0
DA:378,1
DA:379,1
DA:380,1
DA:381,0
DA:382,0
DA:384,1
DA:387,106
DA:388,106
DA:391,106
DA:394,106
DA:397,106
DA:400,106
DA:403,106
DA:406,105
DA:409,105
DA:410,106
DA:414,106
DA:415,106
DA:416,0
DA:417,0
DA:419,106
DA:421,106
DA:425,106
DA:426,106
DA:427,106
DA:428,106
DA:429,106
DA:430,106
DA:434,0
DA:438,0
DA:440,0
DA:441,0
DA:443,106
DA:447,106
DA:448,106
DA:449,0
DA:450,0
DA:452,106
DA:454,106
DA:458,105
DA:459,105
DA:460,0
DA:461,0
DA:464,105
DA:466,105
DA:470,105
DA:471,105
DA:472,105
DA:473,105
DA:474,105
DA:475,105
DA:476,105
DA:477,105
DA:478,105
DA:480,105
DA:481,105
DA:482,105
DA:483,105
DA:484,105
DA:485,105
DA:486,105
DA:487,105
DA:488,105
DA:489,105
DA:490,105
DA:491,105
DA:495,0
DA:496,0
DA:497,0
DA:498,0
DA:499,0
DA:500,0
DA:501,0
DA:502,0
DA:503,0
DA:504,0
DA:510,0
DA:511,0
DA:512,0
DA:513,0
DA:514,0
DA:515,0
DA:516,0
DA:517,0
DA:518,0
DA:519,0
DA:522,105
DA:526,0
DA:527,0
DA:530,0
DA:533,0
DA:534,0
DA:535,0
DA:536,0
DA:537,0
DA:541,0
DA:545,0
DA:547,0
DA:551,0
DA:552,0
DA:553,0
DA:555,0
DA:559,0
DA:562,0
DA:565,0
DA:567,0
DA:570,0
DA:571,0
DA:573,0
DA:574,0
DA:575,0
DA:576,0
DA:577,0
DA:578,0
DA:579,0
DA:580,0
DA:581,0
DA:582,0
DA:586,0
DA:587,0
DA:588,0
DA:589,0
DA:590,0
DA:591,0
DA:592,0
DA:593,0
DA:594,0
DA:595,0
DA:598,0
DA:600,0
DA:601,0
DA:602,0
DA:604,0
DA:605,0
DA:606,0
DA:607,0
DA:608,0
DA:609,0
DA:613,0
DA:614,0
DA:616,0
DA:617,0
DA:618,0
DA:619,0
DA:620,0
DA:621,0
DA:624,0
DA:625,0
DA:626,0
DA:628,0
DA:629,0
DA:630,0
DA:632,0
DA:633,0
DA:634,0
DA:635,0
DA:636,0
DA:637,0
DA:640,0
DA:641,0
DA:642,0
DA:645,0
DA:646,0
DA:647,0
DA:650,1
DA:651,1
DA:654,1
DA:655,1
DA:658,1
DA:659,1
DA:662,1
DA:663,1
DA:664,1
DA:665,1
DA:667,0
DA:670,1
DA:671,1
DA:672,1
DA:673,1
DA:674,1
DA:675,1
DA:676,1
DA:677,1
DA:678,1
DA:682,0
DA:683,0
DA:686,0
DA:687,0
DA:690,0
DA:691,0
DA:694,0
DA:697,0
DA:698,0
DA:700,0
DA:701,0
DA:702,0
DA:703,0
DA:704,0
DA:707,0
DA:708,0
DA:710,0
DA:712,0
DA:713,0
DA:716,0
DA:717,0
DA:718,0
DA:721,0
DA:722,0
DA:723,0
DA:726,0
DA:727,0
DA:728,0
DA:730,0
DA:731,0
DA:735,0
DA:736,0
DA:737,0
DA:740,0
DA:743,0
DA:744,0
DA:745,0
DA:747,0
DA:751,0
DA:752,0
DA:755,0
DA:757,0
DA:759,0
DA:760,0
DA:761,0
DA:762,0
DA:763,0
DA:764,0
DA:765,0
DA:769,0
DA:770,0
DA:771,0
DA:772,0
DA:775,0
DA:778,0
DA:779,0
DA:781,0
DA:783,0
DA:787,0
DA:788,0
DA:789,0
DA:792,0
DA:793,0
DA:795,0
DA:796,0
DA:797,0
DA:798,0
DA:799,0
DA:800,0
DA:802,0
DA:806,0
DA:807,0
DA:808,0
DA:809,0
DA:813,0
DA:814,0
DA:815,0
DA:818,0
DA:819,0
DA:820,0
DA:821,0
DA:822,0
DA:824,0
DA:825,0
DA:826,0
DA:827,0
DA:829,0
DA:830,0
DA:831,0
DA:832,0
DA:834,0
DA:835,0
DA:836,0
DA:837,0
DA:839,0
DA:840,0
DA:841,0
DA:842,0
DA:844,0
DA:847,0
DA:848,0
DA:852,0
DA:853,0
DA:854,0
DA:857,0
DA:859,0
DA:860,0
DA:861,0
DA:863,0
DA:867,0
DA:868,0
DA:869,0
DA:871,0
DA:874,0
DA:876,0
DA:880,0
DA:881,0
DA:882,0
DA:885,0
DA:886,0
DA:889,0
DA:890,0
DA:892,0
DA:894,0
DA:898,0
DA:899,0
DA:902,0
DA:903,0
DA:904,0
DA:905,0
DA:908,0
DA:910,0
DA:911,0
DA:912,0
DA:913,0
DA:914,0
DA:915,0
DA:918,0
DA:919,0
DA:920,0
DA:924,0
DA:925,0
DA:928,0
DA:929,0
DA:930,0
DA:931,0
DA:934,0
DA:938,0
DA:939,0
DA:940,0
DA:941,0
DA:942,0
DA:943,0
DA:944,0
DA:945,0
DA:946,0
DA:947,0
DA:949,0
DA:951,0
DA:952,0
DA:953,0
DA:954,0
DA:955,0
DA:957,0
DA:961,0
DA:962,0
DA:963,0
DA:967,0
DA:968,0
DA:971,0
DA:972,0
DA:973,0
DA:974,0
DA:977,0
DA:980,0
DA:981,0
DA:982,0
DA:983,0
DA:984,0
DA:985,0
DA:988,0
DA:994,0
DA:996,0
DA:997,0
DA:999,0
DA:1000,0
DA:1002,0
DA:1005,0
DA:1007,0
DA:1011,0
DA:1012,0
DA:1014,0
DA:1015,0
DA:1018,0
DA:1019,0
DA:1023,0
DA:1024,0
DA:1026,0
DA:1028,0
DA:1035,0
DA:1036,0
DA:1039,0
DA:1040,0
DA:1043,0
DA:1044,0
DA:1046,0
DA:1047,0
DA:1048,0
DA:1049,0
DA:1050,0
DA:1054,0
DA:1055,0
DA:1058,0
DA:1061,0
DA:1062,0
DA:1065,0
DA:1066,0
DA:1069,0
DA:1070,0
DA:1073,0
DA:1075,0
DA:1076,0
DA:1077,0
DA:1078,0
DA:1079,0
DA:1080,0
DA:1081,0
DA:1082,0
DA:1083,0
DA:1084,0
DA:1088,0
DA:1089,0
DA:1090,0
DA:1093,0
DA:1094,0
DA:1095,0
DA:1096,0
DA:1097,0
DA:1100,0
DA:1101,0
DA:1105,0
DA:1109,0
DA:1111,0
DA:1113,0
DA:1115,1
DA:1117,1
DA:1120,1
DA:1121,0
DA:1122,0
DA:1123,1
DA:1126,1
DA:1129,1
DA:1130,0
DA:1131,1
DA:1134,1
DA:1137,10
DA:1138,9
DA:1141,9
DA:1142,0
DA:1143,9
DA:1145,9
DA:1148,1
DA:1149,1
DA:1151,1
DA:1152,1
DA:1154,0
DA:1155,0
DA:1156,0
DA:1157,0
DA:1158,0
DA:1160,0
DA:1163,0
DA:1164,0
DA:1165,0
DA:1166,0
DA:1168,0
DA:1171,0
DA:1174,0
DA:1177,0
DA:1178,0
DA:1179,0
DA:1181,0
DA:1184,0
DA:1186,0
DA:1187,0
DA:1188,0
DA:1189,0
DA:1190,0
DA:1191,0
DA:1192,0
DA:1193,0
DA:1194,0
DA:1195,0
DA:1197,0
DA:1199,0
DA:1202,0
DA:1204,0
DA:1205,0
DA:1206,0
DA:1207,0
DA:1208,0
DA:1210,0
DA:1212,0
DA:1215,0
DA:1216,0
DA:1217,0
DA:1218,0
DA:1219,0
DA:1220,0
DA:1221,0
DA:1222,0
DA:1223,0
DA:1224,0
DA:1225,0
DA:1226,0
DA:1230,0
DA:1232,0
DA:1233,0
DA:1234,0
DA:1235,0
DA:1236,0
DA:1238,0
DA:1240,0
DA:1242,0
DA:1245,0
DA:1246,0
DA:1247,0
DA:1248,0
DA:1251,0
DA:1252,0
DA:1253,0
DA:1255,0
DA:1259,0
DA:1260,0
DA:1263,0
DA:1266,0
DA:1267,0
DA:1268,0
DA:1269,0
DA:1270,0
DA:1271,0
DA:1272,0
DA:1274,0
DA:1275,0
DA:1277,0
DA:1278,0
DA:1280,0
DA:1282,0
DA:1285,0
DA:1286,0
DA:1287,0
DA:1288,0
DA:1290,0
DA:1294,0
DA:1297,0
DA:1299,0
DA:1302,0
DA:1304,0
DA:1305,0
DA:1306,0
DA:1307,0
DA:1309,0
DA:1313,0
DA:1314,0
DA:1316,0
DA:1319,0
DA:1320,0
DA:1321,0
DA:1324,0
DA:1327,0
DA:1328,0
DA:1329,0
DA:1331,0
DA:1333,0
DA:1334,0
DA:1335,0
DA:1336,0
DA:1337,0
DA:1338,0
DA:1339,0
DA:1341,0
DA:1343,0
DA:1346,0
DA:1347,0
DA:1348,0
DA:1349,0
DA:1351,0
DA:1355,0
DA:1357,0
DA:1360,0
DA:1362,0
DA:1365,0
DA:1366,0
DA:1367,0
DA:1368,0
DA:1370,0
DA:1375,0
DA:1378,0
DA:1379,0
DA:1380,0
DA:1381,0
DA:1384,0
DA:1387,0
DA:1388,0
DA:1389,0
DA:1390,0
DA:1391,0
DA:1393,0
DA:1395,0
DA:1396,0
DA:1397,0
DA:1398,0
DA:1399,0
DA:1400,0
DA:1401,0
DA:1403,0
DA:1405,0
DA:1408,0
DA:1409,0
DA:1410,0
DA:1411,0
DA:1413,0
DA:1417,0
DA:1418,0
DA:1419,0
DA:1420,0
DA:1421,0
DA:1422,0
DA:1424,0
DA:1426,0
DA:1428,0
DA:1430,0
DA:1434,0
DA:1437,0
DA:1438,0
DA:1439,0
DA:1440,0
DA:1441,0
DA:1442,0
DA:1444,0
DA:1445,0
DA:1446,0
DA:1449,0
DA:1451,0
DA:1452,0
DA:1453,0
DA:1454,0
DA:1455,0
DA:1456,0
DA:1457,0
DA:1458,0
DA:1460,0
DA:1462,0
DA:1465,0
DA:1468,0
DA:1469,0
DA:1470,0
DA:1471,0
DA:1472,0
DA:1476,0
DA:1477,0
DA:1478,0
DA:1479,0
DA:1480,0
DA:1481,0
DA:1482,0
DA:1486,0
DA:1488,0
DA:1489,0
DA:1490,0
DA:1491,0
DA:1492,0
DA:1494,0
DA:1496,0
DA:1499,0
DA:1502,0
DA:1503,0
DA:1504,0
DA:1505,0
DA:1506,0
DA:1510,0
DA:1511,0
DA:1514,0
DA:1515,0
DA:1516,0
DA:1519,0
DA:1520,0
DA:1521,0
DA:1522,0
DA:1525,0
DA:1526,0
DA:1527,0
DA:1529,0
DA:1533,0
DA:1535,0
DA:1536,0
DA:1537,0
DA:1538,0
DA:1539,0
DA:1540,0
DA:1541,0
DA:1546,0
DA:1547,0
DA:1549,0
DA:1550,0
DA:1551,0
DA:1552,0
DA:1553,0
DA:1555,0
DA:1557,0
DA:1558,0
DA:1559,0
DA:1562,0
DA:1563,0
DA:1564,0
DA:1568,0
DA:1569,0
DA:1570,0
DA:1571,0
DA:1572,0
DA:1573,0
DA:1577,0
DA:1578,0
DA:1580,0
DA:1581,0
DA:1582,0
DA:1585,0
DA:1586,0
DA:1587,0
DA:1590,0
DA:1591,0
DA:1595,0
DA:1596,0
DA:1597,0
DA:1598,0
DA:1599,0
DA:1600,0
DA:1604,0
DA:1605,0
DA:1606,0
DA:1607,0
DA:1608,0
DA:1609,0
DA:1611,0
DA:1612,0
DA:1613,0
DA:1614,0
DA:1616,0
DA:1618,0
DA:1622,0
DA:1623,0
DA:1624,0
DA:1626,0
DA:1628,0
DA:1632,0
DA:1633,0
DA:1634,0
DA:1635,0
DA:1636,0
DA:1638,0
DA:1639,0
DA:1640,0
DA:1641,0
DA:1642,0
DA:1643,0
DA:1645,0
DA:1646,0
DA:1647,0
DA:1648,0
DA:1649,0
DA:1651,0
DA:1652,0
DA:1653,0
DA:1654,0
DA:1655,0
DA:1656,0
DA:1657,0
DA:1659,0
DA:1660,0
DA:1661,0
DA:1662,0
DA:1663,0
DA:1664,0
DA:1667,0
DA:1668,0
DA:1671,0
DA:1672,0
DA:1674,0
DA:1676,0
DA:1678,0
DA:1679,0
DA:1680,0
DA:1682,0
DA:1684,0
DA:1686,0
DA:1687,0
DA:1688,0
DA:1690,0
DA:1691,0
DA:1693,0
DA:1694,0
DA:1695,0
DA:1698,0
DA:1699,0
DA:1700,0
DA:1702,0
DA:1703,0
DA:1706,0
DA:1707,0
DA:1708,0
DA:1710,0
DA:1714,0
DA:1715,0
DA:1717,0
DA:1720,0
DA:1721,0
DA:1722,0
DA:1723,0
DA:1724,0
DA:1725,0
DA:1729,0
DA:1730,0
DA:1731,0
DA:1732,0
DA:1733,0
DA:1734,0
DA:1737,0
DA:1738,0
DA:1739,0
DA:1740,0
DA:1741,0
DA:1742,0
DA:1744,0
DA:1747,0
DA:1749,0
DA:1751,0
DA:1752,0
DA:1753,0
DA:1754,0
DA:1755,0
DA:1756,0
DA:1759,0
DA:1760,0
DA:1763,0
DA:1764,0
DA:1767,0
DA:1768,0
DA:1771,0
DA:1772,0
DA:1774,0
DA:1776,0
DA:1778,0
DA:1779,0
DA:1780,0
DA:1781,0
DA:1783,0
DA:1784,0
DA:1786,0
DA:1787,0
DA:1789,0
DA:1790,0
DA:1791,0
DA:1794,0
DA:1795,0
DA:1796,0
DA:1798,0
DA:1800,0
DA:1801,0
DA:1803,0
DA:1804,0
DA:1805,0
DA:1806,0
DA:1809,0
DA:1810,0
DA:1811,0
DA:1813,0
DA:1817,0
DA:1818,0
DA:1819,0
DA:1821,0
DA:1823,0
DA:1826,0
DA:1829,0
DA:1832,0
DA:1834,0
DA:1837,0
DA:1838,0
DA:1842,0
DA:1843,0
DA:1844,0
DA:1845,0
DA:1846,0
DA:1848,0
DA:1850,0
DA:1854,0
DA:1855,0
DA:1856,0
DA:1858,0
DA:1859,0
DA:1861,0
DA:1862,0
DA:1865,0
DA:1866,0
DA:1869,0
DA:1870,0
DA:1872,0
DA:1873,0
DA:1874,0
DA:1875,0
DA:1879,0
DA:1880,0
DA:1884,0
DA:1885,0
DA:1887,0
DA:1888,0
DA:1889,0
DA:1892,0
DA:1893,0
DA:1896,0
DA:1897,0
DA:1898,0
DA:1900,0
DA:1903,0
DA:1905,0
DA:1907,0
DA:1911,0
DA:1912,0
DA:1913,0
DA:1915,0
DA:1917,0
DA:1918,0
DA:1919,0
DA:1920,0
DA:1923,0
DA:1924,0
DA:1927,0
DA:1928,0
DA:1929,0
DA:1931,0
DA:1935,0
DA:1936,0
DA:1937,0
DA:1941,0
DA:1942,0
DA:1943,0
DA:1944,0
DA:1947,0
DA:1948,0
DA:1951,0
DA:1952,0
DA:1953,0
DA:1955,0
DA:1957,0
DA:1959,0
DA:1963,0
DA:1964,0
DA:1965,0
DA:1966,0
DA:1967,0
DA:1968,0
DA:1970,0
DA:1971,0
DA:1972,0
DA:1974,0
DA:1977,0
DA:1978,0
DA:1979,0
DA:1980,0
DA:1981,0
DA:1983,0
DA:1984,0
DA:1985,0
DA:1986,0
DA:1987,0
DA:1988,0
DA:1990,62
DA:1992,62
DA:1993,62
DA:1994,62
DA:1995,62
DA:1996,62
DA:2000,62
DA:2001,62
DA:2002,11
DA:2003,3
DA:2004,4
DA:2005,3
DA:2006,0
DA:2007,0
DA:2008,41
DA:2010,62
DA:2014,41
DA:2015,41
DA:2016,0
DA:2017,0
DA:2018,0
DA:2019,1
DA:2020,1
DA:2021,0
DA:2022,39
DA:2024,41
DA:2028,39
DA:2029,39
DA:2030,1
DA:2031,0
DA:2032,0
DA:2033,38
DA:2035,39
DA:2039,38
DA:2040,38
DA:2041,0
DA:2042,0
DA:2043,0
DA:2044,0
DA:2045,38
DA:2047,38
DA:2049,24
DA:2050,24
DA:2051,0
DA:2052,0
DA:2053,1
DA:2054,0
DA:2055,0
DA:2056,0
DA:2057,0
DA:2058,2
DA:2059,0
DA:2060,14
DA:2061,7
DA:2062,0
DA:2064,24
BRF:0
BRH:0
LF:1246
LH:185
end_of_record
SF:/home/noah/src/ruchy/src/frontend/parser/functions.rs
FN:431,_RNCNvNtNtNtCsdG3rhVUllIu_5ruchy8frontend6parser9functions28parse_method_or_field_access0B9_
FN:147,_RNvNtNtNtCsdG3rhVUllIu_5ruchy8frontend6parser9functions12parse_lambda
FN:124,_RNvNtNtNtCsdG3rhVUllIu_5ruchy8frontend6parser9functions18parse_empty_lambda
FN:68,_RNvNtNtNtCsdG3rhVUllIu_5ruchy8frontend6parser9functions19parse_lambda_params
FN:258,_RNvNtNtNtCsdG3rhVUllIu_5ruchy8frontend6parser9functions10parse_call
FN:12,_RNvNtNtNtCsdG3rhVUllIu_5ruchy8frontend6parser9functions14parse_function
FN:291,_RNvNtNtNtCsdG3rhVUllIu_5ruchy8frontend6parser9functions17parse_method_call
FN:330,_RNvNtNtNtCsdG3rhVUllIu_5ruchy8frontend6parser9functions26parse_optional_method_call
FN:357,_RNvNtNtNtCsdG3rhVUllIu_5ruchy8frontend6parser9functions28parse_method_or_field_access
FN:16,_RNvNtNtNtCsdG3rhVUllIu_5ruchy8frontend6parser9functions30parse_function_with_visibility
FN:487,_RNvNtNtNtCsdG3rhVUllIu_5ruchy8frontend6parser9functions37parse_optional_method_or_field_access
FNDA:0,_RNCNvNtNtNtCsdG3rhVUllIu_5ruchy8frontend6parser9functions28parse_method_or_field_access0B9_
FNDA:0,_RNvNtNtNtCsdG3rhVUllIu_5ruchy8frontend6parser9functions12parse_lambda
FNDA:0,_RNvNtNtNtCsdG3rhVUllIu_5ruchy8frontend6parser9functions18parse_empty_lambda
FNDA:0,_RNvNtNtNtCsdG3rhVUllIu_5ruchy8frontend6parser9functions19parse_lambda_params
FNDA:5,_RNvNtNtNtCsdG3rhVUllIu_5ruchy8frontend6parser9functions10parse_call
FNDA:3,_RNvNtNtNtCsdG3rhVUllIu_5ruchy8frontend6parser9functions14parse_function
FNDA:0,_RNvNtNtNtCsdG3rhVUllIu_5ruchy8frontend6parser9functions17parse_method_call
FNDA:0,_RNvNtNtNtCsdG3rhVUllIu_5ruchy8frontend6parser9functions26parse_optional_method_call
FNDA:0,_RNvNtNtNtCsdG3rhVUllIu_5ruchy8frontend6parser9functions28parse_method_or_field_access
FNDA:3,_RNvNtNtNtCsdG3rhVUllIu_5ruchy8frontend6parser9functions30parse_function_with_visibility
FNDA:0,_RNvNtNtNtCsdG3rhVUllIu_5ruchy8frontend6parser9functions37parse_optional_method_or_field_access
FNF:11
FNH:3
DA:12,3
DA:13,3
DA:14,3
DA:16,3
DA:17,3
DA:22,3
DA:25,3
DA:26,3
DA:27,3
DA:28,3
DA:30,0
DA:34,3
DA:35,0
DA:37,3
DA:41,3
DA:44,3
DA:45,0
DA:46,0
DA:48,3
DA:52,3
DA:54,3
DA:55,3
DA:56,3
DA:57,3
DA:58,3
DA:59,3
DA:60,3
DA:61,3
DA:62,3
DA:63,3
DA:64,3
DA:65,3
DA:66,3
DA:68,0
DA:69,0
DA:74,0
DA:75,0
DA:76,0
DA:79,0
DA:80,0
DA:81,0
DA:82,0
DA:84,0
DA:88,0
DA:89,0
DA:90,0
DA:93,0
DA:94,0
DA:95,0
DA:96,0
DA:99,0
DA:100,0
DA:101,0
DA:102,0
DA:103,0
DA:104,0
DA:105,0
DA:108,0
DA:109,0
DA:110,0
DA:111,0
DA:115,0
DA:116,0
DA:124,0
DA:125,0
DA:130,0
DA:132,0
DA:133,0
DA:134,0
DA:135,0
DA:136,0
DA:137,0
DA:138,0
DA:139,0
DA:147,0
DA:148,0
DA:149,0
DA:150,0
DA:151,0
DA:154,0
DA:155,0
DA:158,0
DA:161,0
DA:162,0
DA:163,0
DA:164,0
DA:165,0
DA:166,0
DA:167,0
DA:168,0
DA:169,0
DA:170,0
DA:171,0
DA:172,0
DA:175,0
DA:176,0
DA:177,0
DA:178,0
DA:179,0
DA:180,0
DA:181,0
DA:182,0
DA:183,0
DA:184,0
DA:185,0
DA:186,0
DA:187,0
DA:188,0
DA:189,0
DA:191,0
DA:194,0
DA:197,0
DA:199,0
DA:200,0
DA:201,0
DA:202,0
DA:203,0
DA:204,0
DA:205,0
DA:206,0
DA:209,0
DA:212,0
DA:213,0
DA:218,0
DA:219,0
DA:220,0
DA:221,0
DA:222,0
DA:223,0
DA:224,0
DA:225,0
DA:226,0
DA:229,0
DA:232,0
DA:233,0
DA:234,0
DA:235,0
DA:240,0
DA:242,0
DA:243,0
DA:244,0
DA:245,0
DA:246,0
DA:247,0
DA:248,0
DA:249,0
DA:258,5
DA:259,5
DA:261,5
DA:262,6
DA:263,5
DA:265,5
DA:266,1
DA:267,1
DA:268,4
DA:272,5
DA:274,5
DA:275,5
DA:276,5
DA:277,5
DA:278,5
DA:279,5
DA:280,5
DA:281,5
DA:282,5
DA:291,0
DA:293,0
DA:294,0
DA:295,0
DA:296,0
DA:297,0
DA:298,0
DA:299,0
DA:300,0
DA:301,0
DA:302,0
DA:305,0
DA:306,0
DA:307,0
DA:308,0
DA:309,0
DA:311,0
DA:313,0
DA:314,0
DA:315,0
DA:316,0
DA:317,0
DA:318,0
DA:319,0
DA:320,0
DA:321,0
DA:322,0
DA:325,0
DA:328,0
DA:330,0
DA:332,0
DA:333,0
DA:334,0
DA:335,0
DA:336,0
DA:338,0
DA:340,0
DA:341,0
DA:342,0
DA:343,0
DA:344,0
DA:345,0
DA:346,0
DA:347,0
DA:348,0
DA:349,0
DA:352,0
DA:355,0
DA:357,0
DA:362,0
DA:363,0
DA:364,0
DA:365,0
DA:366,0
DA:367,0
DA:368,0
DA:369,0
DA:370,0
DA:371,0
DA:372,0
DA:373,0
DA:374,0
DA:375,0
DA:376,0
DA:380,0
DA:382,0
DA:384,0
DA:385,0
DA:386,0
DA:388,0
DA:389,0
DA:390,0
DA:391,0
DA:395,0
DA:398,0
DA:400,0
DA:401,0
DA:403,0
DA:404,0
DA:405,0
DA:407,0
DA:408,0
DA:409,0
DA:411,0
DA:412,0
DA:413,0
DA:414,0
DA:415,0
DA:416,0
DA:420,0
DA:421,0
DA:422,0
DA:423,0
DA:426,0
DA:428,0
DA:429,0
DA:430,0
DA:431,0
DA:432,0
DA:433,0
DA:435,0
DA:437,0
DA:438,0
DA:439,0
DA:443,0
DA:444,0
DA:445,0
DA:446,0
DA:447,0
DA:448,0
DA:449,0
DA:450,0
DA:451,0
DA:455,0
DA:456,0
DA:457,0
DA:458,0
DA:459,0
DA:460,0
DA:461,0
DA:462,0
DA:464,0
DA:465,0
DA:466,0
DA:467,0
DA:468,0
DA:469,0
DA:470,0
DA:471,0
DA:472,0
DA:476,0
DA:477,0
DA:478,0
DA:479,0
DA:480,0
DA:481,0
DA:482,0
DA:483,0
DA:485,0
DA:487,0
DA:489,0
DA:492,0
DA:494,0
DA:495,0
DA:496,0
DA:498,0
DA:499,0
DA:500,0
DA:501,0
DA:505,0
DA:508,0
DA:509,0
DA:510,0
DA:511,0
DA:512,0
DA:513,0
DA:514,0
DA:515,0
DA:516,0
DA:519,0
DA:520,0
DA:521,0
DA:522,0
DA:523,0
DA:524,0
DA:525,0
DA:526,0
DA:528,0
BRF:0
BRH:0
LF:334
LH:48
end_of_record
SF:/home/noah/src/ruchy/src/frontend/parser/mod.rs
FN:63,_RNvMNtNtCsdG3rhVUllIu_5ruchy8frontend6parserNtB2_11ParserState10get_errors
FN:52,_RNvMNtNtCsdG3rhVUllIu_5ruchy8frontend6parserNtB2_11ParserState3new
FN:466,_RNvNtNtCsdG3rhVUllIu_5ruchy8frontend6parser19try_range_operators
FN:81,_RNvNtNtCsdG3rhVUllIu_5ruchy8frontend6parser20parse_expr_recursive
FN:288,_RNvNtNtCsdG3rhVUllIu_5ruchy8frontend6parser20try_binary_operators
FN:276,_RNvNtNtCsdG3rhVUllIu_5ruchy8frontend6parser21create_post_decrement
FN:265,_RNvNtNtCsdG3rhVUllIu_5ruchy8frontend6parser21create_post_increment
FN:195,_RNvNtNtCsdG3rhVUllIu_5ruchy8frontend6parser21handle_array_indexing
FN:421,_RNvNtNtCsdG3rhVUllIu_5ruchy8frontend6parser22try_pipeline_operators
FN:317,_RNvNtNtCsdG3rhVUllIu_5ruchy8frontend6parser23try_new_actor_operators
FN:139,_RNvNtNtCsdG3rhVUllIu_5ruchy8frontend6parser24handle_postfix_operators
FN:361,_RNvNtNtCsdG3rhVUllIu_5ruchy8frontend6parser24try_assignment_operators
FN:253,_RNvNtNtCsdG3rhVUllIu_5ruchy8frontend6parser24try_parse_struct_literal
FN:404,_RNvNtNtCsdG3rhVUllIu_5ruchy8frontend6parser26get_compound_assignment_op
FN:87,_RNvNtNtCsdG3rhVUllIu_5ruchy8frontend6parser36parse_expr_with_precedence_recursive
FN:69,_RNvMNtNtCsdG3rhVUllIu_5ruchy8frontend6parserNtB2_11ParserState11arena_stats
FN:75,_RNvMNtNtCsdG3rhVUllIu_5ruchy8frontend6parserNtB2_11ParserState14interner_stats
FNDA:0,_RNvMNtNtCsdG3rhVUllIu_5ruchy8frontend6parserNtB2_11ParserState10get_errors
FNDA:131,_RNvMNtNtCsdG3rhVUllIu_5ruchy8frontend6parserNtB2_11ParserState3new
FNDA:40,_RNvNtNtCsdG3rhVUllIu_5ruchy8frontend6parser19try_range_operators
FNDA:268,_RNvNtNtCsdG3rhVUllIu_5ruchy8frontend6parser20parse_expr_recursive
FNDA:62,_RNvNtNtCsdG3rhVUllIu_5ruchy8frontend6parser20try_binary_operators
FNDA:0,_RNvNtNtCsdG3rhVUllIu_5ruchy8frontend6parser21create_post_decrement
FNDA:0,_RNvNtNtCsdG3rhVUllIu_5ruchy8frontend6parser21create_post_increment
FNDA:0,_RNvNtNtCsdG3rhVUllIu_5ruchy8frontend6parser21handle_array_indexing
FNDA:40,_RNvNtNtCsdG3rhVUllIu_5ruchy8frontend6parser22try_pipeline_operators
FNDA:62,_RNvNtNtCsdG3rhVUllIu_5ruchy8frontend6parser23try_new_actor_operators
FNDA:310,_RNvNtNtCsdG3rhVUllIu_5ruchy8frontend6parser24handle_postfix_operators
FNDA:40,_RNvNtNtCsdG3rhVUllIu_5ruchy8frontend6parser24try_assignment_operators
FNDA:2,_RNvNtNtCsdG3rhVUllIu_5ruchy8frontend6parser24try_parse_struct_literal
FNDA:0,_RNvNtNtCsdG3rhVUllIu_5ruchy8frontend6parser26get_compound_assignment_op
FNDA:290,_RNvNtNtCsdG3rhVUllIu_5ruchy8frontend6parser36parse_expr_with_precedence_recursive
FNDA:0,_RNvMNtNtCsdG3rhVUllIu_5ruchy8frontend6parserNtB2_11ParserState11arena_stats
FNDA:0,_RNvMNtNtCsdG3rhVUllIu_5ruchy8frontend6parserNtB2_11ParserState14interner_stats
FNF:17
FNH:10
DA:52,131
DA:53,131
DA:54,131
DA:55,131
DA:56,131
DA:57,131
DA:58,131
DA:59,131
DA:60,131
DA:63,0
DA:64,0
DA:65,0
DA:69,0
DA:70,0
DA:71,0
DA:75,0
DA:76,0
DA:77,0
DA:81,268
DA:82,268
DA:83,268
DA:87,290
DA:88,290
DA:89,290
DA:90,290
DA:91,290
DA:95,310
DA:98,310
DA:99,248
DA:101,62
DA:104,62
DA:105,0
DA:106,0
DA:107,62
DA:109,62
DA:110,22
DA:111,22
DA:112,40
DA:114,0
DA:115,40
DA:117,0
DA:118,0
DA:119,40
DA:121,40
DA:123,0
DA:124,0
DA:125,40
DA:127,40
DA:128,0
DA:129,0
DA:130,40
DA:132,40
DA:135,288
DA:136,290
DA:139,310
DA:140,310
DA:141,625
DA:142,315
DA:143,315
DA:145,0
DA:146,0
DA:147,0
DA:150,0
DA:151,0
DA:152,0
DA:155,5
DA:156,5
DA:159,0
DA:160,0
DA:163,2
DA:164,0
DA:165,0
DA:166,2
DA:168,0
DA:169,0
DA:170,0
DA:171,0
DA:172,0
DA:173,0
DA:174,0
DA:175,0
DA:176,0
DA:177,0
DA:178,0
DA:179,0
DA:180,0
DA:181,0
DA:182,0
DA:183,0
DA:184,0
DA:185,0
DA:186,0
DA:187,0
DA:188,308
DA:191,310
DA:192,310
DA:195,0
DA:196,0
DA:199,0
DA:200,0
DA:201,0
DA:202,0
DA:204,0
DA:206,0
DA:207,0
DA:208,0
DA:209,0
DA:210,0
DA:211,0
DA:212,0
DA:213,0
DA:214,0
DA:215,0
DA:216,0
DA:218,0
DA:221,0
DA:222,0
DA:223,0
DA:224,0
DA:226,0
DA:228,0
DA:229,0
DA:230,0
DA:231,0
DA:232,0
DA:233,0
DA:234,0
DA:235,0
DA:236,0
DA:237,0
DA:239,0
DA:240,0
DA:241,0
DA:242,0
DA:243,0
DA:244,0
DA:245,0
DA:246,0
DA:247,0
DA:249,0
DA:253,2
DA:254,2
DA:255,0
DA:256,0
DA:257,0
DA:258,0
DA:259,0
DA:260,2
DA:261,2
DA:262,2
DA:265,0
DA:266,0
DA:267,0
DA:268,0
DA:269,0
DA:270,0
DA:271,0
DA:272,0
DA:273,0
DA:276,0
DA:277,0
DA:278,0
DA:279,0
DA:280,0
DA:281,0
DA:282,0
DA:283,0
DA:284,0
DA:288,62
DA:289,62
DA:290,62
DA:291,62
DA:292,62
DA:293,62
DA:294,62
DA:295,24
DA:296,24
DA:297,2
DA:298,22
DA:300,22
DA:301,22
DA:302,22
DA:303,22
DA:304,22
DA:305,22
DA:306,22
DA:307,22
DA:308,22
DA:309,22
DA:310,22
DA:312,38
DA:314,62
DA:317,62
DA:318,62
DA:319,62
DA:320,62
DA:321,62
DA:322,62
DA:323,62
DA:326,0
DA:327,0
DA:328,0
DA:329,0
DA:330,0
DA:331,0
DA:332,0
DA:333,0
DA:334,0
DA:335,0
DA:339,0
DA:340,0
DA:341,0
DA:342,0
DA:343,0
DA:344,0
DA:345,0
DA:346,0
DA:347,0
DA:348,0
DA:350,62
DA:353,0
DA:354,0
DA:355,0
DA:356,0
DA:357,0
DA:358,62
DA:361,40
DA:362,40
DA:363,40
DA:364,40
DA:365,40
DA:366,40
DA:367,40
DA:368,40
DA:369,0
DA:371,0
DA:372,0
DA:373,0
DA:374,0
DA:376,0
DA:377,0
DA:379,0
DA:380,0
DA:381,0
DA:382,0
DA:383,0
DA:384,0
DA:385,0
DA:386,0
DA:387,0
DA:389,0
DA:390,0
DA:391,0
DA:392,0
DA:393,0
DA:394,0
DA:395,0
DA:396,0
DA:397,0
DA:398,0
DA:400,0
DA:401,40
DA:404,0
DA:405,0
DA:406,0
DA:407,0
DA:408,0
DA:409,0
DA:410,0
DA:411,0
DA:412,0
DA:413,0
DA:414,0
DA:415,0
DA:416,0
DA:418,0
DA:421,40
DA:422,40
DA:423,40
DA:424,40
DA:425,40
DA:426,40
DA:427,40
DA:428,40
DA:429,0
DA:431,0
DA:432,0
DA:433,0
DA:434,0
DA:436,0
DA:437,0
DA:439,0
DA:440,0
DA:441,0
DA:442,0
DA:443,0
DA:444,0
DA:445,0
DA:446,0
DA:447,0
DA:448,0
DA:450,0
DA:451,0
DA:452,0
DA:453,0
DA:454,0
DA:455,0
DA:456,0
DA:457,0
DA:458,0
DA:459,0
DA:460,0
DA:462,0
DA:463,40
DA:466,40
DA:467,40
DA:468,40
DA:469,40
DA:470,40
DA:471,40
DA:472,40
DA:473,40
DA:474,0
DA:476,0
DA:477,0
DA:478,0
DA:479,0
DA:481,0
DA:482,0
DA:483,0
DA:484,0
DA:485,0
DA:486,0
DA:487,0
DA:488,0
DA:489,0
DA:490,0
DA:491,0
DA:492,0
DA:493,40
BRF:0
BRH:0
LF:340
LH:113
end_of_record
SF:/home/noah/src/ruchy/src/frontend/parser/operator_precedence.rs
FN:44,_RNvNtNtNtCsdG3rhVUllIu_5ruchy8frontend6parser19operator_precedence17get_operator_info
FN:112,_RNvNtNtNtCsdG3rhVUllIu_5ruchy8frontend6parser19operator_precedence18is_prefix_operator
FN:98,_RNvNtNtNtCsdG3rhVUllIu_5ruchy8frontend6parser19operator_precedence19is_postfix_operator
FN:126,_RNvNtNtNtCsdG3rhVUllIu_5ruchy8frontend6parser19operator_precedence22get_postfix_precedence
FN:136,_RNvNtNtNtCsdG3rhVUllIu_5ruchy8frontend6parser19operator_precedence23should_continue_parsing
FNDA:0,_RNvNtNtNtCsdG3rhVUllIu_5ruchy8frontend6parser19operator_precedence17get_operator_info
FNDA:0,_RNvNtNtNtCsdG3rhVUllIu_5ruchy8frontend6parser19operator_precedence18is_prefix_operator
FNDA:0,_RNvNtNtNtCsdG3rhVUllIu_5ruchy8frontend6parser19operator_precedence19is_postfix_operator
FNDA:0,_RNvNtNtNtCsdG3rhVUllIu_5ruchy8frontend6parser19operator_precedence22get_postfix_precedence
FNDA:0,_RNvNtNtNtCsdG3rhVUllIu_5ruchy8frontend6parser19operator_precedence23should_continue_parsing
FNF:5
FNH:0
DA:44,0
DA:47,0
DA:60,0
DA:63,0
DA:66,0
DA:67,0
DA:70,0
DA:74,0
DA:78,0
DA:79,0
DA:80,0
DA:81,0
DA:84,0
DA:87,0
DA:89,0
DA:91,0
DA:93,0
DA:95,0
DA:98,0
DA:99,0
DA:100,0
DA:109,0
DA:112,0
DA:113,0
DA:114,0
DA:123,0
DA:126,0
DA:127,0
DA:128,0
DA:129,0
DA:130,0
DA:131,0
DA:133,0
DA:136,0
DA:137,0
DA:138,0
DA:140,0
DA:142,0
BRF:0
BRH:0
LF:38
LH:0
end_of_record
SF:/home/noah/src/ruchy/src/frontend/parser/types.rs
FN:5,_RNvNtNtNtCsdG3rhVUllIu_5ruchy8frontend6parser5types20parse_struct_literal
FNDA:0,_RNvNtNtNtCsdG3rhVUllIu_5ruchy8frontend6parser5types20parse_struct_literal
FNF:1
FNH:0
DA:5,0
DA:6,0
DA:7,0
DA:8,0
DA:9,0
DA:10,0
DA:12,0
DA:13,0
DA:15,0
DA:16,0
DA:17,0
DA:18,0
DA:20,0
DA:24,0
DA:25,0
DA:27,0
DA:30,0
DA:31,0
DA:32,0
DA:33,0
DA:37,0
DA:39,0
DA:40,0
DA:41,0
DA:42,0
DA:43,0
BRF:0
BRH:0
LF:26
LH:0
end_of_record
SF:/home/noah/src/ruchy/src/frontend/parser/utils.rs
FN:171,_RNvNtNtNtCsdG3rhVUllIu_5ruchy8frontend6parser5utils10parse_type
FN:46,_RNvNtNtNtCsdG3rhVUllIu_5ruchy8frontend6parser5utils12parse_params
FN:541,_RNvNtNtNtCsdG3rhVUllIu_5ruchy8frontend6parser5utils16parse_attributes
FN:141,_RNvNtNtNtCsdG3rhVUllIu_5ruchy8frontend6parser5utils21parse_type_parameters
FN:860,_RNvNtNtNtCsdG3rhVUllIu_5ruchy8frontend6parser5utils12parse_export
FN:388,_RNvNtNtNtCsdG3rhVUllIu_5ruchy8frontend6parser5utils12parse_import
FN:761,_RNvNtNtNtCsdG3rhVUllIu_5ruchy8frontend6parser5utils12parse_module
FN:7,_RNvNtNtNtCsdG3rhVUllIu_5ruchy8frontend6parser5utils19validate_url_import
FN:595,_RNvNtNtNtCsdG3rhVUllIu_5ruchy8frontend6parser5utils26parse_string_interpolation
FNDA:0,_RNvNtNtNtCsdG3rhVUllIu_5ruchy8frontend6parser5utils10parse_type
FNDA:3,_RNvNtNtNtCsdG3rhVUllIu_5ruchy8frontend6parser5utils12parse_params
FNDA:131,_RNvNtNtNtCsdG3rhVUllIu_5ruchy8frontend6parser5utils16parse_attributes
FNDA:0,_RNvNtNtNtCsdG3rhVUllIu_5ruchy8frontend6parser5utils21parse_type_parameters
FNDA:0,_RNvNtNtNtCsdG3rhVUllIu_5ruchy8frontend6parser5utils12parse_export
FNDA:0,_RNvNtNtNtCsdG3rhVUllIu_5ruchy8frontend6parser5utils12parse_import
FNDA:0,_RNvNtNtNtCsdG3rhVUllIu_5ruchy8frontend6parser5utils12parse_module
FNDA:0,_RNvNtNtNtCsdG3rhVUllIu_5ruchy8frontend6parser5utils19validate_url_import
FNDA:0,_RNvNtNtNtCsdG3rhVUllIu_5ruchy8frontend6parser5utils26parse_string_interpolation
FNF:9
FNH:2
DA:7,0
DA:11,0
DA:12,0
DA:13,0
DA:14,0
DA:17,0
DA:18,0
DA:19,0
DA:22,0
DA:23,0
DA:24,0
DA:27,0
DA:28,0
DA:29,0
DA:31,0
DA:32,0
DA:46,3
DA:47,3
DA:49,3
DA:50,4
DA:52,4
DA:53,0
DA:54,0
DA:56,4
DA:59,4
DA:62,0
DA:64,0
DA:65,0
DA:66,0
DA:67,0
DA:68,0
DA:69,0
DA:71,0
DA:74,0
DA:76,0
DA:77,0
DA:78,0
DA:79,0
DA:81,0
DA:84,0
DA:87,4
DA:89,4
DA:90,4
DA:91,4
DA:93,0
DA:97,4
DA:98,0
DA:99,0
DA:102,4
DA:103,4
DA:104,4
DA:105,4
DA:109,4
DA:110,0
DA:111,0
DA:113,4
DA:116,4
DA:117,4
DA:118,4
DA:119,4
DA:120,4
DA:121,4
DA:122,4
DA:124,4
DA:125,1
DA:126,1
DA:127,3
DA:131,3
DA:132,3
DA:133,3
DA:141,0
DA:142,0
DA:144,0
DA:147,0
DA:148,0
DA:149,0
DA:150,0
DA:153,0
DA:154,0
DA:155,0
DA:156,0
DA:157,0
DA:158,0
DA:161,0
DA:162,0
DA:163,0
DA:171,0
DA:172,0
DA:174,0
DA:177,0
DA:180,0
DA:181,0
DA:182,0
DA:184,0
DA:188,0
DA:190,0
DA:191,0
DA:192,0
DA:193,0
DA:194,0
DA:195,0
DA:196,0
DA:200,0
DA:201,0
DA:203,0
DA:204,0
DA:205,0
DA:206,0
DA:207,0
DA:208,0
DA:210,0
DA:212,0
DA:213,0
DA:214,0
DA:216,0
DA:217,0
DA:218,0
DA:219,0
DA:220,0
DA:221,0
DA:222,0
DA:225,0
DA:226,0
DA:227,0
DA:229,0
DA:230,0
DA:231,0
DA:232,0
DA:235,0
DA:236,0
DA:238,0
DA:239,0
DA:240,0
DA:241,0
DA:242,0
DA:245,0
DA:246,0
DA:248,0
DA:249,0
DA:250,0
DA:253,0
DA:256,0
DA:258,0
DA:259,0
DA:261,0
DA:262,0
DA:263,0
DA:264,0
DA:265,0
DA:266,0
DA:267,0
DA:270,0
DA:271,0
DA:272,0
DA:273,0
DA:277,0
DA:278,0
DA:279,0
DA:282,0
DA:283,0
DA:285,0
DA:286,0
DA:288,0
DA:289,0
DA:290,0
DA:291,0
DA:292,0
DA:293,0
DA:294,0
DA:297,0
DA:298,0
DA:299,0
DA:303,0
DA:304,0
DA:306,0
DA:307,0
DA:309,0
DA:310,0
DA:311,0
DA:314,0
DA:317,0
DA:318,0
DA:319,0
DA:320,0
DA:321,0
DA:322,0
DA:323,0
DA:325,0
DA:326,0
DA:327,0
DA:328,0
DA:331,0
DA:333,0
DA:388,0
DA:389,0
DA:391,0
DA:394,0
DA:396,0
DA:397,0
DA:398,0
DA:401,0
DA:403,0
DA:404,0
DA:407,0
DA:408,0
DA:409,0
DA:410,0
DA:411,0
DA:412,0
DA:413,0
DA:414,0
DA:415,0
DA:418,0
DA:419,0
DA:420,0
DA:422,0
DA:424,0
DA:427,0
DA:428,0
DA:432,0
DA:433,0
DA:435,0
DA:436,0
DA:437,0
DA:438,0
DA:439,0
DA:442,0
DA:446,0
DA:448,0
DA:449,0
DA:450,0
DA:452,0
DA:454,0
DA:455,0
DA:456,0
DA:457,0
DA:458,0
DA:461,0
DA:462,0
DA:463,0
DA:464,0
DA:465,0
DA:466,0
DA:467,0
DA:468,0
DA:470,0
DA:471,0
DA:472,0
DA:474,0
DA:475,0
DA:476,0
DA:477,0
DA:478,0
DA:480,0
DA:481,0
DA:482,0
DA:483,0
DA:484,0
DA:487,0
DA:488,0
DA:491,0
DA:493,0
DA:494,0
DA:495,0
DA:496,0
DA:497,0
DA:498,0
DA:499,0
DA:500,0
DA:502,0
DA:506,0
DA:507,0
DA:508,0
DA:510,0
DA:513,0
DA:514,0
DA:515,0
DA:516,0
DA:517,0
DA:518,0
DA:523,0
DA:526,0
DA:527,0
DA:528,0
DA:530,0
DA:532,0
DA:533,0
DA:541,131
DA:542,131
DA:544,131
DA:545,0
DA:547,0
DA:548,0
DA:549,0
DA:550,0
DA:552,0
DA:553,0
DA:554,0
DA:555,0
DA:557,0
DA:560,0
DA:561,0
DA:562,0
DA:564,0
DA:565,0
DA:566,0
DA:567,0
DA:569,0
DA:570,0
DA:571,0
DA:572,0
DA:575,0
DA:579,0
DA:580,0
DA:582,0
DA:584,0
DA:585,0
DA:586,0
DA:587,0
DA:588,0
DA:591,131
DA:592,131
DA:595,0
DA:596,0
DA:597,0
DA:598,0
DA:600,0
DA:601,0
DA:602,0
DA:603,0
DA:604,0
DA:605,0
DA:606,0
DA:607,0
DA:608,0
DA:609,0
DA:610,0
DA:611,0
DA:614,0
DA:615,0
DA:616,0
DA:617,0
DA:620,0
DA:621,0
DA:622,0
DA:623,0
DA:624,0
DA:626,0
DA:627,0
DA:628,0
DA:629,0
DA:630,0
DA:631,0
DA:632,0
DA:633,0
DA:634,0
DA:635,0
DA:636,0
DA:637,0
DA:638,0
DA:639,0
DA:640,0
DA:641,0
DA:642,0
DA:643,0
DA:644,0
DA:645,0
DA:647,0
DA:648,0
DA:649,0
DA:650,0
DA:651,0
DA:652,0
DA:653,0
DA:654,0
DA:658,0
DA:659,0
DA:660,0
DA:664,0
DA:667,0
DA:668,0
DA:669,0
DA:671,0
DA:674,0
DA:678,0
DA:679,0
DA:680,0
DA:682,0
DA:683,0
DA:684,0
DA:685,0
DA:686,0
DA:687,0
DA:688,0
DA:689,0
DA:691,0
DA:692,0
DA:693,0
DA:694,0
DA:697,0
DA:702,0
DA:703,0
DA:704,0
DA:706,0
DA:707,0
DA:761,0
DA:762,0
DA:765,0
DA:766,0
DA:767,0
DA:768,0
DA:770,0
DA:774,0
DA:777,0
DA:779,0
DA:780,0
DA:781,0
DA:785,0
DA:786,0
DA:787,0
DA:789,0
DA:790,0
DA:792,0
DA:793,0
DA:794,0
DA:797,0
DA:798,0
DA:800,0
DA:805,0
DA:807,0
DA:808,0
DA:860,0
DA:861,0
DA:863,0
DA:866,0
DA:868,0
DA:870,0
DA:871,0
DA:872,0
DA:873,0
DA:875,0
DA:876,0
DA:877,0
DA:878,0
DA:881,0
DA:885,0
DA:886,0
DA:887,0
DA:888,0
DA:889,0
DA:890,0
DA:891,0
DA:894,0
DA:895,0
BRF:0
BRH:0
LF:454
LH:37
end_of_record
SF:/home/noah/src/ruchy/src/lib.rs
FN:126,_RNCNvCsdG3rhVUllIu_5ruchy15get_parse_error0B3_
FN:124,_RNvCsdG3rhVUllIu_5ruchy15get_parse_error
FN:117,_RNvCsdG3rhVUllIu_5ruchy15is_valid_syntax
FN:106,_RNvCsdG3rhVUllIu_5ruchy7compile
FN:144,_RNvCsdG3rhVUllIu_5ruchy8run_repl
FNDA:0,_RNCNvCsdG3rhVUllIu_5ruchy15get_parse_error0B3_
FNDA:0,_RNvCsdG3rhVUllIu_5ruchy15get_parse_error
FNDA:0,_RNvCsdG3rhVUllIu_5ruchy15is_valid_syntax
FNDA:0,_RNvCsdG3rhVUllIu_5ruchy7compile
FNDA:0,_RNvCsdG3rhVUllIu_5ruchy8run_repl
FNF:5
FNH:0
DA:106,0
DA:107,0
DA:108,0
DA:109,0
DA:111,0
DA:112,0
DA:113,0
DA:117,0
DA:118,0
DA:119,0
DA:120,0
DA:124,0
DA:125,0
DA:126,0
DA:127,0
DA:144,0
DA:145,0
DA:146,0
DA:147,0
BRF:0
BRH:0
LF:20
LH:0
end_of_record
SF:/home/noah/src/ruchy/src/lints/mod.rs
FN:90,_RNCNvMs0_NtCsdG3rhVUllIu_5ruchy5lintsNtB7_14ComplexityRule20calculate_complexitys_0B9_
FN:84,_RNCNvMs0_NtCsdG3rhVUllIu_5ruchy5lintsNtB7_14ComplexityRule20calculate_complexity0B9_
FN:73,_RNvMs0_NtCsdG3rhVUllIu_5ruchy5lintsNtB5_14ComplexityRule20calculate_complexity
FN:41,_RNvMs_NtCsdG3rhVUllIu_5ruchy5lintsNtB4_11RuchyLinter3new
FN:54,_RNvMs_NtCsdG3rhVUllIu_5ruchy5lintsNtB4_11RuchyLinter4lint
FN:50,_RNvMs_NtCsdG3rhVUllIu_5ruchy5lintsNtB4_11RuchyLinter8add_rule
FN:35,_RNvXNtCsdG3rhVUllIu_5ruchy5lintsNtB2_11RuchyLinterNtNtCs66KPHxksi63_4core7default7Default7default
FN:112,_RNvXs1_NtCsdG3rhVUllIu_5ruchy5lintsNtB5_14ComplexityRuleNtB5_8LintRule16check_expression
FN:108,_RNvXs1_NtCsdG3rhVUllIu_5ruchy5lintsNtB5_14ComplexityRuleNtB5_8LintRule4name
FN:142,_RNvXs2_NtCsdG3rhVUllIu_5ruchy5lintsNtB5_16NoDebugPrintRuleNtB5_8LintRule16check_expression
FN:138,_RNvXs2_NtCsdG3rhVUllIu_5ruchy5lintsNtB5_16NoDebugPrintRuleNtB5_8LintRule4name
FNDA:0,_RNCNvMs0_NtCsdG3rhVUllIu_5ruchy5lintsNtB7_14ComplexityRule20calculate_complexitys_0B9_
FNDA:0,_RNCNvMs0_NtCsdG3rhVUllIu_5ruchy5lintsNtB7_14ComplexityRule20calculate_complexity0B9_
FNDA:0,_RNvMs0_NtCsdG3rhVUllIu_5ruchy5lintsNtB5_14ComplexityRule20calculate_complexity
FNDA:0,_RNvMs_NtCsdG3rhVUllIu_5ruchy5lintsNtB4_11RuchyLinter3new
FNDA:0,_RNvMs_NtCsdG3rhVUllIu_5ruchy5lintsNtB4_11RuchyLinter4lint
FNDA:0,_RNvMs_NtCsdG3rhVUllIu_5ruchy5lintsNtB4_11RuchyLinter8add_rule
FNDA:0,_RNvXNtCsdG3rhVUllIu_5ruchy5lintsNtB2_11RuchyLinterNtNtCs66KPHxksi63_4core7default7Default7default
FNDA:0,_RNvXs1_NtCsdG3rhVUllIu_5ruchy5lintsNtB5_14ComplexityRuleNtB5_8LintRule16check_expression
FNDA:0,_RNvXs1_NtCsdG3rhVUllIu_5ruchy5lintsNtB5_14ComplexityRuleNtB5_8LintRule4name
FNDA:0,_RNvXs2_NtCsdG3rhVUllIu_5ruchy5lintsNtB5_16NoDebugPrintRuleNtB5_8LintRule16check_expression
FNDA:0,_RNvXs2_NtCsdG3rhVUllIu_5ruchy5lintsNtB5_16NoDebugPrintRuleNtB5_8LintRule4name
FNF:11
FNH:0
DA:35,0
DA:36,0
DA:37,0
DA:41,0
DA:42,0
DA:43,0
DA:44,0
DA:47,0
DA:48,0
DA:50,0
DA:51,0
DA:52,0
DA:54,0
DA:55,0
DA:57,0
DA:58,0
DA:59,0
DA:61,0
DA:62,0
DA:73,0
DA:74,0
DA:76,0
DA:77,0
DA:78,0
DA:80,0
DA:81,0
DA:82,0
DA:83,0
DA:84,0
DA:86,0
DA:87,0
DA:88,0
DA:89,0
DA:90,0
DA:91,0
DA:93,0
DA:94,0
DA:96,0
DA:97,0
DA:99,0
DA:100,0
DA:102,0
DA:104,0
DA:108,0
DA:109,0
DA:110,0
DA:112,0
DA:113,0
DA:114,0
DA:115,0
DA:117,0
DA:120,0
DA:121,0
DA:122,0
DA:123,0
DA:124,0
DA:125,0
DA:126,0
DA:127,0
DA:128,0
DA:130,0
DA:131,0
DA:138,0
DA:139,0
DA:140,0
DA:142,0
DA:143,0
DA:144,0
DA:145,0
DA:146,0
DA:147,0
DA:148,0
DA:149,0
DA:150,0
DA:151,0
DA:152,0
DA:153,0
DA:154,0
DA:156,0
DA:159,0
DA:162,0
DA:164,0
BRF:0
BRH:0
LF:84
LH:0
end_of_record
SF:/home/noah/src/ruchy/src/middleend/environment.rs
FN:113,_RNCNvMNtNtCsdG3rhVUllIu_5ruchy9middleend11environmentNtB4_7TypeEnv10generalize0B8_
FN:70,_RINvMNtNtCsdG3rhVUllIu_5ruchy9middleend11environmentNtB3_7TypeEnv4bindNtNtCs8Ty2CzGA6U3_5alloc6string6StringEB7_
FN:70,_RINvMNtNtCsdG3rhVUllIu_5ruchy9middleend11environmentNtB3_7TypeEnv4bindRNtNtCs8Ty2CzGA6U3_5alloc6string6StringEB7_
FN:70,_RINvMNtNtCsdG3rhVUllIu_5ruchy9middleend11environmentNtB3_7TypeEnv4bindReEB7_
FN:82,_RINvMNtNtCsdG3rhVUllIu_5ruchy9middleend11environmentNtB3_7TypeEnv6extendNtNtCs8Ty2CzGA6U3_5alloc6string6StringEB7_
FN:82,_RINvMNtNtCsdG3rhVUllIu_5ruchy9middleend11environmentNtB3_7TypeEnv6extendRNtNtCs8Ty2CzGA6U3_5alloc6string6StringEB7_
FN:82,_RINvMNtNtCsdG3rhVUllIu_5ruchy9middleend11environmentNtB3_7TypeEnv6extendReEB7_
FN:106,_RNvMNtNtCsdG3rhVUllIu_5ruchy9middleend11environmentNtB2_7TypeEnv10generalize
FN:120,_RNvMNtNtCsdG3rhVUllIu_5ruchy9middleend11environmentNtB2_7TypeEnv11instantiate
FN:14,_RNvMNtNtCsdG3rhVUllIu_5ruchy9middleend11environmentNtB2_7TypeEnv3new
FN:76,_RNvMNtNtCsdG3rhVUllIu_5ruchy9middleend11environmentNtB2_7TypeEnv6lookup
FN:22,_RNvMNtNtCsdG3rhVUllIu_5ruchy9middleend11environmentNtB2_7TypeEnv8standard
FN:90,_RNvMNtNtCsdG3rhVUllIu_5ruchy9middleend11environmentNtB2_7TypeEnv9free_vars
FN:126,_RNvXs_NtNtCsdG3rhVUllIu_5ruchy9middleend11environmentNtB4_7TypeEnvNtNtCs66KPHxksi63_4core7default7Default7default
FNDA:0,_RNCNvMNtNtCsdG3rhVUllIu_5ruchy9middleend11environmentNtB4_7TypeEnv10generalize0B8_
FNDA:0,_RINvMNtNtCsdG3rhVUllIu_5ruchy9middleend11environmentNtB3_7TypeEnv4bindNtNtCs8Ty2CzGA6U3_5alloc6string6StringEB7_
FNDA:0,_RINvMNtNtCsdG3rhVUllIu_5ruchy9middleend11environmentNtB3_7TypeEnv4bindRNtNtCs8Ty2CzGA6U3_5alloc6string6StringEB7_
FNDA:0,_RINvMNtNtCsdG3rhVUllIu_5ruchy9middleend11environmentNtB3_7TypeEnv4bindReEB7_
FNDA:0,_RINvMNtNtCsdG3rhVUllIu_5ruchy9middleend11environmentNtB3_7TypeEnv6extendNtNtCs8Ty2CzGA6U3_5alloc6string6StringEB7_
FNDA:0,_RINvMNtNtCsdG3rhVUllIu_5ruchy9middleend11environmentNtB3_7TypeEnv6extendRNtNtCs8Ty2CzGA6U3_5alloc6string6StringEB7_
FNDA:0,_RINvMNtNtCsdG3rhVUllIu_5ruchy9middleend11environmentNtB3_7TypeEnv6extendReEB7_
FNDA:0,_RNvMNtNtCsdG3rhVUllIu_5ruchy9middleend11environmentNtB2_7TypeEnv10generalize
FNDA:0,_RNvMNtNtCsdG3rhVUllIu_5ruchy9middleend11environmentNtB2_7TypeEnv11instantiate
FNDA:0,_RNvMNtNtCsdG3rhVUllIu_5ruchy9middleend11environmentNtB2_7TypeEnv3new
FNDA:0,_RNvMNtNtCsdG3rhVUllIu_5ruchy9middleend11environmentNtB2_7TypeEnv6lookup
FNDA:0,_RNvMNtNtCsdG3rhVUllIu_5ruchy9middleend11environmentNtB2_7TypeEnv8standard
FNDA:0,_RNvMNtNtCsdG3rhVUllIu_5ruchy9middleend11environmentNtB2_7TypeEnv9free_vars
FNDA:0,_RNvXs_NtNtCsdG3rhVUllIu_5ruchy9middleend11environmentNtB4_7TypeEnvNtNtCs66KPHxksi63_4core7default7Default7default
FNF:10
FNH:0
DA:14,0
DA:15,0
DA:16,0
DA:17,0
DA:18,0
DA:22,0
DA:23,0
DA:26,0
DA:28,0
DA:29,0
DA:30,0
DA:31,0
DA:32,0
DA:33,0
DA:34,0
DA:38,0
DA:40,0
DA:41,0
DA:42,0
DA:43,0
DA:46,0
DA:48,0
DA:49,0
DA:50,0
DA:51,0
DA:55,0
DA:57,0
DA:58,0
DA:59,0
DA:60,0
DA:61,0
DA:62,0
DA:63,0
DA:66,0
DA:67,0
DA:70,0
DA:71,0
DA:72,0
DA:76,0
DA:77,0
DA:78,0
DA:82,0
DA:83,0
DA:84,0
DA:85,0
DA:86,0
DA:90,0
DA:91,0
DA:92,0
DA:94,0
DA:95,0
DA:96,0
DA:97,0
DA:98,0
DA:101,0
DA:102,0
DA:106,0
DA:107,0
DA:108,0
DA:111,0
DA:112,0
DA:113,0
DA:114,0
DA:116,0
DA:117,0
DA:120,0
DA:121,0
DA:122,0
DA:126,0
DA:127,0
DA:128,0
BRF:0
BRH:0
LF:72
LH:0
end_of_record
SF:/home/noah/src/ruchy/src/middleend/infer.rs
FN:570,_RNCNvMNtNtCsdG3rhVUllIu_5ruchy9middleend5inferNtB4_16InferenceContext21add_method_constraint0B8_
FN:1297,_RNCNvMNtNtCsdG3rhVUllIu_5ruchy9middleend5inferNtB4_16InferenceContext21infer_collection_expr0B8_
FN:488,_RNCNvMNtNtCsdG3rhVUllIu_5ruchy9middleend5inferNtB4_16InferenceContext12infer_lambda0B8_
FN:443,_RNCNvMNtNtCsdG3rhVUllIu_5ruchy9middleend5inferNtB4_16InferenceContext14infer_function0B8_
FN:1203,_RNCNvMNtNtCsdG3rhVUllIu_5ruchy9middleend5inferNtB4_16InferenceContext23ast_type_to_mono_static0B8_
FN:675,_RNCNvMNtNtCsdG3rhVUllIu_5ruchy9middleend5inferNtB4_16InferenceContext22infer_column_selection0B8_
FN:1623,_RNCNvMNtNtCsdG3rhVUllIu_5ruchy9middleend5inferNtB4_16InferenceContext25infer_dataframe_operation0B8_
FN:495,_RNvMNtNtCsdG3rhVUllIu_5ruchy9middleend5inferNtB2_16InferenceContext10infer_call
FN:202,_RNvMNtNtCsdG3rhVUllIu_5ruchy9middleend5inferNtB2_16InferenceContext10infer_expr
FN:752,_RNvMNtNtCsdG3rhVUllIu_5ruchy9middleend5inferNtB2_16InferenceContext10infer_list
FN:997,_RNvMNtNtCsdG3rhVUllIu_5ruchy9middleend5inferNtB2_16InferenceContext10infer_loop
FN:1556,_RNvMNtNtCsdG3rhVUllIu_5ruchy9middleend5inferNtB2_16InferenceContext10infer_send
FN:350,_RNvMNtNtCsdG3rhVUllIu_5ruchy9middleend5inferNtB2_16InferenceContext11infer_await
FN:739,_RNvMNtNtCsdG3rhVUllIu_5ruchy9middleend5inferNtB2_16InferenceContext11infer_block
FN:513,_RNvMNtNtCsdG3rhVUllIu_5ruchy9middleend5inferNtB2_16InferenceContext11infer_macro
FN:806,_RNvMNtNtCsdG3rhVUllIu_5ruchy9middleend5inferNtB2_16InferenceContext11infer_match
FN:1006,_RNvMNtNtCsdG3rhVUllIu_5ruchy9middleend5inferNtB2_16InferenceContext11infer_range
FN:1549,_RNvMNtNtCsdG3rhVUllIu_5ruchy9middleend5inferNtB2_16InferenceContext11infer_slice
FN:337,_RNvMNtNtCsdG3rhVUllIu_5ruchy9middleend5inferNtB2_16InferenceContext11infer_throw
FN:312,_RNvMNtNtCsdG3rhVUllIu_5ruchy9middleend5inferNtB2_16InferenceContext11infer_unary
FN:984,_RNvMNtNtCsdG3rhVUllIu_5ruchy9middleend5inferNtB2_16InferenceContext11infer_while
FN:1041,_RNvMNtNtCsdG3rhVUllIu_5ruchy9middleend5inferNtB2_16InferenceContext12infer_assign
FN:256,_RNvMNtNtCsdG3rhVUllIu_5ruchy9middleend5inferNtB2_16InferenceContext12infer_binary
FN:461,_RNvMNtNtCsdG3rhVUllIu_5ruchy9middleend5inferNtB2_16InferenceContext12infer_lambda
FN:238,_RNvMNtNtCsdG3rhVUllIu_5ruchy9middleend5inferNtB2_16InferenceContext13infer_literal
FN:837,_RNvMNtNtCsdG3rhVUllIu_5ruchy9middleend5inferNtB2_16InferenceContext13infer_pattern
FN:413,_RNvMNtNtCsdG3rhVUllIu_5ruchy9middleend5inferNtB2_16InferenceContext14infer_function
FN:1018,_RNvMNtNtCsdG3rhVUllIu_5ruchy9middleend5inferNtB2_16InferenceContext14infer_pipeline
FN:1577,_RNvMNtNtCsdG3rhVUllIu_5ruchy9middleend5inferNtB2_16InferenceContext15infer_dataframe
FN:1487,_RNvMNtNtCsdG3rhVUllIu_5ruchy9middleend5inferNtB2_16InferenceContext15infer_result_ok
FN:249,_RNvMNtNtCsdG3rhVUllIu_5ruchy9middleend5inferNtB2_16InferenceContext16infer_identifier
FN:1323,_RNvMNtNtCsdG3rhVUllIu_5ruchy9middleend5inferNtB2_16InferenceContext16infer_other_expr
FN:1493,_RNvMNtNtCsdG3rhVUllIu_5ruchy9middleend5inferNtB2_16InferenceContext16infer_result_err
FN:725,_RNvMNtNtCsdG3rhVUllIu_5ruchy9middleend5inferNtB2_16InferenceContext16validate_no_args
FN:1660,_RNvMNtNtCsdG3rhVUllIu_5ruchy9middleend5inferNtB2_16InferenceContext17infer_async_block
FN:582,_RNvMNtNtCsdG3rhVUllIu_5ruchy9middleend5inferNtB2_16InferenceContext17infer_list_method
FN:540,_RNvMNtNtCsdG3rhVUllIu_5ruchy9middleend5inferNtB2_16InferenceContext17infer_method_call
FN:101,_RNvMNtNtCsdG3rhVUllIu_5ruchy9middleend5inferNtB2_16InferenceContext17solve_constraints
FN:1516,_RNvMNtNtCsdG3rhVUllIu_5ruchy9middleend5inferNtB2_16InferenceContext18infer_field_access
FN:1521,_RNvMNtNtCsdG3rhVUllIu_5ruchy9middleend5inferNtB2_16InferenceContext18infer_index_access
FN:1282,_RNvMNtNtCsdG3rhVUllIu_5ruchy9middleend5inferNtB2_16InferenceContext19infer_function_expr
FN:624,_RNvMNtNtCsdG3rhVUllIu_5ruchy9middleend5inferNtB2_16InferenceContext19infer_string_method
FN:732,_RNvMNtNtCsdG3rhVUllIu_5ruchy9middleend5inferNtB2_16InferenceContext19validate_single_arg
FN:1076,_RNvMNtNtCsdG3rhVUllIu_5ruchy9middleend5inferNtB2_16InferenceContext20infer_binary_op_type
FN:687,_RNvMNtNtCsdG3rhVUllIu_5ruchy9middleend5inferNtB2_16InferenceContext20infer_generic_method
FN:1499,_RNvMNtNtCsdG3rhVUllIu_5ruchy9middleend5inferNtB2_16InferenceContext20infer_object_literal
FN:1308,_RNvMNtNtCsdG3rhVUllIu_5ruchy9middleend5inferNtB2_16InferenceContext20infer_operation_expr
FN:1455,_RNvMNtNtCsdG3rhVUllIu_5ruchy9middleend5inferNtB2_16InferenceContext20infer_remaining_expr
FN:564,_RNvMNtNtCsdG3rhVUllIu_5ruchy9middleend5inferNtB2_16InferenceContext21add_method_constraint
FN:1293,_RNvMNtNtCsdG3rhVUllIu_5ruchy9middleend5inferNtB2_16InferenceContext21infer_collection_expr
FN:1055,_RNvMNtNtCsdG3rhVUllIu_5ruchy9middleend5inferNtB2_16InferenceContext21infer_compound_assign
FN:88,_RNvMNtNtCsdG3rhVUllIu_5ruchy9middleend5inferNtB2_16InferenceContext21solve_all_constraints
FN:112,_RNvMNtNtCsdG3rhVUllIu_5ruchy9middleend5inferNtB2_16InferenceContext21solve_type_constraint
FN:667,_RNvMNtNtCsdG3rhVUllIu_5ruchy9middleend5inferNtB2_16InferenceContext22infer_column_selection
FN:644,_RNvMNtNtCsdG3rhVUllIu_5ruchy9middleend5inferNtB2_16InferenceContext22infer_dataframe_method
FN:1426,_RNvMNtNtCsdG3rhVUllIu_5ruchy9middleend5inferNtB2_16InferenceContext22infer_other_actor_expr
FN:1413,_RNvMNtNtCsdG3rhVUllIu_5ruchy9middleend5inferNtB2_16InferenceContext22infer_other_async_expr
FN:1157,_RNvMNtNtCsdG3rhVUllIu_5ruchy9middleend5inferNtB2_16InferenceContext23ast_type_to_mono_static
FN:1253,_RNvMNtNtCsdG3rhVUllIu_5ruchy9middleend5inferNtB2_16InferenceContext23infer_control_flow_expr
FN:1398,_RNvMNtNtCsdG3rhVUllIu_5ruchy9middleend5inferNtB2_16InferenceContext23infer_other_option_expr
FN:769,_RNvMNtNtCsdG3rhVUllIu_5ruchy9middleend5inferNtB2_16InferenceContext24infer_list_comprehension
FN:1602,_RNvMNtNtCsdG3rhVUllIu_5ruchy9middleend5inferNtB2_16InferenceContext25infer_dataframe_operation
FN:1143,_RNvMNtNtCsdG3rhVUllIu_5ruchy9middleend5inferNtB2_16InferenceContext25infer_increment_decrement
FN:706,_RNvMNtNtCsdG3rhVUllIu_5ruchy9middleend5inferNtB2_16InferenceContext26build_method_function_type
FN:1475,_RNvMNtNtCsdG3rhVUllIu_5ruchy9middleend5inferNtB2_16InferenceContext26infer_string_interpolation
FN:1440,_RNvMNtNtCsdG3rhVUllIu_5ruchy9middleend5inferNtB2_16InferenceContext27infer_other_assignment_expr
FN:1381,_RNvMNtNtCsdG3rhVUllIu_5ruchy9middleend5inferNtB2_16InferenceContext27infer_other_definition_expr
FN:157,_RNvMNtNtCsdG3rhVUllIu_5ruchy9middleend5inferNtB2_16InferenceContext28check_method_call_constraint
FN:1376,_RNvMNtNtCsdG3rhVUllIu_5ruchy9middleend5inferNtB2_16InferenceContext29infer_other_control_flow_expr
FN:1386,_RNvMNtNtCsdG3rhVUllIu_5ruchy9middleend5inferNtB2_16InferenceContext31infer_other_literal_access_expr
FN:40,_RNvMNtNtCsdG3rhVUllIu_5ruchy9middleend5inferNtB2_16InferenceContext3new
FN:1243,_RNvMNtNtCsdG3rhVUllIu_5ruchy9middleend5inferNtB2_16InferenceContext5apply
FN:68,_RNvMNtNtCsdG3rhVUllIu_5ruchy9middleend5inferNtB2_16InferenceContext5infer
FN:1237,_RNvMNtNtCsdG3rhVUllIu_5ruchy9middleend5inferNtB2_16InferenceContext5solve
FN:367,_RNvMNtNtCsdG3rhVUllIu_5ruchy9middleend5inferNtB2_16InferenceContext8infer_if
FN:52,_RNvMNtNtCsdG3rhVUllIu_5ruchy9middleend5inferNtB2_16InferenceContext8with_env
FN:1562,_RNvMNtNtCsdG3rhVUllIu_5ruchy9middleend5inferNtB2_16InferenceContext9infer_ask
FN:966,_RNvMNtNtCsdG3rhVUllIu_5ruchy9middleend5inferNtB2_16InferenceContext9infer_for
FN:391,_RNvMNtNtCsdG3rhVUllIu_5ruchy9middleend5inferNtB2_16InferenceContext9infer_let
FN:1670,_RNvXs_NtNtCsdG3rhVUllIu_5ruchy9middleend5inferNtB4_16InferenceContextNtNtCs66KPHxksi63_4core7default7Default7default
FNDA:0,_RNCNvMNtNtCsdG3rhVUllIu_5ruchy9middleend5inferNtB4_16InferenceContext21add_method_constraint0B8_
FNDA:0,_RNCNvMNtNtCsdG3rhVUllIu_5ruchy9middleend5inferNtB4_16InferenceContext21infer_collection_expr0B8_
FNDA:0,_RNCNvMNtNtCsdG3rhVUllIu_5ruchy9middleend5inferNtB4_16InferenceContext12infer_lambda0B8_
FNDA:0,_RNCNvMNtNtCsdG3rhVUllIu_5ruchy9middleend5inferNtB4_16InferenceContext14infer_function0B8_
FNDA:0,_RNCNvMNtNtCsdG3rhVUllIu_5ruchy9middleend5inferNtB4_16InferenceContext23ast_type_to_mono_static0B8_
FNDA:0,_RNCNvMNtNtCsdG3rhVUllIu_5ruchy9middleend5inferNtB4_16InferenceContext22infer_column_selection0B8_
FNDA:0,_RNCNvMNtNtCsdG3rhVUllIu_5ruchy9middleend5inferNtB4_16InferenceContext25infer_dataframe_operation0B8_
FNDA:0,_RNvMNtNtCsdG3rhVUllIu_5ruchy9middleend5inferNtB2_16InferenceContext10infer_call
FNDA:0,_RNvMNtNtCsdG3rhVUllIu_5ruchy9middleend5inferNtB2_16InferenceContext10infer_expr
FNDA:0,_RNvMNtNtCsdG3rhVUllIu_5ruchy9middleend5inferNtB2_16InferenceContext10infer_list
FNDA:0,_RNvMNtNtCsdG3rhVUllIu_5ruchy9middleend5inferNtB2_16InferenceContext10infer_loop
FNDA:0,_RNvMNtNtCsdG3rhVUllIu_5ruchy9middleend5inferNtB2_16InferenceContext10infer_send
FNDA:0,_RNvMNtNtCsdG3rhVUllIu_5ruchy9middleend5inferNtB2_16InferenceContext11infer_await
FNDA:0,_RNvMNtNtCsdG3rhVUllIu_5ruchy9middleend5inferNtB2_16InferenceContext11infer_block
FNDA:0,_RNvMNtNtCsdG3rhVUllIu_5ruchy9middleend5inferNtB2_16InferenceContext11infer_macro
FNDA:0,_RNvMNtNtCsdG3rhVUllIu_5ruchy9middleend5inferNtB2_16InferenceContext11infer_match
FNDA:0,_RNvMNtNtCsdG3rhVUllIu_5ruchy9middleend5inferNtB2_16InferenceContext11infer_range
FNDA:0,_RNvMNtNtCsdG3rhVUllIu_5ruchy9middleend5inferNtB2_16InferenceContext11infer_slice
FNDA:0,_RNvMNtNtCsdG3rhVUllIu_5ruchy9middleend5inferNtB2_16InferenceContext11infer_throw
FNDA:0,_RNvMNtNtCsdG3rhVUllIu_5ruchy9middleend5inferNtB2_16InferenceContext11infer_unary
FNDA:0,_RNvMNtNtCsdG3rhVUllIu_5ruchy9middleend5inferNtB2_16InferenceContext11infer_while
FNDA:0,_RNvMNtNtCsdG3rhVUllIu_5ruchy9middleend5inferNtB2_16InferenceContext12infer_assign
FNDA:0,_RNvMNtNtCsdG3rhVUllIu_5ruchy9middleend5inferNtB2_16InferenceContext12infer_binary
FNDA:0,_RNvMNtNtCsdG3rhVUllIu_5ruchy9middleend5inferNtB2_16InferenceContext12infer_lambda
FNDA:0,_RNvMNtNtCsdG3rhVUllIu_5ruchy9middleend5inferNtB2_16InferenceContext13infer_literal
FNDA:0,_RNvMNtNtCsdG3rhVUllIu_5ruchy9middleend5inferNtB2_16InferenceContext13infer_pattern
FNDA:0,_RNvMNtNtCsdG3rhVUllIu_5ruchy9middleend5inferNtB2_16InferenceContext14infer_function
FNDA:0,_RNvMNtNtCsdG3rhVUllIu_5ruchy9middleend5inferNtB2_16InferenceContext14infer_pipeline
FNDA:0,_RNvMNtNtCsdG3rhVUllIu_5ruchy9middleend5inferNtB2_16InferenceContext15infer_dataframe
FNDA:0,_RNvMNtNtCsdG3rhVUllIu_5ruchy9middleend5inferNtB2_16InferenceContext15infer_result_ok
FNDA:0,_RNvMNtNtCsdG3rhVUllIu_5ruchy9middleend5inferNtB2_16InferenceContext16infer_identifier
FNDA:0,_RNvMNtNtCsdG3rhVUllIu_5ruchy9middleend5inferNtB2_16InferenceContext16infer_other_expr
FNDA:0,_RNvMNtNtCsdG3rhVUllIu_5ruchy9middleend5inferNtB2_16InferenceContext16infer_result_err
FNDA:0,_RNvMNtNtCsdG3rhVUllIu_5ruchy9middleend5inferNtB2_16InferenceContext16validate_no_args
FNDA:0,_RNvMNtNtCsdG3rhVUllIu_5ruchy9middleend5inferNtB2_16InferenceContext17infer_async_block
FNDA:0,_RNvMNtNtCsdG3rhVUllIu_5ruchy9middleend5inferNtB2_16InferenceContext17infer_list_method
FNDA:0,_RNvMNtNtCsdG3rhVUllIu_5ruchy9middleend5inferNtB2_16InferenceContext17infer_method_call
FNDA:0,_RNvMNtNtCsdG3rhVUllIu_5ruchy9middleend5inferNtB2_16InferenceContext17solve_constraints
FNDA:0,_RNvMNtNtCsdG3rhVUllIu_5ruchy9middleend5inferNtB2_16InferenceContext18infer_field_access
FNDA:0,_RNvMNtNtCsdG3rhVUllIu_5ruchy9middleend5inferNtB2_16InferenceContext18infer_index_access
FNDA:0,_RNvMNtNtCsdG3rhVUllIu_5ruchy9middleend5inferNtB2_16InferenceContext19infer_function_expr
FNDA:0,_RNvMNtNtCsdG3rhVUllIu_5ruchy9middleend5inferNtB2_16InferenceContext19infer_string_method
FNDA:0,_RNvMNtNtCsdG3rhVUllIu_5ruchy9middleend5inferNtB2_16InferenceContext19validate_single_arg
FNDA:0,_RNvMNtNtCsdG3rhVUllIu_5ruchy9middleend5inferNtB2_16InferenceContext20infer_binary_op_type
FNDA:0,_RNvMNtNtCsdG3rhVUllIu_5ruchy9middleend5inferNtB2_16InferenceContext20infer_generic_method
FNDA:0,_RNvMNtNtCsdG3rhVUllIu_5ruchy9middleend5inferNtB2_16InferenceContext20infer_object_literal
FNDA:0,_RNvMNtNtCsdG3rhVUllIu_5ruchy9middleend5inferNtB2_16InferenceContext20infer_operation_expr
FNDA:0,_RNvMNtNtCsdG3rhVUllIu_5ruchy9middleend5inferNtB2_16InferenceContext20infer_remaining_expr
FNDA:0,_RNvMNtNtCsdG3rhVUllIu_5ruchy9middleend5inferNtB2_16InferenceContext21add_method_constraint
FNDA:0,_RNvMNtNtCsdG3rhVUllIu_5ruchy9middleend5inferNtB2_16InferenceContext21infer_collection_expr
FNDA:0,_RNvMNtNtCsdG3rhVUllIu_5ruchy9middleend5inferNtB2_16InferenceContext21infer_compound_assign
FNDA:0,_RNvMNtNtCsdG3rhVUllIu_5ruchy9middleend5inferNtB2_16InferenceContext21solve_all_constraints
FNDA:0,_RNvMNtNtCsdG3rhVUllIu_5ruchy9middleend5inferNtB2_16InferenceContext21solve_type_constraint
FNDA:0,_RNvMNtNtCsdG3rhVUllIu_5ruchy9middleend5inferNtB2_16InferenceContext22infer_column_selection
FNDA:0,_RNvMNtNtCsdG3rhVUllIu_5ruchy9middleend5inferNtB2_16InferenceContext22infer_dataframe_method
FNDA:0,_RNvMNtNtCsdG3rhVUllIu_5ruchy9middleend5inferNtB2_16InferenceContext22infer_other_actor_expr
FNDA:0,_RNvMNtNtCsdG3rhVUllIu_5ruchy9middleend5inferNtB2_16InferenceContext22infer_other_async_expr
FNDA:0,_RNvMNtNtCsdG3rhVUllIu_5ruchy9middleend5inferNtB2_16InferenceContext23ast_type_to_mono_static
FNDA:0,_RNvMNtNtCsdG3rhVUllIu_5ruchy9middleend5inferNtB2_16InferenceContext23infer_control_flow_expr
FNDA:0,_RNvMNtNtCsdG3rhVUllIu_5ruchy9middleend5inferNtB2_16InferenceContext23infer_other_option_expr
FNDA:0,_RNvMNtNtCsdG3rhVUllIu_5ruchy9middleend5inferNtB2_16InferenceContext24infer_list_comprehension
FNDA:0,_RNvMNtNtCsdG3rhVUllIu_5ruchy9middleend5inferNtB2_16InferenceContext25infer_dataframe_operation
FNDA:0,_RNvMNtNtCsdG3rhVUllIu_5ruchy9middleend5inferNtB2_16InferenceContext25infer_increment_decrement
FNDA:0,_RNvMNtNtCsdG3rhVUllIu_5ruchy9middleend5inferNtB2_16InferenceContext26build_method_function_type
FNDA:0,_RNvMNtNtCsdG3rhVUllIu_5ruchy9middleend5inferNtB2_16InferenceContext26infer_string_interpolation
FNDA:0,_RNvMNtNtCsdG3rhVUllIu_5ruchy9middleend5inferNtB2_16InferenceContext27infer_other_assignment_expr
FNDA:0,_RNvMNtNtCsdG3rhVUllIu_5ruchy9middleend5inferNtB2_16InferenceContext27infer_other_definition_expr
FNDA:0,_RNvMNtNtCsdG3rhVUllIu_5ruchy9middleend5inferNtB2_16InferenceContext28check_method_call_constraint
FNDA:0,_RNvMNtNtCsdG3rhVUllIu_5ruchy9middleend5inferNtB2_16InferenceContext29infer_other_control_flow_expr
FNDA:0,_RNvMNtNtCsdG3rhVUllIu_5ruchy9middleend5inferNtB2_16InferenceContext31infer_other_literal_access_expr
FNDA:0,_RNvMNtNtCsdG3rhVUllIu_5ruchy9middleend5inferNtB2_16InferenceContext3new
FNDA:0,_RNvMNtNtCsdG3rhVUllIu_5ruchy9middleend5inferNtB2_16InferenceContext5apply
FNDA:0,_RNvMNtNtCsdG3rhVUllIu_5ruchy9middleend5inferNtB2_16InferenceContext5infer
FNDA:0,_RNvMNtNtCsdG3rhVUllIu_5ruchy9middleend5inferNtB2_16InferenceContext5solve
FNDA:0,_RNvMNtNtCsdG3rhVUllIu_5ruchy9middleend5inferNtB2_16InferenceContext8infer_if
FNDA:0,_RNvMNtNtCsdG3rhVUllIu_5ruchy9middleend5inferNtB2_16InferenceContext8with_env
FNDA:0,_RNvMNtNtCsdG3rhVUllIu_5ruchy9middleend5inferNtB2_16InferenceContext9infer_ask
FNDA:0,_RNvMNtNtCsdG3rhVUllIu_5ruchy9middleend5inferNtB2_16InferenceContext9infer_for
FNDA:0,_RNvMNtNtCsdG3rhVUllIu_5ruchy9middleend5inferNtB2_16InferenceContext9infer_let
FNDA:0,_RNvXs_NtNtCsdG3rhVUllIu_5ruchy9middleend5inferNtB4_16InferenceContextNtNtCs66KPHxksi63_4core7default7Default7default
FNF:80
FNH:0
DA:40,0
DA:41,0
DA:42,0
DA:43,0
DA:44,0
DA:45,0
DA:46,0
DA:47,0
DA:48,0
DA:49,0
DA:52,0
DA:53,0
DA:54,0
DA:55,0
DA:56,0
DA:57,0
DA:58,0
DA:59,0
DA:60,0
DA:61,0
DA:68,0
DA:70,0
DA:71,0
DA:72,0
DA:74,0
DA:75,0
DA:76,0
DA:78,0
DA:81,0
DA:84,0
DA:85,0
DA:88,0
DA:90,0
DA:93,0
DA:94,0
DA:97,0
DA:98,0
DA:101,0
DA:102,0
DA:103,0
DA:104,0
DA:105,0
DA:106,0
DA:107,0
DA:108,0
DA:109,0
DA:112,0
DA:113,0
DA:114,0
DA:115,0
DA:117,0
DA:119,0
DA:120,0
DA:122,0
DA:123,0
DA:124,0
DA:125,0
DA:127,0
DA:128,0
DA:129,0
DA:133,0
DA:135,0
DA:137,0
DA:139,0
DA:141,0
DA:142,0
DA:143,0
DA:147,0
DA:149,0
DA:153,0
DA:154,0
DA:157,0
DA:158,0
DA:159,0
DA:160,0
DA:161,0
DA:162,0
DA:163,0
DA:165,0
DA:166,0
DA:167,0
DA:170,0
DA:171,0
DA:172,0
DA:175,0
DA:176,0
DA:177,0
DA:180,0
DA:181,0
DA:184,0
DA:190,0
DA:193,0
DA:202,0
DA:203,0
DA:205,0
DA:206,0
DA:207,0
DA:211,0
DA:213,0
DA:215,0
DA:220,0
DA:225,0
DA:230,0
DA:234,0
DA:236,0
DA:238,0
DA:239,0
DA:240,0
DA:241,0
DA:242,0
DA:243,0
DA:244,0
DA:245,0
DA:247,0
DA:249,0
DA:250,0
DA:251,0
DA:252,0
DA:254,0
DA:256,0
DA:257,0
DA:258,0
DA:260,0
DA:268,0
DA:270,0
DA:271,0
DA:274,0
DA:275,0
DA:276,0
DA:286,0
DA:287,0
DA:291,0
DA:292,0
DA:293,0
DA:298,0
DA:305,0
DA:306,0
DA:307,0
DA:310,0
DA:312,0
DA:313,0
DA:315,0
DA:317,0
DA:318,0
DA:322,0
DA:323,0
DA:326,0
DA:327,0
DA:331,0
DA:334,0
DA:337,0
DA:339,0
DA:347,0
DA:348,0
DA:350,0
DA:352,0
DA:356,0
DA:357,0
DA:359,0
DA:360,0
DA:361,0
DA:364,0
DA:365,0
DA:367,0
DA:368,0
DA:369,0
DA:370,0
DA:371,0
DA:372,0
DA:374,0
DA:375,0
DA:377,0
DA:379,0
DA:380,0
DA:382,0
DA:383,0
DA:386,0
DA:387,0
DA:389,0
DA:391,0
DA:392,0
DA:393,0
DA:394,0
DA:395,0
DA:396,0
DA:397,0
DA:399,0
DA:402,0
DA:405,0
DA:406,0
DA:407,0
DA:408,0
DA:410,0
DA:411,0
DA:413,0
DA:414,0
DA:415,0
DA:416,0
DA:417,0
DA:418,0
DA:419,0
DA:420,0
DA:422,0
DA:423,0
DA:425,0
DA:426,0
DA:427,0
DA:429,0
DA:432,0
DA:434,0
DA:435,0
DA:439,0
DA:440,0
DA:441,0
DA:442,0
DA:443,0
DA:444,0
DA:445,0
DA:446,0
DA:449,0
DA:450,0
DA:452,0
DA:454,0
DA:458,0
DA:459,0
DA:461,0
DA:462,0
DA:465,0
DA:466,0
DA:467,0
DA:468,0
DA:470,0
DA:474,0
DA:477,0
DA:478,0
DA:482,0
DA:485,0
DA:488,0
DA:489,0
DA:490,0
DA:492,0
DA:493,0
DA:495,0
DA:496,0
DA:499,0
DA:500,0
DA:502,0
DA:503,0
DA:504,0
DA:508,0
DA:510,0
DA:511,0
DA:513,0
DA:515,0
DA:516,0
DA:520,0
DA:521,0
DA:522,0
DA:524,0
DA:526,0
DA:529,0
DA:530,0
DA:533,0
DA:535,0
DA:540,0
DA:541,0
DA:542,0
DA:543,0
DA:544,0
DA:545,0
DA:546,0
DA:547,0
DA:550,0
DA:551,0
DA:552,0
DA:554,0
DA:556,0
DA:557,0
DA:559,0
DA:561,0
DA:564,0
DA:565,0
DA:566,0
DA:567,0
DA:568,0
DA:569,0
DA:570,0
DA:571,0
DA:573,0
DA:574,0
DA:575,0
DA:576,0
DA:577,0
DA:578,0
DA:579,0
DA:582,0
DA:583,0
DA:584,0
DA:585,0
DA:586,0
DA:587,0
DA:588,0
DA:589,0
DA:590,0
DA:591,0
DA:592,0
DA:594,0
DA:595,0
DA:596,0
DA:597,0
DA:598,0
DA:600,0
DA:601,0
DA:602,0
DA:604,0
DA:605,0
DA:606,0
DA:608,0
DA:609,0
DA:610,0
DA:612,0
DA:613,0
DA:614,0
DA:616,0
DA:619,0
DA:621,0
DA:624,0
DA:625,0
DA:626,0
DA:627,0
DA:628,0
DA:629,0
DA:630,0
DA:631,0
DA:632,0
DA:633,0
DA:635,0
DA:636,0
DA:637,0
DA:639,0
DA:641,0
DA:644,0
DA:645,0
DA:646,0
DA:647,0
DA:648,0
DA:649,0
DA:650,0
DA:651,0
DA:652,0
DA:653,0
DA:654,0
DA:655,0
DA:657,0
DA:660,0
DA:661,0
DA:662,0
DA:664,0
DA:667,0
DA:668,0
DA:669,0
DA:670,0
DA:671,0
DA:672,0
DA:673,0
DA:674,0
DA:675,0
DA:676,0
DA:677,0
DA:678,0
DA:679,0
DA:680,0
DA:682,0
DA:684,0
DA:687,0
DA:688,0
DA:689,0
DA:690,0
DA:691,0
DA:692,0
DA:693,0
DA:694,0
DA:695,0
DA:696,0
DA:698,0
DA:699,0
DA:701,0
DA:703,0
DA:706,0
DA:707,0
DA:708,0
DA:709,0
DA:710,0
DA:711,0
DA:712,0
DA:714,0
DA:715,0
DA:716,0
DA:720,0
DA:721,0
DA:722,0
DA:725,0
DA:726,0
DA:727,0
DA:728,0
DA:729,0
DA:730,0
DA:732,0
DA:733,0
DA:734,0
DA:735,0
DA:736,0
DA:737,0
DA:739,0
DA:740,0
DA:741,0
DA:742,0
DA:744,0
DA:745,0
DA:746,0
DA:749,0
DA:750,0
DA:752,0
DA:753,0
DA:755,0
DA:756,0
DA:757,0
DA:760,0
DA:761,0
DA:762,0
DA:763,0
DA:766,0
DA:767,0
DA:769,0
DA:770,0
DA:771,0
DA:772,0
DA:773,0
DA:774,0
DA:775,0
DA:777,0
DA:778,0
DA:779,0
DA:780,0
DA:783,0
DA:784,0
DA:785,0
DA:786,0
DA:789,0
DA:790,0
DA:791,0
DA:792,0
DA:795,0
DA:798,0
DA:801,0
DA:802,0
DA:803,0
DA:804,0
DA:806,0
DA:807,0
DA:808,0
DA:809,0
DA:810,0
DA:811,0
DA:813,0
DA:814,0
DA:815,0
DA:818,0
DA:820,0
DA:822,0
DA:823,0
DA:828,0
DA:829,0
DA:831,0
DA:834,0
DA:835,0
DA:837,0
DA:838,0
DA:839,0
DA:840,0
DA:841,0
DA:842,0
DA:844,0
DA:846,0
DA:847,0
DA:849,0
DA:852,0
DA:854,0
DA:855,0
DA:856,0
DA:857,0
DA:859,0
DA:860,0
DA:862,0
DA:864,0
DA:866,0
DA:867,0
DA:870,0
DA:871,0
DA:872,0
DA:873,0
DA:874,0
DA:875,0
DA:878,0
DA:880,0
DA:881,0
DA:884,0
DA:885,0
DA:886,0
DA:887,0
DA:888,0
DA:891,0
DA:893,0
DA:894,0
DA:897,0
DA:898,0
DA:899,0
DA:900,0
DA:905,0
DA:906,0
DA:907,0
DA:909,0
DA:911,0
DA:912,0
DA:913,0
DA:914,0
DA:915,0
DA:917,0
DA:918,0
DA:920,0
DA:923,0
DA:924,0
DA:927,0
DA:928,0
DA:929,0
DA:930,0
DA:931,0
DA:933,0
DA:935,0
DA:937,0
DA:938,0
DA:939,0
DA:940,0
DA:943,0
DA:944,0
DA:946,0
DA:948,0
DA:949,0
DA:951,0
DA:955,0
DA:957,0
DA:960,0
DA:961,0
DA:964,0
DA:966,0
DA:967,0
DA:970,0
DA:971,0
DA:972,0
DA:975,0
DA:976,0
DA:977,0
DA:978,0
DA:981,0
DA:982,0
DA:984,0
DA:986,0
DA:987,0
DA:990,0
DA:991,0
DA:994,0
DA:995,0
DA:997,0
DA:999,0
DA:1000,0
DA:1003,0
DA:1004,0
DA:1006,0
DA:1007,0
DA:1008,0
DA:1011,0
DA:1012,0
DA:1015,0
DA:1016,0
DA:1018,0
DA:1019,0
DA:1020,0
DA:1021,0
DA:1022,0
DA:1023,0
DA:1025,0
DA:1027,0
DA:1030,0
DA:1031,0
DA:1032,0
DA:1034,0
DA:1035,0
DA:1038,0
DA:1039,0
DA:1041,0
DA:1043,0
DA:1046,0
DA:1049,0
DA:1052,0
DA:1053,0
DA:1055,0
DA:1056,0
DA:1057,0
DA:1058,0
DA:1059,0
DA:1060,0
DA:1062,0
DA:1063,0
DA:1067,0
DA:1070,0
DA:1073,0
DA:1074,0
DA:1076,0
DA:1077,0
DA:1078,0
DA:1079,0
DA:1080,0
DA:1081,0
DA:1082,0
DA:1090,0
DA:1091,0
DA:1092,0
DA:1093,0
DA:1094,0
DA:1096,0
DA:1097,0
DA:1098,0
DA:1102,0
DA:1103,0
DA:1104,0
DA:1106,0
DA:1107,0
DA:1117,0
DA:1118,0
DA:1122,0
DA:1123,0
DA:1124,0
DA:1129,0
DA:1136,0
DA:1137,0
DA:1138,0
DA:1141,0
DA:1143,0
DA:1145,0
DA:1149,0
DA:1150,0
DA:1152,0
DA:1153,0
DA:1155,0
DA:1157,0
DA:1160,0
DA:1161,0
DA:1162,0
DA:1163,0
DA:1164,0
DA:1165,0
DA:1166,0
DA:1167,0
DA:1169,0
DA:1172,0
DA:1173,0
DA:1174,0
DA:1175,0
DA:1177,0
DA:1180,0
DA:1181,0
DA:1182,0
DA:1183,0
DA:1184,0
DA:1186,0
DA:1187,0
DA:1188,0
DA:1191,0
DA:1194,0
DA:1195,0
DA:1197,0
DA:1198,0
DA:1200,0
DA:1201,0
DA:1202,0
DA:1203,0
DA:1205,0
DA:1206,0
DA:1208,0
DA:1209,0
DA:1211,0
DA:1212,0
DA:1213,0
DA:1214,0
DA:1216,0
DA:1218,0
DA:1219,0
DA:1221,0
DA:1222,0
DA:1223,0
DA:1224,0
DA:1225,0
DA:1226,0
DA:1228,0
DA:1230,0
DA:1233,0
DA:1237,0
DA:1238,0
DA:1239,0
DA:1243,0
DA:1244,0
DA:1245,0
DA:1253,0
DA:1254,0
DA:1255,0
DA:1256,0
DA:1258,0
DA:1259,0
DA:1260,0
DA:1261,0
DA:1262,0
DA:1263,0
DA:1264,0
DA:1265,0
DA:1267,0
DA:1269,0
DA:1270,0
DA:1272,0
DA:1273,0
DA:1274,0
DA:1275,0
DA:1277,0
DA:1279,0
DA:1282,0
DA:1283,0
DA:1284,0
DA:1285,0
DA:1287,0
DA:1288,0
DA:1290,0
DA:1293,0
DA:1294,0
DA:1295,0
DA:1296,0
DA:1297,0
DA:1298,0
DA:1300,0
DA:1301,0
DA:1303,0
DA:1305,0
DA:1308,0
DA:1309,0
DA:1310,0
DA:1311,0
DA:1312,0
DA:1313,0
DA:1314,0
DA:1316,0
DA:1318,0
DA:1323,0
DA:1324,0
DA:1326,0
DA:1327,0
DA:1328,0
DA:1329,0
DA:1333,0
DA:1340,0
DA:1346,0
DA:1350,0
DA:1354,0
DA:1360,0
DA:1367,0
DA:1371,0
DA:1373,0
DA:1376,0
DA:1377,0
DA:1378,0
DA:1381,0
DA:1382,0
DA:1383,0
DA:1386,0
DA:1387,0
DA:1388,0
DA:1389,0
DA:1390,0
DA:1391,0
DA:1392,0
DA:1393,0
DA:1395,0
DA:1398,0
DA:1399,0
DA:1400,0
DA:1401,0
DA:1402,0
DA:1405,0
DA:1406,0
DA:1408,0
DA:1410,0
DA:1413,0
DA:1414,0
DA:1415,0
DA:1416,0
DA:1417,0
DA:1418,0
DA:1419,0
DA:1421,0
DA:1423,0
DA:1426,0
DA:1427,0
DA:1428,0
DA:1429,0
DA:1431,0
DA:1432,0
DA:1434,0
DA:1435,0
DA:1437,0
DA:1440,0
DA:1441,0
DA:1442,0
DA:1443,0
DA:1444,0
DA:1446,0
DA:1447,0
DA:1448,0
DA:1450,0
DA:1452,0
DA:1455,0
DA:1456,0
DA:1457,0
DA:1458,0
DA:1460,0
DA:1461,0
DA:1462,0
DA:1463,0
DA:1464,0
DA:1465,0
DA:1466,0
DA:1467,0
DA:1468,0
DA:1470,0
DA:1472,0
DA:1475,0
DA:1476,0
DA:1477,0
DA:1478,0
DA:1479,0
DA:1480,0
DA:1481,0
DA:1482,0
DA:1484,0
DA:1485,0
DA:1487,0
DA:1488,0
DA:1489,0
DA:1490,0
DA:1491,0
DA:1493,0
DA:1494,0
DA:1495,0
DA:1496,0
DA:1497,0
DA:1499,0
DA:1500,0
DA:1501,0
DA:1502,0
DA:1503,0
DA:1504,0
DA:1505,0
DA:1506,0
DA:1508,0
DA:1509,0
DA:1513,0
DA:1514,0
DA:1516,0
DA:1517,0
DA:1518,0
DA:1519,0
DA:1521,0
DA:1522,0
DA:1523,0
DA:1526,0
DA:1527,0
DA:1529,0
DA:1530,0
DA:1531,0
DA:1534,0
DA:1535,0
DA:1537,0
DA:1538,0
DA:1542,0
DA:1543,0
DA:1545,0
DA:1547,0
DA:1549,0
DA:1550,0
DA:1553,0
DA:1554,0
DA:1556,0
DA:1557,0
DA:1558,0
DA:1559,0
DA:1560,0
DA:1562,0
DA:1563,0
DA:1564,0
DA:1565,0
DA:1566,0
DA:1567,0
DA:1568,0
DA:1569,0
DA:1570,0
DA:1571,0
DA:1572,0
DA:1573,0
DA:1574,0
DA:1575,0
DA:1577,0
DA:1578,0
DA:1579,0
DA:1580,0
DA:1581,0
DA:1583,0
DA:1585,0
DA:1586,0
DA:1588,0
DA:1590,0
DA:1591,0
DA:1592,0
DA:1594,0
DA:1596,0
DA:1599,0
DA:1600,0
DA:1602,0
DA:1603,0
DA:1604,0
DA:1605,0
DA:1606,0
DA:1609,0
DA:1612,0
DA:1613,0
DA:1614,0
DA:1617,0
DA:1619,0
DA:1621,0
DA:1622,0
DA:1623,0
DA:1624,0
DA:1625,0
DA:1626,0
DA:1628,0
DA:1632,0
DA:1636,0
DA:1640,0
DA:1644,0
DA:1648,0
DA:1652,0
DA:1654,0
DA:1656,0
DA:1658,0
DA:1660,0
DA:1662,0
DA:1665,0
DA:1666,0
DA:1670,0
DA:1671,0
DA:1672,0
BRF:0
BRH:0
LF:973
LH:0
end_of_record
SF:/home/noah/src/ruchy/src/middleend/mir/builder.rs
FN:107,_RNCNvMNtNtNtCsdG3rhVUllIu_5ruchy9middleend3mir7builderNtB4_10MirBuilder9block_mut0Ba_
FN:60,_RNvMNtNtNtCsdG3rhVUllIu_5ruchy9middleend3mir7builderNtB2_10MirBuilder11alloc_local
FN:140,_RNvMNtNtNtCsdG3rhVUllIu_5ruchy9middleend3mir7builderNtB2_10MirBuilder12storage_dead
FN:135,_RNvMNtNtNtCsdG3rhVUllIu_5ruchy9middleend3mir7builderNtB2_10MirBuilder12storage_live
FN:111,_RNvMNtNtNtCsdG3rhVUllIu_5ruchy9middleend3mir7builderNtB2_10MirBuilder14push_statement
FN:118,_RNvMNtNtNtCsdG3rhVUllIu_5ruchy9middleend3mir7builderNtB2_10MirBuilder14set_terminator
FN:34,_RNvMNtNtNtCsdG3rhVUllIu_5ruchy9middleend3mir7builderNtB2_10MirBuilder14start_function
FN:125,_RNvMNtNtNtCsdG3rhVUllIu_5ruchy9middleend3mir7builderNtB2_10MirBuilder15finish_function
FN:24,_RNvMNtNtNtCsdG3rhVUllIu_5ruchy9middleend3mir7builderNtB2_10MirBuilder3new
FN:145,_RNvMNtNtNtCsdG3rhVUllIu_5ruchy9middleend3mir7builderNtB2_10MirBuilder4goto
FN:130,_RNvMNtNtNtCsdG3rhVUllIu_5ruchy9middleend3mir7builderNtB2_10MirBuilder6assign
FN:150,_RNvMNtNtNtCsdG3rhVUllIu_5ruchy9middleend3mir7builderNtB2_10MirBuilder6branch
FN:191,_RNvMNtNtNtCsdG3rhVUllIu_5ruchy9middleend3mir7builderNtB2_10MirBuilder6switch
FN:168,_RNvMNtNtNtCsdG3rhVUllIu_5ruchy9middleend3mir7builderNtB2_10MirBuilder7return_
FN:50,_RNvMNtNtNtCsdG3rhVUllIu_5ruchy9middleend3mir7builderNtB2_10MirBuilder9add_param
FN:104,_RNvMNtNtNtCsdG3rhVUllIu_5ruchy9middleend3mir7builderNtB2_10MirBuilder9block_mut
FN:173,_RNvMNtNtNtCsdG3rhVUllIu_5ruchy9middleend3mir7builderNtB2_10MirBuilder9call_term
FN:83,_RNvMNtNtNtCsdG3rhVUllIu_5ruchy9middleend3mir7builderNtB2_10MirBuilder9get_local
FN:88,_RNvMNtNtNtCsdG3rhVUllIu_5ruchy9middleend3mir7builderNtB2_10MirBuilder9new_block
FN:231,_RNvMs_NtNtNtCsdG3rhVUllIu_5ruchy9middleend3mir7builderNtB4_10MirBuilder4call
FN:244,_RNvMs_NtNtNtCsdG3rhVUllIu_5ruchy9middleend3mir7builderNtB4_10MirBuilder4cast
FN:269,_RNvMs_NtNtNtCsdG3rhVUllIu_5ruchy9middleend3mir7builderNtB4_10MirBuilder4copy
FN:257,_RNvMs_NtNtNtCsdG3rhVUllIu_5ruchy9middleend3mir7builderNtB4_10MirBuilder4ref_
FN:263,_RNvMs_NtNtNtCsdG3rhVUllIu_5ruchy9middleend3mir7builderNtB4_10MirBuilder5move_
FN:275,_RNvMs_NtNtNtCsdG3rhVUllIu_5ruchy9middleend3mir7builderNtB4_10MirBuilder6const_
FN:225,_RNvMs_NtNtNtCsdG3rhVUllIu_5ruchy9middleend3mir7builderNtB4_10MirBuilder8unary_op
FN:212,_RNvMs_NtNtNtCsdG3rhVUllIu_5ruchy9middleend3mir7builderNtB4_10MirBuilder9binary_op
FN:282,_RNvXs0_NtNtNtCsdG3rhVUllIu_5ruchy9middleend3mir7builderNtB5_10MirBuilderNtNtCs66KPHxksi63_4core7default7Default7default
FNDA:0,_RNCNvMNtNtNtCsdG3rhVUllIu_5ruchy9middleend3mir7builderNtB4_10MirBuilder9block_mut0Ba_
FNDA:0,_RNvMNtNtNtCsdG3rhVUllIu_5ruchy9middleend3mir7builderNtB2_10MirBuilder11alloc_local
FNDA:0,_RNvMNtNtNtCsdG3rhVUllIu_5ruchy9middleend3mir7builderNtB2_10MirBuilder12storage_dead
FNDA:0,_RNvMNtNtNtCsdG3rhVUllIu_5ruchy9middleend3mir7builderNtB2_10MirBuilder12storage_live
FNDA:0,_RNvMNtNtNtCsdG3rhVUllIu_5ruchy9middleend3mir7builderNtB2_10MirBuilder14push_statement
FNDA:0,_RNvMNtNtNtCsdG3rhVUllIu_5ruchy9middleend3mir7builderNtB2_10MirBuilder14set_terminator
FNDA:0,_RNvMNtNtNtCsdG3rhVUllIu_5ruchy9middleend3mir7builderNtB2_10MirBuilder14start_function
FNDA:0,_RNvMNtNtNtCsdG3rhVUllIu_5ruchy9middleend3mir7builderNtB2_10MirBuilder15finish_function
FNDA:0,_RNvMNtNtNtCsdG3rhVUllIu_5ruchy9middleend3mir7builderNtB2_10MirBuilder3new
FNDA:0,_RNvMNtNtNtCsdG3rhVUllIu_5ruchy9middleend3mir7builderNtB2_10MirBuilder4goto
FNDA:0,_RNvMNtNtNtCsdG3rhVUllIu_5ruchy9middleend3mir7builderNtB2_10MirBuilder6assign
FNDA:0,_RNvMNtNtNtCsdG3rhVUllIu_5ruchy9middleend3mir7builderNtB2_10MirBuilder6branch
FNDA:0,_RNvMNtNtNtCsdG3rhVUllIu_5ruchy9middleend3mir7builderNtB2_10MirBuilder6switch
FNDA:0,_RNvMNtNtNtCsdG3rhVUllIu_5ruchy9middleend3mir7builderNtB2_10MirBuilder7return_
FNDA:0,_RNvMNtNtNtCsdG3rhVUllIu_5ruchy9middleend3mir7builderNtB2_10MirBuilder9add_param
FNDA:0,_RNvMNtNtNtCsdG3rhVUllIu_5ruchy9middleend3mir7builderNtB2_10MirBuilder9block_mut
FNDA:0,_RNvMNtNtNtCsdG3rhVUllIu_5ruchy9middleend3mir7builderNtB2_10MirBuilder9call_term
FNDA:0,_RNvMNtNtNtCsdG3rhVUllIu_5ruchy9middleend3mir7builderNtB2_10MirBuilder9get_local
FNDA:0,_RNvMNtNtNtCsdG3rhVUllIu_5ruchy9middleend3mir7builderNtB2_10MirBuilder9new_block
FNDA:0,_RNvMs_NtNtNtCsdG3rhVUllIu_5ruchy9middleend3mir7builderNtB4_10MirBuilder4call
FNDA:0,_RNvMs_NtNtNtCsdG3rhVUllIu_5ruchy9middleend3mir7builderNtB4_10MirBuilder4cast
FNDA:0,_RNvMs_NtNtNtCsdG3rhVUllIu_5ruchy9middleend3mir7builderNtB4_10MirBuilder4copy
FNDA:0,_RNvMs_NtNtNtCsdG3rhVUllIu_5ruchy9middleend3mir7builderNtB4_10MirBuilder4ref_
FNDA:0,_RNvMs_NtNtNtCsdG3rhVUllIu_5ruchy9middleend3mir7builderNtB4_10MirBuilder5move_
FNDA:0,_RNvMs_NtNtNtCsdG3rhVUllIu_5ruchy9middleend3mir7builderNtB4_10MirBuilder6const_
FNDA:0,_RNvMs_NtNtNtCsdG3rhVUllIu_5ruchy9middleend3mir7builderNtB4_10MirBuilder8unary_op
FNDA:0,_RNvMs_NtNtNtCsdG3rhVUllIu_5ruchy9middleend3mir7builderNtB4_10MirBuilder9binary_op
FNDA:0,_RNvXs0_NtNtNtCsdG3rhVUllIu_5ruchy9middleend3mir7builderNtB5_10MirBuilderNtNtCs66KPHxksi63_4core7default7Default7default
FNF:28
FNH:0
DA:24,0
DA:25,0
DA:26,0
DA:27,0
DA:28,0
DA:29,0
DA:30,0
DA:31,0
DA:34,0
DA:35,0
DA:36,0
DA:37,0
DA:38,0
DA:39,0
DA:40,0
DA:41,0
DA:42,0
DA:43,0
DA:44,0
DA:45,0
DA:46,0
DA:47,0
DA:50,0
DA:51,0
DA:52,0
DA:53,0
DA:54,0
DA:55,0
DA:56,0
DA:57,0
DA:60,0
DA:61,0
DA:62,0
DA:64,0
DA:65,0
DA:66,0
DA:67,0
DA:68,0
DA:69,0
DA:71,0
DA:72,0
DA:73,0
DA:75,0
DA:76,0
DA:77,0
DA:79,0
DA:80,0
DA:83,0
DA:84,0
DA:85,0
DA:88,0
DA:89,0
DA:90,0
DA:92,0
DA:93,0
DA:94,0
DA:95,0
DA:96,0
DA:97,0
DA:98,0
DA:100,0
DA:101,0
DA:104,0
DA:105,0
DA:106,0
DA:107,0
DA:108,0
DA:111,0
DA:112,0
DA:113,0
DA:114,0
DA:115,0
DA:118,0
DA:119,0
DA:120,0
DA:121,0
DA:122,0
DA:125,0
DA:126,0
DA:127,0
DA:130,0
DA:131,0
DA:132,0
DA:135,0
DA:136,0
DA:137,0
DA:140,0
DA:141,0
DA:142,0
DA:145,0
DA:146,0
DA:147,0
DA:150,0
DA:151,0
DA:152,0
DA:153,0
DA:154,0
DA:155,0
DA:156,0
DA:157,0
DA:158,0
DA:159,0
DA:160,0
DA:161,0
DA:162,0
DA:163,0
DA:165,0
DA:168,0
DA:169,0
DA:170,0
DA:173,0
DA:174,0
DA:175,0
DA:176,0
DA:177,0
DA:178,0
DA:179,0
DA:180,0
DA:181,0
DA:182,0
DA:183,0
DA:184,0
DA:185,0
DA:186,0
DA:188,0
DA:191,0
DA:192,0
DA:193,0
DA:194,0
DA:195,0
DA:196,0
DA:197,0
DA:198,0
DA:199,0
DA:200,0
DA:201,0
DA:202,0
DA:203,0
DA:204,0
DA:206,0
DA:212,0
DA:213,0
DA:214,0
DA:215,0
DA:216,0
DA:217,0
DA:218,0
DA:219,0
DA:220,0
DA:221,0
DA:222,0
DA:225,0
DA:226,0
DA:227,0
DA:228,0
DA:231,0
DA:232,0
DA:233,0
DA:234,0
DA:235,0
DA:236,0
DA:237,0
DA:238,0
DA:239,0
DA:240,0
DA:241,0
DA:244,0
DA:245,0
DA:246,0
DA:247,0
DA:248,0
DA:249,0
DA:250,0
DA:251,0
DA:252,0
DA:253,0
DA:254,0
DA:257,0
DA:258,0
DA:259,0
DA:260,0
DA:263,0
DA:264,0
DA:265,0
DA:266,0
DA:269,0
DA:270,0
DA:271,0
DA:272,0
DA:275,0
DA:276,0
DA:277,0
DA:278,0
DA:282,0
DA:283,0
DA:284,0
BRF:0
BRH:0
LF:197
LH:0
end_of_record
SF:/home/noah/src/ruchy/src/middleend/mir/lower.rs
FN:353,_RNCNvMNtNtNtCsdG3rhVUllIu_5ruchy9middleend3mir5lowerNtB4_15LoweringContext15ast_to_mir_type0Ba_
FN:366,_RNCNvMNtNtNtCsdG3rhVUllIu_5ruchy9middleend3mir5lowerNtB4_15LoweringContext15ast_to_mir_types_0Ba_
FN:68,_RNCNvMNtNtNtCsdG3rhVUllIu_5ruchy9middleend3mir5lowerNtB4_15LoweringContext14lower_function0Ba_
FN:91,_RNCNvMNtNtNtCsdG3rhVUllIu_5ruchy9middleend3mir5lowerNtB4_15LoweringContext14lower_functions_0Ba_
FN:119,_RNCNvMNtNtNtCsdG3rhVUllIu_5ruchy9middleend3mir5lowerNtB4_15LoweringContext15lower_main_expr0Ba_
FN:134,_RNCNvMNtNtNtCsdG3rhVUllIu_5ruchy9middleend3mir5lowerNtB4_15LoweringContext21lower_expr_to_operand0Ba_
FN:43,_RNvMNtNtNtCsdG3rhVUllIu_5ruchy9middleend3mir5lowerNtB2_15LoweringContext10lower_expr
FN:267,_RNvMNtNtNtCsdG3rhVUllIu_5ruchy9middleend3mir5lowerNtB2_15LoweringContext13lower_literal
FN:60,_RNvMNtNtNtCsdG3rhVUllIu_5ruchy9middleend3mir5lowerNtB2_15LoweringContext14lower_function
FN:304,_RNvMNtNtNtCsdG3rhVUllIu_5ruchy9middleend3mir5lowerNtB2_15LoweringContext14lower_unary_op
FN:315,_RNvMNtNtNtCsdG3rhVUllIu_5ruchy9middleend3mir5lowerNtB2_15LoweringContext15ast_to_mir_type
FN:279,_RNvMNtNtNtCsdG3rhVUllIu_5ruchy9middleend3mir5lowerNtB2_15LoweringContext15lower_binary_op
FN:103,_RNvMNtNtNtCsdG3rhVUllIu_5ruchy9middleend3mir5lowerNtB2_15LoweringContext15lower_main_expr
FN:131,_RNvMNtNtNtCsdG3rhVUllIu_5ruchy9middleend3mir5lowerNtB2_15LoweringContext21lower_expr_to_operand
FN:402,_RNvMNtNtNtCsdG3rhVUllIu_5ruchy9middleend3mir5lowerNtB2_15LoweringContext23infer_unary_result_type
FN:377,_RNvMNtNtNtCsdG3rhVUllIu_5ruchy9middleend3mir5lowerNtB2_15LoweringContext24infer_binary_result_type
FN:27,_RNvMNtNtNtCsdG3rhVUllIu_5ruchy9middleend3mir5lowerNtB2_15LoweringContext3new
FN:412,_RNvXs_NtNtNtCsdG3rhVUllIu_5ruchy9middleend3mir5lowerNtB4_15LoweringContextNtNtCs66KPHxksi63_4core7default7Default7default
FNDA:0,_RNCNvMNtNtNtCsdG3rhVUllIu_5ruchy9middleend3mir5lowerNtB4_15LoweringContext15ast_to_mir_type0Ba_
FNDA:0,_RNCNvMNtNtNtCsdG3rhVUllIu_5ruchy9middleend3mir5lowerNtB4_15LoweringContext15ast_to_mir_types_0Ba_
FNDA:0,_RNCNvMNtNtNtCsdG3rhVUllIu_5ruchy9middleend3mir5lowerNtB4_15LoweringContext14lower_function0Ba_
FNDA:0,_RNCNvMNtNtNtCsdG3rhVUllIu_5ruchy9middleend3mir5lowerNtB4_15LoweringContext14lower_functions_0Ba_
FNDA:0,_RNCNvMNtNtNtCsdG3rhVUllIu_5ruchy9middleend3mir5lowerNtB4_15LoweringContext15lower_main_expr0Ba_
FNDA:0,_RNCNvMNtNtNtCsdG3rhVUllIu_5ruchy9middleend3mir5lowerNtB4_15LoweringContext21lower_expr_to_operand0Ba_
FNDA:0,_RNvMNtNtNtCsdG3rhVUllIu_5ruchy9middleend3mir5lowerNtB2_15LoweringContext10lower_expr
FNDA:0,_RNvMNtNtNtCsdG3rhVUllIu_5ruchy9middleend3mir5lowerNtB2_15LoweringContext13lower_literal
FNDA:0,_RNvMNtNtNtCsdG3rhVUllIu_5ruchy9middleend3mir5lowerNtB2_15LoweringContext14lower_function
FNDA:0,_RNvMNtNtNtCsdG3rhVUllIu_5ruchy9middleend3mir5lowerNtB2_15LoweringContext14lower_unary_op
FNDA:0,_RNvMNtNtNtCsdG3rhVUllIu_5ruchy9middleend3mir5lowerNtB2_15LoweringContext15ast_to_mir_type
FNDA:0,_RNvMNtNtNtCsdG3rhVUllIu_5ruchy9middleend3mir5lowerNtB2_15LoweringContext15lower_binary_op
FNDA:0,_RNvMNtNtNtCsdG3rhVUllIu_5ruchy9middleend3mir5lowerNtB2_15LoweringContext15lower_main_expr
FNDA:0,_RNvMNtNtNtCsdG3rhVUllIu_5ruchy9middleend3mir5lowerNtB2_15LoweringContext21lower_expr_to_operand
FNDA:0,_RNvMNtNtNtCsdG3rhVUllIu_5ruchy9middleend3mir5lowerNtB2_15LoweringContext23infer_unary_result_type
FNDA:0,_RNvMNtNtNtCsdG3rhVUllIu_5ruchy9middleend3mir5lowerNtB2_15LoweringContext24infer_binary_result_type
FNDA:0,_RNvMNtNtNtCsdG3rhVUllIu_5ruchy9middleend3mir5lowerNtB2_15LoweringContext3new
FNDA:0,_RNvXs_NtNtNtCsdG3rhVUllIu_5ruchy9middleend3mir5lowerNtB4_15LoweringContextNtNtCs66KPHxksi63_4core7default7Default7default
FNF:18
FNH:0
DA:27,0
DA:28,0
DA:29,0
DA:30,0
DA:31,0
DA:32,0
DA:33,0
DA:43,0
DA:44,0
DA:46,0
DA:47,0
DA:48,0
DA:49,0
DA:51,0
DA:54,0
DA:57,0
DA:60,0
DA:61,0
DA:62,0
DA:63,0
DA:64,0
DA:65,0
DA:66,0
DA:67,0
DA:68,0
DA:70,0
DA:73,0
DA:74,0
DA:75,0
DA:76,0
DA:79,0
DA:80,0
DA:83,0
DA:86,0
DA:88,0
DA:89,0
DA:90,0
DA:91,0
DA:93,0
DA:94,0
DA:96,0
DA:97,0
DA:98,0
DA:99,0
DA:100,0
DA:103,0
DA:104,0
DA:106,0
DA:107,0
DA:110,0
DA:113,0
DA:114,0
DA:116,0
DA:117,0
DA:118,0
DA:119,0
DA:121,0
DA:122,0
DA:124,0
DA:125,0
DA:126,0
DA:127,0
DA:128,0
DA:131,0
DA:132,0
DA:133,0
DA:134,0
DA:136,0
DA:137,0
DA:138,0
DA:139,0
DA:140,0
DA:142,0
DA:145,0
DA:146,0
DA:147,0
DA:148,0
DA:151,0
DA:152,0
DA:154,0
DA:155,0
DA:156,0
DA:158,0
DA:159,0
DA:160,0
DA:162,0
DA:163,0
DA:165,0
DA:166,0
DA:169,0
DA:172,0
DA:175,0
DA:176,0
DA:177,0
DA:178,0
DA:181,0
DA:182,0
DA:185,0
DA:188,0
DA:189,0
DA:190,0
DA:192,0
DA:194,0
DA:195,0
DA:196,0
DA:199,0
DA:202,0
DA:203,0
DA:204,0
DA:207,0
DA:208,0
DA:209,0
DA:211,0
DA:213,0
DA:216,0
DA:217,0
DA:220,0
DA:221,0
DA:222,0
DA:223,0
DA:224,0
DA:227,0
DA:229,0
DA:230,0
DA:231,0
DA:233,0
DA:234,0
DA:238,0
DA:239,0
DA:242,0
DA:243,0
DA:245,0
DA:247,0
DA:248,0
DA:249,0
DA:252,0
DA:253,0
DA:254,0
DA:256,0
DA:261,0
DA:264,0
DA:267,0
DA:268,0
DA:269,0
DA:270,0
DA:271,0
DA:272,0
DA:273,0
DA:274,0
DA:276,0
DA:279,0
DA:280,0
DA:281,0
DA:282,0
DA:283,0
DA:284,0
DA:285,0
DA:286,0
DA:287,0
DA:288,0
DA:289,0
DA:290,0
DA:291,0
DA:292,0
DA:293,0
DA:294,0
DA:295,0
DA:296,0
DA:297,0
DA:298,0
DA:299,0
DA:301,0
DA:304,0
DA:305,0
DA:306,0
DA:307,0
DA:308,0
DA:309,0
DA:311,0
DA:315,0
DA:317,0
DA:318,0
DA:319,0
DA:320,0
DA:321,0
DA:322,0
DA:323,0
DA:324,0
DA:325,0
DA:326,0
DA:327,0
DA:328,0
DA:329,0
DA:330,0
DA:331,0
DA:332,0
DA:333,0
DA:334,0
DA:336,0
DA:337,0
DA:338,0
DA:339,0
DA:341,0
DA:343,0
DA:345,0
DA:348,0
DA:350,0
DA:352,0
DA:353,0
DA:354,0
DA:356,0
DA:359,0
DA:363,0
DA:365,0
DA:366,0
DA:367,0
DA:369,0
DA:371,0
DA:374,0
DA:377,0
DA:378,0
DA:388,0
DA:396,0
DA:397,0
DA:399,0
DA:402,0
DA:403,0
DA:404,0
DA:405,0
DA:406,0
DA:408,0
DA:412,0
DA:413,0
DA:414,0
BRF:0
BRH:0
LF:240
LH:0
end_of_record
SF:/home/noah/src/ruchy/src/middleend/mir/optimize.rs
FN:58,_RNCNvMs_NtNtNtCsdG3rhVUllIu_5ruchy9middleend3mir8optimizeNtB6_19DeadCodeElimination9mark_live0Bc_
FN:325,_RNvMs1_NtNtNtCsdG3rhVUllIu_5ruchy9middleend3mir8optimizeNtB5_19ConstantPropagation13eval_unary_op
FN:302,_RNvMs1_NtNtNtCsdG3rhVUllIu_5ruchy9middleend3mir8optimizeNtB5_19ConstantPropagation14eval_binary_op
FN:292,_RNvMs1_NtNtNtCsdG3rhVUllIu_5ruchy9middleend3mir8optimizeNtB5_19ConstantPropagation16extract_constant
FN:336,_RNvMs1_NtNtNtCsdG3rhVUllIu_5ruchy9middleend3mir8optimizeNtB5_19ConstantPropagation18get_constant_value
FN:354,_RNvMs1_NtNtNtCsdG3rhVUllIu_5ruchy9middleend3mir8optimizeNtB5_19ConstantPropagation19propagate_in_rvalue
FN:374,_RNvMs1_NtNtNtCsdG3rhVUllIu_5ruchy9middleend3mir8optimizeNtB5_19ConstantPropagation20propagate_in_operand
FN:347,_RNvMs1_NtNtNtCsdG3rhVUllIu_5ruchy9middleend3mir8optimizeNtB5_19ConstantPropagation22propagate_in_statement
FN:381,_RNvMs1_NtNtNtCsdG3rhVUllIu_5ruchy9middleend3mir8optimizeNtB5_19ConstantPropagation23propagate_in_terminator
FN:261,_RNvMs1_NtNtNtCsdG3rhVUllIu_5ruchy9middleend3mir8optimizeNtB5_19ConstantPropagation3new
FN:268,_RNvMs1_NtNtNtCsdG3rhVUllIu_5ruchy9middleend3mir8optimizeNtB5_19ConstantPropagation3run
FN:454,_RNvMs3_NtNtNtCsdG3rhVUllIu_5ruchy9middleend3mir8optimizeNtB5_30CommonSubexpressionElimination10rvalue_key
FN:473,_RNvMs3_NtNtNtCsdG3rhVUllIu_5ruchy9middleend3mir8optimizeNtB5_30CommonSubexpressionElimination11operand_key
FN:436,_RNvMs3_NtNtNtCsdG3rhVUllIu_5ruchy9middleend3mir8optimizeNtB5_30CommonSubexpressionElimination17process_statement
FN:418,_RNvMs3_NtNtNtCsdG3rhVUllIu_5ruchy9middleend3mir8optimizeNtB5_30CommonSubexpressionElimination3new
FN:425,_RNvMs3_NtNtNtCsdG3rhVUllIu_5ruchy9middleend3mir8optimizeNtB5_30CommonSubexpressionElimination3run
FN:483,_RNvMs3_NtNtNtCsdG3rhVUllIu_5ruchy9middleend3mir8optimizeNtB5_30CommonSubexpressionElimination9place_key
FN:237,_RNvMs_NtNtNtCsdG3rhVUllIu_5ruchy9middleend3mir8optimizeNtB4_19DeadCodeElimination13is_place_live
FN:90,_RNvMs_NtNtNtCsdG3rhVUllIu_5ruchy9middleend3mir8optimizeNtB4_19DeadCodeElimination15mark_place_live
FN:106,_RNvMs_NtNtNtCsdG3rhVUllIu_5ruchy9middleend3mir8optimizeNtB4_19DeadCodeElimination16mark_rvalue_live
FN:133,_RNvMs_NtNtNtCsdG3rhVUllIu_5ruchy9middleend3mir8optimizeNtB4_19DeadCodeElimination17mark_operand_live
FN:225,_RNvMs_NtNtNtCsdG3rhVUllIu_5ruchy9middleend3mir8optimizeNtB4_19DeadCodeElimination18remove_dead_blocks
FN:231,_RNvMs_NtNtNtCsdG3rhVUllIu_5ruchy9middleend3mir8optimizeNtB4_19DeadCodeElimination18remove_dead_locals
FN:76,_RNvMs_NtNtNtCsdG3rhVUllIu_5ruchy9middleend3mir8optimizeNtB4_19DeadCodeElimination19mark_statement_live
FN:143,_RNvMs_NtNtNtCsdG3rhVUllIu_5ruchy9middleend3mir8optimizeNtB4_19DeadCodeElimination20mark_terminator_live
FN:206,_RNvMs_NtNtNtCsdG3rhVUllIu_5ruchy9middleend3mir8optimizeNtB4_19DeadCodeElimination22remove_dead_statements
FN:26,_RNvMs_NtNtNtCsdG3rhVUllIu_5ruchy9middleend3mir8optimizeNtB4_19DeadCodeElimination3new
FN:34,_RNvMs_NtNtNtCsdG3rhVUllIu_5ruchy9middleend3mir8optimizeNtB4_19DeadCodeElimination3run
FN:49,_RNvMs_NtNtNtCsdG3rhVUllIu_5ruchy9middleend3mir8optimizeNtB4_19DeadCodeElimination9mark_live
FN:510,_RNvNtNtNtCsdG3rhVUllIu_5ruchy9middleend3mir8optimize16optimize_program
FN:496,_RNvNtNtNtCsdG3rhVUllIu_5ruchy9middleend3mir8optimize17optimize_function
FN:18,_RNvXNtNtNtCsdG3rhVUllIu_5ruchy9middleend3mir8optimizeNtB2_19DeadCodeEliminationNtNtCs66KPHxksi63_4core7default7Default7default
FN:253,_RNvXs0_NtNtNtCsdG3rhVUllIu_5ruchy9middleend3mir8optimizeNtB5_19ConstantPropagationNtNtCs66KPHxksi63_4core7default7Default7default
FN:410,_RNvXs2_NtNtNtCsdG3rhVUllIu_5ruchy9middleend3mir8optimizeNtB5_30CommonSubexpressionEliminationNtNtCs66KPHxksi63_4core7default7Default7default
FN:227,_RNCNvMs_NtNtNtCsdG3rhVUllIu_5ruchy9middleend3mir8optimizeNtB6_19DeadCodeElimination18remove_dead_blocks0Bc_
FN:233,_RNCNvMs_NtNtNtCsdG3rhVUllIu_5ruchy9middleend3mir8optimizeNtB6_19DeadCodeElimination18remove_dead_locals0Bc_
FN:212,_RNCNvMs_NtNtNtCsdG3rhVUllIu_5ruchy9middleend3mir8optimizeNtB6_19DeadCodeElimination22remove_dead_statements0Bc_
FNDA:0,_RNCNvMs_NtNtNtCsdG3rhVUllIu_5ruchy9middleend3mir8optimizeNtB6_19DeadCodeElimination9mark_live0Bc_
FNDA:0,_RNvMs1_NtNtNtCsdG3rhVUllIu_5ruchy9middleend3mir8optimizeNtB5_19ConstantPropagation13eval_unary_op
FNDA:0,_RNvMs1_NtNtNtCsdG3rhVUllIu_5ruchy9middleend3mir8optimizeNtB5_19ConstantPropagation14eval_binary_op
FNDA:0,_RNvMs1_NtNtNtCsdG3rhVUllIu_5ruchy9middleend3mir8optimizeNtB5_19ConstantPropagation16extract_constant
FNDA:0,_RNvMs1_NtNtNtCsdG3rhVUllIu_5ruchy9middleend3mir8optimizeNtB5_19ConstantPropagation18get_constant_value
FNDA:0,_RNvMs1_NtNtNtCsdG3rhVUllIu_5ruchy9middleend3mir8optimizeNtB5_19ConstantPropagation19propagate_in_rvalue
FNDA:0,_RNvMs1_NtNtNtCsdG3rhVUllIu_5ruchy9middleend3mir8optimizeNtB5_19ConstantPropagation20propagate_in_operand
FNDA:0,_RNvMs1_NtNtNtCsdG3rhVUllIu_5ruchy9middleend3mir8optimizeNtB5_19ConstantPropagation22propagate_in_statement
FNDA:0,_RNvMs1_NtNtNtCsdG3rhVUllIu_5ruchy9middleend3mir8optimizeNtB5_19ConstantPropagation23propagate_in_terminator
FNDA:0,_RNvMs1_NtNtNtCsdG3rhVUllIu_5ruchy9middleend3mir8optimizeNtB5_19ConstantPropagation3new
FNDA:0,_RNvMs1_NtNtNtCsdG3rhVUllIu_5ruchy9middleend3mir8optimizeNtB5_19ConstantPropagation3run
FNDA:0,_RNvMs3_NtNtNtCsdG3rhVUllIu_5ruchy9middleend3mir8optimizeNtB5_30CommonSubexpressionElimination10rvalue_key
FNDA:0,_RNvMs3_NtNtNtCsdG3rhVUllIu_5ruchy9middleend3mir8optimizeNtB5_30CommonSubexpressionElimination11operand_key
FNDA:0,_RNvMs3_NtNtNtCsdG3rhVUllIu_5ruchy9middleend3mir8optimizeNtB5_30CommonSubexpressionElimination17process_statement
FNDA:0,_RNvMs3_NtNtNtCsdG3rhVUllIu_5ruchy9middleend3mir8optimizeNtB5_30CommonSubexpressionElimination3new
FNDA:0,_RNvMs3_NtNtNtCsdG3rhVUllIu_5ruchy9middleend3mir8optimizeNtB5_30CommonSubexpressionElimination3run
FNDA:0,_RNvMs3_NtNtNtCsdG3rhVUllIu_5ruchy9middleend3mir8optimizeNtB5_30CommonSubexpressionElimination9place_key
FNDA:0,_RNvMs_NtNtNtCsdG3rhVUllIu_5ruchy9middleend3mir8optimizeNtB4_19DeadCodeElimination13is_place_live
FNDA:0,_RNvMs_NtNtNtCsdG3rhVUllIu_5ruchy9middleend3mir8optimizeNtB4_19DeadCodeElimination15mark_place_live
FNDA:0,_RNvMs_NtNtNtCsdG3rhVUllIu_5ruchy9middleend3mir8optimizeNtB4_19DeadCodeElimination16mark_rvalue_live
FNDA:0,_RNvMs_NtNtNtCsdG3rhVUllIu_5ruchy9middleend3mir8optimizeNtB4_19DeadCodeElimination17mark_operand_live
FNDA:0,_RNvMs_NtNtNtCsdG3rhVUllIu_5ruchy9middleend3mir8optimizeNtB4_19DeadCodeElimination18remove_dead_blocks
FNDA:0,_RNvMs_NtNtNtCsdG3rhVUllIu_5ruchy9middleend3mir8optimizeNtB4_19DeadCodeElimination18remove_dead_locals
FNDA:0,_RNvMs_NtNtNtCsdG3rhVUllIu_5ruchy9middleend3mir8optimizeNtB4_19DeadCodeElimination19mark_statement_live
FNDA:0,_RNvMs_NtNtNtCsdG3rhVUllIu_5ruchy9middleend3mir8optimizeNtB4_19DeadCodeElimination20mark_terminator_live
FNDA:0,_RNvMs_NtNtNtCsdG3rhVUllIu_5ruchy9middleend3mir8optimizeNtB4_19DeadCodeElimination22remove_dead_statements
FNDA:0,_RNvMs_NtNtNtCsdG3rhVUllIu_5ruchy9middleend3mir8optimizeNtB4_19DeadCodeElimination3new
FNDA:0,_RNvMs_NtNtNtCsdG3rhVUllIu_5ruchy9middleend3mir8optimizeNtB4_19DeadCodeElimination3run
FNDA:0,_RNvMs_NtNtNtCsdG3rhVUllIu_5ruchy9middleend3mir8optimizeNtB4_19DeadCodeElimination9mark_live
FNDA:0,_RNvNtNtNtCsdG3rhVUllIu_5ruchy9middleend3mir8optimize16optimize_program
FNDA:0,_RNvNtNtNtCsdG3rhVUllIu_5ruchy9middleend3mir8optimize17optimize_function
FNDA:0,_RNvXNtNtNtCsdG3rhVUllIu_5ruchy9middleend3mir8optimizeNtB2_19DeadCodeEliminationNtNtCs66KPHxksi63_4core7default7Default7default
FNDA:0,_RNvXs0_NtNtNtCsdG3rhVUllIu_5ruchy9middleend3mir8optimizeNtB5_19ConstantPropagationNtNtCs66KPHxksi63_4core7default7Default7default
FNDA:0,_RNvXs2_NtNtNtCsdG3rhVUllIu_5ruchy9middleend3mir8optimizeNtB5_30CommonSubexpressionEliminationNtNtCs66KPHxksi63_4core7default7Default7default
FNDA:0,_RNCNvMs_NtNtNtCsdG3rhVUllIu_5ruchy9middleend3mir8optimizeNtB6_19DeadCodeElimination18remove_dead_blocks0Bc_
FNDA:0,_RNCNvMs_NtNtNtCsdG3rhVUllIu_5ruchy9middleend3mir8optimizeNtB6_19DeadCodeElimination18remove_dead_locals0Bc_
FNDA:0,_RNCNvMs_NtNtNtCsdG3rhVUllIu_5ruchy9middleend3mir8optimizeNtB6_19DeadCodeElimination22remove_dead_statements0Bc_
FNF:37
FNH:0
DA:18,0
DA:19,0
DA:20,0
DA:26,0
DA:27,0
DA:28,0
DA:29,0
DA:30,0
DA:31,0
DA:34,0
DA:36,0
DA:39,0
DA:42,0
DA:45,0
DA:46,0
DA:49,0
DA:50,0
DA:51,0
DA:54,0
DA:55,0
DA:57,0
DA:58,0
DA:60,0
DA:61,0
DA:62,0
DA:65,0
DA:66,0
DA:70,0
DA:71,0
DA:72,0
DA:73,0
DA:76,0
DA:77,0
DA:78,0
DA:79,0
DA:80,0
DA:81,0
DA:82,0
DA:83,0
DA:84,0
DA:85,0
DA:87,0
DA:90,0
DA:91,0
DA:92,0
DA:93,0
DA:94,0
DA:95,0
DA:96,0
DA:97,0
DA:98,0
DA:99,0
DA:100,0
DA:101,0
DA:103,0
DA:106,0
DA:107,0
DA:108,0
DA:109,0
DA:110,0
DA:111,0
DA:112,0
DA:113,0
DA:114,0
DA:115,0
DA:116,0
DA:117,0
DA:118,0
DA:119,0
DA:120,0
DA:121,0
DA:123,0
DA:124,0
DA:125,0
DA:126,0
DA:127,0
DA:130,0
DA:133,0
DA:134,0
DA:135,0
DA:136,0
DA:137,0
DA:138,0
DA:140,0
DA:143,0
DA:144,0
DA:145,0
DA:146,0
DA:147,0
DA:148,0
DA:151,0
DA:152,0
DA:153,0
DA:155,0
DA:156,0
DA:157,0
DA:158,0
DA:159,0
DA:160,0
DA:161,0
DA:164,0
DA:165,0
DA:166,0
DA:168,0
DA:169,0
DA:170,0
DA:171,0
DA:172,0
DA:174,0
DA:175,0
DA:176,0
DA:177,0
DA:178,0
DA:180,0
DA:181,0
DA:182,0
DA:183,0
DA:186,0
DA:187,0
DA:188,0
DA:190,0
DA:191,0
DA:192,0
DA:193,0
DA:194,0
DA:195,0
DA:196,0
DA:197,0
DA:198,0
DA:199,0
DA:201,0
DA:203,0
DA:206,0
DA:207,0
DA:208,0
DA:209,0
DA:210,0
DA:212,0
DA:213,0
DA:214,0
DA:215,0
DA:216,0
DA:218,0
DA:220,0
DA:222,0
DA:225,0
DA:226,0
DA:227,0
DA:228,0
DA:231,0
DA:232,0
DA:233,0
DA:234,0
DA:237,0
DA:238,0
DA:239,0
DA:240,0
DA:241,0
DA:243,0
DA:253,0
DA:254,0
DA:255,0
DA:261,0
DA:262,0
DA:263,0
DA:264,0
DA:265,0
DA:268,0
DA:269,0
DA:272,0
DA:273,0
DA:274,0
DA:275,0
DA:276,0
DA:277,0
DA:278,0
DA:283,0
DA:284,0
DA:285,0
DA:286,0
DA:287,0
DA:289,0
DA:292,0
DA:293,0
DA:294,0
DA:295,0
DA:296,0
DA:297,0
DA:299,0
DA:302,0
DA:303,0
DA:304,0
DA:306,0
DA:307,0
DA:308,0
DA:310,0
DA:311,0
DA:313,0
DA:314,0
DA:316,0
DA:317,0
DA:318,0
DA:319,0
DA:320,0
DA:322,0
DA:325,0
DA:326,0
DA:328,0
DA:329,0
DA:330,0
DA:331,0
DA:333,0
DA:336,0
DA:337,0
DA:338,0
DA:339,0
DA:340,0
DA:342,0
DA:344,0
DA:347,0
DA:348,0
DA:349,0
DA:350,0
DA:351,0
DA:354,0
DA:355,0
DA:356,0
DA:357,0
DA:358,0
DA:359,0
DA:360,0
DA:361,0
DA:362,0
DA:363,0
DA:364,0
DA:365,0
DA:366,0
DA:367,0
DA:369,0
DA:371,0
DA:374,0
DA:375,0
DA:376,0
DA:377,0
DA:378,0
DA:381,0
DA:382,0
DA:383,0
DA:384,0
DA:385,0
DA:386,0
DA:387,0
DA:388,0
DA:389,0
DA:390,0
DA:391,0
DA:392,0
DA:393,0
DA:394,0
DA:395,0
DA:396,0
DA:398,0
DA:400,0
DA:410,0
DA:411,0
DA:412,0
DA:418,0
DA:419,0
DA:420,0
DA:421,0
DA:422,0
DA:425,0
DA:426,0
DA:428,0
DA:429,0
DA:430,0
DA:431,0
DA:433,0
DA:436,0
DA:437,0
DA:438,0
DA:440,0
DA:441,0
DA:442,0
DA:443,0
DA:444,0
DA:445,0
DA:446,0
DA:447,0
DA:448,0
DA:449,0
DA:450,0
DA:451,0
DA:454,0
DA:455,0
DA:456,0
DA:457,0
DA:458,0
DA:459,0
DA:461,0
DA:462,0
DA:465,0
DA:466,0
DA:468,0
DA:470,0
DA:473,0
DA:474,0
DA:475,0
DA:476,0
DA:477,0
DA:479,0
DA:483,0
DA:484,0
DA:485,0
DA:486,0
DA:487,0
DA:488,0
DA:490,0
DA:492,0
DA:496,0
DA:497,0
DA:498,0
DA:499,0
DA:502,0
DA:503,0
DA:504,0
DA:505,0
DA:506,0
DA:507,0
DA:510,0
DA:511,0
DA:512,0
DA:513,0
DA:514,0
BRF:0
BRH:0
LF:338
LH:0
end_of_record
SF:/home/noah/src/ruchy/src/middleend/mir/types.rs
FN:283,_RNvXNtNtNtCsdG3rhVUllIu_5ruchy9middleend3mir5typesNtB2_7BlockIdNtNtCs66KPHxksi63_4core3fmt7Display3fmt
FN:295,_RNvXs0_NtNtNtCsdG3rhVUllIu_5ruchy9middleend3mir5typesNtB5_4TypeNtNtCs66KPHxksi63_4core3fmt7Display3fmt
FN:289,_RNvXs_NtNtNtCsdG3rhVUllIu_5ruchy9middleend3mir5typesNtB4_5LocalNtNtCs66KPHxksi63_4core3fmt7Display3fmt
FNDA:0,_RNvXNtNtNtCsdG3rhVUllIu_5ruchy9middleend3mir5typesNtB2_7BlockIdNtNtCs66KPHxksi63_4core3fmt7Display3fmt
FNDA:0,_RNvXs0_NtNtNtCsdG3rhVUllIu_5ruchy9middleend3mir5typesNtB5_4TypeNtNtCs66KPHxksi63_4core3fmt7Display3fmt
FNDA:0,_RNvXs_NtNtNtCsdG3rhVUllIu_5ruchy9middleend3mir5typesNtB4_5LocalNtNtCs66KPHxksi63_4core3fmt7Display3fmt
FNF:3
FNH:0
DA:283,0
DA:284,0
DA:285,0
DA:289,0
DA:290,0
DA:291,0
DA:295,0
DA:296,0
DA:297,0
DA:298,0
DA:299,0
DA:300,0
DA:301,0
DA:302,0
DA:303,0
DA:304,0
DA:305,0
DA:306,0
DA:307,0
DA:308,0
DA:309,0
DA:310,0
DA:311,0
DA:312,0
DA:313,0
DA:314,0
DA:315,0
DA:316,0
DA:317,0
DA:318,0
DA:319,0
DA:320,0
DA:321,0
DA:322,0
DA:324,0
DA:326,0
DA:327,0
DA:328,0
DA:329,0
DA:330,0
DA:331,0
DA:332,0
DA:334,0
DA:336,0
DA:338,0
BRF:0
BRH:0
LF:45
LH:0
end_of_record
SF:/home/noah/src/ruchy/src/middleend/types.rs
FN:121,_RNCNvMs0_NtNtCsdG3rhVUllIu_5ruchy9middleend5typesNtB7_10TypeScheme11instantiate0Bb_
FN:197,_RNCNvMs4_NtNtCsdG3rhVUllIu_5ruchy9middleend5typesNtB7_8MonoType10substitutes0_0Bb_
FN:191,_RNCNvMs4_NtNtCsdG3rhVUllIu_5ruchy9middleend5typesNtB7_8MonoType10substitutes_0Bb_
FN:177,_RNCNvMs4_NtNtCsdG3rhVUllIu_5ruchy9middleend5typesNtB7_8MonoType10substitute0Bb_
FN:114,_RNvMs0_NtNtCsdG3rhVUllIu_5ruchy9middleend5typesNtB5_10TypeScheme11instantiate
FN:106,_RNvMs0_NtNtCsdG3rhVUllIu_5ruchy9middleend5typesNtB5_10TypeScheme4mono
FN:152,_RNvMs2_NtNtCsdG3rhVUllIu_5ruchy9middleend5typesNtB5_14TyVarGenerator3new
FN:156,_RNvMs2_NtNtCsdG3rhVUllIu_5ruchy9middleend5typesNtB5_14TyVarGenerator5fresh
FN:175,_RNvMs4_NtNtCsdG3rhVUllIu_5ruchy9middleend5typesNtB5_8MonoType10substitute
FN:205,_RNvMs4_NtNtCsdG3rhVUllIu_5ruchy9middleend5typesNtB5_8MonoType9free_vars
FN:208,_RNvNvMs4_NtNtCsdG3rhVUllIu_5ruchy9middleend5typesNtB7_8MonoType9free_vars12collect_vars
FN:11,_RNvXNtNtCsdG3rhVUllIu_5ruchy9middleend5typesNtB2_5TyVarNtNtCs66KPHxksi63_4core3fmt7Display3fmt
FN:129,_RNvXs1_NtNtCsdG3rhVUllIu_5ruchy9middleend5typesNtB5_10TypeSchemeNtNtCs66KPHxksi63_4core3fmt7Display3fmt
FN:164,_RNvXs3_NtNtCsdG3rhVUllIu_5ruchy9middleend5typesNtB5_14TyVarGeneratorNtNtCs66KPHxksi63_4core7default7Default7default
FN:54,_RNvXs_NtNtCsdG3rhVUllIu_5ruchy9middleend5typesNtB4_8MonoTypeNtNtCs66KPHxksi63_4core3fmt7Display3fmt
FNDA:0,_RNCNvMs0_NtNtCsdG3rhVUllIu_5ruchy9middleend5typesNtB7_10TypeScheme11instantiate0Bb_
FNDA:0,_RNCNvMs4_NtNtCsdG3rhVUllIu_5ruchy9middleend5typesNtB7_8MonoType10substitutes0_0Bb_
FNDA:0,_RNCNvMs4_NtNtCsdG3rhVUllIu_5ruchy9middleend5typesNtB7_8MonoType10substitutes_0Bb_
FNDA:0,_RNCNvMs4_NtNtCsdG3rhVUllIu_5ruchy9middleend5typesNtB7_8MonoType10substitute0Bb_
FNDA:0,_RNvMs0_NtNtCsdG3rhVUllIu_5ruchy9middleend5typesNtB5_10TypeScheme11instantiate
FNDA:0,_RNvMs0_NtNtCsdG3rhVUllIu_5ruchy9middleend5typesNtB5_10TypeScheme4mono
FNDA:0,_RNvMs2_NtNtCsdG3rhVUllIu_5ruchy9middleend5typesNtB5_14TyVarGenerator3new
FNDA:0,_RNvMs2_NtNtCsdG3rhVUllIu_5ruchy9middleend5typesNtB5_14TyVarGenerator5fresh
FNDA:0,_RNvMs4_NtNtCsdG3rhVUllIu_5ruchy9middleend5typesNtB5_8MonoType10substitute
FNDA:0,_RNvMs4_NtNtCsdG3rhVUllIu_5ruchy9middleend5typesNtB5_8MonoType9free_vars
FNDA:0,_RNvNvMs4_NtNtCsdG3rhVUllIu_5ruchy9middleend5typesNtB7_8MonoType9free_vars12collect_vars
FNDA:0,_RNvXNtNtCsdG3rhVUllIu_5ruchy9middleend5typesNtB2_5TyVarNtNtCs66KPHxksi63_4core3fmt7Display3fmt
FNDA:0,_RNvXs1_NtNtCsdG3rhVUllIu_5ruchy9middleend5typesNtB5_10TypeSchemeNtNtCs66KPHxksi63_4core3fmt7Display3fmt
FNDA:0,_RNvXs3_NtNtCsdG3rhVUllIu_5ruchy9middleend5typesNtB5_14TyVarGeneratorNtNtCs66KPHxksi63_4core7default7Default7default
FNDA:0,_RNvXs_NtNtCsdG3rhVUllIu_5ruchy9middleend5typesNtB4_8MonoTypeNtNtCs66KPHxksi63_4core3fmt7Display3fmt
FNF:15
FNH:0
DA:11,0
DA:12,0
DA:13,0
DA:54,0
DA:55,0
DA:56,0
DA:57,0
DA:58,0
DA:59,0
DA:60,0
DA:61,0
DA:62,0
DA:63,0
DA:64,0
DA:65,0
DA:66,0
DA:67,0
DA:68,0
DA:69,0
DA:70,0
DA:71,0
DA:72,0
DA:73,0
DA:75,0
DA:77,0
DA:78,0
DA:79,0
DA:80,0
DA:81,0
DA:82,0
DA:83,0
DA:84,0
DA:85,0
DA:87,0
DA:89,0
DA:91,0
DA:106,0
DA:107,0
DA:108,0
DA:109,0
DA:110,0
DA:111,0
DA:114,0
DA:115,0
DA:116,0
DA:118,0
DA:119,0
DA:120,0
DA:121,0
DA:122,0
DA:123,0
DA:125,0
DA:129,0
DA:130,0
DA:131,0
DA:133,0
DA:134,0
DA:135,0
DA:136,0
DA:137,0
DA:138,0
DA:140,0
DA:142,0
DA:152,0
DA:153,0
DA:154,0
DA:156,0
DA:157,0
DA:158,0
DA:159,0
DA:160,0
DA:164,0
DA:165,0
DA:166,0
DA:175,0
DA:176,0
DA:177,0
DA:178,0
DA:179,0
DA:180,0
DA:181,0
DA:182,0
DA:183,0
DA:184,0
DA:185,0
DA:186,0
DA:187,0
DA:188,0
DA:189,0
DA:190,0
DA:191,0
DA:192,0
DA:194,0
DA:195,0
DA:196,0
DA:197,0
DA:199,0
DA:201,0
DA:205,0
DA:208,0
DA:209,0
DA:210,0
DA:211,0
DA:212,0
DA:213,0
DA:214,0
DA:215,0
DA:216,0
DA:217,0
DA:218,0
DA:219,0
DA:220,0
DA:221,0
DA:222,0
DA:223,0
DA:224,0
DA:225,0
DA:226,0
DA:227,0
DA:228,0
DA:229,0
DA:230,0
DA:232,0
DA:233,0
DA:234,0
DA:235,0
DA:237,0
DA:239,0
DA:241,0
DA:242,0
DA:243,0
DA:244,0
BRF:0
BRH:0
LF:136
LH:0
end_of_record
SF:/home/noah/src/ruchy/src/middleend/unify.rs
FN:99,_RNCNvMNtNtCsdG3rhVUllIu_5ruchy9middleend5unifyNtB4_7Unifier4bind0B8_
FN:135,_RNCNvMNtNtCsdG3rhVUllIu_5ruchy9middleend5unifyNtB4_7Unifier5solve0B8_
FN:135,_RNCNvMNtNtCsdG3rhVUllIu_5ruchy9middleend5unifyNtB4_7Unifier5solves_0B8_
FN:123,_RNCNvMNtNtCsdG3rhVUllIu_5ruchy9middleend5unifyNtB4_7Unifier6occurs0B8_
FN:125,_RNCNvMNtNtCsdG3rhVUllIu_5ruchy9middleend5unifyNtB4_7Unifier6occurss_0B8_
FN:22,_RNvMNtNtCsdG3rhVUllIu_5ruchy9middleend5unifyNtB2_7Unifier12substitution
FN:14,_RNvMNtNtCsdG3rhVUllIu_5ruchy9middleend5unifyNtB2_7Unifier3new
FN:86,_RNvMNtNtCsdG3rhVUllIu_5ruchy9middleend5unifyNtB2_7Unifier4bind
FN:28,_RNvMNtNtCsdG3rhVUllIu_5ruchy9middleend5unifyNtB2_7Unifier5apply
FN:132,_RNvMNtNtCsdG3rhVUllIu_5ruchy9middleend5unifyNtB2_7Unifier5solve
FN:40,_RNvMNtNtCsdG3rhVUllIu_5ruchy9middleend5unifyNtB2_7Unifier5unify
FN:113,_RNvMNtNtCsdG3rhVUllIu_5ruchy9middleend5unifyNtB2_7Unifier6occurs
FN:140,_RNvXs_NtNtCsdG3rhVUllIu_5ruchy9middleend5unifyNtB4_7UnifierNtNtCs66KPHxksi63_4core7default7Default7default
FNDA:0,_RNCNvMNtNtCsdG3rhVUllIu_5ruchy9middleend5unifyNtB4_7Unifier4bind0B8_
FNDA:0,_RNCNvMNtNtCsdG3rhVUllIu_5ruchy9middleend5unifyNtB4_7Unifier5solve0B8_
FNDA:0,_RNCNvMNtNtCsdG3rhVUllIu_5ruchy9middleend5unifyNtB4_7Unifier5solves_0B8_
FNDA:0,_RNCNvMNtNtCsdG3rhVUllIu_5ruchy9middleend5unifyNtB4_7Unifier6occurs0B8_
FNDA:0,_RNCNvMNtNtCsdG3rhVUllIu_5ruchy9middleend5unifyNtB4_7Unifier6occurss_0B8_
FNDA:0,_RNvMNtNtCsdG3rhVUllIu_5ruchy9middleend5unifyNtB2_7Unifier12substitution
FNDA:0,_RNvMNtNtCsdG3rhVUllIu_5ruchy9middleend5unifyNtB2_7Unifier3new
FNDA:0,_RNvMNtNtCsdG3rhVUllIu_5ruchy9middleend5unifyNtB2_7Unifier4bind
FNDA:0,_RNvMNtNtCsdG3rhVUllIu_5ruchy9middleend5unifyNtB2_7Unifier5apply
FNDA:0,_RNvMNtNtCsdG3rhVUllIu_5ruchy9middleend5unifyNtB2_7Unifier5solve
FNDA:0,_RNvMNtNtCsdG3rhVUllIu_5ruchy9middleend5unifyNtB2_7Unifier5unify
FNDA:0,_RNvMNtNtCsdG3rhVUllIu_5ruchy9middleend5unifyNtB2_7Unifier6occurs
FNDA:0,_RNvXs_NtNtCsdG3rhVUllIu_5ruchy9middleend5unifyNtB4_7UnifierNtNtCs66KPHxksi63_4core7default7Default7default
FNF:13
FNH:0
DA:14,0
DA:15,0
DA:16,0
DA:17,0
DA:18,0
DA:22,0
DA:23,0
DA:24,0
DA:28,0
DA:29,0
DA:30,0
DA:40,0
DA:41,0
DA:42,0
DA:44,0
DA:45,0
DA:46,0
DA:51,0
DA:52,0
DA:53,0
DA:54,0
DA:55,0
DA:57,0
DA:58,0
DA:59,0
DA:60,0
DA:61,0
DA:63,0
DA:65,0
DA:66,0
DA:67,0
DA:68,0
DA:69,0
DA:70,0
DA:71,0
DA:75,0
DA:76,0
DA:78,0
DA:80,0
DA:81,0
DA:83,0
DA:86,0
DA:88,0
DA:89,0
DA:90,0
DA:93,0
DA:96,0
DA:97,0
DA:98,0
DA:99,0
DA:100,0
DA:101,0
DA:103,0
DA:105,0
DA:106,0
DA:107,0
DA:109,0
DA:110,0
DA:113,0
DA:114,0
DA:115,0
DA:116,0
DA:117,0
DA:118,0
DA:119,0
DA:121,0
DA:122,0
DA:123,0
DA:125,0
DA:126,0
DA:128,0
DA:132,0
DA:133,0
DA:134,0
DA:135,0
DA:136,0
DA:140,0
DA:141,0
DA:142,0
BRF:0
BRH:0
LF:84
LH:0
end_of_record
SF:/home/noah/src/ruchy/src/parser/error_recovery.rs
FN:297,_RNCNvMs2_NtNtCsdG3rhVUllIu_5ruchy6parser14error_recoveryNtB7_13RecoveryRules14synthesize_ast0Bb_
FN:316,_RNCNvMs2_NtNtCsdG3rhVUllIu_5ruchy6parser14error_recoveryNtB7_13RecoveryRules14synthesize_asts0_0Bb_
FN:322,_RNCNvMs2_NtNtCsdG3rhVUllIu_5ruchy6parser14error_recoveryNtB7_13RecoveryRules14synthesize_asts1_0Bb_
FN:299,_RNCNvMs2_NtNtCsdG3rhVUllIu_5ruchy6parser14error_recoveryNtB7_13RecoveryRules14synthesize_asts_0Bb_
FN:232,_RNvMs1_NtNtCsdG3rhVUllIu_5ruchy6parser14error_recoveryNtB5_13ErrorRecovery13is_sync_token
FN:221,_RNvMs1_NtNtCsdG3rhVUllIu_5ruchy6parser14error_recoveryNtB5_13ErrorRecovery15should_continue
FN:200,_RNvMs1_NtNtCsdG3rhVUllIu_5ruchy6parser14error_recoveryNtB5_13ErrorRecovery18incomplete_if_expr
FN:181,_RNvMs1_NtNtCsdG3rhVUllIu_5ruchy6parser14error_recoveryNtB5_13ErrorRecovery21malformed_let_binding
FN:161,_RNvMs1_NtNtCsdG3rhVUllIu_5ruchy6parser14error_recoveryNtB5_13ErrorRecovery21missing_function_body
FN:131,_RNvMs1_NtNtCsdG3rhVUllIu_5ruchy6parser14error_recoveryNtB5_13ErrorRecovery21missing_function_name
FN:146,_RNvMs1_NtNtCsdG3rhVUllIu_5ruchy6parser14error_recoveryNtB5_13ErrorRecovery23missing_function_params
FN:126,_RNvMs1_NtNtCsdG3rhVUllIu_5ruchy6parser14error_recoveryNtB5_13ErrorRecovery3new
FN:226,_RNvMs1_NtNtCsdG3rhVUllIu_5ruchy6parser14error_recoveryNtB5_13ErrorRecovery5reset
FN:280,_RNvMs2_NtNtCsdG3rhVUllIu_5ruchy6parser14error_recoveryNtB5_13RecoveryRules14synthesize_ast
FN:256,_RNvMs2_NtNtCsdG3rhVUllIu_5ruchy6parser14error_recoveryNtB5_13RecoveryRules15select_strategy
FN:82,_RNvXNtNtCsdG3rhVUllIu_5ruchy6parser14error_recoveryNtB2_13ExprWithErrorINtNtCs66KPHxksi63_4core7convert4FromNtNtNtB6_8frontend3ast4ExprE4from
FN:104,_RNvXs0_NtNtCsdG3rhVUllIu_5ruchy6parser14error_recoveryNtB5_13ErrorRecoveryNtNtCs66KPHxksi63_4core7default7Default7default
FN:88,_RNvXs_NtNtCsdG3rhVUllIu_5ruchy6parser14error_recoveryNtB4_13ExprWithErrorINtNtCs66KPHxksi63_4core7convert4FromNtB4_9ErrorNodeE4from
FN:237,_RINvMs1_NtNtCsdG3rhVUllIu_5ruchy6parser14error_recoveryNtB6_13ErrorRecovery15skip_until_syncpEBa_
FNDA:0,_RNCNvMs2_NtNtCsdG3rhVUllIu_5ruchy6parser14error_recoveryNtB7_13RecoveryRules14synthesize_ast0Bb_
FNDA:0,_RNCNvMs2_NtNtCsdG3rhVUllIu_5ruchy6parser14error_recoveryNtB7_13RecoveryRules14synthesize_asts0_0Bb_
FNDA:0,_RNCNvMs2_NtNtCsdG3rhVUllIu_5ruchy6parser14error_recoveryNtB7_13RecoveryRules14synthesize_asts1_0Bb_
FNDA:0,_RNCNvMs2_NtNtCsdG3rhVUllIu_5ruchy6parser14error_recoveryNtB7_13RecoveryRules14synthesize_asts_0Bb_
FNDA:0,_RNvMs1_NtNtCsdG3rhVUllIu_5ruchy6parser14error_recoveryNtB5_13ErrorRecovery13is_sync_token
FNDA:0,_RNvMs1_NtNtCsdG3rhVUllIu_5ruchy6parser14error_recoveryNtB5_13ErrorRecovery15should_continue
FNDA:0,_RNvMs1_NtNtCsdG3rhVUllIu_5ruchy6parser14error_recoveryNtB5_13ErrorRecovery18incomplete_if_expr
FNDA:0,_RNvMs1_NtNtCsdG3rhVUllIu_5ruchy6parser14error_recoveryNtB5_13ErrorRecovery21malformed_let_binding
FNDA:0,_RNvMs1_NtNtCsdG3rhVUllIu_5ruchy6parser14error_recoveryNtB5_13ErrorRecovery21missing_function_body
FNDA:0,_RNvMs1_NtNtCsdG3rhVUllIu_5ruchy6parser14error_recoveryNtB5_13ErrorRecovery21missing_function_name
FNDA:0,_RNvMs1_NtNtCsdG3rhVUllIu_5ruchy6parser14error_recoveryNtB5_13ErrorRecovery23missing_function_params
FNDA:131,_RNvMs1_NtNtCsdG3rhVUllIu_5ruchy6parser14error_recoveryNtB5_13ErrorRecovery3new
FNDA:0,_RNvMs1_NtNtCsdG3rhVUllIu_5ruchy6parser14error_recoveryNtB5_13ErrorRecovery5reset
FNDA:0,_RNvMs2_NtNtCsdG3rhVUllIu_5ruchy6parser14error_recoveryNtB5_13RecoveryRules14synthesize_ast
FNDA:0,_RNvMs2_NtNtCsdG3rhVUllIu_5ruchy6parser14error_recoveryNtB5_13RecoveryRules15select_strategy
FNDA:0,_RNvXNtNtCsdG3rhVUllIu_5ruchy6parser14error_recoveryNtB2_13ExprWithErrorINtNtCs66KPHxksi63_4core7convert4FromNtNtNtB6_8frontend3ast4ExprE4from
FNDA:131,_RNvXs0_NtNtCsdG3rhVUllIu_5ruchy6parser14error_recoveryNtB5_13ErrorRecoveryNtNtCs66KPHxksi63_4core7default7Default7default
FNDA:0,_RNvXs_NtNtCsdG3rhVUllIu_5ruchy6parser14error_recoveryNtB4_13ExprWithErrorINtNtCs66KPHxksi63_4core7convert4FromNtB4_9ErrorNodeE4from
FNDA:0,_RINvMs1_NtNtCsdG3rhVUllIu_5ruchy6parser14error_recoveryNtB6_13ErrorRecovery15skip_until_syncpEBa_
FNF:19
FNH:2
DA:82,0
DA:83,0
DA:84,0
DA:88,0
DA:89,0
DA:90,0
DA:104,131
DA:105,131
DA:106,131
DA:107,131
DA:108,131
DA:109,131
DA:110,131
DA:111,131
DA:112,131
DA:113,131
DA:114,131
DA:115,131
DA:116,131
DA:117,131
DA:118,131
DA:119,131
DA:120,131
DA:121,131
DA:126,131
DA:127,131
DA:128,131
DA:131,0
DA:132,0
DA:133,0
DA:134,0
DA:135,0
DA:136,0
DA:137,0
DA:138,0
DA:139,0
DA:140,0
DA:141,0
DA:142,0
DA:143,0
DA:146,0
DA:147,0
DA:148,0
DA:149,0
DA:150,0
DA:151,0
DA:152,0
DA:153,0
DA:154,0
DA:155,0
DA:156,0
DA:157,0
DA:158,0
DA:161,0
DA:162,0
DA:163,0
DA:164,0
DA:165,0
DA:166,0
DA:167,0
DA:168,0
DA:169,0
DA:170,0
DA:171,0
DA:172,0
DA:173,0
DA:174,0
DA:175,0
DA:176,0
DA:177,0
DA:178,0
DA:181,0
DA:182,0
DA:183,0
DA:184,0
DA:185,0
DA:186,0
DA:187,0
DA:188,0
DA:189,0
DA:190,0
DA:191,0
DA:192,0
DA:193,0
DA:194,0
DA:195,0
DA:196,0
DA:197,0
DA:200,0
DA:201,0
DA:202,0
DA:203,0
DA:204,0
DA:205,0
DA:206,0
DA:207,0
DA:208,0
DA:209,0
DA:210,0
DA:211,0
DA:212,0
DA:213,0
DA:214,0
DA:215,0
DA:216,0
DA:217,0
DA:221,0
DA:222,0
DA:223,0
DA:226,0
DA:227,0
DA:228,0
DA:232,0
DA:233,0
DA:234,0
DA:237,0
DA:238,0
DA:239,0
DA:241,0
DA:242,0
DA:243,0
DA:244,0
DA:246,0
DA:247,0
DA:256,0
DA:257,0
DA:258,0
DA:259,0
DA:260,0
DA:261,0
DA:262,0
DA:263,0
DA:264,0
DA:266,0
DA:269,0
DA:270,0
DA:272,0
DA:274,0
DA:276,0
DA:280,0
DA:281,0
DA:282,0
DA:285,0
DA:286,0
DA:287,0
DA:288,0
DA:289,0
DA:290,0
DA:293,0
DA:295,0
DA:297,0
DA:298,0
DA:299,0
DA:300,0
DA:301,0
DA:302,0
DA:305,0
DA:309,0
DA:310,0
DA:314,0
DA:316,0
DA:317,0
DA:318,0
DA:319,0
DA:321,0
DA:322,0
DA:323,0
DA:324,0
DA:325,0
DA:326,0
DA:327,0
DA:328,0
DA:330,0
DA:333,0
DA:335,0
DA:337,0
DA:339,0
DA:340,0
DA:342,0
DA:345,0
DA:347,0
DA:348,0
DA:349,0
DA:350,0
DA:351,0
DA:352,0
DA:353,0
DA:356,0
DA:360,0
BRF:0
BRH:0
LF:193
LH:21
end_of_record
SF:/home/noah/src/ruchy/src/proving/counterexample.rs
FN:213,_RNCNvMs0_NtNtCsdG3rhVUllIu_5ruchy7proving14counterexampleNtB7_8TestCase14value_to_ruchy0Bb_
FN:219,_RNCNvMs0_NtNtCsdG3rhVUllIu_5ruchy7proving14counterexampleNtB7_8TestCase14value_to_ruchys_0Bb_
FN:177,_RNvMs0_NtNtCsdG3rhVUllIu_5ruchy7proving14counterexampleNtB5_8TestCase12set_expected
FN:182,_RNvMs0_NtNtCsdG3rhVUllIu_5ruchy7proving14counterexampleNtB5_8TestCase13to_ruchy_test
FN:205,_RNvMs0_NtNtCsdG3rhVUllIu_5ruchy7proving14counterexampleNtB5_8TestCase14value_to_ruchy
FN:163,_RNvMs0_NtNtCsdG3rhVUllIu_5ruchy7proving14counterexampleNtB5_8TestCase3new
FN:172,_RNvMs0_NtNtCsdG3rhVUllIu_5ruchy7proving14counterexampleNtB5_8TestCase9add_input
FN:292,_RNvMs1_NtNtCsdG3rhVUllIu_5ruchy7proving14counterexampleNtB5_23CounterexampleGenerator11parse_value
FN:246,_RNvMs1_NtNtCsdG3rhVUllIu_5ruchy7proving14counterexampleNtB5_23CounterexampleGenerator11set_backend
FN:382,_RNvMs1_NtNtCsdG3rhVUllIu_5ruchy7proving14counterexampleNtB5_23CounterexampleGenerator12value_to_smt
FN:251,_RNvMs1_NtNtCsdG3rhVUllIu_5ruchy7proving14counterexampleNtB5_23CounterexampleGenerator13set_shrinking
FN:325,_RNvMs1_NtNtCsdG3rhVUllIu_5ruchy7proving14counterexampleNtB5_23CounterexampleGenerator16try_shrink_value
FN:341,_RNvMs1_NtNtCsdG3rhVUllIu_5ruchy7proving14counterexampleNtB5_23CounterexampleGenerator19generate_test_suite
FN:275,_RNvMs1_NtNtCsdG3rhVUllIu_5ruchy7proving14counterexampleNtB5_23CounterexampleGenerator20build_counterexample
FN:307,_RNvMs1_NtNtCsdG3rhVUllIu_5ruchy7proving14counterexampleNtB5_23CounterexampleGenerator21shrink_counterexample
FN:237,_RNvMs1_NtNtCsdG3rhVUllIu_5ruchy7proving14counterexampleNtB5_23CounterexampleGenerator3new
FN:256,_RNvMs1_NtNtCsdG3rhVUllIu_5ruchy7proving14counterexampleNtB5_23CounterexampleGenerator8generate
FN:422,_RNvMs3_NtNtCsdG3rhVUllIu_5ruchy7proving14counterexampleNtB5_16SymbolicExecutor12set_symbolic
FN:417,_RNvMs3_NtNtCsdG3rhVUllIu_5ruchy7proving14counterexampleNtB5_16SymbolicExecutor13add_condition
FN:427,_RNvMs3_NtNtCsdG3rhVUllIu_5ruchy7proving14counterexampleNtB5_16SymbolicExecutor15find_error_path
FN:408,_RNvMs3_NtNtCsdG3rhVUllIu_5ruchy7proving14counterexampleNtB5_16SymbolicExecutor3new
FN:109,_RNvMs_NtNtCsdG3rhVUllIu_5ruchy7proving14counterexampleNtB4_14Counterexample13format_report
FN:94,_RNvMs_NtNtCsdG3rhVUllIu_5ruchy7proving14counterexampleNtB4_14Counterexample14add_assignment
FN:99,_RNvMs_NtNtCsdG3rhVUllIu_5ruchy7proving14counterexampleNtB4_14Counterexample14add_trace_step
FN:104,_RNvMs_NtNtCsdG3rhVUllIu_5ruchy7proving14counterexampleNtB4_14Counterexample15set_explanation
FN:84,_RNvMs_NtNtCsdG3rhVUllIu_5ruchy7proving14counterexampleNtB4_14Counterexample3new
FN:39,_RNvXNtNtCsdG3rhVUllIu_5ruchy7proving14counterexampleNtB2_5ValueNtNtCs66KPHxksi63_4core3fmt7Display3fmt
FN:394,_RNvXs2_NtNtCsdG3rhVUllIu_5ruchy7proving14counterexampleNtB5_23CounterexampleGeneratorNtNtCs66KPHxksi63_4core7default7Default7default
FN:451,_RNvXs4_NtNtCsdG3rhVUllIu_5ruchy7proving14counterexampleNtB5_16SymbolicExecutorNtNtCs66KPHxksi63_4core7default7Default7default
FNDA:0,_RNCNvMs0_NtNtCsdG3rhVUllIu_5ruchy7proving14counterexampleNtB7_8TestCase14value_to_ruchy0Bb_
FNDA:0,_RNCNvMs0_NtNtCsdG3rhVUllIu_5ruchy7proving14counterexampleNtB7_8TestCase14value_to_ruchys_0Bb_
FNDA:0,_RNvMs0_NtNtCsdG3rhVUllIu_5ruchy7proving14counterexampleNtB5_8TestCase12set_expected
FNDA:0,_RNvMs0_NtNtCsdG3rhVUllIu_5ruchy7proving14counterexampleNtB5_8TestCase13to_ruchy_test
FNDA:0,_RNvMs0_NtNtCsdG3rhVUllIu_5ruchy7proving14counterexampleNtB5_8TestCase14value_to_ruchy
FNDA:0,_RNvMs0_NtNtCsdG3rhVUllIu_5ruchy7proving14counterexampleNtB5_8TestCase3new
FNDA:0,_RNvMs0_NtNtCsdG3rhVUllIu_5ruchy7proving14counterexampleNtB5_8TestCase9add_input
FNDA:0,_RNvMs1_NtNtCsdG3rhVUllIu_5ruchy7proving14counterexampleNtB5_23CounterexampleGenerator11parse_value
FNDA:0,_RNvMs1_NtNtCsdG3rhVUllIu_5ruchy7proving14counterexampleNtB5_23CounterexampleGenerator11set_backend
FNDA:0,_RNvMs1_NtNtCsdG3rhVUllIu_5ruchy7proving14counterexampleNtB5_23CounterexampleGenerator12value_to_smt
FNDA:0,_RNvMs1_NtNtCsdG3rhVUllIu_5ruchy7proving14counterexampleNtB5_23CounterexampleGenerator13set_shrinking
FNDA:0,_RNvMs1_NtNtCsdG3rhVUllIu_5ruchy7proving14counterexampleNtB5_23CounterexampleGenerator16try_shrink_value
FNDA:0,_RNvMs1_NtNtCsdG3rhVUllIu_5ruchy7proving14counterexampleNtB5_23CounterexampleGenerator19generate_test_suite
FNDA:0,_RNvMs1_NtNtCsdG3rhVUllIu_5ruchy7proving14counterexampleNtB5_23CounterexampleGenerator20build_counterexample
FNDA:0,_RNvMs1_NtNtCsdG3rhVUllIu_5ruchy7proving14counterexampleNtB5_23CounterexampleGenerator21shrink_counterexample
FNDA:0,_RNvMs1_NtNtCsdG3rhVUllIu_5ruchy7proving14counterexampleNtB5_23CounterexampleGenerator3new
FNDA:0,_RNvMs1_NtNtCsdG3rhVUllIu_5ruchy7proving14counterexampleNtB5_23CounterexampleGenerator8generate
FNDA:0,_RNvMs3_NtNtCsdG3rhVUllIu_5ruchy7proving14counterexampleNtB5_16SymbolicExecutor12set_symbolic
FNDA:0,_RNvMs3_NtNtCsdG3rhVUllIu_5ruchy7proving14counterexampleNtB5_16SymbolicExecutor13add_condition
FNDA:0,_RNvMs3_NtNtCsdG3rhVUllIu_5ruchy7proving14counterexampleNtB5_16SymbolicExecutor15find_error_path
FNDA:0,_RNvMs3_NtNtCsdG3rhVUllIu_5ruchy7proving14counterexampleNtB5_16SymbolicExecutor3new
FNDA:0,_RNvMs_NtNtCsdG3rhVUllIu_5ruchy7proving14counterexampleNtB4_14Counterexample13format_report
FNDA:0,_RNvMs_NtNtCsdG3rhVUllIu_5ruchy7proving14counterexampleNtB4_14Counterexample14add_assignment
FNDA:0,_RNvMs_NtNtCsdG3rhVUllIu_5ruchy7proving14counterexampleNtB4_14Counterexample14add_trace_step
FNDA:0,_RNvMs_NtNtCsdG3rhVUllIu_5ruchy7proving14counterexampleNtB4_14Counterexample15set_explanation
FNDA:0,_RNvMs_NtNtCsdG3rhVUllIu_5ruchy7proving14counterexampleNtB4_14Counterexample3new
FNDA:0,_RNvXNtNtCsdG3rhVUllIu_5ruchy7proving14counterexampleNtB2_5ValueNtNtCs66KPHxksi63_4core3fmt7Display3fmt
FNDA:0,_RNvXs2_NtNtCsdG3rhVUllIu_5ruchy7proving14counterexampleNtB5_23CounterexampleGeneratorNtNtCs66KPHxksi63_4core7default7Default7default
FNDA:0,_RNvXs4_NtNtCsdG3rhVUllIu_5ruchy7proving14counterexampleNtB5_16SymbolicExecutorNtNtCs66KPHxksi63_4core7default7Default7default
FNF:29
FNH:0
DA:39,0
DA:40,0
DA:41,0
DA:42,0
DA:43,0
DA:44,0
DA:45,0
DA:46,0
DA:47,0
DA:48,0
DA:49,0
DA:51,0
DA:53,0
DA:54,0
DA:55,0
DA:56,0
DA:57,0
DA:59,0
DA:61,0
DA:63,0
DA:84,0
DA:85,0
DA:86,0
DA:87,0
DA:88,0
DA:89,0
DA:90,0
DA:91,0
DA:94,0
DA:95,0
DA:96,0
DA:99,0
DA:100,0
DA:101,0
DA:104,0
DA:105,0
DA:106,0
DA:109,0
DA:110,0
DA:112,0
DA:114,0
DA:115,0
DA:117,0
DA:118,0
DA:119,0
DA:120,0
DA:121,0
DA:122,0
DA:123,0
DA:125,0
DA:126,0
DA:127,0
DA:128,0
DA:129,0
DA:130,0
DA:131,0
DA:132,0
DA:133,0
DA:134,0
DA:136,0
DA:137,0
DA:139,0
DA:140,0
DA:141,0
DA:142,0
DA:144,0
DA:145,0
DA:163,0
DA:164,0
DA:165,0
DA:166,0
DA:167,0
DA:168,0
DA:169,0
DA:172,0
DA:173,0
DA:174,0
DA:177,0
DA:178,0
DA:179,0
DA:182,0
DA:183,0
DA:185,0
DA:187,0
DA:188,0
DA:189,0
DA:190,0
DA:192,0
DA:194,0
DA:195,0
DA:196,0
DA:197,0
DA:199,0
DA:201,0
DA:202,0
DA:205,0
DA:206,0
DA:207,0
DA:208,0
DA:209,0
DA:210,0
DA:211,0
DA:212,0
DA:213,0
DA:214,0
DA:215,0
DA:217,0
DA:218,0
DA:219,0
DA:220,0
DA:221,0
DA:223,0
DA:225,0
DA:237,0
DA:238,0
DA:239,0
DA:240,0
DA:241,0
DA:242,0
DA:243,0
DA:246,0
DA:247,0
DA:248,0
DA:251,0
DA:252,0
DA:253,0
DA:256,0
DA:257,0
DA:259,0
DA:260,0
DA:261,0
DA:263,0
DA:265,0
DA:267,0
DA:268,0
DA:270,0
DA:272,0
DA:275,0
DA:276,0
DA:278,0
DA:279,0
DA:280,0
DA:281,0
DA:282,0
DA:284,0
DA:285,0
DA:286,0
DA:288,0
DA:289,0
DA:292,0
DA:293,0
DA:294,0
DA:295,0
DA:296,0
DA:297,0
DA:298,0
DA:299,0
DA:300,0
DA:302,0
DA:304,0
DA:307,0
DA:308,0
DA:309,0
DA:311,0
DA:312,0
DA:313,0
DA:315,0
DA:316,0
DA:317,0
DA:318,0
DA:319,0
DA:322,0
DA:325,0
DA:326,0
DA:327,0
DA:328,0
DA:329,0
DA:330,0
DA:331,0
DA:333,0
DA:334,0
DA:336,0
DA:338,0
DA:341,0
DA:342,0
DA:344,0
DA:345,0
DA:347,0
DA:348,0
DA:349,0
DA:351,0
DA:352,0
DA:353,0
DA:354,0
DA:355,0
DA:358,0
DA:360,0
DA:362,0
DA:363,0
DA:364,0
DA:365,0
DA:366,0
DA:367,0
DA:368,0
DA:370,0
DA:373,0
DA:374,0
DA:375,0
DA:378,0
DA:379,0
DA:382,0
DA:383,0
DA:384,0
DA:385,0
DA:386,0
DA:387,0
DA:388,0
DA:390,0
DA:394,0
DA:395,0
DA:396,0
DA:408,0
DA:409,0
DA:410,0
DA:411,0
DA:412,0
DA:413,0
DA:414,0
DA:417,0
DA:418,0
DA:419,0
DA:422,0
DA:423,0
DA:424,0
DA:427,0
DA:428,0
DA:430,0
DA:431,0
DA:432,0
DA:434,0
DA:435,0
DA:436,0
DA:438,0
DA:440,0
DA:442,0
DA:443,0
DA:445,0
DA:447,0
DA:451,0
DA:452,0
DA:453,0
BRF:0
BRH:0
LF:253
LH:0
end_of_record
SF:/home/noah/src/ruchy/src/proving/prover.rs
FN:40,_RNvMNtNtCsdG3rhVUllIu_5ruchy7proving6proverNtB2_17InteractiveProver11load_script
FN:30,_RNvMNtNtCsdG3rhVUllIu_5ruchy7proving6proverNtB2_17InteractiveProver11set_timeout
FN:51,_RNvMNtNtCsdG3rhVUllIu_5ruchy7proving6proverNtB2_17InteractiveProver12apply_tactic
FN:79,_RNvMNtNtCsdG3rhVUllIu_5ruchy7proving6proverNtB2_17InteractiveProver13process_input
FN:98,_RNvMNtNtCsdG3rhVUllIu_5ruchy7proving6proverNtB2_17InteractiveProver15suggest_tactics
FN:35,_RNvMNtNtCsdG3rhVUllIu_5ruchy7proving6proverNtB2_17InteractiveProver18set_ml_suggestions
FN:46,_RNvMNtNtCsdG3rhVUllIu_5ruchy7proving6proverNtB2_17InteractiveProver21get_available_tactics
FN:20,_RNvMNtNtCsdG3rhVUllIu_5ruchy7proving6proverNtB2_17InteractiveProver3new
FN:211,_RNvMs1_NtNtCsdG3rhVUllIu_5ruchy7proving6proverNtB5_12ProofContext3new
FN:161,_RNvMs_NtNtCsdG3rhVUllIu_5ruchy7proving6proverNtB4_13ProverSession11is_complete
FN:132,_RNvMs_NtNtCsdG3rhVUllIu_5ruchy7proving6proverNtB4_13ProverSession11update_goal
FN:127,_RNvMs_NtNtCsdG3rhVUllIu_5ruchy7proving6proverNtB4_13ProverSession12current_goal
FN:180,_RNvMs_NtNtCsdG3rhVUllIu_5ruchy7proving6proverNtB4_13ProverSession12to_coq_proof
FN:139,_RNvMs_NtNtCsdG3rhVUllIu_5ruchy7proving6proverNtB4_13ProverSession13complete_goal
FN:185,_RNvMs_NtNtCsdG3rhVUllIu_5ruchy7proving6proverNtB4_13ProverSession13to_lean_proof
FN:166,_RNvMs_NtNtCsdG3rhVUllIu_5ruchy7proving6proverNtB4_13ProverSession13to_text_proof
FN:146,_RNvMs_NtNtCsdG3rhVUllIu_5ruchy7proving6proverNtB4_13ProverSession21replace_with_subgoals
FN:113,_RNvMs_NtNtCsdG3rhVUllIu_5ruchy7proving6proverNtB4_13ProverSession3new
FN:122,_RNvMs_NtNtCsdG3rhVUllIu_5ruchy7proving6proverNtB4_13ProverSession8add_goal
FN:156,_RNvMs_NtNtCsdG3rhVUllIu_5ruchy7proving6proverNtB4_13ProverSession9get_goals
FN:191,_RNvXs0_NtNtCsdG3rhVUllIu_5ruchy7proving6proverNtB5_13ProverSessionNtNtCs66KPHxksi63_4core7default7Default7default
FN:220,_RNvXs2_NtNtCsdG3rhVUllIu_5ruchy7proving6proverNtB5_12ProofContextNtNtCs66KPHxksi63_4core7default7Default7default
FNDA:0,_RNvMNtNtCsdG3rhVUllIu_5ruchy7proving6proverNtB2_17InteractiveProver11load_script
FNDA:0,_RNvMNtNtCsdG3rhVUllIu_5ruchy7proving6proverNtB2_17InteractiveProver11set_timeout
FNDA:0,_RNvMNtNtCsdG3rhVUllIu_5ruchy7proving6proverNtB2_17InteractiveProver12apply_tactic
FNDA:0,_RNvMNtNtCsdG3rhVUllIu_5ruchy7proving6proverNtB2_17InteractiveProver13process_input
FNDA:0,_RNvMNtNtCsdG3rhVUllIu_5ruchy7proving6proverNtB2_17InteractiveProver15suggest_tactics
FNDA:0,_RNvMNtNtCsdG3rhVUllIu_5ruchy7proving6proverNtB2_17InteractiveProver18set_ml_suggestions
FNDA:0,_RNvMNtNtCsdG3rhVUllIu_5ruchy7proving6proverNtB2_17InteractiveProver21get_available_tactics
FNDA:0,_RNvMNtNtCsdG3rhVUllIu_5ruchy7proving6proverNtB2_17InteractiveProver3new
FNDA:0,_RNvMs1_NtNtCsdG3rhVUllIu_5ruchy7proving6proverNtB5_12ProofContext3new
FNDA:0,_RNvMs_NtNtCsdG3rhVUllIu_5ruchy7proving6proverNtB4_13ProverSession11is_complete
FNDA:0,_RNvMs_NtNtCsdG3rhVUllIu_5ruchy7proving6proverNtB4_13ProverSession11update_goal
FNDA:0,_RNvMs_NtNtCsdG3rhVUllIu_5ruchy7proving6proverNtB4_13ProverSession12current_goal
FNDA:0,_RNvMs_NtNtCsdG3rhVUllIu_5ruchy7proving6proverNtB4_13ProverSession12to_coq_proof
FNDA:0,_RNvMs_NtNtCsdG3rhVUllIu_5ruchy7proving6proverNtB4_13ProverSession13complete_goal
FNDA:0,_RNvMs_NtNtCsdG3rhVUllIu_5ruchy7proving6proverNtB4_13ProverSession13to_lean_proof
FNDA:0,_RNvMs_NtNtCsdG3rhVUllIu_5ruchy7proving6proverNtB4_13ProverSession13to_text_proof
FNDA:0,_RNvMs_NtNtCsdG3rhVUllIu_5ruchy7proving6proverNtB4_13ProverSession21replace_with_subgoals
FNDA:0,_RNvMs_NtNtCsdG3rhVUllIu_5ruchy7proving6proverNtB4_13ProverSession3new
FNDA:0,_RNvMs_NtNtCsdG3rhVUllIu_5ruchy7proving6proverNtB4_13ProverSession8add_goal
FNDA:0,_RNvMs_NtNtCsdG3rhVUllIu_5ruchy7proving6proverNtB4_13ProverSession9get_goals
FNDA:0,_RNvXs0_NtNtCsdG3rhVUllIu_5ruchy7proving6proverNtB5_13ProverSessionNtNtCs66KPHxksi63_4core7default7Default7default
FNDA:0,_RNvXs2_NtNtCsdG3rhVUllIu_5ruchy7proving6proverNtB5_12ProofContextNtNtCs66KPHxksi63_4core7default7Default7default
FNF:22
FNH:0
DA:20,0
DA:21,0
DA:22,0
DA:23,0
DA:24,0
DA:25,0
DA:26,0
DA:27,0
DA:30,0
DA:31,0
DA:32,0
DA:35,0
DA:36,0
DA:37,0
DA:40,0
DA:42,0
DA:43,0
DA:46,0
DA:47,0
DA:48,0
DA:51,0
DA:52,0
DA:54,0
DA:55,0
DA:56,0
DA:58,0
DA:59,0
DA:61,0
DA:62,0
DA:63,0
DA:65,0
DA:66,0
DA:67,0
DA:69,0
DA:70,0
DA:74,0
DA:76,0
DA:79,0
DA:81,0
DA:82,0
DA:83,0
DA:84,0
DA:87,0
DA:88,0
DA:89,0
DA:90,0
DA:91,0
DA:92,0
DA:94,0
DA:95,0
DA:98,0
DA:99,0
DA:100,0
DA:113,0
DA:114,0
DA:115,0
DA:116,0
DA:117,0
DA:118,0
DA:119,0
DA:122,0
DA:123,0
DA:124,0
DA:127,0
DA:128,0
DA:129,0
DA:132,0
DA:133,0
DA:134,0
DA:135,0
DA:136,0
DA:139,0
DA:140,0
DA:141,0
DA:142,0
DA:143,0
DA:146,0
DA:147,0
DA:148,0
DA:149,0
DA:150,0
DA:151,0
DA:152,0
DA:153,0
DA:156,0
DA:157,0
DA:158,0
DA:161,0
DA:162,0
DA:163,0
DA:166,0
DA:167,0
DA:168,0
DA:169,0
DA:171,0
DA:173,0
DA:174,0
DA:175,0
DA:176,0
DA:177,0
DA:180,0
DA:181,0
DA:182,0
DA:185,0
DA:186,0
DA:187,0
DA:191,0
DA:192,0
DA:193,0
DA:211,0
DA:212,0
DA:213,0
DA:214,0
DA:215,0
DA:216,0
DA:220,0
DA:221,0
DA:222,0
BRF:0
BRH:0
LF:118
LH:0
end_of_record
SF:/home/noah/src/ruchy/src/proving/refinement.rs
FN:251,_RNCNvMs2_NtNtCsdG3rhVUllIu_5ruchy7proving10refinementNtB7_17RefinementChecker15verify_function0Bb_
FN:48,_RNvMNtNtCsdG3rhVUllIu_5ruchy7proving10refinementNtB2_14RefinementType11bounded_int
FN:60,_RNvMNtNtCsdG3rhVUllIu_5ruchy7proving10refinementNtB2_14RefinementType12positive_int
FN:84,_RNvMNtNtCsdG3rhVUllIu_5ruchy7proving10refinementNtB2_14RefinementType12sorted_array
FN:72,_RNvMNtNtCsdG3rhVUllIu_5ruchy7proving10refinementNtB2_14RefinementType15non_empty_array
FN:177,_RNvMs1_NtNtCsdG3rhVUllIu_5ruchy7proving10refinementNtB5_14TypeRefinement13add_invariant
FN:167,_RNvMs1_NtNtCsdG3rhVUllIu_5ruchy7proving10refinementNtB5_14TypeRefinement16add_precondition
FN:172,_RNvMs1_NtNtCsdG3rhVUllIu_5ruchy7proving10refinementNtB5_14TypeRefinement17add_postcondition
FN:156,_RNvMs1_NtNtCsdG3rhVUllIu_5ruchy7proving10refinementNtB5_14TypeRefinement3new
FN:220,_RNvMs2_NtNtCsdG3rhVUllIu_5ruchy7proving10refinementNtB5_17RefinementChecker10is_subtype
FN:210,_RNvMs2_NtNtCsdG3rhVUllIu_5ruchy7proving10refinementNtB5_17RefinementChecker11declare_var
FN:205,_RNvMs2_NtNtCsdG3rhVUllIu_5ruchy7proving10refinementNtB5_17RefinementChecker11set_backend
FN:273,_RNvMs2_NtNtCsdG3rhVUllIu_5ruchy7proving10refinementNtB5_17RefinementChecker15check_invariant
FN:249,_RNvMs2_NtNtCsdG3rhVUllIu_5ruchy7proving10refinementNtB5_17RefinementChecker15verify_function
FN:215,_RNvMs2_NtNtCsdG3rhVUllIu_5ruchy7proving10refinementNtB5_17RefinementChecker16declare_function
FN:236,_RNvMs2_NtNtCsdG3rhVUllIu_5ruchy7proving10refinementNtB5_17RefinementChecker17check_implication
FN:196,_RNvMs2_NtNtCsdG3rhVUllIu_5ruchy7proving10refinementNtB5_17RefinementChecker3new
FN:310,_RNvMs4_NtNtCsdG3rhVUllIu_5ruchy7proving10refinementNtB5_18VerificationResult5error
FN:305,_RNvMs4_NtNtCsdG3rhVUllIu_5ruchy7proving10refinementNtB5_18VerificationResult8is_valid
FN:361,_RNvMs5_NtNtCsdG3rhVUllIu_5ruchy7proving10refinementNtB5_19LiquidTypeInference14add_constraint
FN:326,_RNvMs5_NtNtCsdG3rhVUllIu_5ruchy7proving10refinementNtB5_19LiquidTypeInference3new
FN:334,_RNvMs5_NtNtCsdG3rhVUllIu_5ruchy7proving10refinementNtB5_19LiquidTypeInference5infer
FN:366,_RNvMs5_NtNtCsdG3rhVUllIu_5ruchy7proving10refinementNtB5_19LiquidTypeInference5solve
FN:107,_RNvXs0_NtNtCsdG3rhVUllIu_5ruchy7proving10refinementNtB5_8BaseTypeNtNtCs66KPHxksi63_4core3fmt7Display3fmt
FN:290,_RNvXs3_NtNtCsdG3rhVUllIu_5ruchy7proving10refinementNtB5_17RefinementCheckerNtNtCs66KPHxksi63_4core7default7Default7default
FN:381,_RNvXs6_NtNtCsdG3rhVUllIu_5ruchy7proving10refinementNtB5_19LiquidTypeInferenceNtNtCs66KPHxksi63_4core7default7Default7default
FN:97,_RNvXs_NtNtCsdG3rhVUllIu_5ruchy7proving10refinementNtB4_14RefinementTypeNtNtCs66KPHxksi63_4core3fmt7Display3fmt
FNDA:0,_RNCNvMs2_NtNtCsdG3rhVUllIu_5ruchy7proving10refinementNtB7_17RefinementChecker15verify_function0Bb_
FNDA:0,_RNvMNtNtCsdG3rhVUllIu_5ruchy7proving10refinementNtB2_14RefinementType11bounded_int
FNDA:0,_RNvMNtNtCsdG3rhVUllIu_5ruchy7proving10refinementNtB2_14RefinementType12positive_int
FNDA:0,_RNvMNtNtCsdG3rhVUllIu_5ruchy7proving10refinementNtB2_14RefinementType12sorted_array
FNDA:0,_RNvMNtNtCsdG3rhVUllIu_5ruchy7proving10refinementNtB2_14RefinementType15non_empty_array
FNDA:0,_RNvMs1_NtNtCsdG3rhVUllIu_5ruchy7proving10refinementNtB5_14TypeRefinement13add_invariant
FNDA:0,_RNvMs1_NtNtCsdG3rhVUllIu_5ruchy7proving10refinementNtB5_14TypeRefinement16add_precondition
FNDA:0,_RNvMs1_NtNtCsdG3rhVUllIu_5ruchy7proving10refinementNtB5_14TypeRefinement17add_postcondition
FNDA:0,_RNvMs1_NtNtCsdG3rhVUllIu_5ruchy7proving10refinementNtB5_14TypeRefinement3new
FNDA:0,_RNvMs2_NtNtCsdG3rhVUllIu_5ruchy7proving10refinementNtB5_17RefinementChecker10is_subtype
FNDA:0,_RNvMs2_NtNtCsdG3rhVUllIu_5ruchy7proving10refinementNtB5_17RefinementChecker11declare_var
FNDA:0,_RNvMs2_NtNtCsdG3rhVUllIu_5ruchy7proving10refinementNtB5_17RefinementChecker11set_backend
FNDA:0,_RNvMs2_NtNtCsdG3rhVUllIu_5ruchy7proving10refinementNtB5_17RefinementChecker15check_invariant
FNDA:0,_RNvMs2_NtNtCsdG3rhVUllIu_5ruchy7proving10refinementNtB5_17RefinementChecker15verify_function
FNDA:0,_RNvMs2_NtNtCsdG3rhVUllIu_5ruchy7proving10refinementNtB5_17RefinementChecker16declare_function
FNDA:0,_RNvMs2_NtNtCsdG3rhVUllIu_5ruchy7proving10refinementNtB5_17RefinementChecker17check_implication
FNDA:0,_RNvMs2_NtNtCsdG3rhVUllIu_5ruchy7proving10refinementNtB5_17RefinementChecker3new
FNDA:0,_RNvMs4_NtNtCsdG3rhVUllIu_5ruchy7proving10refinementNtB5_18VerificationResult5error
FNDA:0,_RNvMs4_NtNtCsdG3rhVUllIu_5ruchy7proving10refinementNtB5_18VerificationResult8is_valid
FNDA:0,_RNvMs5_NtNtCsdG3rhVUllIu_5ruchy7proving10refinementNtB5_19LiquidTypeInference14add_constraint
FNDA:0,_RNvMs5_NtNtCsdG3rhVUllIu_5ruchy7proving10refinementNtB5_19LiquidTypeInference3new
FNDA:0,_RNvMs5_NtNtCsdG3rhVUllIu_5ruchy7proving10refinementNtB5_19LiquidTypeInference5infer
FNDA:0,_RNvMs5_NtNtCsdG3rhVUllIu_5ruchy7proving10refinementNtB5_19LiquidTypeInference5solve
FNDA:0,_RNvXs0_NtNtCsdG3rhVUllIu_5ruchy7proving10refinementNtB5_8BaseTypeNtNtCs66KPHxksi63_4core3fmt7Display3fmt
FNDA:0,_RNvXs3_NtNtCsdG3rhVUllIu_5ruchy7proving10refinementNtB5_17RefinementCheckerNtNtCs66KPHxksi63_4core7default7Default7default
FNDA:0,_RNvXs6_NtNtCsdG3rhVUllIu_5ruchy7proving10refinementNtB5_19LiquidTypeInferenceNtNtCs66KPHxksi63_4core7default7Default7default
FNDA:0,_RNvXs_NtNtCsdG3rhVUllIu_5ruchy7proving10refinementNtB4_14RefinementTypeNtNtCs66KPHxksi63_4core3fmt7Display3fmt
FNF:27
FNH:0
DA:48,0
DA:49,0
DA:50,0
DA:51,0
DA:52,0
DA:53,0
DA:54,0
DA:55,0
DA:56,0
DA:57,0
DA:60,0
DA:61,0
DA:62,0
DA:63,0
DA:64,0
DA:65,0
DA:66,0
DA:67,0
DA:68,0
DA:69,0
DA:72,0
DA:73,0
DA:74,0
DA:75,0
DA:76,0
DA:77,0
DA:78,0
DA:79,0
DA:80,0
DA:81,0
DA:84,0
DA:85,0
DA:86,0
DA:87,0
DA:88,0
DA:89,0
DA:90,0
DA:91,0
DA:92,0
DA:93,0
DA:97,0
DA:98,0
DA:99,0
DA:101,0
DA:103,0
DA:107,0
DA:108,0
DA:109,0
DA:110,0
DA:111,0
DA:112,0
DA:113,0
DA:114,0
DA:115,0
DA:116,0
DA:117,0
DA:118,0
DA:120,0
DA:122,0
DA:123,0
DA:124,0
DA:125,0
DA:126,0
DA:128,0
DA:130,0
DA:132,0
DA:156,0
DA:157,0
DA:158,0
DA:159,0
DA:160,0
DA:161,0
DA:162,0
DA:163,0
DA:164,0
DA:167,0
DA:168,0
DA:169,0
DA:172,0
DA:173,0
DA:174,0
DA:177,0
DA:178,0
DA:179,0
DA:196,0
DA:197,0
DA:198,0
DA:199,0
DA:200,0
DA:201,0
DA:202,0
DA:205,0
DA:206,0
DA:207,0
DA:210,0
DA:211,0
DA:212,0
DA:215,0
DA:216,0
DA:217,0
DA:220,0
DA:221,0
DA:222,0
DA:223,0
DA:225,0
DA:226,0
DA:227,0
DA:229,0
DA:230,0
DA:231,0
DA:233,0
DA:236,0
DA:237,0
DA:239,0
DA:240,0
DA:242,0
DA:243,0
DA:244,0
DA:246,0
DA:249,0
DA:250,0
DA:251,0
DA:253,0
DA:255,0
DA:256,0
DA:257,0
DA:259,0
DA:261,0
DA:262,0
DA:263,0
DA:265,0
DA:266,0
DA:267,0
DA:268,0
DA:270,0
DA:273,0
DA:274,0
DA:276,0
DA:278,0
DA:280,0
DA:282,0
DA:283,0
DA:284,0
DA:286,0
DA:290,0
DA:291,0
DA:292,0
DA:305,0
DA:306,0
DA:307,0
DA:310,0
DA:311,0
DA:312,0
DA:313,0
DA:315,0
DA:326,0
DA:327,0
DA:328,0
DA:329,0
DA:330,0
DA:331,0
DA:334,0
DA:335,0
DA:336,0
DA:337,0
DA:338,0
DA:339,0
DA:340,0
DA:341,0
DA:342,0
DA:343,0
DA:344,0
DA:345,0
DA:347,0
DA:348,0
DA:349,0
DA:350,0
DA:351,0
DA:352,0
DA:353,0
DA:354,0
DA:355,0
DA:356,0
DA:358,0
DA:361,0
DA:362,0
DA:363,0
DA:366,0
DA:367,0
DA:369,0
DA:370,0
DA:371,0
DA:373,0
DA:374,0
DA:375,0
DA:377,0
DA:381,0
DA:382,0
DA:383,0
BRF:0
BRH:0
LF:200
LH:0
end_of_record
SF:/home/noah/src/ruchy/src/proving/smt.rs
FN:30,_RNvMNtNtCsdG3rhVUllIu_5ruchy7proving3smtNtB2_10SmtBackend4args
FN:20,_RNvMNtNtCsdG3rhVUllIu_5ruchy7proving3smtNtB2_10SmtBackend7command
FN:215,_RNvMs1_NtNtCsdG3rhVUllIu_5ruchy7proving3smtNtB5_8SmtQuery14add_assumption
FN:201,_RNvMs1_NtNtCsdG3rhVUllIu_5ruchy7proving3smtNtB5_8SmtQuery3new
FN:210,_RNvMs1_NtNtCsdG3rhVUllIu_5ruchy7proving3smtNtB5_8SmtQuery7add_var
FN:220,_RNvMs1_NtNtCsdG3rhVUllIu_5ruchy7proving3smtNtB5_8SmtQuery7execute
FN:249,_RNvMs2_NtNtCsdG3rhVUllIu_5ruchy7proving3smtNtB5_9SmtResult10is_success
FN:254,_RNvMs2_NtNtCsdG3rhVUllIu_5ruchy7proving3smtNtB5_9SmtResult11description
FN:289,_RNvMs3_NtNtCsdG3rhVUllIu_5ruchy7proving3smtNtB5_15ProofAutomation17prove_equivalence
FN:283,_RNvMs3_NtNtCsdG3rhVUllIu_5ruchy7proving3smtNtB5_15ProofAutomation17prove_implication
FN:275,_RNvMs3_NtNtCsdG3rhVUllIu_5ruchy7proving3smtNtB5_15ProofAutomation3new
FN:295,_RNvMs3_NtNtCsdG3rhVUllIu_5ruchy7proving3smtNtB5_15ProofAutomation5prove
FN:117,_RNvMs_NtNtCsdG3rhVUllIu_5ruchy7proving3smtNtB4_9SmtSolver11build_query
FN:73,_RNvMs_NtNtCsdG3rhVUllIu_5ruchy7proving3smtNtB4_9SmtSolver11declare_fun
FN:65,_RNvMs_NtNtCsdG3rhVUllIu_5ruchy7proving3smtNtB4_9SmtSolver11declare_var
FN:175,_RNvMs_NtNtCsdG3rhVUllIu_5ruchy7proving3smtNtB4_9SmtSolver11parse_model
FN:60,_RNvMs_NtNtCsdG3rhVUllIu_5ruchy7proving3smtNtB4_9SmtSolver11set_timeout
FN:160,_RNvMs_NtNtCsdG3rhVUllIu_5ruchy7proving3smtNtB4_9SmtSolver12parse_result
FN:141,_RNvMs_NtNtCsdG3rhVUllIu_5ruchy7proving3smtNtB4_9SmtSolver13execute_query
FN:50,_RNvMs_NtNtCsdG3rhVUllIu_5ruchy7proving3smtNtB4_9SmtSolver3new
FN:105,_RNvMs_NtNtCsdG3rhVUllIu_5ruchy7proving3smtNtB4_9SmtSolver5prove
FN:82,_RNvMs_NtNtCsdG3rhVUllIu_5ruchy7proving3smtNtB4_9SmtSolver6assert
FN:87,_RNvMs_NtNtCsdG3rhVUllIu_5ruchy7proving3smtNtB4_9SmtSolver9check_sat
FN:93,_RNvMs_NtNtCsdG3rhVUllIu_5ruchy7proving3smtNtB4_9SmtSolver9get_model
FN:181,_RNvXs0_NtNtCsdG3rhVUllIu_5ruchy7proving3smtNtB5_9SmtSolverNtNtCs66KPHxksi63_4core5clone5Clone5clone
FNDA:0,_RNvMNtNtCsdG3rhVUllIu_5ruchy7proving3smtNtB2_10SmtBackend4args
FNDA:0,_RNvMNtNtCsdG3rhVUllIu_5ruchy7proving3smtNtB2_10SmtBackend7command
FNDA:0,_RNvMs1_NtNtCsdG3rhVUllIu_5ruchy7proving3smtNtB5_8SmtQuery14add_assumption
FNDA:0,_RNvMs1_NtNtCsdG3rhVUllIu_5ruchy7proving3smtNtB5_8SmtQuery3new
FNDA:0,_RNvMs1_NtNtCsdG3rhVUllIu_5ruchy7proving3smtNtB5_8SmtQuery7add_var
FNDA:0,_RNvMs1_NtNtCsdG3rhVUllIu_5ruchy7proving3smtNtB5_8SmtQuery7execute
FNDA:0,_RNvMs2_NtNtCsdG3rhVUllIu_5ruchy7proving3smtNtB5_9SmtResult10is_success
FNDA:0,_RNvMs2_NtNtCsdG3rhVUllIu_5ruchy7proving3smtNtB5_9SmtResult11description
FNDA:0,_RNvMs3_NtNtCsdG3rhVUllIu_5ruchy7proving3smtNtB5_15ProofAutomation17prove_equivalence
FNDA:0,_RNvMs3_NtNtCsdG3rhVUllIu_5ruchy7proving3smtNtB5_15ProofAutomation17prove_implication
FNDA:0,_RNvMs3_NtNtCsdG3rhVUllIu_5ruchy7proving3smtNtB5_15ProofAutomation3new
FNDA:0,_RNvMs3_NtNtCsdG3rhVUllIu_5ruchy7proving3smtNtB5_15ProofAutomation5prove
FNDA:0,_RNvMs_NtNtCsdG3rhVUllIu_5ruchy7proving3smtNtB4_9SmtSolver11build_query
FNDA:0,_RNvMs_NtNtCsdG3rhVUllIu_5ruchy7proving3smtNtB4_9SmtSolver11declare_fun
FNDA:0,_RNvMs_NtNtCsdG3rhVUllIu_5ruchy7proving3smtNtB4_9SmtSolver11declare_var
FNDA:0,_RNvMs_NtNtCsdG3rhVUllIu_5ruchy7proving3smtNtB4_9SmtSolver11parse_model
FNDA:0,_RNvMs_NtNtCsdG3rhVUllIu_5ruchy7proving3smtNtB4_9SmtSolver11set_timeout
FNDA:0,_RNvMs_NtNtCsdG3rhVUllIu_5ruchy7proving3smtNtB4_9SmtSolver12parse_result
FNDA:0,_RNvMs_NtNtCsdG3rhVUllIu_5ruchy7proving3smtNtB4_9SmtSolver13execute_query
FNDA:0,_RNvMs_NtNtCsdG3rhVUllIu_5ruchy7proving3smtNtB4_9SmtSolver3new
FNDA:0,_RNvMs_NtNtCsdG3rhVUllIu_5ruchy7proving3smtNtB4_9SmtSolver5prove
FNDA:0,_RNvMs_NtNtCsdG3rhVUllIu_5ruchy7proving3smtNtB4_9SmtSolver6assert
FNDA:0,_RNvMs_NtNtCsdG3rhVUllIu_5ruchy7proving3smtNtB4_9SmtSolver9check_sat
FNDA:0,_RNvMs_NtNtCsdG3rhVUllIu_5ruchy7proving3smtNtB4_9SmtSolver9get_model
FNDA:0,_RNvXs0_NtNtCsdG3rhVUllIu_5ruchy7proving3smtNtB5_9SmtSolverNtNtCs66KPHxksi63_4core5clone5Clone5clone
FNF:25
FNH:0
DA:20,0
DA:21,0
DA:22,0
DA:23,0
DA:24,0
DA:25,0
DA:27,0
DA:30,0
DA:31,0
DA:32,0
DA:33,0
DA:34,0
DA:35,0
DA:37,0
DA:50,0
DA:51,0
DA:52,0
DA:53,0
DA:54,0
DA:55,0
DA:56,0
DA:57,0
DA:60,0
DA:61,0
DA:62,0
DA:65,0
DA:66,0
DA:67,0
DA:68,0
DA:70,0
DA:73,0
DA:74,0
DA:75,0
DA:76,0
DA:77,0
DA:79,0
DA:82,0
DA:83,0
DA:84,0
DA:87,0
DA:88,0
DA:89,0
DA:90,0
DA:93,0
DA:94,0
DA:95,0
DA:97,0
DA:98,0
DA:100,0
DA:102,0
DA:105,0
DA:106,0
DA:107,0
DA:109,0
DA:110,0
DA:111,0
DA:112,0
DA:114,0
DA:117,0
DA:118,0
DA:120,0
DA:121,0
DA:123,0
DA:124,0
DA:125,0
DA:126,0
DA:128,0
DA:129,0
DA:130,0
DA:131,0
DA:133,0
DA:134,0
DA:135,0
DA:137,0
DA:138,0
DA:141,0
DA:142,0
DA:143,0
DA:144,0
DA:145,0
DA:146,0
DA:147,0
DA:149,0
DA:150,0
DA:151,0
DA:153,0
DA:154,0
DA:156,0
DA:157,0
DA:160,0
DA:161,0
DA:162,0
DA:163,0
DA:164,0
DA:165,0
DA:166,0
DA:167,0
DA:168,0
DA:170,0
DA:172,0
DA:175,0
DA:176,0
DA:177,0
DA:181,0
DA:182,0
DA:183,0
DA:184,0
DA:185,0
DA:186,0
DA:187,0
DA:188,0
DA:201,0
DA:202,0
DA:203,0
DA:204,0
DA:205,0
DA:206,0
DA:207,0
DA:210,0
DA:211,0
DA:212,0
DA:215,0
DA:216,0
DA:217,0
DA:220,0
DA:221,0
DA:223,0
DA:224,0
DA:225,0
DA:227,0
DA:228,0
DA:229,0
DA:231,0
DA:232,0
DA:249,0
DA:250,0
DA:251,0
DA:254,0
DA:255,0
DA:256,0
DA:257,0
DA:258,0
DA:259,0
DA:260,0
DA:261,0
DA:262,0
DA:264,0
DA:275,0
DA:276,0
DA:277,0
DA:278,0
DA:279,0
DA:280,0
DA:283,0
DA:284,0
DA:285,0
DA:286,0
DA:289,0
DA:290,0
DA:291,0
DA:292,0
DA:295,0
DA:296,0
DA:297,0
DA:298,0
DA:300,0
DA:301,0
DA:302,0
DA:304,0
DA:305,0
BRF:0
BRH:0
LF:170
LH:0
end_of_record
SF:/home/noah/src/ruchy/src/proving/tactics.rs
FN:86,_RNCNvMNtNtCsdG3rhVUllIu_5ruchy7proving7tacticsNtB4_13TacticLibrary10get_tactic0B8_
FN:339,_RNCNvXs6_NtNtCsdG3rhVUllIu_5ruchy7proving7tacticsNtB7_13RewriteTacticNtB7_6Tactic13is_applicable0Bb_
FN:83,_RNvMNtNtCsdG3rhVUllIu_5ruchy7proving7tacticsNtB2_13TacticLibrary10get_tactic
FN:78,_RNvMNtNtCsdG3rhVUllIu_5ruchy7proving7tacticsNtB2_13TacticLibrary11all_tactics
FN:90,_RNvMNtNtCsdG3rhVUllIu_5ruchy7proving7tacticsNtB2_13TacticLibrary15suggest_tactics
FN:113,_RNvMNtNtCsdG3rhVUllIu_5ruchy7proving7tacticsNtB2_13TacticLibrary20calculate_confidence
FN:56,_RNvMNtNtCsdG3rhVUllIu_5ruchy7proving7tacticsNtB2_13TacticLibrary7default
FN:156,_RNvXs0_NtNtCsdG3rhVUllIu_5ruchy7proving7tacticsNtB5_11SplitTacticNtB5_6Tactic11description
FN:167,_RNvXs0_NtNtCsdG3rhVUllIu_5ruchy7proving7tacticsNtB5_11SplitTacticNtB5_6Tactic13is_applicable
FN:154,_RNvXs0_NtNtCsdG3rhVUllIu_5ruchy7proving7tacticsNtB5_11SplitTacticNtB5_6Tactic4name
FN:158,_RNvXs0_NtNtCsdG3rhVUllIu_5ruchy7proving7tacticsNtB5_11SplitTacticNtB5_6Tactic5apply
FN:178,_RNvXs1_NtNtCsdG3rhVUllIu_5ruchy7proving7tacticsNtB5_15InductionTacticNtB5_6Tactic11description
FN:195,_RNvXs1_NtNtCsdG3rhVUllIu_5ruchy7proving7tacticsNtB5_15InductionTacticNtB5_6Tactic13is_applicable
FN:176,_RNvXs1_NtNtCsdG3rhVUllIu_5ruchy7proving7tacticsNtB5_15InductionTacticNtB5_6Tactic4name
FN:180,_RNvXs1_NtNtCsdG3rhVUllIu_5ruchy7proving7tacticsNtB5_15InductionTacticNtB5_6Tactic5apply
FN:206,_RNvXs2_NtNtCsdG3rhVUllIu_5ruchy7proving7tacticsNtB5_19ContradictionTacticNtB5_6Tactic11description
FN:221,_RNvXs2_NtNtCsdG3rhVUllIu_5ruchy7proving7tacticsNtB5_19ContradictionTacticNtB5_6Tactic13is_applicable
FN:204,_RNvXs2_NtNtCsdG3rhVUllIu_5ruchy7proving7tacticsNtB5_19ContradictionTacticNtB5_6Tactic4name
FN:208,_RNvXs2_NtNtCsdG3rhVUllIu_5ruchy7proving7tacticsNtB5_19ContradictionTacticNtB5_6Tactic5apply
FN:232,_RNvXs3_NtNtCsdG3rhVUllIu_5ruchy7proving7tacticsNtB5_17ReflexivityTacticNtB5_6Tactic11description
FN:244,_RNvXs3_NtNtCsdG3rhVUllIu_5ruchy7proving7tacticsNtB5_17ReflexivityTacticNtB5_6Tactic13is_applicable
FN:230,_RNvXs3_NtNtCsdG3rhVUllIu_5ruchy7proving7tacticsNtB5_17ReflexivityTacticNtB5_6Tactic4name
FN:234,_RNvXs3_NtNtCsdG3rhVUllIu_5ruchy7proving7tacticsNtB5_17ReflexivityTacticNtB5_6Tactic5apply
FN:255,_RNvXs4_NtNtCsdG3rhVUllIu_5ruchy7proving7tacticsNtB5_14SimplifyTacticNtB5_6Tactic11description
FN:275,_RNvXs4_NtNtCsdG3rhVUllIu_5ruchy7proving7tacticsNtB5_14SimplifyTacticNtB5_6Tactic13is_applicable
FN:253,_RNvXs4_NtNtCsdG3rhVUllIu_5ruchy7proving7tacticsNtB5_14SimplifyTacticNtB5_6Tactic4name
FN:257,_RNvXs4_NtNtCsdG3rhVUllIu_5ruchy7proving7tacticsNtB5_14SimplifyTacticNtB5_6Tactic5apply
FN:286,_RNvXs5_NtNtCsdG3rhVUllIu_5ruchy7proving7tacticsNtB5_12UnfoldTacticNtB5_6Tactic11description
FN:302,_RNvXs5_NtNtCsdG3rhVUllIu_5ruchy7proving7tacticsNtB5_12UnfoldTacticNtB5_6Tactic13is_applicable
FN:284,_RNvXs5_NtNtCsdG3rhVUllIu_5ruchy7proving7tacticsNtB5_12UnfoldTacticNtB5_6Tactic4name
FN:288,_RNvXs5_NtNtCsdG3rhVUllIu_5ruchy7proving7tacticsNtB5_12UnfoldTacticNtB5_6Tactic5apply
FN:313,_RNvXs6_NtNtCsdG3rhVUllIu_5ruchy7proving7tacticsNtB5_13RewriteTacticNtB5_6Tactic11description
FN:338,_RNvXs6_NtNtCsdG3rhVUllIu_5ruchy7proving7tacticsNtB5_13RewriteTacticNtB5_6Tactic13is_applicable
FN:311,_RNvXs6_NtNtCsdG3rhVUllIu_5ruchy7proving7tacticsNtB5_13RewriteTacticNtB5_6Tactic4name
FN:315,_RNvXs6_NtNtCsdG3rhVUllIu_5ruchy7proving7tacticsNtB5_13RewriteTacticNtB5_6Tactic5apply
FN:349,_RNvXs7_NtNtCsdG3rhVUllIu_5ruchy7proving7tacticsNtB5_11ApplyTacticNtB5_6Tactic11description
FN:360,_RNvXs7_NtNtCsdG3rhVUllIu_5ruchy7proving7tacticsNtB5_11ApplyTacticNtB5_6Tactic13is_applicable
FN:347,_RNvXs7_NtNtCsdG3rhVUllIu_5ruchy7proving7tacticsNtB5_11ApplyTacticNtB5_6Tactic4name
FN:351,_RNvXs7_NtNtCsdG3rhVUllIu_5ruchy7proving7tacticsNtB5_11ApplyTacticNtB5_6Tactic5apply
FN:371,_RNvXs8_NtNtCsdG3rhVUllIu_5ruchy7proving7tacticsNtB5_16AssumptionTacticNtB5_6Tactic11description
FN:381,_RNvXs8_NtNtCsdG3rhVUllIu_5ruchy7proving7tacticsNtB5_16AssumptionTacticNtB5_6Tactic13is_applicable
FN:369,_RNvXs8_NtNtCsdG3rhVUllIu_5ruchy7proving7tacticsNtB5_16AssumptionTacticNtB5_6Tactic4name
FN:373,_RNvXs8_NtNtCsdG3rhVUllIu_5ruchy7proving7tacticsNtB5_16AssumptionTacticNtB5_6Tactic5apply
FN:133,_RNvXs_NtNtCsdG3rhVUllIu_5ruchy7proving7tacticsNtB4_11IntroTacticNtB4_6Tactic11description
FN:145,_RNvXs_NtNtCsdG3rhVUllIu_5ruchy7proving7tacticsNtB4_11IntroTacticNtB4_6Tactic13is_applicable
FN:131,_RNvXs_NtNtCsdG3rhVUllIu_5ruchy7proving7tacticsNtB4_11IntroTacticNtB4_6Tactic4name
FN:135,_RNvXs_NtNtCsdG3rhVUllIu_5ruchy7proving7tacticsNtB4_11IntroTacticNtB4_6Tactic5apply
FN:107,_RNCNvMNtNtCsdG3rhVUllIu_5ruchy7proving7tacticsNtB4_13TacticLibrary15suggest_tactics0B8_
FN:161,_RNCNvXs0_NtNtCsdG3rhVUllIu_5ruchy7proving7tacticsNtB7_11SplitTacticNtB7_6Tactic5apply0Bb_
FNDA:0,_RNCNvMNtNtCsdG3rhVUllIu_5ruchy7proving7tacticsNtB4_13TacticLibrary10get_tactic0B8_
FNDA:0,_RNCNvXs6_NtNtCsdG3rhVUllIu_5ruchy7proving7tacticsNtB7_13RewriteTacticNtB7_6Tactic13is_applicable0Bb_
FNDA:0,_RNvMNtNtCsdG3rhVUllIu_5ruchy7proving7tacticsNtB2_13TacticLibrary10get_tactic
FNDA:0,_RNvMNtNtCsdG3rhVUllIu_5ruchy7proving7tacticsNtB2_13TacticLibrary11all_tactics
FNDA:0,_RNvMNtNtCsdG3rhVUllIu_5ruchy7proving7tacticsNtB2_13TacticLibrary15suggest_tactics
FNDA:0,_RNvMNtNtCsdG3rhVUllIu_5ruchy7proving7tacticsNtB2_13TacticLibrary20calculate_confidence
FNDA:0,_RNvMNtNtCsdG3rhVUllIu_5ruchy7proving7tacticsNtB2_13TacticLibrary7default
FNDA:0,_RNvXs0_NtNtCsdG3rhVUllIu_5ruchy7proving7tacticsNtB5_11SplitTacticNtB5_6Tactic11description
FNDA:0,_RNvXs0_NtNtCsdG3rhVUllIu_5ruchy7proving7tacticsNtB5_11SplitTacticNtB5_6Tactic13is_applicable
FNDA:0,_RNvXs0_NtNtCsdG3rhVUllIu_5ruchy7proving7tacticsNtB5_11SplitTacticNtB5_6Tactic4name
FNDA:0,_RNvXs0_NtNtCsdG3rhVUllIu_5ruchy7proving7tacticsNtB5_11SplitTacticNtB5_6Tactic5apply
FNDA:0,_RNvXs1_NtNtCsdG3rhVUllIu_5ruchy7proving7tacticsNtB5_15InductionTacticNtB5_6Tactic11description
FNDA:0,_RNvXs1_NtNtCsdG3rhVUllIu_5ruchy7proving7tacticsNtB5_15InductionTacticNtB5_6Tactic13is_applicable
FNDA:0,_RNvXs1_NtNtCsdG3rhVUllIu_5ruchy7proving7tacticsNtB5_15InductionTacticNtB5_6Tactic4name
FNDA:0,_RNvXs1_NtNtCsdG3rhVUllIu_5ruchy7proving7tacticsNtB5_15InductionTacticNtB5_6Tactic5apply
FNDA:0,_RNvXs2_NtNtCsdG3rhVUllIu_5ruchy7proving7tacticsNtB5_19ContradictionTacticNtB5_6Tactic11description
FNDA:0,_RNvXs2_NtNtCsdG3rhVUllIu_5ruchy7proving7tacticsNtB5_19ContradictionTacticNtB5_6Tactic13is_applicable
FNDA:0,_RNvXs2_NtNtCsdG3rhVUllIu_5ruchy7proving7tacticsNtB5_19ContradictionTacticNtB5_6Tactic4name
FNDA:0,_RNvXs2_NtNtCsdG3rhVUllIu_5ruchy7proving7tacticsNtB5_19ContradictionTacticNtB5_6Tactic5apply
FNDA:0,_RNvXs3_NtNtCsdG3rhVUllIu_5ruchy7proving7tacticsNtB5_17ReflexivityTacticNtB5_6Tactic11description
FNDA:0,_RNvXs3_NtNtCsdG3rhVUllIu_5ruchy7proving7tacticsNtB5_17ReflexivityTacticNtB5_6Tactic13is_applicable
FNDA:0,_RNvXs3_NtNtCsdG3rhVUllIu_5ruchy7proving7tacticsNtB5_17ReflexivityTacticNtB5_6Tactic4name
FNDA:0,_RNvXs3_NtNtCsdG3rhVUllIu_5ruchy7proving7tacticsNtB5_17ReflexivityTacticNtB5_6Tactic5apply
FNDA:0,_RNvXs4_NtNtCsdG3rhVUllIu_5ruchy7proving7tacticsNtB5_14SimplifyTacticNtB5_6Tactic11description
FNDA:0,_RNvXs4_NtNtCsdG3rhVUllIu_5ruchy7proving7tacticsNtB5_14SimplifyTacticNtB5_6Tactic13is_applicable
FNDA:0,_RNvXs4_NtNtCsdG3rhVUllIu_5ruchy7proving7tacticsNtB5_14SimplifyTacticNtB5_6Tactic4name
FNDA:0,_RNvXs4_NtNtCsdG3rhVUllIu_5ruchy7proving7tacticsNtB5_14SimplifyTacticNtB5_6Tactic5apply
FNDA:0,_RNvXs5_NtNtCsdG3rhVUllIu_5ruchy7proving7tacticsNtB5_12UnfoldTacticNtB5_6Tactic11description
FNDA:0,_RNvXs5_NtNtCsdG3rhVUllIu_5ruchy7proving7tacticsNtB5_12UnfoldTacticNtB5_6Tactic13is_applicable
FNDA:0,_RNvXs5_NtNtCsdG3rhVUllIu_5ruchy7proving7tacticsNtB5_12UnfoldTacticNtB5_6Tactic4name
FNDA:0,_RNvXs5_NtNtCsdG3rhVUllIu_5ruchy7proving7tacticsNtB5_12UnfoldTacticNtB5_6Tactic5apply
FNDA:0,_RNvXs6_NtNtCsdG3rhVUllIu_5ruchy7proving7tacticsNtB5_13RewriteTacticNtB5_6Tactic11description
FNDA:0,_RNvXs6_NtNtCsdG3rhVUllIu_5ruchy7proving7tacticsNtB5_13RewriteTacticNtB5_6Tactic13is_applicable
FNDA:0,_RNvXs6_NtNtCsdG3rhVUllIu_5ruchy7proving7tacticsNtB5_13RewriteTacticNtB5_6Tactic4name
FNDA:0,_RNvXs6_NtNtCsdG3rhVUllIu_5ruchy7proving7tacticsNtB5_13RewriteTacticNtB5_6Tactic5apply
FNDA:0,_RNvXs7_NtNtCsdG3rhVUllIu_5ruchy7proving7tacticsNtB5_11ApplyTacticNtB5_6Tactic11description
FNDA:0,_RNvXs7_NtNtCsdG3rhVUllIu_5ruchy7proving7tacticsNtB5_11ApplyTacticNtB5_6Tactic13is_applicable
FNDA:0,_RNvXs7_NtNtCsdG3rhVUllIu_5ruchy7proving7tacticsNtB5_11ApplyTacticNtB5_6Tactic4name
FNDA:0,_RNvXs7_NtNtCsdG3rhVUllIu_5ruchy7proving7tacticsNtB5_11ApplyTacticNtB5_6Tactic5apply
FNDA:0,_RNvXs8_NtNtCsdG3rhVUllIu_5ruchy7proving7tacticsNtB5_16AssumptionTacticNtB5_6Tactic11description
FNDA:0,_RNvXs8_NtNtCsdG3rhVUllIu_5ruchy7proving7tacticsNtB5_16AssumptionTacticNtB5_6Tactic13is_applicable
FNDA:0,_RNvXs8_NtNtCsdG3rhVUllIu_5ruchy7proving7tacticsNtB5_16AssumptionTacticNtB5_6Tactic4name
FNDA:0,_RNvXs8_NtNtCsdG3rhVUllIu_5ruchy7proving7tacticsNtB5_16AssumptionTacticNtB5_6Tactic5apply
FNDA:0,_RNvXs_NtNtCsdG3rhVUllIu_5ruchy7proving7tacticsNtB4_11IntroTacticNtB4_6Tactic11description
FNDA:0,_RNvXs_NtNtCsdG3rhVUllIu_5ruchy7proving7tacticsNtB4_11IntroTacticNtB4_6Tactic13is_applicable
FNDA:0,_RNvXs_NtNtCsdG3rhVUllIu_5ruchy7proving7tacticsNtB4_11IntroTacticNtB4_6Tactic4name
FNDA:0,_RNvXs_NtNtCsdG3rhVUllIu_5ruchy7proving7tacticsNtB4_11IntroTacticNtB4_6Tactic5apply
FNDA:0,_RNCNvMNtNtCsdG3rhVUllIu_5ruchy7proving7tacticsNtB4_13TacticLibrary15suggest_tactics0B8_
FNDA:0,_RNCNvXs0_NtNtCsdG3rhVUllIu_5ruchy7proving7tacticsNtB7_11SplitTacticNtB7_6Tactic5apply0Bb_
FNF:49
FNH:0
DA:56,0
DA:57,0
DA:60,0
DA:61,0
DA:62,0
DA:63,0
DA:64,0
DA:65,0
DA:66,0
DA:67,0
DA:68,0
DA:69,0
DA:71,0
DA:72,0
DA:73,0
DA:74,0
DA:75,0
DA:78,0
DA:79,0
DA:80,0
DA:83,0
DA:84,0
DA:85,0
DA:86,0
DA:87,0
DA:90,0
DA:91,0
DA:94,0
DA:95,0
DA:96,0
DA:97,0
DA:98,0
DA:99,0
DA:100,0
DA:101,0
DA:102,0
DA:103,0
DA:107,0
DA:109,0
DA:110,0
DA:113,0
DA:115,0
DA:116,0
DA:117,0
DA:118,0
DA:119,0
DA:120,0
DA:122,0
DA:131,0
DA:133,0
DA:135,0
DA:136,0
DA:137,0
DA:138,0
DA:139,0
DA:140,0
DA:141,0
DA:142,0
DA:143,0
DA:145,0
DA:146,0
DA:147,0
DA:154,0
DA:156,0
DA:158,0
DA:159,0
DA:160,0
DA:161,0
DA:162,0
DA:163,0
DA:164,0
DA:165,0
DA:167,0
DA:168,0
DA:169,0
DA:176,0
DA:178,0
DA:180,0
DA:181,0
DA:182,0
DA:183,0
DA:185,0
DA:186,0
DA:187,0
DA:188,0
DA:189,0
DA:190,0
DA:191,0
DA:192,0
DA:193,0
DA:195,0
DA:196,0
DA:197,0
DA:204,0
DA:206,0
DA:208,0
DA:210,0
DA:211,0
DA:212,0
DA:213,0
DA:214,0
DA:215,0
DA:216,0
DA:218,0
DA:219,0
DA:221,0
DA:222,0
DA:223,0
DA:230,0
DA:232,0
DA:234,0
DA:235,0
DA:236,0
DA:237,0
DA:238,0
DA:239,0
DA:240,0
DA:241,0
DA:242,0
DA:244,0
DA:245,0
DA:246,0
DA:253,0
DA:255,0
DA:257,0
DA:258,0
DA:261,0
DA:262,0
DA:263,0
DA:264,0
DA:265,0
DA:266,0
DA:268,0
DA:269,0
DA:271,0
DA:273,0
DA:275,0
DA:276,0
DA:277,0
DA:284,0
DA:286,0
DA:288,0
DA:289,0
DA:290,0
DA:291,0
DA:293,0
DA:294,0
DA:295,0
DA:296,0
DA:298,0
DA:300,0
DA:302,0
DA:303,0
DA:304,0
DA:311,0
DA:313,0
DA:315,0
DA:316,0
DA:317,0
DA:318,0
DA:321,0
DA:322,0
DA:323,0
DA:324,0
DA:325,0
DA:326,0
DA:327,0
DA:328,0
DA:329,0
DA:330,0
DA:331,0
DA:332,0
DA:335,0
DA:336,0
DA:338,0
DA:339,0
DA:340,0
DA:347,0
DA:349,0
DA:351,0
DA:352,0
DA:353,0
DA:354,0
DA:357,0
DA:358,0
DA:360,0
DA:361,0
DA:362,0
DA:369,0
DA:371,0
DA:373,0
DA:374,0
DA:375,0
DA:377,0
DA:379,0
DA:381,0
DA:382,0
DA:383,0
BRF:0
BRH:0
LF:202
LH:0
end_of_record
SF:/home/noah/src/ruchy/src/proving/verification.rs
FN:332,_RNvNtNtCsdG3rhVUllIu_5ruchy7proving12verification23verify_assertions_batch
FN:159,_RNvNtNtCsdG3rhVUllIu_5ruchy7proving12verification23verify_single_assertion
FN:104,_RNvNtNtCsdG3rhVUllIu_5ruchy7proving12verification24expr_to_assertion_string
FN:19,_RNvNtNtCsdG3rhVUllIu_5ruchy7proving12verification27extract_assertions_from_ast
FN:257,_RNvNtNtCsdG3rhVUllIu_5ruchy7proving12verification27verify_conditional_property
FN:55,_RNvNtNtCsdG3rhVUllIu_5ruchy7proving12verification28extract_assertions_recursive
FN:283,_RNvNtNtCsdG3rhVUllIu_5ruchy7proving12verification31verify_universal_quantification
FN:305,_RNvNtNtCsdG3rhVUllIu_5ruchy7proving12verification33verify_existential_quantification
FN:34,_RNvNtNtCsdG3rhVUllIu_5ruchy7proving12verification34extract_assert_sequence_from_block
FN:334,_RNCNvNtNtCsdG3rhVUllIu_5ruchy7proving12verification23verify_assertions_batch0B7_
FNDA:0,_RNvNtNtCsdG3rhVUllIu_5ruchy7proving12verification23verify_assertions_batch
FNDA:0,_RNvNtNtCsdG3rhVUllIu_5ruchy7proving12verification23verify_single_assertion
FNDA:0,_RNvNtNtCsdG3rhVUllIu_5ruchy7proving12verification24expr_to_assertion_string
FNDA:0,_RNvNtNtCsdG3rhVUllIu_5ruchy7proving12verification27extract_assertions_from_ast
FNDA:0,_RNvNtNtCsdG3rhVUllIu_5ruchy7proving12verification27verify_conditional_property
FNDA:0,_RNvNtNtCsdG3rhVUllIu_5ruchy7proving12verification28extract_assertions_recursive
FNDA:0,_RNvNtNtCsdG3rhVUllIu_5ruchy7proving12verification31verify_universal_quantification
FNDA:0,_RNvNtNtCsdG3rhVUllIu_5ruchy7proving12verification33verify_existential_quantification
FNDA:0,_RNvNtNtCsdG3rhVUllIu_5ruchy7proving12verification34extract_assert_sequence_from_block
FNDA:0,_RNCNvNtNtCsdG3rhVUllIu_5ruchy7proving12verification23verify_assertions_batch0B7_
FNF:10
FNH:0
DA:19,0
DA:20,0
DA:23,0
DA:24,0
DA:25,0
DA:26,0
DA:27,0
DA:29,0
DA:30,0
DA:34,0
DA:35,0
DA:36,0
DA:38,0
DA:39,0
DA:41,0
DA:42,0
DA:43,0
DA:44,0
DA:45,0
DA:46,0
DA:47,0
DA:50,0
DA:51,0
DA:53,0
DA:55,0
DA:56,0
DA:57,0
DA:59,0
DA:60,0
DA:61,0
DA:62,0
DA:63,0
DA:64,0
DA:65,0
DA:68,0
DA:69,0
DA:70,0
DA:71,0
DA:73,0
DA:74,0
DA:75,0
DA:76,0
DA:78,0
DA:79,0
DA:80,0
DA:81,0
DA:82,0
DA:83,0
DA:84,0
DA:85,0
DA:86,0
DA:87,0
DA:89,0
DA:90,0
DA:91,0
DA:92,0
DA:93,0
DA:95,0
DA:96,0
DA:97,0
DA:98,0
DA:99,0
DA:100,0
DA:102,0
DA:104,0
DA:105,0
DA:106,0
DA:107,0
DA:108,0
DA:109,0
DA:110,0
DA:111,0
DA:113,0
DA:114,0
DA:115,0
DA:116,0
DA:117,0
DA:118,0
DA:119,0
DA:120,0
DA:121,0
DA:122,0
DA:123,0
DA:124,0
DA:125,0
DA:126,0
DA:128,0
DA:129,0
DA:131,0
DA:134,0
DA:135,0
DA:136,0
DA:137,0
DA:138,0
DA:139,0
DA:140,0
DA:142,0
DA:143,0
DA:144,0
DA:145,0
DA:146,0
DA:147,0
DA:148,0
DA:149,0
DA:151,0
DA:154,0
DA:156,0
DA:159,0
DA:160,0
DA:162,0
DA:164,0
DA:165,0
DA:166,0
DA:167,0
DA:168,0
DA:169,0
DA:170,0
DA:173,0
DA:174,0
DA:176,0
DA:177,0
DA:179,0
DA:181,0
DA:182,0
DA:186,0
DA:187,0
DA:188,0
DA:189,0
DA:190,0
DA:191,0
DA:192,0
DA:195,0
DA:196,0
DA:198,0
DA:199,0
DA:201,0
DA:203,0
DA:204,0
DA:208,0
DA:209,0
DA:210,0
DA:211,0
DA:212,0
DA:213,0
DA:214,0
DA:217,0
DA:219,0
DA:220,0
DA:221,0
DA:222,0
DA:223,0
DA:224,0
DA:225,0
DA:229,0
DA:231,0
DA:235,0
DA:236,0
DA:240,0
DA:241,0
DA:245,0
DA:246,0
DA:247,0
DA:248,0
DA:249,0
DA:250,0
DA:251,0
DA:254,0
DA:255,0
DA:257,0
DA:259,0
DA:261,0
DA:262,0
DA:263,0
DA:264,0
DA:265,0
DA:266,0
DA:267,0
DA:270,0
DA:272,0
DA:273,0
DA:275,0
DA:277,0
DA:278,0
DA:281,0
DA:283,0
DA:285,0
DA:287,0
DA:288,0
DA:289,0
DA:290,0
DA:291,0
DA:292,0
DA:293,0
DA:295,0
DA:296,0
DA:297,0
DA:298,0
DA:299,0
DA:300,0
DA:301,0
DA:303,0
DA:305,0
DA:307,0
DA:310,0
DA:312,0
DA:313,0
DA:315,0
DA:317,0
DA:318,0
DA:321,0
DA:322,0
DA:323,0
DA:324,0
DA:325,0
DA:326,0
DA:327,0
DA:329,0
DA:332,0
DA:333,0
DA:334,0
DA:335,0
DA:336,0
BRF:0
BRH:0
LF:223
LH:0
end_of_record
SF:/home/noah/src/ruchy/src/quality/coverage.rs
FN:153,_RINvMs1_NtNtCsdG3rhVUllIu_5ruchy7quality8coverageNtB6_17CoverageCollector15with_source_dirpEBa_
FN:276,_RNCNvMs1_NtNtCsdG3rhVUllIu_5ruchy7quality8coverageNtB7_17CoverageCollector12is_available0Bb_
FN:286,_RNCNvMs1_NtNtCsdG3rhVUllIu_5ruchy7quality8coverageNtB7_17CoverageCollector12is_availables0_0Bb_
FN:281,_RNCNvMs1_NtNtCsdG3rhVUllIu_5ruchy7quality8coverageNtB7_17CoverageCollector12is_availables_0Bb_
FN:24,_RNvMNtNtCsdG3rhVUllIu_5ruchy7quality8coverageNtB2_12FileCoverage24line_coverage_percentage
FN:33,_RNvMNtNtCsdG3rhVUllIu_5ruchy7quality8coverageNtB2_12FileCoverage26branch_coverage_percentage
FN:42,_RNvMNtNtCsdG3rhVUllIu_5ruchy7quality8coverageNtB2_12FileCoverage28function_coverage_percentage
FN:207,_RNvMs1_NtNtCsdG3rhVUllIu_5ruchy7quality8coverageNtB5_17CoverageCollector12collect_llvm
FN:271,_RNvMs1_NtNtCsdG3rhVUllIu_5ruchy7quality8coverageNtB5_17CoverageCollector12is_available
FN:228,_RNvMs1_NtNtCsdG3rhVUllIu_5ruchy7quality8coverageNtB5_17CoverageCollector13collect_grcov
FN:184,_RNvMs1_NtNtCsdG3rhVUllIu_5ruchy7quality8coverageNtB5_17CoverageCollector17collect_tarpaulin
FN:249,_RNvMs1_NtNtCsdG3rhVUllIu_5ruchy7quality8coverageNtB5_17CoverageCollector20parse_tarpaulin_json
FN:135,_RNvMs1_NtNtCsdG3rhVUllIu_5ruchy7quality8coverageNtB5_17CoverageCollector3new
FN:176,_RNvMs1_NtNtCsdG3rhVUllIu_5ruchy7quality8coverageNtB5_17CoverageCollector7collect
FN:321,_RNvMs2_NtNtCsdG3rhVUllIu_5ruchy7quality8coverageNtB5_19HtmlReportGenerator13generate_html
FN:384,_RNvMs2_NtNtCsdG3rhVUllIu_5ruchy7quality8coverageNtB5_19HtmlReportGenerator14coverage_class
FN:309,_RNvMs2_NtNtCsdG3rhVUllIu_5ruchy7quality8coverageNtB5_19HtmlReportGenerator8generate
FN:77,_RNvMs_NtNtCsdG3rhVUllIu_5ruchy7quality8coverageNtB4_14CoverageReport24line_coverage_percentage
FN:86,_RNvMs_NtNtCsdG3rhVUllIu_5ruchy7quality8coverageNtB4_14CoverageReport26branch_coverage_percentage
FN:95,_RNvMs_NtNtCsdG3rhVUllIu_5ruchy7quality8coverageNtB4_14CoverageReport28function_coverage_percentage
FN:64,_RNvMs_NtNtCsdG3rhVUllIu_5ruchy7quality8coverageNtB4_14CoverageReport3new
FN:103,_RNvMs_NtNtCsdG3rhVUllIu_5ruchy7quality8coverageNtB4_14CoverageReport8add_file
FN:116,_RNvXs0_NtNtCsdG3rhVUllIu_5ruchy7quality8coverageNtB5_14CoverageReportNtNtCs66KPHxksi63_4core7default7Default7default
FN:298,_RINvMs2_NtNtCsdG3rhVUllIu_5ruchy7quality8coverageNtB6_19HtmlReportGenerator3newRNtNtCs8Ty2CzGA6U3_5alloc6string6StringEBa_
FN:298,_RINvMs2_NtNtCsdG3rhVUllIu_5ruchy7quality8coverageNtB6_19HtmlReportGenerator3newReEBa_
FNDA:0,_RINvMs1_NtNtCsdG3rhVUllIu_5ruchy7quality8coverageNtB6_17CoverageCollector15with_source_dirpEBa_
FNDA:0,_RNCNvMs1_NtNtCsdG3rhVUllIu_5ruchy7quality8coverageNtB7_17CoverageCollector12is_available0Bb_
FNDA:0,_RNCNvMs1_NtNtCsdG3rhVUllIu_5ruchy7quality8coverageNtB7_17CoverageCollector12is_availables0_0Bb_
FNDA:0,_RNCNvMs1_NtNtCsdG3rhVUllIu_5ruchy7quality8coverageNtB7_17CoverageCollector12is_availables_0Bb_
FNDA:0,_RNvMNtNtCsdG3rhVUllIu_5ruchy7quality8coverageNtB2_12FileCoverage24line_coverage_percentage
FNDA:0,_RNvMNtNtCsdG3rhVUllIu_5ruchy7quality8coverageNtB2_12FileCoverage26branch_coverage_percentage
FNDA:0,_RNvMNtNtCsdG3rhVUllIu_5ruchy7quality8coverageNtB2_12FileCoverage28function_coverage_percentage
FNDA:0,_RNvMs1_NtNtCsdG3rhVUllIu_5ruchy7quality8coverageNtB5_17CoverageCollector12collect_llvm
FNDA:0,_RNvMs1_NtNtCsdG3rhVUllIu_5ruchy7quality8coverageNtB5_17CoverageCollector12is_available
FNDA:0,_RNvMs1_NtNtCsdG3rhVUllIu_5ruchy7quality8coverageNtB5_17CoverageCollector13collect_grcov
FNDA:0,_RNvMs1_NtNtCsdG3rhVUllIu_5ruchy7quality8coverageNtB5_17CoverageCollector17collect_tarpaulin
FNDA:0,_RNvMs1_NtNtCsdG3rhVUllIu_5ruchy7quality8coverageNtB5_17CoverageCollector20parse_tarpaulin_json
FNDA:0,_RNvMs1_NtNtCsdG3rhVUllIu_5ruchy7quality8coverageNtB5_17CoverageCollector3new
FNDA:0,_RNvMs1_NtNtCsdG3rhVUllIu_5ruchy7quality8coverageNtB5_17CoverageCollector7collect
FNDA:0,_RNvMs2_NtNtCsdG3rhVUllIu_5ruchy7quality8coverageNtB5_19HtmlReportGenerator13generate_html
FNDA:0,_RNvMs2_NtNtCsdG3rhVUllIu_5ruchy7quality8coverageNtB5_19HtmlReportGenerator14coverage_class
FNDA:0,_RNvMs2_NtNtCsdG3rhVUllIu_5ruchy7quality8coverageNtB5_19HtmlReportGenerator8generate
FNDA:0,_RNvMs_NtNtCsdG3rhVUllIu_5ruchy7quality8coverageNtB4_14CoverageReport24line_coverage_percentage
FNDA:0,_RNvMs_NtNtCsdG3rhVUllIu_5ruchy7quality8coverageNtB4_14CoverageReport26branch_coverage_percentage
FNDA:0,_RNvMs_NtNtCsdG3rhVUllIu_5ruchy7quality8coverageNtB4_14CoverageReport28function_coverage_percentage
FNDA:0,_RNvMs_NtNtCsdG3rhVUllIu_5ruchy7quality8coverageNtB4_14CoverageReport3new
FNDA:0,_RNvMs_NtNtCsdG3rhVUllIu_5ruchy7quality8coverageNtB4_14CoverageReport8add_file
FNDA:0,_RNvXs0_NtNtCsdG3rhVUllIu_5ruchy7quality8coverageNtB5_14CoverageReportNtNtCs66KPHxksi63_4core7default7Default7default
FNDA:0,_RINvMs2_NtNtCsdG3rhVUllIu_5ruchy7quality8coverageNtB6_19HtmlReportGenerator3newRNtNtCs8Ty2CzGA6U3_5alloc6string6StringEBa_
FNDA:0,_RINvMs2_NtNtCsdG3rhVUllIu_5ruchy7quality8coverageNtB6_19HtmlReportGenerator3newReEBa_
FNF:24
FNH:0
DA:24,0
DA:25,0
DA:26,0
DA:28,0
DA:30,0
DA:33,0
DA:34,0
DA:35,0
DA:37,0
DA:39,0
DA:42,0
DA:43,0
DA:44,0
DA:46,0
DA:48,0
DA:64,0
DA:65,0
DA:66,0
DA:67,0
DA:68,0
DA:69,0
DA:70,0
DA:71,0
DA:72,0
DA:73,0
DA:74,0
DA:77,0
DA:78,0
DA:79,0
DA:81,0
DA:83,0
DA:86,0
DA:87,0
DA:88,0
DA:90,0
DA:92,0
DA:95,0
DA:96,0
DA:97,0
DA:99,0
DA:101,0
DA:103,0
DA:104,0
DA:105,0
DA:106,0
DA:107,0
DA:108,0
DA:109,0
DA:111,0
DA:112,0
DA:116,0
DA:117,0
DA:118,0
DA:135,0
DA:136,0
DA:137,0
DA:138,0
DA:139,0
DA:140,0
DA:153,0
DA:154,0
DA:155,0
DA:156,0
DA:176,0
DA:177,0
DA:178,0
DA:179,0
DA:180,0
DA:182,0
DA:184,0
DA:186,0
DA:187,0
DA:188,0
DA:189,0
DA:190,0
DA:191,0
DA:192,0
DA:193,0
DA:194,0
DA:195,0
DA:197,0
DA:198,0
DA:199,0
DA:200,0
DA:202,0
DA:203,0
DA:204,0
DA:207,0
DA:210,0
DA:213,0
DA:214,0
DA:215,0
DA:216,0
DA:217,0
DA:218,0
DA:219,0
DA:220,0
DA:221,0
DA:223,0
DA:224,0
DA:225,0
DA:228,0
DA:231,0
DA:234,0
DA:235,0
DA:236,0
DA:237,0
DA:238,0
DA:239,0
DA:240,0
DA:241,0
DA:242,0
DA:244,0
DA:245,0
DA:246,0
DA:249,0
DA:252,0
DA:256,0
DA:257,0
DA:258,0
DA:259,0
DA:260,0
DA:261,0
DA:262,0
DA:263,0
DA:264,0
DA:266,0
DA:267,0
DA:268,0
DA:271,0
DA:272,0
DA:273,0
DA:274,0
DA:275,0
DA:276,0
DA:277,0
DA:278,0
DA:279,0
DA:280,0
DA:281,0
DA:282,0
DA:283,0
DA:284,0
DA:285,0
DA:286,0
DA:287,0
DA:289,0
DA:298,0
DA:299,0
DA:300,0
DA:301,0
DA:302,0
DA:309,0
DA:310,0
DA:312,0
DA:313,0
DA:315,0
DA:317,0
DA:318,0
DA:319,0
DA:321,0
DA:322,0
DA:324,0
DA:325,0
DA:326,0
DA:327,0
DA:328,0
DA:329,0
DA:330,0
DA:331,0
DA:332,0
DA:333,0
DA:334,0
DA:335,0
DA:337,0
DA:340,0
DA:341,0
DA:342,0
DA:343,0
DA:344,0
DA:345,0
DA:346,0
DA:347,0
DA:350,0
DA:351,0
DA:352,0
DA:353,0
DA:354,0
DA:355,0
DA:358,0
DA:359,0
DA:362,0
DA:363,0
DA:364,0
DA:366,0
DA:367,0
DA:368,0
DA:369,0
DA:371,0
DA:372,0
DA:373,0
DA:374,0
DA:375,0
DA:378,0
DA:379,0
DA:381,0
DA:382,0
DA:384,0
DA:385,0
DA:386,0
DA:387,0
DA:388,0
DA:390,0
DA:392,0
BRF:0
BRH:0
LF:217
LH:0
end_of_record
SF:/home/noah/src/ruchy/src/quality/enforcement.rs
FN:156,_RNCNvNtNtCsdG3rhVUllIu_5ruchy7quality11enforcement17process_directory0B7_
FN:223,_RNCNvNtNtCsdG3rhVUllIu_5ruchy7quality11enforcement19print_junit_results0B7_
FN:71,_RNCNvNtNtCsdG3rhVUllIu_5ruchy7quality11enforcement21enforce_quality_gates0B7_
FN:114,_RNvNtNtCsdG3rhVUllIu_5ruchy7quality11enforcement12process_file
FN:83,_RNvNtNtCsdG3rhVUllIu_5ruchy7quality11enforcement17find_project_root
FN:140,_RNvNtNtCsdG3rhVUllIu_5ruchy7quality11enforcement17process_directory
FN:104,_RNvNtNtCsdG3rhVUllIu_5ruchy7quality11enforcement18apply_ci_overrides
FN:215,_RNvNtNtCsdG3rhVUllIu_5ruchy7quality11enforcement18print_json_results
FN:221,_RNvNtNtCsdG3rhVUllIu_5ruchy7quality11enforcement19print_junit_results
FN:9,_RNvNtNtCsdG3rhVUllIu_5ruchy7quality11enforcement21enforce_quality_gates
FN:182,_RNvNtNtCsdG3rhVUllIu_5ruchy7quality11enforcement21print_console_results
FNDA:0,_RNCNvNtNtCsdG3rhVUllIu_5ruchy7quality11enforcement17process_directory0B7_
FNDA:0,_RNCNvNtNtCsdG3rhVUllIu_5ruchy7quality11enforcement19print_junit_results0B7_
FNDA:0,_RNCNvNtNtCsdG3rhVUllIu_5ruchy7quality11enforcement21enforce_quality_gates0B7_
FNDA:0,_RNvNtNtCsdG3rhVUllIu_5ruchy7quality11enforcement12process_file
FNDA:0,_RNvNtNtCsdG3rhVUllIu_5ruchy7quality11enforcement17find_project_root
FNDA:0,_RNvNtNtCsdG3rhVUllIu_5ruchy7quality11enforcement17process_directory
FNDA:0,_RNvNtNtCsdG3rhVUllIu_5ruchy7quality11enforcement18apply_ci_overrides
FNDA:0,_RNvNtNtCsdG3rhVUllIu_5ruchy7quality11enforcement18print_json_results
FNDA:0,_RNvNtNtCsdG3rhVUllIu_5ruchy7quality11enforcement19print_junit_results
FNDA:0,_RNvNtNtCsdG3rhVUllIu_5ruchy7quality11enforcement21enforce_quality_gates
FNDA:0,_RNvNtNtCsdG3rhVUllIu_5ruchy7quality11enforcement21print_console_results
FNF:11
FNH:0
DA:9,0
DA:10,0
DA:11,0
DA:12,0
DA:13,0
DA:14,0
DA:15,0
DA:16,0
DA:17,0
DA:18,0
DA:20,0
DA:21,0
DA:22,0
DA:24,0
DA:28,0
DA:29,0
DA:30,0
DA:32,0
DA:35,0
DA:36,0
DA:37,0
DA:38,0
DA:39,0
DA:43,0
DA:45,0
DA:46,0
DA:47,0
DA:48,0
DA:49,0
DA:50,0
DA:52,0
DA:56,0
DA:57,0
DA:58,0
DA:59,0
DA:60,0
DA:64,0
DA:65,0
DA:66,0
DA:67,0
DA:68,0
DA:71,0
DA:73,0
DA:74,0
DA:75,0
DA:76,0
DA:77,0
DA:78,0
DA:80,0
DA:81,0
DA:83,0
DA:84,0
DA:85,0
DA:87,0
DA:91,0
DA:92,0
DA:93,0
DA:95,0
DA:96,0
DA:97,0
DA:99,0
DA:102,0
DA:104,0
DA:106,0
DA:107,0
DA:108,0
DA:109,0
DA:110,0
DA:111,0
DA:112,0
DA:114,0
DA:115,0
DA:116,0
DA:117,0
DA:118,0
DA:119,0
DA:120,0
DA:121,0
DA:122,0
DA:125,0
DA:126,0
DA:127,0
DA:130,0
DA:131,0
DA:132,0
DA:135,0
DA:137,0
DA:138,0
DA:140,0
DA:141,0
DA:142,0
DA:143,0
DA:144,0
DA:145,0
DA:146,0
DA:149,0
DA:152,0
DA:153,0
DA:154,0
DA:156,0
DA:157,0
DA:158,0
DA:159,0
DA:160,0
DA:161,0
DA:162,0
DA:163,0
DA:165,0
DA:166,0
DA:167,0
DA:168,0
DA:169,0
DA:172,0
DA:174,0
DA:175,0
DA:176,0
DA:179,0
DA:180,0
DA:182,0
DA:183,0
DA:184,0
DA:185,0
DA:186,0
DA:188,0
DA:189,0
DA:190,0
DA:191,0
DA:192,0
DA:193,0
DA:194,0
DA:195,0
DA:197,0
DA:199,0
DA:200,0
DA:201,0
DA:202,0
DA:203,0
DA:204,0
DA:207,0
DA:208,0
DA:210,0
DA:212,0
DA:213,0
DA:215,0
DA:216,0
DA:217,0
DA:218,0
DA:219,0
DA:221,0
DA:222,0
DA:223,0
DA:225,0
DA:226,0
DA:228,0
DA:229,0
DA:230,0
DA:231,0
DA:232,0
DA:233,0
DA:234,0
DA:235,0
DA:236,0
DA:237,0
DA:240,0
DA:241,0
DA:242,0
BRF:0
BRH:0
LF:169
LH:0
end_of_record
SF:/home/noah/src/ruchy/src/quality/formatter.rs
FN:34,_RNvMNtNtCsdG3rhVUllIu_5ruchy7quality9formatterNtB2_9Formatter11format_expr
FN:27,_RNvMNtNtCsdG3rhVUllIu_5ruchy7quality9formatterNtB2_9Formatter11format_type
FN:14,_RNvMNtNtCsdG3rhVUllIu_5ruchy7quality9formatterNtB2_9Formatter3new
FN:22,_RNvMNtNtCsdG3rhVUllIu_5ruchy7quality9formatterNtB2_9Formatter6format
FN:123,_RNvXs_NtNtCsdG3rhVUllIu_5ruchy7quality9formatterNtB4_9FormatterNtNtCs66KPHxksi63_4core7default7Default7default
FNDA:0,_RNvMNtNtCsdG3rhVUllIu_5ruchy7quality9formatterNtB2_9Formatter11format_expr
FNDA:0,_RNvMNtNtCsdG3rhVUllIu_5ruchy7quality9formatterNtB2_9Formatter11format_type
FNDA:0,_RNvMNtNtCsdG3rhVUllIu_5ruchy7quality9formatterNtB2_9Formatter3new
FNDA:0,_RNvMNtNtCsdG3rhVUllIu_5ruchy7quality9formatterNtB2_9Formatter6format
FNDA:0,_RNvXs_NtNtCsdG3rhVUllIu_5ruchy7quality9formatterNtB4_9FormatterNtNtCs66KPHxksi63_4core7default7Default7default
FNF:5
FNH:0
DA:14,0
DA:15,0
DA:16,0
DA:17,0
DA:18,0
DA:19,0
DA:20,0
DA:22,0
DA:24,0
DA:25,0
DA:27,0
DA:28,0
DA:29,0
DA:30,0
DA:32,0
DA:34,0
DA:35,0
DA:36,0
DA:38,0
DA:41,0
DA:42,0
DA:43,0
DA:44,0
DA:45,0
DA:46,0
DA:47,0
DA:48,0
DA:50,0
DA:51,0
DA:52,0
DA:53,0
DA:55,0
DA:56,0
DA:59,0
DA:60,0
DA:61,0
DA:62,0
DA:64,0
DA:67,0
DA:68,0
DA:69,0
DA:70,0
DA:71,0
DA:72,0
DA:73,0
DA:74,0
DA:75,0
DA:76,0
DA:77,0
DA:79,0
DA:80,0
DA:83,0
DA:84,0
DA:85,0
DA:86,0
DA:87,0
DA:88,0
DA:89,0
DA:90,0
DA:92,0
DA:95,0
DA:96,0
DA:97,0
DA:98,0
DA:100,0
DA:101,0
DA:102,0
DA:104,0
DA:105,0
DA:106,0
DA:107,0
DA:108,0
DA:109,0
DA:110,0
DA:111,0
DA:112,0
DA:113,0
DA:116,0
DA:119,0
DA:123,0
DA:124,0
DA:125,0
BRF:0
BRH:0
LF:82
LH:0
end_of_record
SF:/home/noah/src/ruchy/src/quality/gates.rs
FN:286,_RNCNvMs_NtNtCsdG3rhVUllIu_5ruchy7quality5gatesNtB6_19QualityGateEnforcer13enforce_gates0Ba_
FN:441,_RNCNvMs_NtNtCsdG3rhVUllIu_5ruchy7quality5gatesNtB6_19QualityGateEnforcer20export_junit_results0Ba_
FN:401,_RNCNvMs_NtNtCsdG3rhVUllIu_5ruchy7quality5gatesNtB6_19QualityGateEnforcer23check_anti_gaming_rules0Ba_
FN:213,_RNvMs_NtNtCsdG3rhVUllIu_5ruchy7quality5gatesNtB4_19QualityGateEnforcer11load_config
FN:231,_RNvMs_NtNtCsdG3rhVUllIu_5ruchy7quality5gatesNtB4_19QualityGateEnforcer13enforce_gates
FN:418,_RNvMs_NtNtCsdG3rhVUllIu_5ruchy7quality5gatesNtB4_19QualityGateEnforcer17export_ci_results
FN:430,_RNvMs_NtNtCsdG3rhVUllIu_5ruchy7quality5gatesNtB4_19QualityGateEnforcer19export_json_results
FN:437,_RNvMs_NtNtCsdG3rhVUllIu_5ruchy7quality5gatesNtB4_19QualityGateEnforcer20export_junit_results
FN:372,_RNvMs_NtNtCsdG3rhVUllIu_5ruchy7quality5gatesNtB4_19QualityGateEnforcer23check_anti_gaming_rules
FN:298,_RNvMs_NtNtCsdG3rhVUllIu_5ruchy7quality5gatesNtB4_19QualityGateEnforcer26check_component_thresholds
FN:208,_RNvMs_NtNtCsdG3rhVUllIu_5ruchy7quality5gatesNtB4_19QualityGateEnforcer3new
FN:170,_RNvXNtNtCsdG3rhVUllIu_5ruchy7quality5gatesNtB2_17QualityGateConfigNtNtCs66KPHxksi63_4core7default7Default7default
FN:474,_RNvXs0_NtNtCsdG3rhVUllIu_5ruchy7quality5gatesNtNtB7_7scoring5GradeNtNtCs66KPHxksi63_4core3cmp10PartialOrd11partial_cmp
FN:480,_RNvXs1_NtNtCsdG3rhVUllIu_5ruchy7quality5gatesNtNtB7_7scoring5GradeNtNtCs66KPHxksi63_4core3cmp3Ord3cmp
FNDA:0,_RNCNvMs_NtNtCsdG3rhVUllIu_5ruchy7quality5gatesNtB6_19QualityGateEnforcer13enforce_gates0Ba_
FNDA:0,_RNCNvMs_NtNtCsdG3rhVUllIu_5ruchy7quality5gatesNtB6_19QualityGateEnforcer20export_junit_results0Ba_
FNDA:0,_RNCNvMs_NtNtCsdG3rhVUllIu_5ruchy7quality5gatesNtB6_19QualityGateEnforcer23check_anti_gaming_rules0Ba_
FNDA:0,_RNvMs_NtNtCsdG3rhVUllIu_5ruchy7quality5gatesNtB4_19QualityGateEnforcer11load_config
FNDA:0,_RNvMs_NtNtCsdG3rhVUllIu_5ruchy7quality5gatesNtB4_19QualityGateEnforcer13enforce_gates
FNDA:0,_RNvMs_NtNtCsdG3rhVUllIu_5ruchy7quality5gatesNtB4_19QualityGateEnforcer17export_ci_results
FNDA:0,_RNvMs_NtNtCsdG3rhVUllIu_5ruchy7quality5gatesNtB4_19QualityGateEnforcer19export_json_results
FNDA:0,_RNvMs_NtNtCsdG3rhVUllIu_5ruchy7quality5gatesNtB4_19QualityGateEnforcer20export_junit_results
FNDA:0,_RNvMs_NtNtCsdG3rhVUllIu_5ruchy7quality5gatesNtB4_19QualityGateEnforcer23check_anti_gaming_rules
FNDA:0,_RNvMs_NtNtCsdG3rhVUllIu_5ruchy7quality5gatesNtB4_19QualityGateEnforcer26check_component_thresholds
FNDA:0,_RNvMs_NtNtCsdG3rhVUllIu_5ruchy7quality5gatesNtB4_19QualityGateEnforcer3new
FNDA:0,_RNvXNtNtCsdG3rhVUllIu_5ruchy7quality5gatesNtB2_17QualityGateConfigNtNtCs66KPHxksi63_4core7default7Default7default
FNDA:0,_RNvXs0_NtNtCsdG3rhVUllIu_5ruchy7quality5gatesNtNtB7_7scoring5GradeNtNtCs66KPHxksi63_4core3cmp10PartialOrd11partial_cmp
FNDA:0,_RNvXs1_NtNtCsdG3rhVUllIu_5ruchy7quality5gatesNtNtB7_7scoring5GradeNtNtCs66KPHxksi63_4core3cmp3Ord3cmp
FNF:14
FNH:0
DA:170,0
DA:171,0
DA:172,0
DA:173,0
DA:174,0
DA:175,0
DA:176,0
DA:177,0
DA:178,0
DA:179,0
DA:180,0
DA:181,0
DA:182,0
DA:183,0
DA:184,0
DA:185,0
DA:186,0
DA:187,0
DA:188,0
DA:189,0
DA:190,0
DA:191,0
DA:192,0
DA:193,0
DA:194,0
DA:195,0
DA:196,0
DA:197,0
DA:198,0
DA:199,0
DA:200,0
DA:201,0
DA:202,0
DA:203,0
DA:204,0
DA:208,0
DA:209,0
DA:210,0
DA:213,0
DA:214,0
DA:216,0
DA:217,0
DA:218,0
DA:219,0
DA:222,0
DA:223,0
DA:224,0
DA:225,0
DA:226,0
DA:228,0
DA:231,0
DA:232,0
DA:233,0
DA:236,0
DA:237,0
DA:238,0
DA:239,0
DA:240,0
DA:241,0
DA:242,0
DA:243,0
DA:244,0
DA:245,0
DA:246,0
DA:247,0
DA:248,0
DA:251,0
DA:252,0
DA:253,0
DA:254,0
DA:255,0
DA:256,0
DA:257,0
DA:258,0
DA:259,0
DA:260,0
DA:261,0
DA:262,0
DA:263,0
DA:266,0
DA:269,0
DA:272,0
DA:273,0
DA:274,0
DA:275,0
DA:276,0
DA:277,0
DA:278,0
DA:279,0
DA:280,0
DA:281,0
DA:282,0
DA:283,0
DA:284,0
DA:286,0
DA:288,0
DA:289,0
DA:290,0
DA:291,0
DA:292,0
DA:293,0
DA:294,0
DA:295,0
DA:296,0
DA:298,0
DA:299,0
DA:301,0
DA:302,0
DA:303,0
DA:304,0
DA:305,0
DA:306,0
DA:307,0
DA:308,0
DA:309,0
DA:310,0
DA:311,0
DA:312,0
DA:313,0
DA:315,0
DA:316,0
DA:317,0
DA:318,0
DA:319,0
DA:320,0
DA:321,0
DA:322,0
DA:323,0
DA:324,0
DA:325,0
DA:326,0
DA:327,0
DA:329,0
DA:330,0
DA:331,0
DA:332,0
DA:333,0
DA:334,0
DA:335,0
DA:336,0
DA:337,0
DA:338,0
DA:339,0
DA:340,0
DA:341,0
DA:343,0
DA:344,0
DA:345,0
DA:346,0
DA:347,0
DA:348,0
DA:349,0
DA:350,0
DA:351,0
DA:352,0
DA:353,0
DA:354,0
DA:355,0
DA:357,0
DA:358,0
DA:359,0
DA:360,0
DA:361,0
DA:362,0
DA:363,0
DA:364,0
DA:365,0
DA:366,0
DA:367,0
DA:368,0
DA:369,0
DA:370,0
DA:372,0
DA:373,0
DA:374,0
DA:375,0
DA:376,0
DA:377,0
DA:378,0
DA:380,0
DA:381,0
DA:382,0
DA:383,0
DA:384,0
DA:385,0
DA:388,0
DA:389,0
DA:390,0
DA:391,0
DA:392,0
DA:393,0
DA:394,0
DA:395,0
DA:396,0
DA:397,0
DA:400,0
DA:401,0
DA:402,0
DA:403,0
DA:404,0
DA:405,0
DA:406,0
DA:407,0
DA:408,0
DA:409,0
DA:410,0
DA:411,0
DA:412,0
DA:413,0
DA:414,0
DA:415,0
DA:418,0
DA:419,0
DA:420,0
DA:421,0
DA:423,0
DA:424,0
DA:425,0
DA:427,0
DA:428,0
DA:430,0
DA:431,0
DA:432,0
DA:433,0
DA:434,0
DA:435,0
DA:437,0
DA:438,0
DA:440,0
DA:441,0
DA:443,0
DA:444,0
DA:445,0
DA:447,0
DA:448,0
DA:449,0
DA:450,0
DA:451,0
DA:452,0
DA:453,0
DA:454,0
DA:455,0
DA:456,0
DA:457,0
DA:458,0
DA:459,0
DA:460,0
DA:461,0
DA:462,0
DA:463,0
DA:464,0
DA:467,0
DA:468,0
DA:469,0
DA:470,0
DA:474,0
DA:475,0
DA:476,0
DA:480,0
DA:484,0
DA:485,0
DA:486,0
DA:487,0
DA:488,0
DA:489,0
DA:490,0
DA:491,0
DA:492,0
DA:493,0
DA:494,0
DA:495,0
DA:498,0
DA:499,0
DA:500,0
DA:501,0
DA:502,0
DA:503,0
DA:504,0
DA:505,0
DA:506,0
DA:507,0
DA:508,0
DA:509,0
DA:512,0
DA:513,0
BRF:0
BRH:0
LF:288
LH:0
end_of_record
SF:/home/noah/src/ruchy/src/quality/instrumentation.rs
FN:53,_RNvMNtNtCsdG3rhVUllIu_5ruchy7quality15instrumentationNtB2_23CoverageInstrumentation18get_executed_lines
FN:28,_RNvMNtNtCsdG3rhVUllIu_5ruchy7quality15instrumentationNtB2_23CoverageInstrumentation18mark_line_executed
FN:44,_RNvMNtNtCsdG3rhVUllIu_5ruchy7quality15instrumentationNtB2_23CoverageInstrumentation20mark_branch_executed
FN:63,_RNvMNtNtCsdG3rhVUllIu_5ruchy7quality15instrumentationNtB2_23CoverageInstrumentation21get_executed_branches
FN:58,_RNvMNtNtCsdG3rhVUllIu_5ruchy7quality15instrumentationNtB2_23CoverageInstrumentation22get_executed_functions
FN:36,_RNvMNtNtCsdG3rhVUllIu_5ruchy7quality15instrumentationNtB2_23CoverageInstrumentation22mark_function_executed
FN:19,_RNvMNtNtCsdG3rhVUllIu_5ruchy7quality15instrumentationNtB2_23CoverageInstrumentation3new
FN:68,_RNvMNtNtCsdG3rhVUllIu_5ruchy7quality15instrumentationNtB2_23CoverageInstrumentation5merge
FN:102,_RNvNtNtCsdG3rhVUllIu_5ruchy7quality15instrumentation17instrument_source
FN:147,_RNvNtNtCsdG3rhVUllIu_5ruchy7quality15instrumentation18is_executable_line
FN:178,_RNvNtNtCsdG3rhVUllIu_5ruchy7quality15instrumentation21extract_function_name
FN:96,_RNvXs_NtNtCsdG3rhVUllIu_5ruchy7quality15instrumentationNtB4_23CoverageInstrumentationNtNtCs66KPHxksi63_4core7default7Default7default
FNDA:0,_RNvMNtNtCsdG3rhVUllIu_5ruchy7quality15instrumentationNtB2_23CoverageInstrumentation18get_executed_lines
FNDA:0,_RNvMNtNtCsdG3rhVUllIu_5ruchy7quality15instrumentationNtB2_23CoverageInstrumentation18mark_line_executed
FNDA:0,_RNvMNtNtCsdG3rhVUllIu_5ruchy7quality15instrumentationNtB2_23CoverageInstrumentation20mark_branch_executed
FNDA:0,_RNvMNtNtCsdG3rhVUllIu_5ruchy7quality15instrumentationNtB2_23CoverageInstrumentation21get_executed_branches
FNDA:0,_RNvMNtNtCsdG3rhVUllIu_5ruchy7quality15instrumentationNtB2_23CoverageInstrumentation22get_executed_functions
FNDA:0,_RNvMNtNtCsdG3rhVUllIu_5ruchy7quality15instrumentationNtB2_23CoverageInstrumentation22mark_function_executed
FNDA:0,_RNvMNtNtCsdG3rhVUllIu_5ruchy7quality15instrumentationNtB2_23CoverageInstrumentation3new
FNDA:0,_RNvMNtNtCsdG3rhVUllIu_5ruchy7quality15instrumentationNtB2_23CoverageInstrumentation5merge
FNDA:0,_RNvNtNtCsdG3rhVUllIu_5ruchy7quality15instrumentation17instrument_source
FNDA:0,_RNvNtNtCsdG3rhVUllIu_5ruchy7quality15instrumentation18is_executable_line
FNDA:0,_RNvNtNtCsdG3rhVUllIu_5ruchy7quality15instrumentation21extract_function_name
FNDA:0,_RNvXs_NtNtCsdG3rhVUllIu_5ruchy7quality15instrumentationNtB4_23CoverageInstrumentationNtNtCs66KPHxksi63_4core7default7Default7default
FNF:12
FNH:0
DA:19,0
DA:20,0
DA:21,0
DA:22,0
DA:23,0
DA:24,0
DA:25,0
DA:28,0
DA:29,0
DA:30,0
DA:31,0
DA:32,0
DA:33,0
DA:36,0
DA:37,0
DA:38,0
DA:39,0
DA:40,0
DA:41,0
DA:44,0
DA:45,0
DA:46,0
DA:47,0
DA:48,0
DA:49,0
DA:50,0
DA:53,0
DA:54,0
DA:55,0
DA:58,0
DA:59,0
DA:60,0
DA:63,0
DA:64,0
DA:65,0
DA:68,0
DA:70,0
DA:71,0
DA:72,0
DA:73,0
DA:74,0
DA:78,0
DA:79,0
DA:80,0
DA:81,0
DA:82,0
DA:86,0
DA:87,0
DA:88,0
DA:89,0
DA:90,0
DA:92,0
DA:96,0
DA:97,0
DA:98,0
DA:102,0
DA:103,0
DA:104,0
DA:107,0
DA:108,0
DA:109,0
DA:110,0
DA:112,0
DA:113,0
DA:114,0
DA:117,0
DA:118,0
DA:119,0
DA:120,0
DA:121,0
DA:124,0
DA:125,0
DA:126,0
DA:127,0
DA:128,0
DA:131,0
DA:132,0
DA:133,0
DA:134,0
DA:135,0
DA:136,0
DA:139,0
DA:140,0
DA:143,0
DA:144,0
DA:147,0
DA:148,0
DA:151,0
DA:152,0
DA:153,0
DA:154,0
DA:155,0
DA:156,0
DA:159,0
DA:160,0
DA:161,0
DA:162,0
DA:163,0
DA:164,0
DA:165,0
DA:166,0
DA:167,0
DA:168,0
DA:171,0
DA:172,0
DA:173,0
DA:174,0
DA:175,0
DA:178,0
DA:179,0
DA:180,0
DA:181,0
DA:183,0
DA:185,0
BRF:0
BRH:0
LF:114
LH:0
end_of_record
SF:/home/noah/src/ruchy/src/quality/linter.rs
FN:607,_RNCNvMs_NtNtCsdG3rhVUllIu_5ruchy7quality6linterNtB6_6Linter20calculate_complexitys_0Ba_
FN:94,_RNCNvMNtNtCsdG3rhVUllIu_5ruchy7quality6linterNtB4_5Scope10is_defined0B8_
FN:98,_RNCNvMNtNtCsdG3rhVUllIu_5ruchy7quality6linterNtB4_5Scope12is_shadowing0B8_
FN:195,_RNCNvMs_NtNtCsdG3rhVUllIu_5ruchy7quality6linterNtB6_6Linter12analyze_expr0Ba_
FN:227,_RNCNvMs_NtNtCsdG3rhVUllIu_5ruchy7quality6linterNtB6_6Linter12analyze_exprs_0Ba_
FN:602,_RNCNvMs_NtNtCsdG3rhVUllIu_5ruchy7quality6linterNtB6_6Linter20calculate_complexity0Ba_
FN:534,_RNCNvMs_NtNtCsdG3rhVUllIu_5ruchy7quality6linterNtB6_6Linter21check_unused_in_scope0Ba_
FN:548,_RNCNvMs_NtNtCsdG3rhVUllIu_5ruchy7quality6linterNtB6_6Linter21check_unused_in_scopes0_0Ba_
FN:555,_RNCNvMs_NtNtCsdG3rhVUllIu_5ruchy7quality6linterNtB6_6Linter21check_unused_in_scopes1_0Ba_
FN:541,_RNCNvMs_NtNtCsdG3rhVUllIu_5ruchy7quality6linterNtB6_6Linter21check_unused_in_scopes_0Ba_
FN:162,_RNCNvMs_NtNtCsdG3rhVUllIu_5ruchy7quality6linterNtB6_6Linter4lint0Ba_
FN:92,_RNvMNtNtCsdG3rhVUllIu_5ruchy7quality6linterNtB2_5Scope10is_defined
FN:66,_RNvMNtNtCsdG3rhVUllIu_5ruchy7quality6linterNtB2_5Scope11with_parent
FN:97,_RNvMNtNtCsdG3rhVUllIu_5ruchy7quality6linterNtB2_5Scope12is_shadowing
FN:59,_RNvMNtNtCsdG3rhVUllIu_5ruchy7quality6linterNtB2_5Scope3new
FN:73,_RNvMNtNtCsdG3rhVUllIu_5ruchy7quality6linterNtB2_5Scope6define
FN:81,_RNvMNtNtCsdG3rhVUllIu_5ruchy7quality6linterNtB2_5Scope9mark_used
FN:185,_RNvMs_NtNtCsdG3rhVUllIu_5ruchy7quality6linterNtB4_6Linter12analyze_expr
FN:147,_RNvMs_NtNtCsdG3rhVUllIu_5ruchy7quality6linterNtB4_6Linter15set_strict_mode
FN:598,_RNvMs_NtNtCsdG3rhVUllIu_5ruchy7quality6linterNtB4_6Linter20calculate_complexity
FN:529,_RNvMs_NtNtCsdG3rhVUllIu_5ruchy7quality6linterNtB4_6Linter21check_unused_in_scope
FN:430,_RNvMs_NtNtCsdG3rhVUllIu_5ruchy7quality6linterNtB4_6Linter21extract_loop_bindings
FN:462,_RNvMs_NtNtCsdG3rhVUllIu_5ruchy7quality6linterNtB4_6Linter22extract_param_bindings
FN:494,_RNvMs_NtNtCsdG3rhVUllIu_5ruchy7quality6linterNtB4_6Linter24extract_pattern_bindings
FN:109,_RNvMs_NtNtCsdG3rhVUllIu_5ruchy7quality6linterNtB4_6Linter3new
FN:151,_RNvMs_NtNtCsdG3rhVUllIu_5ruchy7quality6linterNtB4_6Linter4lint
FN:584,_RNvMs_NtNtCsdG3rhVUllIu_5ruchy7quality6linterNtB4_6Linter8auto_fix
FN:126,_RNvMs_NtNtCsdG3rhVUllIu_5ruchy7quality6linterNtB4_6Linter9set_rules
FN:615,_RNvXs0_NtNtCsdG3rhVUllIu_5ruchy7quality6linterNtB5_6LinterNtNtCs66KPHxksi63_4core7default7Default7default
FNDA:0,_RNCNvMs_NtNtCsdG3rhVUllIu_5ruchy7quality6linterNtB6_6Linter20calculate_complexitys_0Ba_
FNDA:0,_RNCNvMNtNtCsdG3rhVUllIu_5ruchy7quality6linterNtB4_5Scope10is_defined0B8_
FNDA:0,_RNCNvMNtNtCsdG3rhVUllIu_5ruchy7quality6linterNtB4_5Scope12is_shadowing0B8_
FNDA:0,_RNCNvMs_NtNtCsdG3rhVUllIu_5ruchy7quality6linterNtB6_6Linter12analyze_expr0Ba_
FNDA:0,_RNCNvMs_NtNtCsdG3rhVUllIu_5ruchy7quality6linterNtB6_6Linter12analyze_exprs_0Ba_
FNDA:0,_RNCNvMs_NtNtCsdG3rhVUllIu_5ruchy7quality6linterNtB6_6Linter20calculate_complexity0Ba_
FNDA:0,_RNCNvMs_NtNtCsdG3rhVUllIu_5ruchy7quality6linterNtB6_6Linter21check_unused_in_scope0Ba_
FNDA:0,_RNCNvMs_NtNtCsdG3rhVUllIu_5ruchy7quality6linterNtB6_6Linter21check_unused_in_scopes0_0Ba_
FNDA:0,_RNCNvMs_NtNtCsdG3rhVUllIu_5ruchy7quality6linterNtB6_6Linter21check_unused_in_scopes1_0Ba_
FNDA:0,_RNCNvMs_NtNtCsdG3rhVUllIu_5ruchy7quality6linterNtB6_6Linter21check_unused_in_scopes_0Ba_
FNDA:0,_RNCNvMs_NtNtCsdG3rhVUllIu_5ruchy7quality6linterNtB6_6Linter4lint0Ba_
FNDA:0,_RNvMNtNtCsdG3rhVUllIu_5ruchy7quality6linterNtB2_5Scope10is_defined
FNDA:0,_RNvMNtNtCsdG3rhVUllIu_5ruchy7quality6linterNtB2_5Scope11with_parent
FNDA:0,_RNvMNtNtCsdG3rhVUllIu_5ruchy7quality6linterNtB2_5Scope12is_shadowing
FNDA:0,_RNvMNtNtCsdG3rhVUllIu_5ruchy7quality6linterNtB2_5Scope3new
FNDA:0,_RNvMNtNtCsdG3rhVUllIu_5ruchy7quality6linterNtB2_5Scope6define
FNDA:0,_RNvMNtNtCsdG3rhVUllIu_5ruchy7quality6linterNtB2_5Scope9mark_used
FNDA:0,_RNvMs_NtNtCsdG3rhVUllIu_5ruchy7quality6linterNtB4_6Linter12analyze_expr
FNDA:0,_RNvMs_NtNtCsdG3rhVUllIu_5ruchy7quality6linterNtB4_6Linter15set_strict_mode
FNDA:0,_RNvMs_NtNtCsdG3rhVUllIu_5ruchy7quality6linterNtB4_6Linter20calculate_complexity
FNDA:0,_RNvMs_NtNtCsdG3rhVUllIu_5ruchy7quality6linterNtB4_6Linter21check_unused_in_scope
FNDA:0,_RNvMs_NtNtCsdG3rhVUllIu_5ruchy7quality6linterNtB4_6Linter21extract_loop_bindings
FNDA:0,_RNvMs_NtNtCsdG3rhVUllIu_5ruchy7quality6linterNtB4_6Linter22extract_param_bindings
FNDA:0,_RNvMs_NtNtCsdG3rhVUllIu_5ruchy7quality6linterNtB4_6Linter24extract_pattern_bindings
FNDA:0,_RNvMs_NtNtCsdG3rhVUllIu_5ruchy7quality6linterNtB4_6Linter3new
FNDA:0,_RNvMs_NtNtCsdG3rhVUllIu_5ruchy7quality6linterNtB4_6Linter4lint
FNDA:0,_RNvMs_NtNtCsdG3rhVUllIu_5ruchy7quality6linterNtB4_6Linter8auto_fix
FNDA:0,_RNvMs_NtNtCsdG3rhVUllIu_5ruchy7quality6linterNtB4_6Linter9set_rules
FNDA:0,_RNvXs0_NtNtCsdG3rhVUllIu_5ruchy7quality6linterNtB5_6LinterNtNtCs66KPHxksi63_4core7default7Default7default
FNF:29
FNH:0
DA:59,0
DA:60,0
DA:61,0
DA:62,0
DA:63,0
DA:64,0
DA:66,0
DA:67,0
DA:68,0
DA:69,0
DA:70,0
DA:71,0
DA:73,0
DA:74,0
DA:75,0
DA:76,0
DA:77,0
DA:78,0
DA:79,0
DA:81,0
DA:82,0
DA:83,0
DA:84,0
DA:85,0
DA:86,0
DA:88,0
DA:90,0
DA:92,0
DA:93,0
DA:94,0
DA:95,0
DA:97,0
DA:98,0
DA:99,0
DA:109,0
DA:110,0
DA:111,0
DA:112,0
DA:113,0
DA:114,0
DA:115,0
DA:116,0
DA:117,0
DA:118,0
DA:119,0
DA:120,0
DA:121,0
DA:122,0
DA:123,0
DA:124,0
DA:126,0
DA:127,0
DA:128,0
DA:129,0
DA:130,0
DA:131,0
DA:132,0
DA:133,0
DA:134,0
DA:135,0
DA:136,0
DA:137,0
DA:138,0
DA:139,0
DA:140,0
DA:141,0
DA:142,0
DA:145,0
DA:147,0
DA:148,0
DA:149,0
DA:151,0
DA:152,0
DA:153,0
DA:156,0
DA:159,0
DA:162,0
DA:163,0
DA:164,0
DA:167,0
DA:168,0
DA:169,0
DA:170,0
DA:171,0
DA:172,0
DA:174,0
DA:177,0
DA:179,0
DA:180,0
DA:182,0
DA:183,0
DA:185,0
DA:186,0
DA:187,0
DA:189,0
DA:192,0
DA:195,0
DA:196,0
DA:197,0
DA:198,0
DA:199,0
DA:200,0
DA:201,0
DA:202,0
DA:203,0
DA:204,0
DA:205,0
DA:206,0
DA:207,0
DA:210,0
DA:213,0
DA:216,0
DA:219,0
DA:221,0
DA:222,0
DA:223,0
DA:226,0
DA:227,0
DA:228,0
DA:229,0
DA:230,0
DA:231,0
DA:232,0
DA:233,0
DA:234,0
DA:235,0
DA:236,0
DA:237,0
DA:238,0
DA:241,0
DA:243,0
DA:246,0
DA:249,0
DA:250,0
DA:251,0
DA:254,0
DA:258,0
DA:259,0
DA:260,0
DA:261,0
DA:262,0
DA:263,0
DA:264,0
DA:265,0
DA:266,0
DA:267,0
DA:268,0
DA:269,0
DA:270,0
DA:274,0
DA:276,0
DA:279,0
DA:280,0
DA:281,0
DA:282,0
DA:283,0
DA:284,0
DA:287,0
DA:290,0
DA:293,0
DA:296,0
DA:298,0
DA:301,0
DA:302,0
DA:305,0
DA:308,0
DA:309,0
DA:310,0
DA:313,0
DA:316,0
DA:320,0
DA:321,0
DA:324,0
DA:325,0
DA:328,0
DA:329,0
DA:330,0
DA:331,0
DA:334,0
DA:336,0
DA:337,0
DA:338,0
DA:341,0
DA:342,0
DA:343,0
DA:344,0
DA:346,0
DA:347,0
DA:348,0
DA:349,0
DA:350,0
DA:353,0
DA:354,0
DA:355,0
DA:356,0
DA:357,0
DA:360,0
DA:362,0
DA:363,0
DA:364,0
DA:365,0
DA:366,0
DA:367,0
DA:368,0
DA:369,0
DA:370,0
DA:371,0
DA:372,0
DA:377,0
DA:379,0
DA:382,0
DA:383,0
DA:384,0
DA:387,0
DA:390,0
DA:393,0
DA:394,0
DA:395,0
DA:396,0
DA:399,0
DA:400,0
DA:401,0
DA:402,0
DA:405,0
DA:406,0
DA:407,0
DA:409,0
DA:410,0
DA:411,0
DA:412,0
DA:414,0
DA:415,0
DA:416,0
DA:417,0
DA:419,0
DA:420,0
DA:421,0
DA:422,0
DA:424,0
DA:425,0
DA:426,0
DA:428,0
DA:430,0
DA:431,0
DA:432,0
DA:434,0
DA:435,0
DA:436,0
DA:438,0
DA:439,0
DA:440,0
DA:441,0
DA:443,0
DA:444,0
DA:445,0
DA:446,0
DA:447,0
DA:448,0
DA:449,0
DA:450,0
DA:453,0
DA:454,0
DA:455,0
DA:456,0
DA:458,0
DA:460,0
DA:462,0
DA:463,0
DA:464,0
DA:466,0
DA:467,0
DA:468,0
DA:470,0
DA:471,0
DA:472,0
DA:473,0
DA:475,0
DA:476,0
DA:477,0
DA:478,0
DA:479,0
DA:480,0
DA:481,0
DA:482,0
DA:485,0
DA:486,0
DA:487,0
DA:488,0
DA:490,0
DA:492,0
DA:494,0
DA:495,0
DA:496,0
DA:498,0
DA:499,0
DA:500,0
DA:502,0
DA:503,0
DA:504,0
DA:505,0
DA:507,0
DA:508,0
DA:509,0
DA:510,0
DA:511,0
DA:512,0
DA:513,0
DA:514,0
DA:517,0
DA:518,0
DA:519,0
DA:520,0
DA:522,0
DA:523,0
DA:524,0
DA:525,0
DA:527,0
DA:529,0
DA:530,0
DA:531,0
DA:532,0
DA:534,0
DA:535,0
DA:537,0
DA:541,0
DA:542,0
DA:544,0
DA:548,0
DA:549,0
DA:551,0
DA:555,0
DA:556,0
DA:558,0
DA:563,0
DA:564,0
DA:565,0
DA:566,0
DA:567,0
DA:568,0
DA:569,0
DA:570,0
DA:571,0
DA:572,0
DA:573,0
DA:574,0
DA:577,0
DA:578,0
DA:580,0
DA:582,0
DA:584,0
DA:586,0
DA:588,0
DA:589,0
DA:590,0
DA:591,0
DA:592,0
DA:595,0
DA:596,0
DA:598,0
DA:599,0
DA:600,0
DA:601,0
DA:602,0
DA:604,0
DA:605,0
DA:606,0
DA:607,0
DA:609,0
DA:611,0
DA:615,0
DA:616,0
DA:617,0
BRF:0
BRH:0
LF:383
LH:0
end_of_record
SF:/home/noah/src/ruchy/src/quality/mod.rs
FN:211,_RNCNvMs_NtCsdG3rhVUllIu_5ruchy7qualityNtB6_12QualityGates17estimate_coverage0B8_
FN:217,_RNCNvMs_NtCsdG3rhVUllIu_5ruchy7qualityNtB6_12QualityGates17estimate_coverages_0B8_
FN:330,_RNvMs0_NtCsdG3rhVUllIu_5ruchy7qualityNtB5_17CiQualityEnforcer10run_checks
FN:365,_RNvMs0_NtCsdG3rhVUllIu_5ruchy7qualityNtB5_17CiQualityEnforcer14publish_report
FN:305,_RNvMs0_NtCsdG3rhVUllIu_5ruchy7qualityNtB5_17CiQualityEnforcer3new
FN:252,_RNvMs_NtCsdG3rhVUllIu_5ruchy7qualityNtB4_12QualityGates11get_metrics
FN:256,_RNvMs_NtCsdG3rhVUllIu_5ruchy7qualityNtB4_12QualityGates14get_thresholds
FN:88,_RNvMs_NtCsdG3rhVUllIu_5ruchy7qualityNtB4_12QualityGates14update_metrics
FN:145,_RNvMs_NtCsdG3rhVUllIu_5ruchy7qualityNtB4_12QualityGates15collect_metrics
FN:81,_RNvMs_NtCsdG3rhVUllIu_5ruchy7qualityNtB4_12QualityGates15with_thresholds
FN:175,_RNvMs_NtCsdG3rhVUllIu_5ruchy7qualityNtB4_12QualityGates16collect_coverage
FN:204,_RNvMs_NtCsdG3rhVUllIu_5ruchy7qualityNtB4_12QualityGates17estimate_coverage
FN:226,_RNvMs_NtCsdG3rhVUllIu_5ruchy7qualityNtB4_12QualityGates19count_satd_comments
FN:265,_RNvMs_NtCsdG3rhVUllIu_5ruchy7qualityNtB4_12QualityGates24generate_coverage_report
FN:74,_RNvMs_NtCsdG3rhVUllIu_5ruchy7qualityNtB4_12QualityGates3new
FN:97,_RNvMs_NtCsdG3rhVUllIu_5ruchy7qualityNtB4_12QualityGates5check
FN:47,_RNvXNtCsdG3rhVUllIu_5ruchy7qualityNtB2_17QualityThresholdsNtNtCs66KPHxksi63_4core7default7Default7default
FN:394,_RNvXs1_NtCsdG3rhVUllIu_5ruchy7qualityNtB5_12QualityGatesNtNtCs66KPHxksi63_4core7default7Default7default
FN:246,_RNCNvMs_NtCsdG3rhVUllIu_5ruchy7qualityNtB6_12QualityGates19count_satd_comments0B8_
FNDA:0,_RNCNvMs_NtCsdG3rhVUllIu_5ruchy7qualityNtB6_12QualityGates17estimate_coverage0B8_
FNDA:0,_RNCNvMs_NtCsdG3rhVUllIu_5ruchy7qualityNtB6_12QualityGates17estimate_coverages_0B8_
FNDA:0,_RNvMs0_NtCsdG3rhVUllIu_5ruchy7qualityNtB5_17CiQualityEnforcer10run_checks
FNDA:0,_RNvMs0_NtCsdG3rhVUllIu_5ruchy7qualityNtB5_17CiQualityEnforcer14publish_report
FNDA:0,_RNvMs0_NtCsdG3rhVUllIu_5ruchy7qualityNtB5_17CiQualityEnforcer3new
FNDA:0,_RNvMs_NtCsdG3rhVUllIu_5ruchy7qualityNtB4_12QualityGates11get_metrics
FNDA:0,_RNvMs_NtCsdG3rhVUllIu_5ruchy7qualityNtB4_12QualityGates14get_thresholds
FNDA:0,_RNvMs_NtCsdG3rhVUllIu_5ruchy7qualityNtB4_12QualityGates14update_metrics
FNDA:0,_RNvMs_NtCsdG3rhVUllIu_5ruchy7qualityNtB4_12QualityGates15collect_metrics
FNDA:0,_RNvMs_NtCsdG3rhVUllIu_5ruchy7qualityNtB4_12QualityGates15with_thresholds
FNDA:0,_RNvMs_NtCsdG3rhVUllIu_5ruchy7qualityNtB4_12QualityGates16collect_coverage
FNDA:0,_RNvMs_NtCsdG3rhVUllIu_5ruchy7qualityNtB4_12QualityGates17estimate_coverage
FNDA:0,_RNvMs_NtCsdG3rhVUllIu_5ruchy7qualityNtB4_12QualityGates19count_satd_comments
FNDA:0,_RNvMs_NtCsdG3rhVUllIu_5ruchy7qualityNtB4_12QualityGates24generate_coverage_report
FNDA:0,_RNvMs_NtCsdG3rhVUllIu_5ruchy7qualityNtB4_12QualityGates3new
FNDA:0,_RNvMs_NtCsdG3rhVUllIu_5ruchy7qualityNtB4_12QualityGates5check
FNDA:0,_RNvXNtCsdG3rhVUllIu_5ruchy7qualityNtB2_17QualityThresholdsNtNtCs66KPHxksi63_4core7default7Default7default
FNDA:0,_RNvXs1_NtCsdG3rhVUllIu_5ruchy7qualityNtB5_12QualityGatesNtNtCs66KPHxksi63_4core7default7Default7default
FNDA:0,_RNCNvMs_NtCsdG3rhVUllIu_5ruchy7qualityNtB6_12QualityGates19count_satd_comments0B8_
FNF:19
FNH:0
DA:47,0
DA:48,0
DA:49,0
DA:50,0
DA:51,0
DA:52,0
DA:53,0
DA:54,0
DA:55,0
DA:74,0
DA:75,0
DA:76,0
DA:77,0
DA:78,0
DA:79,0
DA:81,0
DA:82,0
DA:83,0
DA:84,0
DA:85,0
DA:86,0
DA:88,0
DA:89,0
DA:90,0
DA:97,0
DA:98,0
DA:100,0
DA:101,0
DA:102,0
DA:103,0
DA:104,0
DA:105,0
DA:107,0
DA:108,0
DA:109,0
DA:110,0
DA:111,0
DA:112,0
DA:114,0
DA:115,0
DA:116,0
DA:117,0
DA:118,0
DA:120,0
DA:121,0
DA:122,0
DA:123,0
DA:124,0
DA:126,0
DA:127,0
DA:128,0
DA:129,0
DA:130,0
DA:131,0
DA:133,0
DA:134,0
DA:136,0
DA:138,0
DA:145,0
DA:147,0
DA:149,0
DA:150,0
DA:151,0
DA:152,0
DA:155,0
DA:156,0
DA:157,0
DA:159,0
DA:163,0
DA:166,0
DA:167,0
DA:168,0
DA:175,0
DA:177,0
DA:178,0
DA:179,0
DA:180,0
DA:183,0
DA:184,0
DA:185,0
DA:186,0
DA:189,0
DA:190,0
DA:191,0
DA:192,0
DA:194,0
DA:195,0
DA:204,0
DA:208,0
DA:209,0
DA:210,0
DA:211,0
DA:212,0
DA:214,0
DA:215,0
DA:216,0
DA:217,0
DA:218,0
DA:222,0
DA:223,0
DA:224,0
DA:226,0
DA:230,0
DA:231,0
DA:232,0
DA:233,0
DA:234,0
DA:235,0
DA:236,0
DA:237,0
DA:238,0
DA:239,0
DA:240,0
DA:241,0
DA:242,0
DA:244,0
DA:245,0
DA:246,0
DA:247,0
DA:249,0
DA:250,0
DA:252,0
DA:253,0
DA:254,0
DA:256,0
DA:257,0
DA:258,0
DA:265,0
DA:266,0
DA:269,0
DA:270,0
DA:273,0
DA:274,0
DA:275,0
DA:276,0
DA:280,0
DA:281,0
DA:282,0
DA:287,0
DA:288,0
DA:305,0
DA:306,0
DA:307,0
DA:330,0
DA:332,0
DA:335,0
DA:338,0
DA:340,0
DA:342,0
DA:345,0
DA:346,0
DA:347,0
DA:349,0
DA:351,0
DA:352,0
DA:353,0
DA:354,0
DA:356,0
DA:360,0
DA:363,0
DA:365,0
DA:366,0
DA:367,0
DA:368,0
DA:369,0
DA:371,0
DA:373,0
DA:374,0
DA:375,0
DA:377,0
DA:379,0
DA:380,0
DA:381,0
DA:382,0
DA:384,0
DA:386,0
DA:389,0
DA:390,0
DA:394,0
DA:395,0
DA:396,0
BRF:0
BRH:0
LF:184
LH:0
end_of_record
SF:/home/noah/src/ruchy/src/quality/ruchy_coverage.rs
FN:95,_RNCNvMs_NtNtCsdG3rhVUllIu_5ruchy7quality14ruchy_coverageNtB6_22RuchyCoverageCollector12analyze_file0Ba_
FN:108,_RNCNvMs_NtNtCsdG3rhVUllIu_5ruchy7quality14ruchy_coverageNtB6_22RuchyCoverageCollector12analyze_files_0Ba_
FN:208,_RNCNvMs_NtNtCsdG3rhVUllIu_5ruchy7quality14ruchy_coverageNtB6_22RuchyCoverageCollector20generate_json_report0Ba_
FN:38,_RNvMNtNtCsdG3rhVUllIu_5ruchy7quality14ruchy_coverageNtB2_13RuchyCoverage13line_coverage
FN:56,_RNvMNtNtCsdG3rhVUllIu_5ruchy7quality14ruchy_coverageNtB2_13RuchyCoverage15branch_coverage
FN:65,_RNvMNtNtCsdG3rhVUllIu_5ruchy7quality14ruchy_coverageNtB2_13RuchyCoverage16overall_coverage
FN:47,_RNvMNtNtCsdG3rhVUllIu_5ruchy7quality14ruchy_coverageNtB2_13RuchyCoverage17function_coverage
FN:25,_RNvMNtNtCsdG3rhVUllIu_5ruchy7quality14ruchy_coverageNtB2_13RuchyCoverage3new
FN:88,_RNvMs_NtNtCsdG3rhVUllIu_5ruchy7quality14ruchy_coverageNtB4_22RuchyCoverageCollector12analyze_file
FN:133,_RNvMs_NtNtCsdG3rhVUllIu_5ruchy7quality14ruchy_coverageNtB4_22RuchyCoverageCollector12mark_covered
FN:239,_RNvMs_NtNtCsdG3rhVUllIu_5ruchy7quality14ruchy_coverageNtB4_22RuchyCoverageCollector15meets_threshold
FN:212,_RNvMs_NtNtCsdG3rhVUllIu_5ruchy7quality14ruchy_coverageNtB4_22RuchyCoverageCollector20generate_html_report
FN:207,_RNvMs_NtNtCsdG3rhVUllIu_5ruchy7quality14ruchy_coverageNtB4_22RuchyCoverageCollector20generate_json_report
FN:149,_RNvMs_NtNtCsdG3rhVUllIu_5ruchy7quality14ruchy_coverageNtB4_22RuchyCoverageCollector20generate_text_report
FN:304,_RNvMs_NtNtCsdG3rhVUllIu_5ruchy7quality14ruchy_coverageNtB4_22RuchyCoverageCollector20get_runtime_coverage
FN:249,_RNvMs_NtNtCsdG3rhVUllIu_5ruchy7quality14ruchy_coverageNtB4_22RuchyCoverageCollector21execute_with_coverage
FN:142,_RNvMs_NtNtCsdG3rhVUllIu_5ruchy7quality14ruchy_coverageNtB4_22RuchyCoverageCollector21mark_function_covered
FN:80,_RNvMs_NtNtCsdG3rhVUllIu_5ruchy7quality14ruchy_coverageNtB4_22RuchyCoverageCollector3new
FN:312,_RNvNtNtCsdG3rhVUllIu_5ruchy7quality14ruchy_coverage21extract_function_name
FN:332,_RNvXs0_NtNtCsdG3rhVUllIu_5ruchy7quality14ruchy_coverageNtB5_22RuchyCoverageCollectorNtNtCs66KPHxksi63_4core7default7Default7default
FNDA:0,_RNCNvMs_NtNtCsdG3rhVUllIu_5ruchy7quality14ruchy_coverageNtB6_22RuchyCoverageCollector12analyze_file0Ba_
FNDA:0,_RNCNvMs_NtNtCsdG3rhVUllIu_5ruchy7quality14ruchy_coverageNtB6_22RuchyCoverageCollector12analyze_files_0Ba_
FNDA:0,_RNCNvMs_NtNtCsdG3rhVUllIu_5ruchy7quality14ruchy_coverageNtB6_22RuchyCoverageCollector20generate_json_report0Ba_
FNDA:0,_RNvMNtNtCsdG3rhVUllIu_5ruchy7quality14ruchy_coverageNtB2_13RuchyCoverage13line_coverage
FNDA:0,_RNvMNtNtCsdG3rhVUllIu_5ruchy7quality14ruchy_coverageNtB2_13RuchyCoverage15branch_coverage
FNDA:0,_RNvMNtNtCsdG3rhVUllIu_5ruchy7quality14ruchy_coverageNtB2_13RuchyCoverage16overall_coverage
FNDA:0,_RNvMNtNtCsdG3rhVUllIu_5ruchy7quality14ruchy_coverageNtB2_13RuchyCoverage17function_coverage
FNDA:0,_RNvMNtNtCsdG3rhVUllIu_5ruchy7quality14ruchy_coverageNtB2_13RuchyCoverage3new
FNDA:0,_RNvMs_NtNtCsdG3rhVUllIu_5ruchy7quality14ruchy_coverageNtB4_22RuchyCoverageCollector12analyze_file
FNDA:0,_RNvMs_NtNtCsdG3rhVUllIu_5ruchy7quality14ruchy_coverageNtB4_22RuchyCoverageCollector12mark_covered
FNDA:0,_RNvMs_NtNtCsdG3rhVUllIu_5ruchy7quality14ruchy_coverageNtB4_22RuchyCoverageCollector15meets_threshold
FNDA:0,_RNvMs_NtNtCsdG3rhVUllIu_5ruchy7quality14ruchy_coverageNtB4_22RuchyCoverageCollector20generate_html_report
FNDA:0,_RNvMs_NtNtCsdG3rhVUllIu_5ruchy7quality14ruchy_coverageNtB4_22RuchyCoverageCollector20generate_json_report
FNDA:0,_RNvMs_NtNtCsdG3rhVUllIu_5ruchy7quality14ruchy_coverageNtB4_22RuchyCoverageCollector20generate_text_report
FNDA:0,_RNvMs_NtNtCsdG3rhVUllIu_5ruchy7quality14ruchy_coverageNtB4_22RuchyCoverageCollector20get_runtime_coverage
FNDA:0,_RNvMs_NtNtCsdG3rhVUllIu_5ruchy7quality14ruchy_coverageNtB4_22RuchyCoverageCollector21execute_with_coverage
FNDA:0,_RNvMs_NtNtCsdG3rhVUllIu_5ruchy7quality14ruchy_coverageNtB4_22RuchyCoverageCollector21mark_function_covered
FNDA:0,_RNvMs_NtNtCsdG3rhVUllIu_5ruchy7quality14ruchy_coverageNtB4_22RuchyCoverageCollector3new
FNDA:0,_RNvNtNtCsdG3rhVUllIu_5ruchy7quality14ruchy_coverage21extract_function_name
FNDA:0,_RNvXs0_NtNtCsdG3rhVUllIu_5ruchy7quality14ruchy_coverageNtB5_22RuchyCoverageCollectorNtNtCs66KPHxksi63_4core7default7Default7default
FNF:20
FNH:0
DA:25,0
DA:26,0
DA:27,0
DA:28,0
DA:29,0
DA:30,0
DA:31,0
DA:32,0
DA:33,0
DA:34,0
DA:35,0
DA:38,0
DA:39,0
DA:40,0
DA:42,0
DA:44,0
DA:47,0
DA:48,0
DA:49,0
DA:51,0
DA:53,0
DA:56,0
DA:57,0
DA:58,0
DA:60,0
DA:62,0
DA:65,0
DA:67,0
DA:68,0
DA:69,0
DA:70,0
DA:80,0
DA:81,0
DA:82,0
DA:83,0
DA:84,0
DA:85,0
DA:88,0
DA:89,0
DA:90,0
DA:93,0
DA:94,0
DA:95,0
DA:96,0
DA:97,0
DA:98,0
DA:99,0
DA:102,0
DA:103,0
DA:104,0
DA:105,0
DA:107,0
DA:108,0
DA:109,0
DA:110,0
DA:111,0
DA:112,0
DA:113,0
DA:114,0
DA:115,0
DA:116,0
DA:117,0
DA:119,0
DA:120,0
DA:121,0
DA:122,0
DA:123,0
DA:124,0
DA:125,0
DA:128,0
DA:129,0
DA:130,0
DA:133,0
DA:134,0
DA:135,0
DA:136,0
DA:137,0
DA:138,0
DA:139,0
DA:142,0
DA:143,0
DA:144,0
DA:145,0
DA:146,0
DA:149,0
DA:150,0
DA:151,0
DA:152,0
DA:154,0
DA:155,0
DA:156,0
DA:157,0
DA:159,0
DA:161,0
DA:162,0
DA:163,0
DA:164,0
DA:165,0
DA:166,0
DA:167,0
DA:168,0
DA:169,0
DA:170,0
DA:171,0
DA:172,0
DA:173,0
DA:174,0
DA:175,0
DA:176,0
DA:178,0
DA:179,0
DA:180,0
DA:181,0
DA:185,0
DA:186,0
DA:187,0
DA:188,0
DA:190,0
DA:192,0
DA:193,0
DA:195,0
DA:198,0
DA:199,0
DA:200,0
DA:201,0
DA:203,0
DA:204,0
DA:207,0
DA:208,0
DA:209,0
DA:212,0
DA:213,0
DA:214,0
DA:215,0
DA:216,0
DA:217,0
DA:218,0
DA:219,0
DA:220,0
DA:221,0
DA:223,0
DA:225,0
DA:226,0
DA:227,0
DA:228,0
DA:229,0
DA:230,0
DA:231,0
DA:232,0
DA:234,0
DA:235,0
DA:236,0
DA:239,0
DA:240,0
DA:241,0
DA:242,0
DA:243,0
DA:245,0
DA:246,0
DA:249,0
DA:253,0
DA:254,0
DA:257,0
DA:258,0
DA:260,0
DA:261,0
DA:263,0
DA:268,0
DA:270,0
DA:272,0
DA:273,0
DA:274,0
DA:275,0
DA:276,0
DA:277,0
DA:278,0
DA:279,0
DA:283,0
DA:284,0
DA:285,0
DA:286,0
DA:287,0
DA:288,0
DA:289,0
DA:290,0
DA:292,0
DA:293,0
DA:294,0
DA:295,0
DA:296,0
DA:297,0
DA:298,0
DA:300,0
DA:301,0
DA:304,0
DA:305,0
DA:306,0
DA:307,0
DA:308,0
DA:312,0
DA:313,0
DA:314,0
DA:315,0
DA:316,0
DA:317,0
DA:318,0
DA:319,0
DA:321,0
DA:324,0
DA:327,0
DA:329,0
DA:332,0
DA:333,0
DA:334,0
BRF:0
BRH:0
LF:217
LH:0
end_of_record
SF:/home/noah/src/ruchy/src/quality/scoring.rs
FN:366,_RNCNvMs3_NtNtCsdG3rhVUllIu_5ruchy7quality7scoringNtB7_11ScoreEngine14optimize_caches1_0Bb_
FN:1177,_RNCNvNtNtCsdG3rhVUllIu_5ruchy7quality7scoring12is_good_name0B7_
FN:819,_RNCNvNtNtCsdG3rhVUllIu_5ruchy7quality7scoring19has_break_statement0B7_
FN:772,_RNCNvNtNtCsdG3rhVUllIu_5ruchy7quality7scoring20has_unreachable_code0B7_
FN:647,_RNCNvNtNtCsdG3rhVUllIu_5ruchy7quality7scoring38analyze_pattern_completeness_recursive0B7_
FN:58,_RNvMNtNtCsdG3rhVUllIu_5ruchy7quality7scoringNtB2_5Grade10from_score
FN:169,_RNvMs2_NtNtCsdG3rhVUllIu_5ruchy7quality7scoringNtB5_17DependencyTracker16is_file_modified
FN:154,_RNvMs2_NtNtCsdG3rhVUllIu_5ruchy7quality7scoringNtB5_17DependencyTracker16track_dependency
FN:180,_RNvMs2_NtNtCsdG3rhVUllIu_5ruchy7quality7scoringNtB5_17DependencyTracker16update_file_time
FN:147,_RNvMs2_NtNtCsdG3rhVUllIu_5ruchy7quality7scoringNtB5_17DependencyTracker3new
FN:158,_RNvMs2_NtNtCsdG3rhVUllIu_5ruchy7quality7scoringNtB5_17DependencyTracker8is_stale
FN:439,_RNvMs3_NtNtCsdG3rhVUllIu_5ruchy7quality7scoringNtB5_11ScoreEngine10score_deep
FN:382,_RNvMs3_NtNtCsdG3rhVUllIu_5ruchy7quality7scoringNtB5_11ScoreEngine11cache_stats
FN:376,_RNvMs3_NtNtCsdG3rhVUllIu_5ruchy7quality7scoringNtB5_11ScoreEngine11clear_cache
FN:328,_RNvMs3_NtNtCsdG3rhVUllIu_5ruchy7quality7scoringNtB5_11ScoreEngine12hash_content
FN:389,_RNvMs3_NtNtCsdG3rhVUllIu_5ruchy7quality7scoringNtB5_11ScoreEngine13score_shallow
FN:343,_RNvMs3_NtNtCsdG3rhVUllIu_5ruchy7quality7scoringNtB5_11ScoreEngine14optimize_cache
FN:427,_RNvMs3_NtNtCsdG3rhVUllIu_5ruchy7quality7scoringNtB5_11ScoreEngine14score_standard
FN:226,_RNvMs3_NtNtCsdG3rhVUllIu_5ruchy7quality7scoringNtB5_11ScoreEngine17score_incremental
FN:303,_RNvMs3_NtNtCsdG3rhVUllIu_5ruchy7quality7scoringNtB5_11ScoreEngine17score_progressive
FN:458,_RNvMs3_NtNtCsdG3rhVUllIu_5ruchy7quality7scoringNtB5_11ScoreEngine20calculate_confidence
FN:337,_RNvMs3_NtNtCsdG3rhVUllIu_5ruchy7quality7scoringNtB5_11ScoreEngine20extract_dependencies
FN:450,_RNvMs3_NtNtCsdG3rhVUllIu_5ruchy7quality7scoringNtB5_11ScoreEngine24calculate_weighted_score
FN:197,_RNvMs3_NtNtCsdG3rhVUllIu_5ruchy7quality7scoringNtB5_11ScoreEngine3new
FN:205,_RNvMs3_NtNtCsdG3rhVUllIu_5ruchy7quality7scoringNtB5_11ScoreEngine5score
FN:537,_RNvMs4_NtNtCsdG3rhVUllIu_5ruchy7quality7scoringNtB5_12QualityScore13explain_delta
FN:490,_RNvNtNtCsdG3rhVUllIu_5ruchy7quality7scoring12analyze_expr
FN:1170,_RNvNtNtCsdG3rhVUllIu_5ruchy7quality7scoring12is_good_name
FN:1181,_RNvNtNtCsdG3rhVUllIu_5ruchy7quality7scoring12score_safety
FN:1065,_RNvNtNtCsdG3rhVUllIu_5ruchy7quality7scoring16analyze_cohesion
FN:1018,_RNvNtNtCsdG3rhVUllIu_5ruchy7quality7scoring16analyze_coupling
FN:778,_RNvNtNtCsdG3rhVUllIu_5ruchy7quality7scoring17is_diverging_expr
FN:598,_RNvNtNtCsdG3rhVUllIu_5ruchy7quality7scoring17score_correctness
FN:826,_RNvNtNtCsdG3rhVUllIu_5ruchy7quality7scoring17score_performance
FN:1424,_RNvNtNtCsdG3rhVUllIu_5ruchy7quality7scoring18count_lambda_usage
FN:1282,_RNvNtNtCsdG3rhVUllIu_5ruchy7quality7scoring18score_idiomaticity
FN:477,_RNvNtNtCsdG3rhVUllIu_5ruchy7quality7scoring19analyze_ast_metrics
FN:1087,_RNvNtNtCsdG3rhVUllIu_5ruchy7quality7scoring19analyze_duplication
FN:1203,_RNvNtNtCsdG3rhVUllIu_5ruchy7quality7scoring19analyze_null_safety
FN:811,_RNvNtNtCsdG3rhVUllIu_5ruchy7quality7scoring19has_break_statement
FN:1401,_RNvNtNtCsdG3rhVUllIu_5ruchy7quality7scoring20analyze_lambda_usage
FN:755,_RNvNtNtCsdG3rhVUllIu_5ruchy7quality7scoring20has_unreachable_code
FN:1301,_RNvNtNtCsdG3rhVUllIu_5ruchy7quality7scoring21analyze_pattern_usage
FN:994,_RNvNtNtCsdG3rhVUllIu_5ruchy7quality7scoring21score_maintainability
FN:680,_RNvNtNtCsdG3rhVUllIu_5ruchy7quality7scoring22analyze_error_handling
FN:1355,_RNvNtNtCsdG3rhVUllIu_5ruchy7quality7scoring22analyze_iterator_usage
FN:1130,_RNvNtNtCsdG3rhVUllIu_5ruchy7quality7scoring22analyze_naming_quality
FN:1041,_RNvNtNtCsdG3rhVUllIu_5ruchy7quality7scoring22count_coupling_metrics
FN:1145,_RNvNtNtCsdG3rhVUllIu_5ruchy7quality7scoring23analyze_names_recursive
FN:1379,_RNvNtNtCsdG3rhVUllIu_5ruchy7quality7scoring23count_iterator_vs_loops
FN:731,_RNvNtNtCsdG3rhVUllIu_5ruchy7quality7scoring24analyze_type_consistency
FN:738,_RNvNtNtCsdG3rhVUllIu_5ruchy7quality7scoring25analyze_logical_soundness
FN:927,_RNvNtNtCsdG3rhVUllIu_5ruchy7quality7scoring27analyze_allocation_patterns
FN:1251,_RNvNtNtCsdG3rhVUllIu_5ruchy7quality7scoring27analyze_resource_management
FN:1266,_RNvNtNtCsdG3rhVUllIu_5ruchy7quality7scoring27analyze_resources_recursive
FN:1103,_RNvNtNtCsdG3rhVUllIu_5ruchy7quality7scoring27collect_expression_patterns
FN:952,_RNvNtNtCsdG3rhVUllIu_5ruchy7quality7scoring27count_allocations_recursive
FN:882,_RNvNtNtCsdG3rhVUllIu_5ruchy7quality7scoring28analyze_complexity_recursive
FN:621,_RNvNtNtCsdG3rhVUllIu_5ruchy7quality7scoring28analyze_pattern_completeness
FN:1325,_RNvNtNtCsdG3rhVUllIu_5ruchy7quality7scoring28count_pattern_vs_conditional
FN:793,_RNvNtNtCsdG3rhVUllIu_5ruchy7quality7scoring28has_potential_infinite_loops
FN:1223,_RNvNtNtCsdG3rhVUllIu_5ruchy7quality7scoring29analyze_null_safety_recursive
FN:859,_RNvNtNtCsdG3rhVUllIu_5ruchy7quality7scoring30analyze_algorithmic_complexity
FN:700,_RNvNtNtCsdG3rhVUllIu_5ruchy7quality7scoring32analyze_error_handling_recursive
FN:636,_RNvNtNtCsdG3rhVUllIu_5ruchy7quality7scoring38analyze_pattern_completeness_recursive
FN:104,_RNvXs0_NtNtCsdG3rhVUllIu_5ruchy7quality7scoringNtB5_11ScoreConfigNtNtCs66KPHxksi63_4core7default7Default7default
FN:141,_RNvXs1_NtNtCsdG3rhVUllIu_5ruchy7quality7scoringNtB5_17DependencyTrackerNtNtCs66KPHxksi63_4core7default7Default7default
FN:76,_RNvXs_NtNtCsdG3rhVUllIu_5ruchy7quality7scoringNtB4_5GradeNtNtCs66KPHxksi63_4core3fmt7Display3fmt
FN:360,_RNCNvMs3_NtNtCsdG3rhVUllIu_5ruchy7quality7scoringNtB7_11ScoreEngine14optimize_caches_0Bb_
FN:1092,_RNCNvNtNtCsdG3rhVUllIu_5ruchy7quality7scoring19analyze_duplication0B7_
FN:350,_RNCNvMs3_NtNtCsdG3rhVUllIu_5ruchy7quality7scoringNtB7_11ScoreEngine14optimize_cache0Bb_
FNDA:0,_RNCNvMs3_NtNtCsdG3rhVUllIu_5ruchy7quality7scoringNtB7_11ScoreEngine14optimize_caches1_0Bb_
FNDA:0,_RNCNvNtNtCsdG3rhVUllIu_5ruchy7quality7scoring12is_good_name0B7_
FNDA:0,_RNCNvNtNtCsdG3rhVUllIu_5ruchy7quality7scoring19has_break_statement0B7_
FNDA:0,_RNCNvNtNtCsdG3rhVUllIu_5ruchy7quality7scoring20has_unreachable_code0B7_
FNDA:0,_RNCNvNtNtCsdG3rhVUllIu_5ruchy7quality7scoring38analyze_pattern_completeness_recursive0B7_
FNDA:0,_RNvMNtNtCsdG3rhVUllIu_5ruchy7quality7scoringNtB2_5Grade10from_score
FNDA:0,_RNvMs2_NtNtCsdG3rhVUllIu_5ruchy7quality7scoringNtB5_17DependencyTracker16is_file_modified
FNDA:0,_RNvMs2_NtNtCsdG3rhVUllIu_5ruchy7quality7scoringNtB5_17DependencyTracker16track_dependency
FNDA:0,_RNvMs2_NtNtCsdG3rhVUllIu_5ruchy7quality7scoringNtB5_17DependencyTracker16update_file_time
FNDA:0,_RNvMs2_NtNtCsdG3rhVUllIu_5ruchy7quality7scoringNtB5_17DependencyTracker3new
FNDA:0,_RNvMs2_NtNtCsdG3rhVUllIu_5ruchy7quality7scoringNtB5_17DependencyTracker8is_stale
FNDA:0,_RNvMs3_NtNtCsdG3rhVUllIu_5ruchy7quality7scoringNtB5_11ScoreEngine10score_deep
FNDA:0,_RNvMs3_NtNtCsdG3rhVUllIu_5ruchy7quality7scoringNtB5_11ScoreEngine11cache_stats
FNDA:0,_RNvMs3_NtNtCsdG3rhVUllIu_5ruchy7quality7scoringNtB5_11ScoreEngine11clear_cache
FNDA:0,_RNvMs3_NtNtCsdG3rhVUllIu_5ruchy7quality7scoringNtB5_11ScoreEngine12hash_content
FNDA:0,_RNvMs3_NtNtCsdG3rhVUllIu_5ruchy7quality7scoringNtB5_11ScoreEngine13score_shallow
FNDA:0,_RNvMs3_NtNtCsdG3rhVUllIu_5ruchy7quality7scoringNtB5_11ScoreEngine14optimize_cache
FNDA:0,_RNvMs3_NtNtCsdG3rhVUllIu_5ruchy7quality7scoringNtB5_11ScoreEngine14score_standard
FNDA:0,_RNvMs3_NtNtCsdG3rhVUllIu_5ruchy7quality7scoringNtB5_11ScoreEngine17score_incremental
FNDA:0,_RNvMs3_NtNtCsdG3rhVUllIu_5ruchy7quality7scoringNtB5_11ScoreEngine17score_progressive
FNDA:0,_RNvMs3_NtNtCsdG3rhVUllIu_5ruchy7quality7scoringNtB5_11ScoreEngine20calculate_confidence
FNDA:0,_RNvMs3_NtNtCsdG3rhVUllIu_5ruchy7quality7scoringNtB5_11ScoreEngine20extract_dependencies
FNDA:0,_RNvMs3_NtNtCsdG3rhVUllIu_5ruchy7quality7scoringNtB5_11ScoreEngine24calculate_weighted_score
FNDA:0,_RNvMs3_NtNtCsdG3rhVUllIu_5ruchy7quality7scoringNtB5_11ScoreEngine3new
FNDA:0,_RNvMs3_NtNtCsdG3rhVUllIu_5ruchy7quality7scoringNtB5_11ScoreEngine5score
FNDA:0,_RNvMs4_NtNtCsdG3rhVUllIu_5ruchy7quality7scoringNtB5_12QualityScore13explain_delta
FNDA:0,_RNvNtNtCsdG3rhVUllIu_5ruchy7quality7scoring12analyze_expr
FNDA:0,_RNvNtNtCsdG3rhVUllIu_5ruchy7quality7scoring12is_good_name
FNDA:0,_RNvNtNtCsdG3rhVUllIu_5ruchy7quality7scoring12score_safety
FNDA:0,_RNvNtNtCsdG3rhVUllIu_5ruchy7quality7scoring16analyze_cohesion
FNDA:0,_RNvNtNtCsdG3rhVUllIu_5ruchy7quality7scoring16analyze_coupling
FNDA:0,_RNvNtNtCsdG3rhVUllIu_5ruchy7quality7scoring17is_diverging_expr
FNDA:0,_RNvNtNtCsdG3rhVUllIu_5ruchy7quality7scoring17score_correctness
FNDA:0,_RNvNtNtCsdG3rhVUllIu_5ruchy7quality7scoring17score_performance
FNDA:0,_RNvNtNtCsdG3rhVUllIu_5ruchy7quality7scoring18count_lambda_usage
FNDA:0,_RNvNtNtCsdG3rhVUllIu_5ruchy7quality7scoring18score_idiomaticity
FNDA:0,_RNvNtNtCsdG3rhVUllIu_5ruchy7quality7scoring19analyze_ast_metrics
FNDA:0,_RNvNtNtCsdG3rhVUllIu_5ruchy7quality7scoring19analyze_duplication
FNDA:0,_RNvNtNtCsdG3rhVUllIu_5ruchy7quality7scoring19analyze_null_safety
FNDA:0,_RNvNtNtCsdG3rhVUllIu_5ruchy7quality7scoring19has_break_statement
FNDA:0,_RNvNtNtCsdG3rhVUllIu_5ruchy7quality7scoring20analyze_lambda_usage
FNDA:0,_RNvNtNtCsdG3rhVUllIu_5ruchy7quality7scoring20has_unreachable_code
FNDA:0,_RNvNtNtCsdG3rhVUllIu_5ruchy7quality7scoring21analyze_pattern_usage
FNDA:0,_RNvNtNtCsdG3rhVUllIu_5ruchy7quality7scoring21score_maintainability
FNDA:0,_RNvNtNtCsdG3rhVUllIu_5ruchy7quality7scoring22analyze_error_handling
FNDA:0,_RNvNtNtCsdG3rhVUllIu_5ruchy7quality7scoring22analyze_iterator_usage
FNDA:0,_RNvNtNtCsdG3rhVUllIu_5ruchy7quality7scoring22analyze_naming_quality
FNDA:0,_RNvNtNtCsdG3rhVUllIu_5ruchy7quality7scoring22count_coupling_metrics
FNDA:0,_RNvNtNtCsdG3rhVUllIu_5ruchy7quality7scoring23analyze_names_recursive
FNDA:0,_RNvNtNtCsdG3rhVUllIu_5ruchy7quality7scoring23count_iterator_vs_loops
FNDA:0,_RNvNtNtCsdG3rhVUllIu_5ruchy7quality7scoring24analyze_type_consistency
FNDA:0,_RNvNtNtCsdG3rhVUllIu_5ruchy7quality7scoring25analyze_logical_soundness
FNDA:0,_RNvNtNtCsdG3rhVUllIu_5ruchy7quality7scoring27analyze_allocation_patterns
FNDA:0,_RNvNtNtCsdG3rhVUllIu_5ruchy7quality7scoring27analyze_resource_management
FNDA:0,_RNvNtNtCsdG3rhVUllIu_5ruchy7quality7scoring27analyze_resources_recursive
FNDA:0,_RNvNtNtCsdG3rhVUllIu_5ruchy7quality7scoring27collect_expression_patterns
FNDA:0,_RNvNtNtCsdG3rhVUllIu_5ruchy7quality7scoring27count_allocations_recursive
FNDA:0,_RNvNtNtCsdG3rhVUllIu_5ruchy7quality7scoring28analyze_complexity_recursive
FNDA:0,_RNvNtNtCsdG3rhVUllIu_5ruchy7quality7scoring28analyze_pattern_completeness
FNDA:0,_RNvNtNtCsdG3rhVUllIu_5ruchy7quality7scoring28count_pattern_vs_conditional
FNDA:0,_RNvNtNtCsdG3rhVUllIu_5ruchy7quality7scoring28has_potential_infinite_loops
FNDA:0,_RNvNtNtCsdG3rhVUllIu_5ruchy7quality7scoring29analyze_null_safety_recursive
FNDA:0,_RNvNtNtCsdG3rhVUllIu_5ruchy7quality7scoring30analyze_algorithmic_complexity
FNDA:0,_RNvNtNtCsdG3rhVUllIu_5ruchy7quality7scoring32analyze_error_handling_recursive
FNDA:0,_RNvNtNtCsdG3rhVUllIu_5ruchy7quality7scoring38analyze_pattern_completeness_recursive
FNDA:0,_RNvXs0_NtNtCsdG3rhVUllIu_5ruchy7quality7scoringNtB5_11ScoreConfigNtNtCs66KPHxksi63_4core7default7Default7default
FNDA:0,_RNvXs1_NtNtCsdG3rhVUllIu_5ruchy7quality7scoringNtB5_17DependencyTrackerNtNtCs66KPHxksi63_4core7default7Default7default
FNDA:0,_RNvXs_NtNtCsdG3rhVUllIu_5ruchy7quality7scoringNtB4_5GradeNtNtCs66KPHxksi63_4core3fmt7Display3fmt
FNDA:0,_RNCNvMs3_NtNtCsdG3rhVUllIu_5ruchy7quality7scoringNtB7_11ScoreEngine14optimize_caches_0Bb_
FNDA:0,_RNCNvNtNtCsdG3rhVUllIu_5ruchy7quality7scoring19analyze_duplication0B7_
FNDA:0,_RNCNvMs3_NtNtCsdG3rhVUllIu_5ruchy7quality7scoringNtB7_11ScoreEngine14optimize_cache0Bb_
FNF:71
FNH:0
DA:58,0
DA:59,0
DA:60,0
DA:61,0
DA:62,0
DA:63,0
DA:64,0
DA:65,0
DA:66,0
DA:67,0
DA:68,0
DA:69,0
DA:70,0
DA:72,0
DA:76,0
DA:77,0
DA:78,0
DA:79,0
DA:80,0
DA:81,0
DA:82,0
DA:83,0
DA:84,0
DA:85,0
DA:86,0
DA:87,0
DA:88,0
DA:90,0
DA:104,0
DA:105,0
DA:106,0
DA:107,0
DA:108,0
DA:109,0
DA:110,0
DA:111,0
DA:112,0
DA:141,0
DA:142,0
DA:143,0
DA:147,0
DA:148,0
DA:149,0
DA:150,0
DA:151,0
DA:152,0
DA:154,0
DA:155,0
DA:156,0
DA:158,0
DA:159,0
DA:160,0
DA:161,0
DA:162,0
DA:163,0
DA:165,0
DA:166,0
DA:167,0
DA:169,0
DA:170,0
DA:171,0
DA:173,0
DA:174,0
DA:176,0
DA:178,0
DA:180,0
DA:181,0
DA:182,0
DA:183,0
DA:184,0
DA:185,0
DA:186,0
DA:197,0
DA:198,0
DA:199,0
DA:200,0
DA:201,0
DA:202,0
DA:203,0
DA:205,0
DA:206,0
DA:207,0
DA:208,0
DA:209,0
DA:212,0
DA:213,0
DA:214,0
DA:216,0
DA:217,0
DA:218,0
DA:219,0
DA:220,0
DA:221,0
DA:222,0
DA:223,0
DA:226,0
DA:227,0
DA:228,0
DA:229,0
DA:230,0
DA:231,0
DA:232,0
DA:233,0
DA:234,0
DA:235,0
DA:236,0
DA:237,0
DA:238,0
DA:241,0
DA:242,0
DA:243,0
DA:244,0
DA:245,0
DA:246,0
DA:247,0
DA:250,0
DA:251,0
DA:252,0
DA:253,0
DA:255,0
DA:258,0
DA:259,0
DA:260,0
DA:261,0
DA:264,0
DA:265,0
DA:266,0
DA:267,0
DA:269,0
DA:271,0
DA:273,0
DA:274,0
DA:275,0
DA:276,0
DA:277,0
DA:278,0
DA:279,0
DA:282,0
DA:283,0
DA:284,0
DA:285,0
DA:286,0
DA:287,0
DA:288,0
DA:289,0
DA:290,0
DA:292,0
DA:295,0
DA:296,0
DA:297,0
DA:299,0
DA:300,0
DA:303,0
DA:304,0
DA:305,0
DA:306,0
DA:307,0
DA:308,0
DA:309,0
DA:310,0
DA:313,0
DA:315,0
DA:317,0
DA:319,0
DA:320,0
DA:321,0
DA:322,0
DA:323,0
DA:325,0
DA:326,0
DA:328,0
DA:332,0
DA:333,0
DA:334,0
DA:335,0
DA:337,0
DA:340,0
DA:341,0
DA:343,0
DA:345,0
DA:346,0
DA:347,0
DA:350,0
DA:351,0
DA:352,0
DA:354,0
DA:356,0
DA:359,0
DA:360,0
DA:361,0
DA:363,0
DA:364,0
DA:365,0
DA:366,0
DA:367,0
DA:369,0
DA:370,0
DA:371,0
DA:372,0
DA:373,0
DA:376,0
DA:377,0
DA:378,0
DA:379,0
DA:382,0
DA:383,0
DA:384,0
DA:385,0
DA:386,0
DA:387,0
DA:389,0
DA:391,0
DA:393,0
DA:394,0
DA:395,0
DA:396,0
DA:397,0
DA:400,0
DA:401,0
DA:402,0
DA:403,0
DA:404,0
DA:405,0
DA:408,0
DA:409,0
DA:410,0
DA:411,0
DA:414,0
DA:415,0
DA:416,0
DA:418,0
DA:419,0
DA:420,0
DA:421,0
DA:422,0
DA:423,0
DA:424,0
DA:425,0
DA:427,0
DA:429,0
DA:433,0
DA:434,0
DA:436,0
DA:437,0
DA:439,0
DA:441,0
DA:445,0
DA:447,0
DA:448,0
DA:450,0
DA:451,0
DA:452,0
DA:453,0
DA:454,0
DA:455,0
DA:456,0
DA:458,0
DA:459,0
DA:460,0
DA:461,0
DA:462,0
DA:464,0
DA:477,0
DA:478,0
DA:479,0
DA:480,0
DA:481,0
DA:482,0
DA:483,0
DA:484,0
DA:486,0
DA:487,0
DA:488,0
DA:490,0
DA:492,0
DA:493,0
DA:495,0
DA:496,0
DA:497,0
DA:498,0
DA:499,0
DA:500,0
DA:501,0
DA:502,0
DA:503,0
DA:505,0
DA:506,0
DA:507,0
DA:508,0
DA:509,0
DA:510,0
DA:511,0
DA:513,0
DA:514,0
DA:515,0
DA:516,0
DA:517,0
DA:518,0
DA:519,0
DA:520,0
DA:521,0
DA:522,0
DA:523,0
DA:524,0
DA:525,0
DA:526,0
DA:527,0
DA:528,0
DA:529,0
DA:531,0
DA:533,0
DA:537,0
DA:538,0
DA:539,0
DA:540,0
DA:543,0
DA:544,0
DA:545,0
DA:546,0
DA:547,0
DA:548,0
DA:549,0
DA:551,0
DA:552,0
DA:553,0
DA:554,0
DA:556,0
DA:557,0
DA:559,0
DA:563,0
DA:564,0
DA:565,0
DA:566,0
DA:568,0
DA:569,0
DA:570,0
DA:571,0
DA:573,0
DA:574,0
DA:575,0
DA:576,0
DA:577,0
DA:578,0
DA:579,0
DA:598,0
DA:599,0
DA:602,0
DA:603,0
DA:606,0
DA:607,0
DA:610,0
DA:611,0
DA:614,0
DA:615,0
DA:617,0
DA:618,0
DA:621,0
DA:622,0
DA:623,0
DA:625,0
DA:627,0
DA:628,0
DA:631,0
DA:632,0
DA:634,0
DA:636,0
DA:637,0
DA:638,0
DA:639,0
DA:640,0
DA:642,0
DA:643,0
DA:644,0
DA:647,0
DA:648,0
DA:649,0
DA:651,0
DA:652,0
DA:653,0
DA:655,0
DA:656,0
DA:657,0
DA:658,0
DA:660,0
DA:661,0
DA:662,0
DA:663,0
DA:664,0
DA:665,0
DA:667,0
DA:668,0
DA:669,0
DA:670,0
DA:672,0
DA:673,0
DA:674,0
DA:675,0
DA:677,0
DA:680,0
DA:681,0
DA:682,0
DA:684,0
DA:686,0
DA:687,0
DA:690,0
DA:692,0
DA:693,0
DA:695,0
DA:698,0
DA:700,0
DA:701,0
DA:702,0
DA:703,0
DA:704,0
DA:706,0
DA:707,0
DA:709,0
DA:710,0
DA:711,0
DA:712,0
DA:713,0
DA:714,0
DA:715,0
DA:716,0
DA:718,0
DA:719,0
DA:720,0
DA:721,0
DA:723,0
DA:724,0
DA:725,0
DA:726,0
DA:728,0
DA:731,0
DA:734,0
DA:735,0
DA:738,0
DA:739,0
DA:742,0
DA:743,0
DA:744,0
DA:745,0
DA:747,0
DA:748,0
DA:749,0
DA:750,0
DA:752,0
DA:753,0
DA:755,0
DA:757,0
DA:758,0
DA:759,0
DA:760,0
DA:761,0
DA:762,0
DA:763,0
DA:764,0
DA:765,0
DA:767,0
DA:769,0
DA:770,0
DA:771,0
DA:772,0
DA:774,0
DA:776,0
DA:778,0
DA:780,0
DA:781,0
DA:783,0
DA:784,0
DA:786,0
DA:789,0
DA:791,0
DA:793,0
DA:795,0
DA:796,0
DA:798,0
DA:800,0
DA:802,0
DA:805,0
DA:806,0
DA:807,0
DA:809,0
DA:811,0
DA:813,0
DA:814,0
DA:815,0
DA:816,0
DA:817,0
DA:818,0
DA:819,0
DA:821,0
DA:823,0
DA:826,0
DA:827,0
DA:828,0
DA:831,0
DA:832,0
DA:835,0
DA:836,0
DA:837,0
DA:838,0
DA:839,0
DA:842,0
DA:843,0
DA:844,0
DA:845,0
DA:846,0
DA:849,0
DA:850,0
DA:855,0
DA:856,0
DA:859,0
DA:860,0
DA:861,0
DA:863,0
DA:865,0
DA:868,0
DA:869,0
DA:870,0
DA:871,0
DA:872,0
DA:875,0
DA:876,0
DA:877,0
DA:879,0
DA:880,0
DA:882,0
DA:883,0
DA:884,0
DA:885,0
DA:886,0
DA:887,0
DA:889,0
DA:890,0
DA:891,0
DA:892,0
DA:893,0
DA:894,0
DA:895,0
DA:897,0
DA:899,0
DA:900,0
DA:901,0
DA:902,0
DA:903,0
DA:904,0
DA:905,0
DA:907,0
DA:908,0
DA:909,0
DA:910,0
DA:912,0
DA:913,0
DA:914,0
DA:915,0
DA:916,0
DA:917,0
DA:918,0
DA:919,0
DA:920,0
DA:922,0
DA:924,0
DA:927,0
DA:928,0
DA:929,0
DA:931,0
DA:933,0
DA:936,0
DA:937,0
DA:938,0
DA:939,0
DA:940,0
DA:943,0
DA:944,0
DA:945,0
DA:946,0
DA:947,0
DA:949,0
DA:950,0
DA:952,0
DA:953,0
DA:954,0
DA:955,0
DA:956,0
DA:958,0
DA:959,0
DA:960,0
DA:961,0
DA:962,0
DA:963,0
DA:964,0
DA:965,0
DA:966,0
DA:970,0
DA:971,0
DA:972,0
DA:973,0
DA:974,0
DA:975,0
DA:978,0
DA:979,0
DA:980,0
DA:981,0
DA:983,0
DA:984,0
DA:985,0
DA:986,0
DA:988,0
DA:994,0
DA:995,0
DA:996,0
DA:999,0
DA:1000,0
DA:1003,0
DA:1004,0
DA:1007,0
DA:1008,0
DA:1011,0
DA:1012,0
DA:1014,0
DA:1015,0
DA:1018,0
DA:1019,0
DA:1020,0
DA:1022,0
DA:1024,0
DA:1025,0
DA:1026,0
DA:1029,0
DA:1032,0
DA:1033,0
DA:1034,0
DA:1035,0
DA:1037,0
DA:1039,0
DA:1041,0
DA:1043,0
DA:1044,0
DA:1045,0
DA:1046,0
DA:1047,0
DA:1048,0
DA:1049,0
DA:1050,0
DA:1051,0
DA:1052,0
DA:1053,0
DA:1055,0
DA:1056,0
DA:1057,0
DA:1058,0
DA:1060,0
DA:1062,0
DA:1065,0
DA:1066,0
DA:1069,0
DA:1070,0
DA:1071,0
DA:1074,0
DA:1075,0
DA:1076,0
DA:1079,0
DA:1080,0
DA:1081,0
DA:1083,0
DA:1084,0
DA:1087,0
DA:1088,0
DA:1090,0
DA:1092,0
DA:1094,0
DA:1095,0
DA:1096,0
DA:1097,0
DA:1099,0
DA:1101,0
DA:1103,0
DA:1106,0
DA:1107,0
DA:1109,0
DA:1110,0
DA:1111,0
DA:1112,0
DA:1113,0
DA:1115,0
DA:1116,0
DA:1117,0
DA:1118,0
DA:1119,0
DA:1120,0
DA:1121,0
DA:1122,0
DA:1123,0
DA:1125,0
DA:1127,0
DA:1130,0
DA:1131,0
DA:1132,0
DA:1134,0
DA:1136,0
DA:1137,0
DA:1138,0
DA:1141,0
DA:1142,0
DA:1143,0
DA:1145,0
DA:1147,0
DA:1148,0
DA:1149,0
DA:1150,0
DA:1151,0
DA:1152,0
DA:1154,0
DA:1155,0
DA:1156,0
DA:1157,0
DA:1158,0
DA:1159,0
DA:1161,0
DA:1162,0
DA:1163,0
DA:1164,0
DA:1166,0
DA:1168,0
DA:1170,0
DA:1172,0
DA:1173,0
DA:1174,0
DA:1177,0
DA:1178,0
DA:1181,0
DA:1182,0
DA:1185,0
DA:1186,0
DA:1189,0
DA:1190,0
DA:1193,0
DA:1194,0
DA:1197,0
DA:1199,0
DA:1200,0
DA:1203,0
DA:1204,0
DA:1205,0
DA:1207,0
DA:1209,0
DA:1210,0
DA:1211,0
DA:1214,0
DA:1215,0
DA:1218,0
DA:1219,0
DA:1221,0
DA:1223,0
DA:1225,0
DA:1226,0
DA:1227,0
DA:1228,0
DA:1229,0
DA:1231,0
DA:1232,0
DA:1233,0
DA:1234,0
DA:1235,0
DA:1236,0
DA:1238,0
DA:1239,0
DA:1240,0
DA:1241,0
DA:1243,0
DA:1244,0
DA:1245,0
DA:1246,0
DA:1248,0
DA:1251,0
DA:1252,0
DA:1253,0
DA:1255,0
DA:1257,0
DA:1258,0
DA:1259,0
DA:1262,0
DA:1263,0
DA:1264,0
DA:1266,0
DA:1268,0
DA:1269,0
DA:1270,0
DA:1271,0
DA:1272,0
DA:1274,0
DA:1275,0
DA:1276,0
DA:1277,0
DA:1279,0
DA:1282,0
DA:1283,0
DA:1286,0
DA:1287,0
DA:1290,0
DA:1291,0
DA:1294,0
DA:1295,0
DA:1297,0
DA:1298,0
DA:1301,0
DA:1302,0
DA:1303,0
DA:1305,0
DA:1307,0
DA:1308,0
DA:1309,0
DA:1310,0
DA:1313,0
DA:1316,0
DA:1317,0
DA:1318,0
DA:1319,0
DA:1321,0
DA:1323,0
DA:1325,0
DA:1327,0
DA:1328,0
DA:1329,0
DA:1330,0
DA:1331,0
DA:1332,0
DA:1334,0
DA:1335,0
DA:1336,0
DA:1337,0
DA:1338,0
DA:1339,0
DA:1340,0
DA:1342,0
DA:1343,0
DA:1344,0
DA:1345,0
DA:1347,0
DA:1348,0
DA:1349,0
DA:1350,0
DA:1352,0
DA:1355,0
DA:1356,0
DA:1357,0
DA:1359,0
DA:1361,0
DA:1362,0
DA:1363,0
DA:1364,0
DA:1367,0
DA:1370,0
DA:1371,0
DA:1372,0
DA:1373,0
DA:1375,0
DA:1377,0
DA:1379,0
DA:1381,0
DA:1382,0
DA:1383,0
DA:1384,0
DA:1385,0
DA:1386,0
DA:1387,0
DA:1388,0
DA:1389,0
DA:1390,0
DA:1391,0
DA:1393,0
DA:1394,0
DA:1395,0
DA:1396,0
DA:1398,0
DA:1401,0
DA:1402,0
DA:1403,0
DA:1405,0
DA:1407,0
DA:1408,0
DA:1409,0
DA:1412,0
DA:1415,0
DA:1416,0
DA:1417,0
DA:1418,0
DA:1420,0
DA:1422,0
DA:1424,0
DA:1426,0
DA:1427,0
DA:1428,0
DA:1429,0
DA:1430,0
DA:1431,0
DA:1432,0
DA:1433,0
DA:1434,0
DA:1435,0
DA:1436,0
DA:1437,0
DA:1438,0
DA:1440,0
DA:1442,0
BRF:0
BRH:0
LF:914
LH:0
end_of_record
SF:/home/noah/src/ruchy/src/runtime/actor.rs
FN:191,_RINvMs0_NtNtCsdG3rhVUllIu_5ruchy7runtime5actorNtB6_12ActorContext11spawn_childpEBa_
FN:395,_RINvMs3_NtNtCsdG3rhVUllIu_5ruchy7runtime5actorNtB6_11ActorSystem5spawnpEBa_
FN:195,_RNCINvMs0_NtNtCsdG3rhVUllIu_5ruchy7runtime5actorNtB8_12ActorContext11spawn_childpE0Bc_
FN:224,_RNCNvMs0_NtNtCsdG3rhVUllIu_5ruchy7runtime5actorNtB7_12ActorContext8get_self0Bb_
FN:227,_RNCNvMs0_NtNtCsdG3rhVUllIu_5ruchy7runtime5actorNtB7_12ActorContext8get_selfs_0Bb_
FN:437,_RNCNvMs3_NtNtCsdG3rhVUllIu_5ruchy7runtime5actorNtB7_11ActorSystem13get_actor_ref0Bb_
FN:447,_RNCNvMs3_NtNtCsdG3rhVUllIu_5ruchy7runtime5actorNtB7_11ActorSystem18find_actor_by_name0Bb_
FN:66,_RNCNvMs_NtNtCsdG3rhVUllIu_5ruchy7runtime5actorNtB6_8ActorRef3ask0Ba_
FN:70,_RNCNvMs_NtNtCsdG3rhVUllIu_5ruchy7runtime5actorNtB6_8ActorRef3asks_0Ba_
FN:44,_RNCNvMs_NtNtCsdG3rhVUllIu_5ruchy7runtime5actorNtB6_8ActorRef4send0Ba_
FN:231,_RNvMs0_NtNtCsdG3rhVUllIu_5ruchy7runtime5actorNtB5_12ActorContext10find_actor
FN:205,_RNvMs0_NtNtCsdG3rhVUllIu_5ruchy7runtime5actorNtB5_12ActorContext10stop_child
FN:220,_RNvMs0_NtNtCsdG3rhVUllIu_5ruchy7runtime5actorNtB5_12ActorContext8get_self
FN:251,_RNvMs1_NtNtCsdG3rhVUllIu_5ruchy7runtime5actorNtB5_12ActorRuntime3new
FN:353,_RNvMs1_NtNtCsdG3rhVUllIu_5ruchy7runtime5actorNtB5_12ActorRuntime4stop
FN:273,_RNvMs1_NtNtCsdG3rhVUllIu_5ruchy7runtime5actorNtB5_12ActorRuntime5start
FN:454,_RNvMs3_NtNtCsdG3rhVUllIu_5ruchy7runtime5actorNtB5_11ActorSystem10stop_actor
FN:435,_RNvMs3_NtNtCsdG3rhVUllIu_5ruchy7runtime5actorNtB5_11ActorSystem13get_actor_ref
FN:406,_RNvMs3_NtNtCsdG3rhVUllIu_5ruchy7runtime5actorNtB5_11ActorSystem16spawn_supervised
FN:444,_RNvMs3_NtNtCsdG3rhVUllIu_5ruchy7runtime5actorNtB5_11ActorSystem18find_actor_by_name
FN:379,_RNvMs3_NtNtCsdG3rhVUllIu_5ruchy7runtime5actorNtB5_11ActorSystem3new
FN:463,_RNvMs3_NtNtCsdG3rhVUllIu_5ruchy7runtime5actorNtB5_11ActorSystem8shutdown
FN:514,_RNvMs7_NtNtCsdG3rhVUllIu_5ruchy7runtime5actorNtB5_15SupervisorActor3new
FN:58,_RNvMs_NtNtCsdG3rhVUllIu_5ruchy7runtime5actorNtB4_8ActorRef3ask
FN:41,_RNvMs_NtNtCsdG3rhVUllIu_5ruchy7runtime5actorNtB4_8ActorRef4send
FN:19,_RNvXNtNtCsdG3rhVUllIu_5ruchy7runtime5actorNtB2_7ActorIdNtNtCs66KPHxksi63_4core3fmt7Display3fmt
FN:365,_RNvXs2_NtNtCsdG3rhVUllIu_5ruchy7runtime5actorNtB5_13DummyBehaviorNtB5_13ActorBehavior7receive
FN:472,_RNvXs4_NtNtCsdG3rhVUllIu_5ruchy7runtime5actorNtB5_11ActorSystemNtNtCs66KPHxksi63_4core7default7Default7default
FN:482,_RNvXs5_NtNtCsdG3rhVUllIu_5ruchy7runtime5actorNtB5_11ActorSystemNtNtCs66KPHxksi63_4core5clone5Clone5clone
FN:495,_RNvXs6_NtNtCsdG3rhVUllIu_5ruchy7runtime5actorNtB5_9EchoActorNtB5_13ActorBehavior7receive
FN:543,_RNvXs8_NtNtCsdG3rhVUllIu_5ruchy7runtime5actorNtB5_15SupervisorActorNtB5_13ActorBehavior19supervisor_strategy
FN:523,_RNvXs8_NtNtCsdG3rhVUllIu_5ruchy7runtime5actorNtB5_15SupervisorActorNtB5_13ActorBehavior7receive
FN:292,_RNCNCNvMs1_NtNtCsdG3rhVUllIu_5ruchy7runtime5actorNtB9_12ActorRuntime5start00Bd_
FN:288,_RNCNvMs1_NtNtCsdG3rhVUllIu_5ruchy7runtime5actorNtB7_12ActorRuntime5start0Bb_
FN:138,_RNvYNtNtNtCsdG3rhVUllIu_5ruchy7runtime5actor13DummyBehaviorNtB4_13ActorBehavior11pre_restartB8_
FN:147,_RNvYNtNtNtCsdG3rhVUllIu_5ruchy7runtime5actor13DummyBehaviorNtB4_13ActorBehavior12post_restartB8_
FN:159,_RNvYNtNtNtCsdG3rhVUllIu_5ruchy7runtime5actor13DummyBehaviorNtB4_13ActorBehavior19supervisor_strategyB8_
FN:129,_RNvYNtNtNtCsdG3rhVUllIu_5ruchy7runtime5actor13DummyBehaviorNtB4_13ActorBehavior9post_stopB8_
FN:120,_RNvYNtNtNtCsdG3rhVUllIu_5ruchy7runtime5actor13DummyBehaviorNtB4_13ActorBehavior9pre_startB8_
FN:456,_RNCNvMs3_NtNtCsdG3rhVUllIu_5ruchy7runtime5actorNtB7_11ActorSystem10stop_actor0Bb_
FNDA:0,_RINvMs0_NtNtCsdG3rhVUllIu_5ruchy7runtime5actorNtB6_12ActorContext11spawn_childpEBa_
FNDA:0,_RINvMs3_NtNtCsdG3rhVUllIu_5ruchy7runtime5actorNtB6_11ActorSystem5spawnpEBa_
FNDA:0,_RNCINvMs0_NtNtCsdG3rhVUllIu_5ruchy7runtime5actorNtB8_12ActorContext11spawn_childpE0Bc_
FNDA:0,_RNCNvMs0_NtNtCsdG3rhVUllIu_5ruchy7runtime5actorNtB7_12ActorContext8get_self0Bb_
FNDA:0,_RNCNvMs0_NtNtCsdG3rhVUllIu_5ruchy7runtime5actorNtB7_12ActorContext8get_selfs_0Bb_
FNDA:0,_RNCNvMs3_NtNtCsdG3rhVUllIu_5ruchy7runtime5actorNtB7_11ActorSystem13get_actor_ref0Bb_
FNDA:0,_RNCNvMs3_NtNtCsdG3rhVUllIu_5ruchy7runtime5actorNtB7_11ActorSystem18find_actor_by_name0Bb_
FNDA:0,_RNCNvMs_NtNtCsdG3rhVUllIu_5ruchy7runtime5actorNtB6_8ActorRef3ask0Ba_
FNDA:0,_RNCNvMs_NtNtCsdG3rhVUllIu_5ruchy7runtime5actorNtB6_8ActorRef3asks_0Ba_
FNDA:0,_RNCNvMs_NtNtCsdG3rhVUllIu_5ruchy7runtime5actorNtB6_8ActorRef4send0Ba_
FNDA:0,_RNvMs0_NtNtCsdG3rhVUllIu_5ruchy7runtime5actorNtB5_12ActorContext10find_actor
FNDA:0,_RNvMs0_NtNtCsdG3rhVUllIu_5ruchy7runtime5actorNtB5_12ActorContext10stop_child
FNDA:0,_RNvMs0_NtNtCsdG3rhVUllIu_5ruchy7runtime5actorNtB5_12ActorContext8get_self
FNDA:0,_RNvMs1_NtNtCsdG3rhVUllIu_5ruchy7runtime5actorNtB5_12ActorRuntime3new
FNDA:0,_RNvMs1_NtNtCsdG3rhVUllIu_5ruchy7runtime5actorNtB5_12ActorRuntime4stop
FNDA:0,_RNvMs1_NtNtCsdG3rhVUllIu_5ruchy7runtime5actorNtB5_12ActorRuntime5start
FNDA:0,_RNvMs3_NtNtCsdG3rhVUllIu_5ruchy7runtime5actorNtB5_11ActorSystem10stop_actor
FNDA:0,_RNvMs3_NtNtCsdG3rhVUllIu_5ruchy7runtime5actorNtB5_11ActorSystem13get_actor_ref
FNDA:0,_RNvMs3_NtNtCsdG3rhVUllIu_5ruchy7runtime5actorNtB5_11ActorSystem16spawn_supervised
FNDA:0,_RNvMs3_NtNtCsdG3rhVUllIu_5ruchy7runtime5actorNtB5_11ActorSystem18find_actor_by_name
FNDA:0,_RNvMs3_NtNtCsdG3rhVUllIu_5ruchy7runtime5actorNtB5_11ActorSystem3new
FNDA:0,_RNvMs3_NtNtCsdG3rhVUllIu_5ruchy7runtime5actorNtB5_11ActorSystem8shutdown
FNDA:0,_RNvMs7_NtNtCsdG3rhVUllIu_5ruchy7runtime5actorNtB5_15SupervisorActor3new
FNDA:0,_RNvMs_NtNtCsdG3rhVUllIu_5ruchy7runtime5actorNtB4_8ActorRef3ask
FNDA:0,_RNvMs_NtNtCsdG3rhVUllIu_5ruchy7runtime5actorNtB4_8ActorRef4send
FNDA:0,_RNvXNtNtCsdG3rhVUllIu_5ruchy7runtime5actorNtB2_7ActorIdNtNtCs66KPHxksi63_4core3fmt7Display3fmt
FNDA:0,_RNvXs2_NtNtCsdG3rhVUllIu_5ruchy7runtime5actorNtB5_13DummyBehaviorNtB5_13ActorBehavior7receive
FNDA:0,_RNvXs4_NtNtCsdG3rhVUllIu_5ruchy7runtime5actorNtB5_11ActorSystemNtNtCs66KPHxksi63_4core7default7Default7default
FNDA:0,_RNvXs5_NtNtCsdG3rhVUllIu_5ruchy7runtime5actorNtB5_11ActorSystemNtNtCs66KPHxksi63_4core5clone5Clone5clone
FNDA:0,_RNvXs6_NtNtCsdG3rhVUllIu_5ruchy7runtime5actorNtB5_9EchoActorNtB5_13ActorBehavior7receive
FNDA:0,_RNvXs8_NtNtCsdG3rhVUllIu_5ruchy7runtime5actorNtB5_15SupervisorActorNtB5_13ActorBehavior19supervisor_strategy
FNDA:0,_RNvXs8_NtNtCsdG3rhVUllIu_5ruchy7runtime5actorNtB5_15SupervisorActorNtB5_13ActorBehavior7receive
FNDA:0,_RNCNCNvMs1_NtNtCsdG3rhVUllIu_5ruchy7runtime5actorNtB9_12ActorRuntime5start00Bd_
FNDA:0,_RNCNvMs1_NtNtCsdG3rhVUllIu_5ruchy7runtime5actorNtB7_12ActorRuntime5start0Bb_
FNDA:0,_RNvYNtNtNtCsdG3rhVUllIu_5ruchy7runtime5actor13DummyBehaviorNtB4_13ActorBehavior11pre_restartB8_
FNDA:0,_RNvYNtNtNtCsdG3rhVUllIu_5ruchy7runtime5actor13DummyBehaviorNtB4_13ActorBehavior12post_restartB8_
FNDA:0,_RNvYNtNtNtCsdG3rhVUllIu_5ruchy7runtime5actor13DummyBehaviorNtB4_13ActorBehavior19supervisor_strategyB8_
FNDA:0,_RNvYNtNtNtCsdG3rhVUllIu_5ruchy7runtime5actor13DummyBehaviorNtB4_13ActorBehavior9post_stopB8_
FNDA:0,_RNvYNtNtNtCsdG3rhVUllIu_5ruchy7runtime5actor13DummyBehaviorNtB4_13ActorBehavior9pre_startB8_
FNDA:0,_RNCNvMs3_NtNtCsdG3rhVUllIu_5ruchy7runtime5actorNtB7_11ActorSystem10stop_actor0Bb_
FNF:40
FNH:0
DA:19,0
DA:20,0
DA:21,0
DA:41,0
DA:42,0
DA:43,0
DA:44,0
DA:45,0
DA:46,0
DA:58,0
DA:59,0
DA:61,0
DA:62,0
DA:63,0
DA:64,0
DA:65,0
DA:66,0
DA:68,0
DA:69,0
DA:70,0
DA:71,0
DA:120,0
DA:121,0
DA:122,0
DA:129,0
DA:130,0
DA:131,0
DA:138,0
DA:139,0
DA:140,0
DA:147,0
DA:148,0
DA:149,0
DA:159,0
DA:160,0
DA:161,0
DA:191,0
DA:192,0
DA:193,0
DA:194,0
DA:195,0
DA:196,0
DA:197,0
DA:198,0
DA:199,0
DA:205,0
DA:206,0
DA:207,0
DA:208,0
DA:209,0
DA:210,0
DA:220,0
DA:221,0
DA:222,0
DA:223,0
DA:224,0
DA:225,0
DA:226,0
DA:227,0
DA:228,0
DA:231,0
DA:232,0
DA:233,0
DA:234,0
DA:251,0
DA:252,0
DA:253,0
DA:254,0
DA:255,0
DA:256,0
DA:257,0
DA:258,0
DA:260,0
DA:261,0
DA:262,0
DA:263,0
DA:264,0
DA:265,0
DA:266,0
DA:267,0
DA:268,0
DA:269,0
DA:270,0
DA:271,0
DA:273,0
DA:274,0
DA:275,0
DA:276,0
DA:277,0
DA:278,0
DA:280,0
DA:281,0
DA:282,0
DA:283,0
DA:284,0
DA:285,0
DA:286,0
DA:288,0
DA:289,0
DA:290,0
DA:291,0
DA:292,0
DA:293,0
DA:294,0
DA:298,0
DA:299,0
DA:300,0
DA:301,0
DA:305,0
DA:306,0
DA:307,0
DA:308,0
DA:309,0
DA:310,0
DA:312,0
DA:313,0
DA:314,0
DA:318,0
DA:319,0
DA:320,0
DA:321,0
DA:322,0
DA:323,0
DA:324,0
DA:325,0
DA:326,0
DA:327,0
DA:329,0
DA:330,0
DA:331,0
DA:336,0
DA:340,0
DA:346,0
DA:347,0
DA:349,0
DA:350,0
DA:351,0
DA:353,0
DA:354,0
DA:355,0
DA:356,0
DA:357,0
DA:358,0
DA:365,0
DA:366,0
DA:367,0
DA:379,0
DA:380,0
DA:381,0
DA:382,0
DA:383,0
DA:384,0
DA:385,0
DA:395,0
DA:396,0
DA:397,0
DA:406,0
DA:407,0
DA:408,0
DA:409,0
DA:410,0
DA:411,0
DA:412,0
DA:413,0
DA:414,0
DA:416,0
DA:417,0
DA:419,0
DA:420,0
DA:421,0
DA:422,0
DA:423,0
DA:425,0
DA:426,0
DA:428,0
DA:429,0
DA:431,0
DA:432,0
DA:435,0
DA:436,0
DA:437,0
DA:438,0
DA:439,0
DA:440,0
DA:441,0
DA:444,0
DA:445,0
DA:446,0
DA:447,0
DA:448,0
DA:454,0
DA:455,0
DA:456,0
DA:457,0
DA:458,0
DA:459,0
DA:460,0
DA:463,0
DA:464,0
DA:465,0
DA:466,0
DA:467,0
DA:468,0
DA:472,0
DA:473,0
DA:474,0
DA:475,0
DA:476,0
DA:477,0
DA:478,0
DA:482,0
DA:483,0
DA:484,0
DA:485,0
DA:486,0
DA:487,0
DA:488,0
DA:495,0
DA:496,0
DA:497,0
DA:498,0
DA:499,0
DA:501,0
DA:503,0
DA:514,0
DA:515,0
DA:516,0
DA:517,0
DA:518,0
DA:519,0
DA:523,0
DA:524,0
DA:525,0
DA:526,0
DA:527,0
DA:529,0
DA:530,0
DA:532,0
DA:534,0
DA:535,0
DA:536,0
DA:539,0
DA:541,0
DA:543,0
DA:544,0
DA:545,0
DA:546,0
DA:548,0
DA:550,0
BRF:0
BRH:0
LF:259
LH:0
end_of_record
SF:/home/noah/src/ruchy/src/runtime/assessment.rs
FN:463,_RNCNvMs_NtNtCsdG3rhVUllIu_5ruchy7runtime10assessmentNtB6_13GradingEngine19measure_performance0Ba_
FN:479,_RNCNvMs_NtNtCsdG3rhVUllIu_5ruchy7runtime10assessmentNtB6_13GradingEngine19measure_performances_0Ba_
FN:590,_RNCNvMs1_NtNtCsdG3rhVUllIu_5ruchy7runtime10assessmentNtB7_18PlagiarismDetector18compute_similarity0Bb_
FN:356,_RNCNvMs_NtNtCsdG3rhVUllIu_5ruchy7runtime10assessmentNtB6_13GradingEngine13run_test_case0Ba_
FN:562,_RNvMs1_NtNtCsdG3rhVUllIu_5ruchy7runtime10assessmentNtB5_18PlagiarismDetector17extract_structure
FN:582,_RNvMs1_NtNtCsdG3rhVUllIu_5ruchy7runtime10assessmentNtB5_18PlagiarismDetector18compute_similarity
FN:543,_RNvMs1_NtNtCsdG3rhVUllIu_5ruchy7runtime10assessmentNtB5_18PlagiarismDetector20generate_fingerprint
FN:522,_RNvMs1_NtNtCsdG3rhVUllIu_5ruchy7runtime10assessmentNtB5_18PlagiarismDetector3new
FN:528,_RNvMs1_NtNtCsdG3rhVUllIu_5ruchy7runtime10assessmentNtB5_18PlagiarismDetector7analyze
FN:636,_RNvMs3_NtNtCsdG3rhVUllIu_5ruchy7runtime10assessmentNtB5_13SecureSandbox20create_isolated_repl
FN:626,_RNvMs3_NtNtCsdG3rhVUllIu_5ruchy7runtime10assessmentNtB5_13SecureSandbox3new
FN:678,_RNvMs4_NtNtCsdG3rhVUllIu_5ruchy7runtime10assessmentNtB5_11GradeReport12mark_invalid
FN:684,_RNvMs4_NtNtCsdG3rhVUllIu_5ruchy7runtime10assessmentNtB5_11GradeReport14add_task_grade
FN:688,_RNvMs4_NtNtCsdG3rhVUllIu_5ruchy7runtime10assessmentNtB5_11GradeReport21calculate_final_grade
FN:663,_RNvMs4_NtNtCsdG3rhVUllIu_5ruchy7runtime10assessmentNtB5_11GradeReport3new
FN:749,_RNvMs5_NtNtCsdG3rhVUllIu_5ruchy7runtime10assessmentNtB5_9TaskGrade15add_test_result
FN:757,_RNvMs5_NtNtCsdG3rhVUllIu_5ruchy7runtime10assessmentNtB5_9TaskGrade15calculate_score
FN:753,_RNvMs5_NtNtCsdG3rhVUllIu_5ruchy7runtime10assessmentNtB5_9TaskGrade17add_hidden_result
FN:738,_RNvMs5_NtNtCsdG3rhVUllIu_5ruchy7runtime10assessmentNtB5_9TaskGrade3new
FN:286,_RNvMs_NtNtCsdG3rhVUllIu_5ruchy7runtime10assessmentNtB4_13GradingEngine10grade_task
FN:272,_RNvMs_NtNtCsdG3rhVUllIu_5ruchy7runtime10assessmentNtB4_13GradingEngine10load_setup
FN:317,_RNvMs_NtNtCsdG3rhVUllIu_5ruchy7runtime10assessmentNtB4_13GradingEngine13run_test_case
FN:398,_RNvMs_NtNtCsdG3rhVUllIu_5ruchy7runtime10assessmentNtB4_13GradingEngine15evaluate_rubric
FN:206,_RNvMs_NtNtCsdG3rhVUllIu_5ruchy7runtime10assessmentNtB4_13GradingEngine16grade_submission
FN:386,_RNvMs_NtNtCsdG3rhVUllIu_5ruchy7runtime10assessmentNtB4_13GradingEngine17check_requirement
FN:415,_RNvMs_NtNtCsdG3rhVUllIu_5ruchy7runtime10assessmentNtB4_13GradingEngine17evaluate_category
FN:431,_RNvMs_NtNtCsdG3rhVUllIu_5ruchy7runtime10assessmentNtB4_13GradingEngine18evaluate_criterion
FN:454,_RNvMs_NtNtCsdG3rhVUllIu_5ruchy7runtime10assessmentNtB4_13GradingEngine19measure_performance
FN:257,_RNvMs_NtNtCsdG3rhVUllIu_5ruchy7runtime10assessmentNtB4_13GradingEngine19verify_no_tampering
FN:197,_RNvMs_NtNtCsdG3rhVUllIu_5ruchy7runtime10assessmentNtB4_13GradingEngine3new
FN:191,_RNvXNtNtCsdG3rhVUllIu_5ruchy7runtime10assessmentNtB2_13GradingEngineNtNtCs66KPHxksi63_4core7default7Default7default
FN:516,_RNvXs0_NtNtCsdG3rhVUllIu_5ruchy7runtime10assessmentNtB5_18PlagiarismDetectorNtNtCs66KPHxksi63_4core7default7Default7default
FN:620,_RNvXs2_NtNtCsdG3rhVUllIu_5ruchy7runtime10assessmentNtB5_13SecureSandboxNtNtCs66KPHxksi63_4core7default7Default7default
FNDA:0,_RNCNvMs_NtNtCsdG3rhVUllIu_5ruchy7runtime10assessmentNtB6_13GradingEngine19measure_performance0Ba_
FNDA:0,_RNCNvMs_NtNtCsdG3rhVUllIu_5ruchy7runtime10assessmentNtB6_13GradingEngine19measure_performances_0Ba_
FNDA:0,_RNCNvMs1_NtNtCsdG3rhVUllIu_5ruchy7runtime10assessmentNtB7_18PlagiarismDetector18compute_similarity0Bb_
FNDA:0,_RNCNvMs_NtNtCsdG3rhVUllIu_5ruchy7runtime10assessmentNtB6_13GradingEngine13run_test_case0Ba_
FNDA:0,_RNvMs1_NtNtCsdG3rhVUllIu_5ruchy7runtime10assessmentNtB5_18PlagiarismDetector17extract_structure
FNDA:0,_RNvMs1_NtNtCsdG3rhVUllIu_5ruchy7runtime10assessmentNtB5_18PlagiarismDetector18compute_similarity
FNDA:0,_RNvMs1_NtNtCsdG3rhVUllIu_5ruchy7runtime10assessmentNtB5_18PlagiarismDetector20generate_fingerprint
FNDA:0,_RNvMs1_NtNtCsdG3rhVUllIu_5ruchy7runtime10assessmentNtB5_18PlagiarismDetector3new
FNDA:0,_RNvMs1_NtNtCsdG3rhVUllIu_5ruchy7runtime10assessmentNtB5_18PlagiarismDetector7analyze
FNDA:0,_RNvMs3_NtNtCsdG3rhVUllIu_5ruchy7runtime10assessmentNtB5_13SecureSandbox20create_isolated_repl
FNDA:0,_RNvMs3_NtNtCsdG3rhVUllIu_5ruchy7runtime10assessmentNtB5_13SecureSandbox3new
FNDA:0,_RNvMs4_NtNtCsdG3rhVUllIu_5ruchy7runtime10assessmentNtB5_11GradeReport12mark_invalid
FNDA:0,_RNvMs4_NtNtCsdG3rhVUllIu_5ruchy7runtime10assessmentNtB5_11GradeReport14add_task_grade
FNDA:0,_RNvMs4_NtNtCsdG3rhVUllIu_5ruchy7runtime10assessmentNtB5_11GradeReport21calculate_final_grade
FNDA:0,_RNvMs4_NtNtCsdG3rhVUllIu_5ruchy7runtime10assessmentNtB5_11GradeReport3new
FNDA:0,_RNvMs5_NtNtCsdG3rhVUllIu_5ruchy7runtime10assessmentNtB5_9TaskGrade15add_test_result
FNDA:0,_RNvMs5_NtNtCsdG3rhVUllIu_5ruchy7runtime10assessmentNtB5_9TaskGrade15calculate_score
FNDA:0,_RNvMs5_NtNtCsdG3rhVUllIu_5ruchy7runtime10assessmentNtB5_9TaskGrade17add_hidden_result
FNDA:0,_RNvMs5_NtNtCsdG3rhVUllIu_5ruchy7runtime10assessmentNtB5_9TaskGrade3new
FNDA:0,_RNvMs_NtNtCsdG3rhVUllIu_5ruchy7runtime10assessmentNtB4_13GradingEngine10grade_task
FNDA:0,_RNvMs_NtNtCsdG3rhVUllIu_5ruchy7runtime10assessmentNtB4_13GradingEngine10load_setup
FNDA:0,_RNvMs_NtNtCsdG3rhVUllIu_5ruchy7runtime10assessmentNtB4_13GradingEngine13run_test_case
FNDA:0,_RNvMs_NtNtCsdG3rhVUllIu_5ruchy7runtime10assessmentNtB4_13GradingEngine15evaluate_rubric
FNDA:0,_RNvMs_NtNtCsdG3rhVUllIu_5ruchy7runtime10assessmentNtB4_13GradingEngine16grade_submission
FNDA:0,_RNvMs_NtNtCsdG3rhVUllIu_5ruchy7runtime10assessmentNtB4_13GradingEngine17check_requirement
FNDA:0,_RNvMs_NtNtCsdG3rhVUllIu_5ruchy7runtime10assessmentNtB4_13GradingEngine17evaluate_category
FNDA:0,_RNvMs_NtNtCsdG3rhVUllIu_5ruchy7runtime10assessmentNtB4_13GradingEngine18evaluate_criterion
FNDA:0,_RNvMs_NtNtCsdG3rhVUllIu_5ruchy7runtime10assessmentNtB4_13GradingEngine19measure_performance
FNDA:0,_RNvMs_NtNtCsdG3rhVUllIu_5ruchy7runtime10assessmentNtB4_13GradingEngine19verify_no_tampering
FNDA:0,_RNvMs_NtNtCsdG3rhVUllIu_5ruchy7runtime10assessmentNtB4_13GradingEngine3new
FNDA:0,_RNvXNtNtCsdG3rhVUllIu_5ruchy7runtime10assessmentNtB2_13GradingEngineNtNtCs66KPHxksi63_4core7default7Default7default
FNDA:0,_RNvXs0_NtNtCsdG3rhVUllIu_5ruchy7runtime10assessmentNtB5_18PlagiarismDetectorNtNtCs66KPHxksi63_4core7default7Default7default
FNDA:0,_RNvXs2_NtNtCsdG3rhVUllIu_5ruchy7runtime10assessmentNtB5_13SecureSandboxNtNtCs66KPHxksi63_4core7default7Default7default
FNF:33
FNH:0
DA:191,0
DA:192,0
DA:193,0
DA:197,0
DA:198,0
DA:199,0
DA:200,0
DA:201,0
DA:202,0
DA:203,0
DA:206,0
DA:207,0
DA:208,0
DA:209,0
DA:210,0
DA:211,0
DA:214,0
DA:215,0
DA:216,0
DA:217,0
DA:220,0
DA:221,0
DA:222,0
DA:223,0
DA:224,0
DA:229,0
DA:230,0
DA:231,0
DA:232,0
DA:235,0
DA:236,0
DA:237,0
DA:238,0
DA:241,0
DA:244,0
DA:245,0
DA:246,0
DA:249,0
DA:252,0
DA:254,0
DA:255,0
DA:257,0
DA:259,0
DA:260,0
DA:261,0
DA:262,0
DA:263,0
DA:264,0
DA:269,0
DA:270,0
DA:272,0
DA:274,0
DA:275,0
DA:279,0
DA:280,0
DA:283,0
DA:284,0
DA:286,0
DA:287,0
DA:288,0
DA:289,0
DA:290,0
DA:291,0
DA:292,0
DA:295,0
DA:296,0
DA:297,0
DA:298,0
DA:301,0
DA:302,0
DA:303,0
DA:304,0
DA:307,0
DA:308,0
DA:309,0
DA:310,0
DA:313,0
DA:314,0
DA:315,0
DA:317,0
DA:319,0
DA:320,0
DA:321,0
DA:322,0
DA:323,0
DA:324,0
DA:325,0
DA:326,0
DA:327,0
DA:328,0
DA:332,0
DA:335,0
DA:336,0
DA:337,0
DA:338,0
DA:339,0
DA:340,0
DA:341,0
DA:342,0
DA:345,0
DA:346,0
DA:347,0
DA:348,0
DA:349,0
DA:351,0
DA:353,0
DA:355,0
DA:356,0
DA:357,0
DA:358,0
DA:359,0
DA:361,0
DA:363,0
DA:365,0
DA:367,0
DA:368,0
DA:369,0
DA:371,0
DA:373,0
DA:375,0
DA:379,0
DA:380,0
DA:381,0
DA:382,0
DA:384,0
DA:386,0
DA:388,0
DA:389,0
DA:390,0
DA:391,0
DA:392,0
DA:393,0
DA:394,0
DA:396,0
DA:398,0
DA:399,0
DA:400,0
DA:402,0
DA:403,0
DA:404,0
DA:405,0
DA:406,0
DA:408,0
DA:409,0
DA:411,0
DA:413,0
DA:415,0
DA:416,0
DA:417,0
DA:419,0
DA:420,0
DA:421,0
DA:422,0
DA:424,0
DA:425,0
DA:427,0
DA:429,0
DA:431,0
DA:432,0
DA:433,0
DA:434,0
DA:435,0
DA:436,0
DA:438,0
DA:439,0
DA:441,0
DA:444,0
DA:447,0
DA:448,0
DA:449,0
DA:452,0
DA:454,0
DA:455,0
DA:456,0
DA:457,0
DA:458,0
DA:459,0
DA:462,0
DA:463,0
DA:464,0
DA:465,0
DA:467,0
DA:469,0
DA:470,0
DA:472,0
DA:473,0
DA:474,0
DA:475,0
DA:478,0
DA:479,0
DA:480,0
DA:481,0
DA:483,0
DA:485,0
DA:486,0
DA:487,0
DA:489,0
DA:490,0
DA:491,0
DA:492,0
DA:494,0
DA:495,0
DA:516,0
DA:517,0
DA:518,0
DA:522,0
DA:523,0
DA:524,0
DA:525,0
DA:526,0
DA:528,0
DA:530,0
DA:533,0
DA:534,0
DA:535,0
DA:536,0
DA:537,0
DA:540,0
DA:541,0
DA:543,0
DA:544,0
DA:545,0
DA:548,0
DA:549,0
DA:550,0
DA:551,0
DA:552,0
DA:555,0
DA:556,0
DA:557,0
DA:558,0
DA:559,0
DA:560,0
DA:562,0
DA:564,0
DA:566,0
DA:567,0
DA:568,0
DA:569,0
DA:570,0
DA:571,0
DA:572,0
DA:573,0
DA:574,0
DA:575,0
DA:576,0
DA:577,0
DA:579,0
DA:580,0
DA:582,0
DA:583,0
DA:584,0
DA:585,0
DA:588,0
DA:589,0
DA:590,0
DA:591,0
DA:593,0
DA:594,0
DA:595,0
DA:597,0
DA:599,0
DA:620,0
DA:621,0
DA:622,0
DA:626,0
DA:627,0
DA:628,0
DA:629,0
DA:630,0
DA:631,0
DA:632,0
DA:633,0
DA:634,0
DA:636,0
DA:639,0
DA:640,0
DA:663,0
DA:664,0
DA:665,0
DA:666,0
DA:667,0
DA:668,0
DA:669,0
DA:670,0
DA:671,0
DA:672,0
DA:673,0
DA:674,0
DA:675,0
DA:676,0
DA:678,0
DA:679,0
DA:680,0
DA:681,0
DA:682,0
DA:684,0
DA:685,0
DA:686,0
DA:688,0
DA:689,0
DA:690,0
DA:691,0
DA:692,0
DA:695,0
DA:696,0
DA:698,0
DA:699,0
DA:700,0
DA:701,0
DA:703,0
DA:708,0
DA:709,0
DA:710,0
DA:711,0
DA:714,0
DA:715,0
DA:716,0
DA:717,0
DA:718,0
DA:719,0
DA:720,0
DA:721,0
DA:722,0
DA:723,0
DA:738,0
DA:739,0
DA:740,0
DA:741,0
DA:742,0
DA:743,0
DA:744,0
DA:745,0
DA:746,0
DA:747,0
DA:749,0
DA:750,0
DA:751,0
DA:753,0
DA:754,0
DA:755,0
DA:757,0
DA:758,0
DA:761,0
DA:762,0
DA:763,0
DA:764,0
DA:765,0
DA:766,0
DA:768,0
DA:769,0
BRF:0
BRH:0
LF:355
LH:0
end_of_record
SF:/home/noah/src/ruchy/src/runtime/cache.rs
FN:183,_RNCNvMs1_NtNtCsdG3rhVUllIu_5ruchy7runtime5cacheNtB7_13BytecodeCache16evict_older_thans0_0Bb_
FN:96,_RNCNvMs1_NtNtCsdG3rhVUllIu_5ruchy7runtime5cacheNtB7_13BytecodeCache3get0Bb_
FN:24,_RNvMNtNtCsdG3rhVUllIu_5ruchy7runtime5cacheNtB2_8CacheKey3new
FN:72,_RNvMs1_NtNtCsdG3rhVUllIu_5ruchy7runtime5cacheNtB5_13BytecodeCache13with_capacity
FN:168,_RNvMs1_NtNtCsdG3rhVUllIu_5ruchy7runtime5cacheNtB5_13BytecodeCache16evict_older_than
FN:157,_RNvMs1_NtNtCsdG3rhVUllIu_5ruchy7runtime5cacheNtB5_13BytecodeCache18calculate_hit_rate
FN:88,_RNvMs1_NtNtCsdG3rhVUllIu_5ruchy7runtime5cacheNtB5_13BytecodeCache3get
FN:83,_RNvMs1_NtNtCsdG3rhVUllIu_5ruchy7runtime5cacheNtB5_13BytecodeCache3new
FN:137,_RNvMs1_NtNtCsdG3rhVUllIu_5ruchy7runtime5cacheNtB5_13BytecodeCache5clear
FN:145,_RNvMs1_NtNtCsdG3rhVUllIu_5ruchy7runtime5cacheNtB5_13BytecodeCache5stats
FN:109,_RNvMs1_NtNtCsdG3rhVUllIu_5ruchy7runtime5cacheNtB5_13BytecodeCache6insert
FN:128,_RNvMs1_NtNtCsdG3rhVUllIu_5ruchy7runtime5cacheNtB5_13BytecodeCache9evict_lru
FN:235,_RNvMs4_NtNtCsdG3rhVUllIu_5ruchy7runtime5cacheNtB5_15ExpressionCache10get_parsed
FN:240,_RNvMs4_NtNtCsdG3rhVUllIu_5ruchy7runtime5cacheNtB5_15ExpressionCache12cache_parsed
FN:245,_RNvMs4_NtNtCsdG3rhVUllIu_5ruchy7runtime5cacheNtB5_15ExpressionCache14get_transpiled
FN:250,_RNvMs4_NtNtCsdG3rhVUllIu_5ruchy7runtime5cacheNtB5_15ExpressionCache16cache_transpiled
FN:228,_RNvMs4_NtNtCsdG3rhVUllIu_5ruchy7runtime5cacheNtB5_15ExpressionCache3new
FN:260,_RNvMs4_NtNtCsdG3rhVUllIu_5ruchy7runtime5cacheNtB5_15ExpressionCache5clear
FN:255,_RNvMs4_NtNtCsdG3rhVUllIu_5ruchy7runtime5cacheNtB5_15ExpressionCache5stats
FN:191,_RNvXs2_NtNtCsdG3rhVUllIu_5ruchy7runtime5cacheNtB5_13BytecodeCacheNtNtCs66KPHxksi63_4core7default7Default7default
FN:212,_RNvXs3_NtNtCsdG3rhVUllIu_5ruchy7runtime5cacheNtB5_10CacheStatsNtNtCs66KPHxksi63_4core3fmt7Display3fmt
FN:266,_RNvXs5_NtNtCsdG3rhVUllIu_5ruchy7runtime5cacheNtB5_15ExpressionCacheNtNtCs66KPHxksi63_4core7default7Default7default
FN:35,_RNvXs_NtNtCsdG3rhVUllIu_5ruchy7runtime5cacheNtB4_8CacheKeyNtNtCs66KPHxksi63_4core3cmp9PartialEq2eq
FN:41,_RINvXs0_NtNtCsdG3rhVUllIu_5ruchy7runtime5cacheNtB6_8CacheKeyNtNtCs66KPHxksi63_4core4hash4Hash4hashNtNtNtCsiKSG5X70Gj7_3std4hash6random13DefaultHasherEBa_
FN:176,_RNCNvMs1_NtNtCsdG3rhVUllIu_5ruchy7runtime5cacheNtB7_13BytecodeCache16evict_older_than0Bb_
FN:177,_RNCNvMs1_NtNtCsdG3rhVUllIu_5ruchy7runtime5cacheNtB7_13BytecodeCache16evict_older_thans_0Bb_
FNDA:0,_RNCNvMs1_NtNtCsdG3rhVUllIu_5ruchy7runtime5cacheNtB7_13BytecodeCache16evict_older_thans0_0Bb_
FNDA:0,_RNCNvMs1_NtNtCsdG3rhVUllIu_5ruchy7runtime5cacheNtB7_13BytecodeCache3get0Bb_
FNDA:0,_RNvMNtNtCsdG3rhVUllIu_5ruchy7runtime5cacheNtB2_8CacheKey3new
FNDA:0,_RNvMs1_NtNtCsdG3rhVUllIu_5ruchy7runtime5cacheNtB5_13BytecodeCache13with_capacity
FNDA:0,_RNvMs1_NtNtCsdG3rhVUllIu_5ruchy7runtime5cacheNtB5_13BytecodeCache16evict_older_than
FNDA:0,_RNvMs1_NtNtCsdG3rhVUllIu_5ruchy7runtime5cacheNtB5_13BytecodeCache18calculate_hit_rate
FNDA:0,_RNvMs1_NtNtCsdG3rhVUllIu_5ruchy7runtime5cacheNtB5_13BytecodeCache3get
FNDA:0,_RNvMs1_NtNtCsdG3rhVUllIu_5ruchy7runtime5cacheNtB5_13BytecodeCache3new
FNDA:0,_RNvMs1_NtNtCsdG3rhVUllIu_5ruchy7runtime5cacheNtB5_13BytecodeCache5clear
FNDA:0,_RNvMs1_NtNtCsdG3rhVUllIu_5ruchy7runtime5cacheNtB5_13BytecodeCache5stats
FNDA:0,_RNvMs1_NtNtCsdG3rhVUllIu_5ruchy7runtime5cacheNtB5_13BytecodeCache6insert
FNDA:0,_RNvMs1_NtNtCsdG3rhVUllIu_5ruchy7runtime5cacheNtB5_13BytecodeCache9evict_lru
FNDA:0,_RNvMs4_NtNtCsdG3rhVUllIu_5ruchy7runtime5cacheNtB5_15ExpressionCache10get_parsed
FNDA:0,_RNvMs4_NtNtCsdG3rhVUllIu_5ruchy7runtime5cacheNtB5_15ExpressionCache12cache_parsed
FNDA:0,_RNvMs4_NtNtCsdG3rhVUllIu_5ruchy7runtime5cacheNtB5_15ExpressionCache14get_transpiled
FNDA:0,_RNvMs4_NtNtCsdG3rhVUllIu_5ruchy7runtime5cacheNtB5_15ExpressionCache16cache_transpiled
FNDA:0,_RNvMs4_NtNtCsdG3rhVUllIu_5ruchy7runtime5cacheNtB5_15ExpressionCache3new
FNDA:0,_RNvMs4_NtNtCsdG3rhVUllIu_5ruchy7runtime5cacheNtB5_15ExpressionCache5clear
FNDA:0,_RNvMs4_NtNtCsdG3rhVUllIu_5ruchy7runtime5cacheNtB5_15ExpressionCache5stats
FNDA:0,_RNvXs2_NtNtCsdG3rhVUllIu_5ruchy7runtime5cacheNtB5_13BytecodeCacheNtNtCs66KPHxksi63_4core7default7Default7default
FNDA:0,_RNvXs3_NtNtCsdG3rhVUllIu_5ruchy7runtime5cacheNtB5_10CacheStatsNtNtCs66KPHxksi63_4core3fmt7Display3fmt
FNDA:0,_RNvXs5_NtNtCsdG3rhVUllIu_5ruchy7runtime5cacheNtB5_15ExpressionCacheNtNtCs66KPHxksi63_4core7default7Default7default
FNDA:0,_RNvXs_NtNtCsdG3rhVUllIu_5ruchy7runtime5cacheNtB4_8CacheKeyNtNtCs66KPHxksi63_4core3cmp9PartialEq2eq
FNDA:0,_RINvXs0_NtNtCsdG3rhVUllIu_5ruchy7runtime5cacheNtB6_8CacheKeyNtNtCs66KPHxksi63_4core4hash4Hash4hashNtNtNtCsiKSG5X70Gj7_3std4hash6random13DefaultHasherEBa_
FNDA:0,_RNCNvMs1_NtNtCsdG3rhVUllIu_5ruchy7runtime5cacheNtB7_13BytecodeCache16evict_older_than0Bb_
FNDA:0,_RNCNvMs1_NtNtCsdG3rhVUllIu_5ruchy7runtime5cacheNtB7_13BytecodeCache16evict_older_thans_0Bb_
FNF:26
FNH:0
DA:24,0
DA:25,0
DA:26,0
DA:27,0
DA:28,0
DA:30,0
DA:31,0
DA:35,0
DA:36,0
DA:37,0
DA:41,0
DA:42,0
DA:43,0
DA:72,0
DA:73,0
DA:74,0
DA:75,0
DA:76,0
DA:77,0
DA:78,0
DA:79,0
DA:80,0
DA:83,0
DA:84,0
DA:85,0
DA:88,0
DA:89,0
DA:91,0
DA:92,0
DA:95,0
DA:96,0
DA:97,0
DA:98,0
DA:99,0
DA:101,0
DA:103,0
DA:104,0
DA:106,0
DA:109,0
DA:110,0
DA:113,0
DA:114,0
DA:115,0
DA:117,0
DA:118,0
DA:119,0
DA:120,0
DA:121,0
DA:123,0
DA:124,0
DA:125,0
DA:128,0
DA:129,0
DA:130,0
DA:131,0
DA:132,0
DA:133,0
DA:134,0
DA:137,0
DA:138,0
DA:139,0
DA:140,0
DA:141,0
DA:142,0
DA:145,0
DA:146,0
DA:147,0
DA:148,0
DA:149,0
DA:150,0
DA:151,0
DA:152,0
DA:153,0
DA:157,0
DA:158,0
DA:159,0
DA:160,0
DA:161,0
DA:163,0
DA:165,0
DA:168,0
DA:169,0
DA:170,0
DA:171,0
DA:174,0
DA:175,0
DA:176,0
DA:177,0
DA:178,0
DA:181,0
DA:182,0
DA:183,0
DA:184,0
DA:185,0
DA:187,0
DA:191,0
DA:192,0
DA:193,0
DA:212,0
DA:213,0
DA:214,0
DA:215,0
DA:218,0
DA:228,0
DA:229,0
DA:230,0
DA:231,0
DA:232,0
DA:235,0
DA:236,0
DA:237,0
DA:240,0
DA:241,0
DA:242,0
DA:245,0
DA:246,0
DA:247,0
DA:250,0
DA:251,0
DA:252,0
DA:255,0
DA:256,0
DA:257,0
DA:260,0
DA:261,0
DA:262,0
DA:266,0
DA:267,0
DA:268,0
BRF:0
BRH:0
LF:133
LH:0
end_of_record
SF:/home/noah/src/ruchy/src/runtime/completion.rs
FN:750,_RNCNvMs8_NtNtCsdG3rhVUllIu_5ruchy7runtime10completionNtB7_14RuchyCompleter15find_word_start0Bb_
FN:751,_RNCNvMs8_NtNtCsdG3rhVUllIu_5ruchy7runtime10completionNtB7_14RuchyCompleter15find_word_starts_0Bb_
FN:38,_RNvMNtNtCsdG3rhVUllIu_5ruchy7runtime10completionNtB2_14CompletionKind6prefix
FN:52,_RNvMNtNtCsdG3rhVUllIu_5ruchy7runtime10completionNtB2_14CompletionKind8priority
FN:507,_RNvMs0_NtNtCsdG3rhVUllIu_5ruchy7runtime10completionNtB5_15CompletionCache3get
FN:499,_RNvMs0_NtNtCsdG3rhVUllIu_5ruchy7runtime10completionNtB5_15CompletionCache3new
FN:512,_RNvMs0_NtNtCsdG3rhVUllIu_5ruchy7runtime10completionNtB5_15CompletionCache3put
FN:526,_RNvMs0_NtNtCsdG3rhVUllIu_5ruchy7runtime10completionNtB5_15CompletionCache5clear
FN:670,_RNvMs1_NtNtCsdG3rhVUllIu_5ruchy7runtime10completionNtB5_14RuchyCompleter15analyze_context
FN:612,_RNvMs1_NtNtCsdG3rhVUllIu_5ruchy7runtime10completionNtB5_14RuchyCompleter15create_builtins
FN:621,_RNvMs1_NtNtCsdG3rhVUllIu_5ruchy7runtime10completionNtB5_14RuchyCompleter15get_completions
FN:661,_RNvMs1_NtNtCsdG3rhVUllIu_5ruchy7runtime10completionNtB5_14RuchyCompleter19add_builtin_matches
FN:647,_RNvMs1_NtNtCsdG3rhVUllIu_5ruchy7runtime10completionNtB5_14RuchyCompleter20add_variable_matches
FN:604,_RNvMs1_NtNtCsdG3rhVUllIu_5ruchy7runtime10completionNtB5_14RuchyCompleter3new
FN:709,_RNvMs5_NtNtCsdG3rhVUllIu_5ruchy7runtime10completionNtB5_14RuchyCompleter11create_hint
FN:748,_RNvMs8_NtNtCsdG3rhVUllIu_5ruchy7runtime10completionNtB5_14RuchyCompleter15find_word_start
FN:763,_RNvMs8_NtNtCsdG3rhVUllIu_5ruchy7runtime10completionNtB5_14RuchyCompleter16convert_to_pairs
FN:755,_RNvMs8_NtNtCsdG3rhVUllIu_5ruchy7runtime10completionNtB5_14RuchyCompleter21get_basic_completions
FN:359,_RNvMs_NtNtCsdG3rhVUllIu_5ruchy7runtime10completionNtB4_16CompletionEngine10infer_type
FN:347,_RNvMs_NtNtCsdG3rhVUllIu_5ruchy7runtime10completionNtB4_16CompletionEngine13register_type
FN:150,_RNvMs_NtNtCsdG3rhVUllIu_5ruchy7runtime10completionNtB4_16CompletionEngine15analyze_context
FN:468,_RNvMs_NtNtCsdG3rhVUllIu_5ruchy7runtime10completionNtB4_16CompletionEngine15default_methods
FN:432,_RNvMs_NtNtCsdG3rhVUllIu_5ruchy7runtime10completionNtB4_16CompletionEngine15get_command_doc
FN:119,_RNvMs_NtNtCsdG3rhVUllIu_5ruchy7runtime10completionNtB4_16CompletionEngine15get_completions
FN:458,_RNvMs_NtNtCsdG3rhVUllIu_5ruchy7runtime10completionNtB4_16CompletionEngine16default_commands
FN:449,_RNvMs_NtNtCsdG3rhVUllIu_5ruchy7runtime10completionNtB4_16CompletionEngine16default_keywords
FN:353,_RNvMs_NtNtCsdG3rhVUllIu_5ruchy7runtime10completionNtB4_16CompletionEngine16register_methods
FN:341,_RNvMs_NtNtCsdG3rhVUllIu_5ruchy7runtime10completionNtB4_16CompletionEngine17register_function
FN:335,_RNvMs_NtNtCsdG3rhVUllIu_5ruchy7runtime10completionNtB4_16CompletionEngine17register_variable
FN:391,_RNvMs_NtNtCsdG3rhVUllIu_5ruchy7runtime10completionNtB4_16CompletionEngine20extract_current_word
FN:408,_RNvMs_NtNtCsdG3rhVUllIu_5ruchy7runtime10completionNtB4_16CompletionEngine21calculate_fuzzy_score
FN:219,_RNvMs_NtNtCsdG3rhVUllIu_5ruchy7runtime10completionNtB4_16CompletionEngine22get_member_completions
FN:243,_RNvMs_NtNtCsdG3rhVUllIu_5ruchy7runtime10completionNtB4_16CompletionEngine22get_module_completions
FN:264,_RNvMs_NtNtCsdG3rhVUllIu_5ruchy7runtime10completionNtB4_16CompletionEngine23get_command_completions
FN:284,_RNvMs_NtNtCsdG3rhVUllIu_5ruchy7runtime10completionNtB4_16CompletionEngine26get_expression_completions
FN:185,_RNvMs_NtNtCsdG3rhVUllIu_5ruchy7runtime10completionNtB4_16CompletionEngine26get_line_start_completions
FN:105,_RNvMs_NtNtCsdG3rhVUllIu_5ruchy7runtime10completionNtB4_16CompletionEngine3new
FN:690,_RNvXs3_NtNtCsdG3rhVUllIu_5ruchy7runtime10completionNtB5_14RuchyCompleterNtNtCsd1BUmkCZ3Cs_9rustyline8validate9Validator8validate
FN:701,_RNvXs4_NtNtCsdG3rhVUllIu_5ruchy7runtime10completionNtB5_14RuchyCompleterNtNtCsd1BUmkCZ3Cs_9rustyline4hint6Hinter4hint
FN:719,_RNvXs6_NtNtCsdG3rhVUllIu_5ruchy7runtime10completionNtB5_14RuchyCompleterNtNtCsd1BUmkCZ3Cs_9rustyline9highlight11Highlighter9highlight
FN:729,_RNvXs7_NtNtCsdG3rhVUllIu_5ruchy7runtime10completionNtB5_14RuchyCompleterNtNtCsd1BUmkCZ3Cs_9rustyline10completion9Completer8complete
FN:757,_RNCNvMs8_NtNtCsdG3rhVUllIu_5ruchy7runtime10completionNtB7_14RuchyCompleter21get_basic_completions0Bb_
FN:765,_RNCNvMs8_NtNtCsdG3rhVUllIu_5ruchy7runtime10completionNtB7_14RuchyCompleter16convert_to_pairs0Bb_
FN:143,_RNCNvMs_NtNtCsdG3rhVUllIu_5ruchy7runtime10completionNtB6_16CompletionEngine15get_completions0Ba_
FNDA:0,_RNCNvMs8_NtNtCsdG3rhVUllIu_5ruchy7runtime10completionNtB7_14RuchyCompleter15find_word_start0Bb_
FNDA:0,_RNCNvMs8_NtNtCsdG3rhVUllIu_5ruchy7runtime10completionNtB7_14RuchyCompleter15find_word_starts_0Bb_
FNDA:0,_RNvMNtNtCsdG3rhVUllIu_5ruchy7runtime10completionNtB2_14CompletionKind6prefix
FNDA:0,_RNvMNtNtCsdG3rhVUllIu_5ruchy7runtime10completionNtB2_14CompletionKind8priority
FNDA:0,_RNvMs0_NtNtCsdG3rhVUllIu_5ruchy7runtime10completionNtB5_15CompletionCache3get
FNDA:0,_RNvMs0_NtNtCsdG3rhVUllIu_5ruchy7runtime10completionNtB5_15CompletionCache3new
FNDA:0,_RNvMs0_NtNtCsdG3rhVUllIu_5ruchy7runtime10completionNtB5_15CompletionCache3put
FNDA:0,_RNvMs0_NtNtCsdG3rhVUllIu_5ruchy7runtime10completionNtB5_15CompletionCache5clear
FNDA:1,_RNvMs1_NtNtCsdG3rhVUllIu_5ruchy7runtime10completionNtB5_14RuchyCompleter15analyze_context
FNDA:11,_RNvMs1_NtNtCsdG3rhVUllIu_5ruchy7runtime10completionNtB5_14RuchyCompleter15create_builtins
FNDA:10010,_RNvMs1_NtNtCsdG3rhVUllIu_5ruchy7runtime10completionNtB5_14RuchyCompleter15get_completions
FNDA:109,_RNvMs1_NtNtCsdG3rhVUllIu_5ruchy7runtime10completionNtB5_14RuchyCompleter19add_builtin_matches
FNDA:109,_RNvMs1_NtNtCsdG3rhVUllIu_5ruchy7runtime10completionNtB5_14RuchyCompleter20add_variable_matches
FNDA:11,_RNvMs1_NtNtCsdG3rhVUllIu_5ruchy7runtime10completionNtB5_14RuchyCompleter3new
FNDA:0,_RNvMs5_NtNtCsdG3rhVUllIu_5ruchy7runtime10completionNtB5_14RuchyCompleter11create_hint
FNDA:0,_RNvMs8_NtNtCsdG3rhVUllIu_5ruchy7runtime10completionNtB5_14RuchyCompleter15find_word_start
FNDA:0,_RNvMs8_NtNtCsdG3rhVUllIu_5ruchy7runtime10completionNtB5_14RuchyCompleter16convert_to_pairs
FNDA:0,_RNvMs8_NtNtCsdG3rhVUllIu_5ruchy7runtime10completionNtB5_14RuchyCompleter21get_basic_completions
FNDA:0,_RNvMs_NtNtCsdG3rhVUllIu_5ruchy7runtime10completionNtB4_16CompletionEngine10infer_type
FNDA:0,_RNvMs_NtNtCsdG3rhVUllIu_5ruchy7runtime10completionNtB4_16CompletionEngine13register_type
FNDA:0,_RNvMs_NtNtCsdG3rhVUllIu_5ruchy7runtime10completionNtB4_16CompletionEngine15analyze_context
FNDA:0,_RNvMs_NtNtCsdG3rhVUllIu_5ruchy7runtime10completionNtB4_16CompletionEngine15default_methods
FNDA:0,_RNvMs_NtNtCsdG3rhVUllIu_5ruchy7runtime10completionNtB4_16CompletionEngine15get_command_doc
FNDA:0,_RNvMs_NtNtCsdG3rhVUllIu_5ruchy7runtime10completionNtB4_16CompletionEngine15get_completions
FNDA:0,_RNvMs_NtNtCsdG3rhVUllIu_5ruchy7runtime10completionNtB4_16CompletionEngine16default_commands
FNDA:0,_RNvMs_NtNtCsdG3rhVUllIu_5ruchy7runtime10completionNtB4_16CompletionEngine16default_keywords
FNDA:0,_RNvMs_NtNtCsdG3rhVUllIu_5ruchy7runtime10completionNtB4_16CompletionEngine16register_methods
FNDA:0,_RNvMs_NtNtCsdG3rhVUllIu_5ruchy7runtime10completionNtB4_16CompletionEngine17register_function
FNDA:0,_RNvMs_NtNtCsdG3rhVUllIu_5ruchy7runtime10completionNtB4_16CompletionEngine17register_variable
FNDA:0,_RNvMs_NtNtCsdG3rhVUllIu_5ruchy7runtime10completionNtB4_16CompletionEngine20extract_current_word
FNDA:0,_RNvMs_NtNtCsdG3rhVUllIu_5ruchy7runtime10completionNtB4_16CompletionEngine21calculate_fuzzy_score
FNDA:0,_RNvMs_NtNtCsdG3rhVUllIu_5ruchy7runtime10completionNtB4_16CompletionEngine22get_member_completions
FNDA:0,_RNvMs_NtNtCsdG3rhVUllIu_5ruchy7runtime10completionNtB4_16CompletionEngine22get_module_completions
FNDA:0,_RNvMs_NtNtCsdG3rhVUllIu_5ruchy7runtime10completionNtB4_16CompletionEngine23get_command_completions
FNDA:0,_RNvMs_NtNtCsdG3rhVUllIu_5ruchy7runtime10completionNtB4_16CompletionEngine26get_expression_completions
FNDA:0,_RNvMs_NtNtCsdG3rhVUllIu_5ruchy7runtime10completionNtB4_16CompletionEngine26get_line_start_completions
FNDA:0,_RNvMs_NtNtCsdG3rhVUllIu_5ruchy7runtime10completionNtB4_16CompletionEngine3new
FNDA:0,_RNvXs3_NtNtCsdG3rhVUllIu_5ruchy7runtime10completionNtB5_14RuchyCompleterNtNtCsd1BUmkCZ3Cs_9rustyline8validate9Validator8validate
FNDA:0,_RNvXs4_NtNtCsdG3rhVUllIu_5ruchy7runtime10completionNtB5_14RuchyCompleterNtNtCsd1BUmkCZ3Cs_9rustyline4hint6Hinter4hint
FNDA:0,_RNvXs6_NtNtCsdG3rhVUllIu_5ruchy7runtime10completionNtB5_14RuchyCompleterNtNtCsd1BUmkCZ3Cs_9rustyline9highlight11Highlighter9highlight
FNDA:0,_RNvXs7_NtNtCsdG3rhVUllIu_5ruchy7runtime10completionNtB5_14RuchyCompleterNtNtCsd1BUmkCZ3Cs_9rustyline10completion9Completer8complete
FNDA:0,_RNCNvMs8_NtNtCsdG3rhVUllIu_5ruchy7runtime10completionNtB7_14RuchyCompleter21get_basic_completions0Bb_
FNDA:0,_RNCNvMs8_NtNtCsdG3rhVUllIu_5ruchy7runtime10completionNtB7_14RuchyCompleter16convert_to_pairs0Bb_
FNDA:0,_RNCNvMs_NtNtCsdG3rhVUllIu_5ruchy7runtime10completionNtB6_16CompletionEngine15get_completions0Ba_
FNF:44
FNH:6
DA:38,0
DA:39,0
DA:40,0
DA:41,0
DA:42,0
DA:43,0
DA:44,0
DA:45,0
DA:46,0
DA:47,0
DA:49,0
DA:52,0
DA:53,0
DA:54,0
DA:55,0
DA:56,0
DA:57,0
DA:58,0
DA:59,0
DA:60,0
DA:61,0
DA:63,0
DA:105,0
DA:106,0
DA:107,0
DA:108,0
DA:109,0
DA:110,0
DA:111,0
DA:112,0
DA:113,0
DA:114,0
DA:115,0
DA:116,0
DA:119,0
DA:121,0
DA:122,0
DA:123,0
DA:126,0
DA:129,0
DA:130,0
DA:131,0
DA:132,0
DA:134,0
DA:135,0
DA:137,0
DA:138,0
DA:142,0
DA:143,0
DA:145,0
DA:146,0
DA:147,0
DA:150,0
DA:151,0
DA:154,0
DA:155,0
DA:156,0
DA:159,0
DA:160,0
DA:161,0
DA:162,0
DA:163,0
DA:164,0
DA:165,0
DA:166,0
DA:169,0
DA:170,0
DA:171,0
DA:172,0
DA:173,0
DA:174,0
DA:177,0
DA:178,0
DA:179,0
DA:181,0
DA:182,0
DA:185,0
DA:186,0
DA:189,0
DA:190,0
DA:191,0
DA:192,0
DA:193,0
DA:194,0
DA:195,0
DA:196,0
DA:197,0
DA:198,0
DA:202,0
DA:203,0
DA:204,0
DA:205,0
DA:206,0
DA:207,0
DA:208,0
DA:209,0
DA:210,0
DA:211,0
DA:212,0
DA:215,0
DA:216,0
DA:219,0
DA:220,0
DA:223,0
DA:224,0
DA:226,0
DA:227,0
DA:228,0
DA:229,0
DA:230,0
DA:231,0
DA:232,0
DA:233,0
DA:234,0
DA:235,0
DA:237,0
DA:239,0
DA:240,0
DA:243,0
DA:244,0
DA:245,0
DA:248,0
DA:249,0
DA:250,0
DA:251,0
DA:252,0
DA:253,0
DA:254,0
DA:255,0
DA:256,0
DA:257,0
DA:260,0
DA:261,0
DA:264,0
DA:265,0
DA:266,0
DA:268,0
DA:269,0
DA:270,0
DA:271,0
DA:272,0
DA:273,0
DA:274,0
DA:275,0
DA:276,0
DA:277,0
DA:280,0
DA:281,0
DA:284,0
DA:285,0
DA:286,0
DA:289,0
DA:290,0
DA:291,0
DA:292,0
DA:293,0
DA:294,0
DA:295,0
DA:296,0
DA:297,0
DA:298,0
DA:299,0
DA:303,0
DA:304,0
DA:305,0
DA:306,0
DA:307,0
DA:308,0
DA:309,0
DA:310,0
DA:311,0
DA:312,0
DA:313,0
DA:314,0
DA:318,0
DA:319,0
DA:320,0
DA:321,0
DA:322,0
DA:323,0
DA:324,0
DA:325,0
DA:326,0
DA:327,0
DA:328,0
DA:331,0
DA:332,0
DA:335,0
DA:336,0
DA:337,0
DA:338,0
DA:341,0
DA:342,0
DA:343,0
DA:344,0
DA:347,0
DA:348,0
DA:349,0
DA:350,0
DA:353,0
DA:354,0
DA:355,0
DA:356,0
DA:359,0
DA:361,0
DA:362,0
DA:363,0
DA:365,0
DA:366,0
DA:367,0
DA:369,0
DA:370,0
DA:371,0
DA:373,0
DA:374,0
DA:375,0
DA:377,0
DA:378,0
DA:379,0
DA:382,0
DA:384,0
DA:385,0
DA:387,0
DA:388,0
DA:391,0
DA:392,0
DA:393,0
DA:396,0
DA:397,0
DA:398,0
DA:399,0
DA:400,0
DA:401,0
DA:404,0
DA:405,0
DA:408,0
DA:409,0
DA:410,0
DA:411,0
DA:414,0
DA:415,0
DA:416,0
DA:419,0
DA:420,0
DA:421,0
DA:424,0
DA:425,0
DA:426,0
DA:428,0
DA:429,0
DA:432,0
DA:433,0
DA:434,0
DA:435,0
DA:436,0
DA:437,0
DA:438,0
DA:439,0
DA:440,0
DA:441,0
DA:442,0
DA:443,0
DA:444,0
DA:446,0
DA:449,0
DA:450,0
DA:451,0
DA:452,0
DA:453,0
DA:454,0
DA:455,0
DA:458,0
DA:459,0
DA:460,0
DA:461,0
DA:462,0
DA:463,0
DA:464,0
DA:465,0
DA:468,0
DA:469,0
DA:471,0
DA:472,0
DA:473,0
DA:474,0
DA:475,0
DA:477,0
DA:478,0
DA:479,0
DA:480,0
DA:482,0
DA:483,0
DA:484,0
DA:485,0
DA:487,0
DA:488,0
DA:499,0
DA:500,0
DA:501,0
DA:502,0
DA:503,0
DA:504,0
DA:507,0
DA:508,0
DA:509,0
DA:512,0
DA:513,0
DA:515,0
DA:516,0
DA:517,0
DA:518,0
DA:519,0
DA:520,0
DA:522,0
DA:523,0
DA:526,0
DA:527,0
DA:528,0
DA:604,11
DA:605,11
DA:606,11
DA:607,11
DA:608,11
DA:609,11
DA:612,11
DA:613,11
DA:614,11
DA:615,11
DA:616,11
DA:618,11
DA:621,10010
DA:622,10010
DA:623,10010
DA:624,10010
DA:625,10010
DA:626,10010
DA:628,10010
DA:629,9901
DA:630,109
DA:632,109
DA:635,109
DA:638,109
DA:641,109
DA:643,109
DA:644,10010
DA:647,109
DA:648,109
DA:649,109
DA:650,109
DA:651,109
DA:652,109
DA:653,1002
DA:654,1002
DA:655,1002
DA:656,1002
DA:658,109
DA:661,109
DA:662,436
DA:663,327
DA:664,11
DA:665,316
DA:667,109
DA:670,1
DA:671,1
DA:672,0
DA:673,1
DA:674,1
DA:675,0
DA:676,0
DA:678,0
DA:680,1
DA:690,0
DA:691,0
DA:693,0
DA:694,0
DA:701,0
DA:702,0
DA:703,0
DA:704,0
DA:709,0
DA:710,0
DA:711,0
DA:712,0
DA:714,0
DA:719,0
DA:721,0
DA:722,0
DA:729,0
DA:730,0
DA:733,0
DA:734,0
DA:737,0
DA:740,0
DA:742,0
DA:743,0
DA:748,0
DA:749,0
DA:750,0
DA:751,0
DA:752,0
DA:755,0
DA:756,0
DA:757,0
DA:758,0
DA:759,0
DA:760,0
DA:763,0
DA:764,0
DA:765,0
DA:766,0
DA:767,0
BRF:0
BRH:0
LF:416
LH:49
end_of_record
SF:/home/noah/src/ruchy/src/runtime/dataflow_debugger.rs
FN:731,_RNCNvMs_NtNtCsdG3rhVUllIu_5ruchy7runtime17dataflow_debuggerNtB6_16DataflowDebugger12record_event0Ba_
FN:442,_RNCNvMs_NtNtCsdG3rhVUllIu_5ruchy7runtime17dataflow_debuggerNtB6_16DataflowDebugger13execute_stage0Ba_
FN:476,_RNCNvMs_NtNtCsdG3rhVUllIu_5ruchy7runtime17dataflow_debuggerNtB6_16DataflowDebugger13execute_stages_0Ba_
FN:402,_RNCNvMs_NtNtCsdG3rhVUllIu_5ruchy7runtime17dataflow_debuggerNtB6_16DataflowDebugger13start_session0Ba_
FN:418,_RNCNvMs_NtNtCsdG3rhVUllIu_5ruchy7runtime17dataflow_debuggerNtB6_16DataflowDebugger14add_breakpoint0Ba_
FN:641,_RNCNvMs_NtNtCsdG3rhVUllIu_5ruchy7runtime17dataflow_debuggerNtB6_16DataflowDebugger16check_breakpoint0Ba_
FN:614,_RNCNvMs_NtNtCsdG3rhVUllIu_5ruchy7runtime17dataflow_debuggerNtB6_16DataflowDebugger17export_debug_data0Ba_
FN:596,_RNCNvMs_NtNtCsdG3rhVUllIu_5ruchy7runtime17dataflow_debuggerNtB6_16DataflowDebugger17get_stage_metrics0Ba_
FN:528,_RNCNvMs_NtNtCsdG3rhVUllIu_5ruchy7runtime17dataflow_debuggerNtB6_16DataflowDebugger17materialize_stage0Ba_
FN:428,_RNCNvMs_NtNtCsdG3rhVUllIu_5ruchy7runtime17dataflow_debuggerNtB6_16DataflowDebugger17remove_breakpoint0Ba_
FN:545,_RNCNvMs_NtNtCsdG3rhVUllIu_5ruchy7runtime17dataflow_debuggerNtB6_16DataflowDebugger18compute_stage_diff0Ba_
FN:550,_RNCNvMs_NtNtCsdG3rhVUllIu_5ruchy7runtime17dataflow_debuggerNtB6_16DataflowDebugger18compute_stage_diffs0_0Ba_
FN:548,_RNCNvMs_NtNtCsdG3rhVUllIu_5ruchy7runtime17dataflow_debuggerNtB6_16DataflowDebugger18compute_stage_diffs_0Ba_
FN:578,_RNCNvMs_NtNtCsdG3rhVUllIu_5ruchy7runtime17dataflow_debuggerNtB6_16DataflowDebugger18get_session_status0Ba_
FN:587,_RNCNvMs_NtNtCsdG3rhVUllIu_5ruchy7runtime17dataflow_debuggerNtB6_16DataflowDebugger21get_execution_history0Ba_
FN:677,_RNCNvMs_NtNtCsdG3rhVUllIu_5ruchy7runtime17dataflow_debuggerNtB6_16DataflowDebugger21handle_breakpoint_hit0Ba_
FN:687,_RNCNvMs_NtNtCsdG3rhVUllIu_5ruchy7runtime17dataflow_debuggerNtB6_16DataflowDebugger21handle_breakpoint_hits_0Ba_
FN:721,_RNvMs_NtNtCsdG3rhVUllIu_5ruchy7runtime17dataflow_debuggerNtB4_16DataflowDebugger12record_event
FN:646,_RNvMs_NtNtCsdG3rhVUllIu_5ruchy7runtime17dataflow_debuggerNtB4_16DataflowDebugger12should_break
FN:434,_RNvMs_NtNtCsdG3rhVUllIu_5ruchy7runtime17dataflow_debuggerNtB4_16DataflowDebugger13execute_stage
FN:399,_RNvMs_NtNtCsdG3rhVUllIu_5ruchy7runtime17dataflow_debuggerNtB4_16DataflowDebugger13start_session
FN:415,_RNvMs_NtNtCsdG3rhVUllIu_5ruchy7runtime17dataflow_debuggerNtB4_16DataflowDebugger14add_breakpoint
FN:638,_RNvMs_NtNtCsdG3rhVUllIu_5ruchy7runtime17dataflow_debuggerNtB4_16DataflowDebugger16check_breakpoint
FN:602,_RNvMs_NtNtCsdG3rhVUllIu_5ruchy7runtime17dataflow_debuggerNtB4_16DataflowDebugger17export_debug_data
FN:593,_RNvMs_NtNtCsdG3rhVUllIu_5ruchy7runtime17dataflow_debuggerNtB4_16DataflowDebugger17get_stage_metrics
FN:494,_RNvMs_NtNtCsdG3rhVUllIu_5ruchy7runtime17dataflow_debuggerNtB4_16DataflowDebugger17materialize_stage
FN:425,_RNvMs_NtNtCsdG3rhVUllIu_5ruchy7runtime17dataflow_debuggerNtB4_16DataflowDebugger17remove_breakpoint
FN:542,_RNvMs_NtNtCsdG3rhVUllIu_5ruchy7runtime17dataflow_debuggerNtB4_16DataflowDebugger18compute_stage_diff
FN:575,_RNvMs_NtNtCsdG3rhVUllIu_5ruchy7runtime17dataflow_debuggerNtB4_16DataflowDebugger18get_session_status
FN:765,_RNvMs_NtNtCsdG3rhVUllIu_5ruchy7runtime17dataflow_debuggerNtB4_16DataflowDebugger20compute_data_changes
FN:584,_RNvMs_NtNtCsdG3rhVUllIu_5ruchy7runtime17dataflow_debuggerNtB4_16DataflowDebugger21get_execution_history
FN:673,_RNvMs_NtNtCsdG3rhVUllIu_5ruchy7runtime17dataflow_debuggerNtB4_16DataflowDebugger21handle_breakpoint_hit
FN:743,_RNvMs_NtNtCsdG3rhVUllIu_5ruchy7runtime17dataflow_debuggerNtB4_16DataflowDebugger22compute_column_changes
FN:386,_RNvMs_NtNtCsdG3rhVUllIu_5ruchy7runtime17dataflow_debuggerNtB4_16DataflowDebugger3new
FN:370,_RNvXNtNtCsdG3rhVUllIu_5ruchy7runtime17dataflow_debuggerNtB2_14DataflowConfigNtNtCs66KPHxksi63_4core7default7Default7default
FN:847,_RNvXs0_NtNtCsdG3rhVUllIu_5ruchy7runtime17dataflow_debuggerNtB5_12SessionStateNtNtCs66KPHxksi63_4core7default7Default7default
FN:860,_RNvXs1_NtNtCsdG3rhVUllIu_5ruchy7runtime17dataflow_debuggerNtB5_9StageTypeNtNtCs66KPHxksi63_4core3fmt7Display3fmt
FN:878,_RNvXs2_NtNtCsdG3rhVUllIu_5ruchy7runtime17dataflow_debuggerNtB5_11StageStatusNtNtCs66KPHxksi63_4core3fmt7Display3fmt
FN:891,_RNvXs3_NtNtCsdG3rhVUllIu_5ruchy7runtime17dataflow_debuggerNtB5_8DataTypeNtNtCs66KPHxksi63_4core3fmt7Display3fmt
FN:912,_RNvXs4_NtNtCsdG3rhVUllIu_5ruchy7runtime17dataflow_debuggerNtB5_9DataValueNtNtCs66KPHxksi63_4core3fmt7Display3fmt
FN:747,_RNCNvMs_NtNtCsdG3rhVUllIu_5ruchy7runtime17dataflow_debuggerNtB6_16DataflowDebugger22compute_column_changes0Ba_
FN:748,_RNCNvMs_NtNtCsdG3rhVUllIu_5ruchy7runtime17dataflow_debuggerNtB6_16DataflowDebugger22compute_column_changess_0Ba_
FNDA:0,_RNCNvMs_NtNtCsdG3rhVUllIu_5ruchy7runtime17dataflow_debuggerNtB6_16DataflowDebugger12record_event0Ba_
FNDA:0,_RNCNvMs_NtNtCsdG3rhVUllIu_5ruchy7runtime17dataflow_debuggerNtB6_16DataflowDebugger13execute_stage0Ba_
FNDA:0,_RNCNvMs_NtNtCsdG3rhVUllIu_5ruchy7runtime17dataflow_debuggerNtB6_16DataflowDebugger13execute_stages_0Ba_
FNDA:0,_RNCNvMs_NtNtCsdG3rhVUllIu_5ruchy7runtime17dataflow_debuggerNtB6_16DataflowDebugger13start_session0Ba_
FNDA:0,_RNCNvMs_NtNtCsdG3rhVUllIu_5ruchy7runtime17dataflow_debuggerNtB6_16DataflowDebugger14add_breakpoint0Ba_
FNDA:0,_RNCNvMs_NtNtCsdG3rhVUllIu_5ruchy7runtime17dataflow_debuggerNtB6_16DataflowDebugger16check_breakpoint0Ba_
FNDA:0,_RNCNvMs_NtNtCsdG3rhVUllIu_5ruchy7runtime17dataflow_debuggerNtB6_16DataflowDebugger17export_debug_data0Ba_
FNDA:0,_RNCNvMs_NtNtCsdG3rhVUllIu_5ruchy7runtime17dataflow_debuggerNtB6_16DataflowDebugger17get_stage_metrics0Ba_
FNDA:0,_RNCNvMs_NtNtCsdG3rhVUllIu_5ruchy7runtime17dataflow_debuggerNtB6_16DataflowDebugger17materialize_stage0Ba_
FNDA:0,_RNCNvMs_NtNtCsdG3rhVUllIu_5ruchy7runtime17dataflow_debuggerNtB6_16DataflowDebugger17remove_breakpoint0Ba_
FNDA:0,_RNCNvMs_NtNtCsdG3rhVUllIu_5ruchy7runtime17dataflow_debuggerNtB6_16DataflowDebugger18compute_stage_diff0Ba_
FNDA:0,_RNCNvMs_NtNtCsdG3rhVUllIu_5ruchy7runtime17dataflow_debuggerNtB6_16DataflowDebugger18compute_stage_diffs0_0Ba_
FNDA:0,_RNCNvMs_NtNtCsdG3rhVUllIu_5ruchy7runtime17dataflow_debuggerNtB6_16DataflowDebugger18compute_stage_diffs_0Ba_
FNDA:0,_RNCNvMs_NtNtCsdG3rhVUllIu_5ruchy7runtime17dataflow_debuggerNtB6_16DataflowDebugger18get_session_status0Ba_
FNDA:0,_RNCNvMs_NtNtCsdG3rhVUllIu_5ruchy7runtime17dataflow_debuggerNtB6_16DataflowDebugger21get_execution_history0Ba_
FNDA:0,_RNCNvMs_NtNtCsdG3rhVUllIu_5ruchy7runtime17dataflow_debuggerNtB6_16DataflowDebugger21handle_breakpoint_hit0Ba_
FNDA:0,_RNCNvMs_NtNtCsdG3rhVUllIu_5ruchy7runtime17dataflow_debuggerNtB6_16DataflowDebugger21handle_breakpoint_hits_0Ba_
FNDA:0,_RNvMs_NtNtCsdG3rhVUllIu_5ruchy7runtime17dataflow_debuggerNtB4_16DataflowDebugger12record_event
FNDA:0,_RNvMs_NtNtCsdG3rhVUllIu_5ruchy7runtime17dataflow_debuggerNtB4_16DataflowDebugger12should_break
FNDA:0,_RNvMs_NtNtCsdG3rhVUllIu_5ruchy7runtime17dataflow_debuggerNtB4_16DataflowDebugger13execute_stage
FNDA:0,_RNvMs_NtNtCsdG3rhVUllIu_5ruchy7runtime17dataflow_debuggerNtB4_16DataflowDebugger13start_session
FNDA:0,_RNvMs_NtNtCsdG3rhVUllIu_5ruchy7runtime17dataflow_debuggerNtB4_16DataflowDebugger14add_breakpoint
FNDA:0,_RNvMs_NtNtCsdG3rhVUllIu_5ruchy7runtime17dataflow_debuggerNtB4_16DataflowDebugger16check_breakpoint
FNDA:0,_RNvMs_NtNtCsdG3rhVUllIu_5ruchy7runtime17dataflow_debuggerNtB4_16DataflowDebugger17export_debug_data
FNDA:0,_RNvMs_NtNtCsdG3rhVUllIu_5ruchy7runtime17dataflow_debuggerNtB4_16DataflowDebugger17get_stage_metrics
FNDA:0,_RNvMs_NtNtCsdG3rhVUllIu_5ruchy7runtime17dataflow_debuggerNtB4_16DataflowDebugger17materialize_stage
FNDA:0,_RNvMs_NtNtCsdG3rhVUllIu_5ruchy7runtime17dataflow_debuggerNtB4_16DataflowDebugger17remove_breakpoint
FNDA:0,_RNvMs_NtNtCsdG3rhVUllIu_5ruchy7runtime17dataflow_debuggerNtB4_16DataflowDebugger18compute_stage_diff
FNDA:0,_RNvMs_NtNtCsdG3rhVUllIu_5ruchy7runtime17dataflow_debuggerNtB4_16DataflowDebugger18get_session_status
FNDA:0,_RNvMs_NtNtCsdG3rhVUllIu_5ruchy7runtime17dataflow_debuggerNtB4_16DataflowDebugger20compute_data_changes
FNDA:0,_RNvMs_NtNtCsdG3rhVUllIu_5ruchy7runtime17dataflow_debuggerNtB4_16DataflowDebugger21get_execution_history
FNDA:0,_RNvMs_NtNtCsdG3rhVUllIu_5ruchy7runtime17dataflow_debuggerNtB4_16DataflowDebugger21handle_breakpoint_hit
FNDA:0,_RNvMs_NtNtCsdG3rhVUllIu_5ruchy7runtime17dataflow_debuggerNtB4_16DataflowDebugger22compute_column_changes
FNDA:0,_RNvMs_NtNtCsdG3rhVUllIu_5ruchy7runtime17dataflow_debuggerNtB4_16DataflowDebugger3new
FNDA:0,_RNvXNtNtCsdG3rhVUllIu_5ruchy7runtime17dataflow_debuggerNtB2_14DataflowConfigNtNtCs66KPHxksi63_4core7default7Default7default
FNDA:0,_RNvXs0_NtNtCsdG3rhVUllIu_5ruchy7runtime17dataflow_debuggerNtB5_12SessionStateNtNtCs66KPHxksi63_4core7default7Default7default
FNDA:0,_RNvXs1_NtNtCsdG3rhVUllIu_5ruchy7runtime17dataflow_debuggerNtB5_9StageTypeNtNtCs66KPHxksi63_4core3fmt7Display3fmt
FNDA:0,_RNvXs2_NtNtCsdG3rhVUllIu_5ruchy7runtime17dataflow_debuggerNtB5_11StageStatusNtNtCs66KPHxksi63_4core3fmt7Display3fmt
FNDA:0,_RNvXs3_NtNtCsdG3rhVUllIu_5ruchy7runtime17dataflow_debuggerNtB5_8DataTypeNtNtCs66KPHxksi63_4core3fmt7Display3fmt
FNDA:0,_RNvXs4_NtNtCsdG3rhVUllIu_5ruchy7runtime17dataflow_debuggerNtB5_9DataValueNtNtCs66KPHxksi63_4core3fmt7Display3fmt
FNDA:0,_RNCNvMs_NtNtCsdG3rhVUllIu_5ruchy7runtime17dataflow_debuggerNtB6_16DataflowDebugger22compute_column_changes0Ba_
FNDA:0,_RNCNvMs_NtNtCsdG3rhVUllIu_5ruchy7runtime17dataflow_debuggerNtB6_16DataflowDebugger22compute_column_changess_0Ba_
FNF:42
FNH:0
DA:370,0
DA:371,0
DA:372,0
DA:373,0
DA:374,0
DA:375,0
DA:376,0
DA:377,0
DA:378,0
DA:379,0
DA:380,0
DA:381,0
DA:386,0
DA:387,0
DA:388,0
DA:389,0
DA:390,0
DA:391,0
DA:392,0
DA:393,0
DA:394,0
DA:395,0
DA:396,0
DA:399,0
DA:400,0
DA:401,0
DA:402,0
DA:404,0
DA:405,0
DA:406,0
DA:407,0
DA:408,0
DA:410,0
DA:411,0
DA:412,0
DA:415,0
DA:416,0
DA:417,0
DA:418,0
DA:420,0
DA:421,0
DA:422,0
DA:425,0
DA:426,0
DA:427,0
DA:428,0
DA:430,0
DA:431,0
DA:434,0
DA:435,0
DA:436,0
DA:440,0
DA:441,0
DA:442,0
DA:443,0
DA:447,0
DA:448,0
DA:449,0
DA:450,0
DA:451,0
DA:452,0
DA:453,0
DA:456,0
DA:459,0
DA:460,0
DA:461,0
DA:464,0
DA:465,0
DA:466,0
DA:467,0
DA:468,0
DA:469,0
DA:470,0
DA:471,0
DA:472,0
DA:474,0
DA:475,0
DA:476,0
DA:477,0
DA:480,0
DA:481,0
DA:482,0
DA:484,0
DA:485,0
DA:486,0
DA:487,0
DA:488,0
DA:490,0
DA:491,0
DA:494,0
DA:496,0
DA:497,0
DA:498,0
DA:499,0
DA:500,0
DA:501,0
DA:502,0
DA:503,0
DA:504,0
DA:505,0
DA:506,0
DA:507,0
DA:508,0
DA:509,0
DA:510,0
DA:511,0
DA:512,0
DA:513,0
DA:514,0
DA:515,0
DA:516,0
DA:517,0
DA:518,0
DA:519,0
DA:520,0
DA:521,0
DA:522,0
DA:523,0
DA:524,0
DA:526,0
DA:527,0
DA:528,0
DA:530,0
DA:532,0
DA:533,0
DA:534,0
DA:535,0
DA:536,0
DA:538,0
DA:539,0
DA:542,0
DA:543,0
DA:544,0
DA:545,0
DA:547,0
DA:548,0
DA:549,0
DA:550,0
DA:553,0
DA:554,0
DA:556,0
DA:557,0
DA:558,0
DA:559,0
DA:560,0
DA:561,0
DA:562,0
DA:563,0
DA:565,0
DA:566,0
DA:567,0
DA:568,0
DA:569,0
DA:571,0
DA:572,0
DA:575,0
DA:576,0
DA:577,0
DA:578,0
DA:580,0
DA:581,0
DA:584,0
DA:585,0
DA:586,0
DA:587,0
DA:589,0
DA:590,0
DA:593,0
DA:594,0
DA:595,0
DA:596,0
DA:598,0
DA:599,0
DA:602,0
DA:603,0
DA:604,0
DA:605,0
DA:607,0
DA:608,0
DA:609,0
DA:610,0
DA:612,0
DA:613,0
DA:614,0
DA:615,0
DA:619,0
DA:621,0
DA:622,0
DA:625,0
DA:626,0
DA:629,0
DA:633,0
DA:634,0
DA:638,0
DA:639,0
DA:640,0
DA:641,0
DA:643,0
DA:644,0
DA:646,0
DA:647,0
DA:648,0
DA:649,0
DA:651,0
DA:652,0
DA:655,0
DA:659,0
DA:663,0
DA:667,0
DA:669,0
DA:671,0
DA:673,0
DA:675,0
DA:676,0
DA:677,0
DA:679,0
DA:680,0
DA:681,0
DA:685,0
DA:686,0
DA:687,0
DA:688,0
DA:692,0
DA:693,0
DA:694,0
DA:695,0
DA:696,0
DA:697,0
DA:698,0
DA:699,0
DA:701,0
DA:703,0
DA:704,0
DA:705,0
DA:706,0
DA:707,0
DA:708,0
DA:712,0
DA:713,0
DA:714,0
DA:715,0
DA:716,0
DA:718,0
DA:719,0
DA:721,0
DA:722,0
DA:723,0
DA:724,0
DA:725,0
DA:726,0
DA:727,0
DA:729,0
DA:730,0
DA:731,0
DA:733,0
DA:736,0
DA:737,0
DA:738,0
DA:740,0
DA:741,0
DA:743,0
DA:744,0
DA:747,0
DA:748,0
DA:750,0
DA:751,0
DA:752,0
DA:753,0
DA:756,0
DA:757,0
DA:758,0
DA:759,0
DA:762,0
DA:763,0
DA:765,0
DA:767,0
DA:768,0
DA:847,0
DA:848,0
DA:849,0
DA:850,0
DA:851,0
DA:852,0
DA:853,0
DA:854,0
DA:855,0
DA:856,0
DA:860,0
DA:861,0
DA:862,0
DA:863,0
DA:864,0
DA:865,0
DA:866,0
DA:867,0
DA:868,0
DA:869,0
DA:870,0
DA:871,0
DA:872,0
DA:874,0
DA:878,0
DA:879,0
DA:880,0
DA:881,0
DA:882,0
DA:883,0
DA:884,0
DA:885,0
DA:887,0
DA:891,0
DA:892,0
DA:893,0
DA:894,0
DA:895,0
DA:896,0
DA:897,0
DA:898,0
DA:899,0
DA:900,0
DA:901,0
DA:902,0
DA:903,0
DA:905,0
DA:908,0
DA:912,0
DA:913,0
DA:914,0
DA:915,0
DA:916,0
DA:917,0
DA:918,0
DA:919,0
DA:920,0
DA:921,0
DA:922,0
DA:923,0
DA:925,0
DA:928,0
BRF:0
BRH:0
LF:358
LH:0
end_of_record
SF:/home/noah/src/ruchy/src/runtime/dataflow_ui.rs
FN:420,_RNCNvMs_NtNtCsdG3rhVUllIu_5ruchy7runtime11dataflow_uiNtB6_10DataflowUI14render_historys_0Ba_
FN:440,_RNCNvMs_NtNtCsdG3rhVUllIu_5ruchy7runtime11dataflow_uiNtB6_10DataflowUI11render_diff0Ba_
FN:578,_RNCNvMs_NtNtCsdG3rhVUllIu_5ruchy7runtime11dataflow_uiNtB6_10DataflowUI14handle_command0Ba_
FN:408,_RNCNvMs_NtNtCsdG3rhVUllIu_5ruchy7runtime11dataflow_uiNtB6_10DataflowUI14render_history0Ba_
FN:361,_RNCNvMs_NtNtCsdG3rhVUllIu_5ruchy7runtime11dataflow_uiNtB6_10DataflowUI14render_metrics0Ba_
FN:377,_RNCNvMs_NtNtCsdG3rhVUllIu_5ruchy7runtime11dataflow_uiNtB6_10DataflowUI14render_metricss0_0Ba_
FN:377,_RNCNvMs_NtNtCsdG3rhVUllIu_5ruchy7runtime11dataflow_uiNtB6_10DataflowUI14render_metricss_0Ba_
FN:169,_RNCNvMs_NtNtCsdG3rhVUllIu_5ruchy7runtime11dataflow_uiNtB6_10DataflowUI15render_overview0Ba_
FN:206,_RNCNvMs_NtNtCsdG3rhVUllIu_5ruchy7runtime11dataflow_uiNtB6_10DataflowUI15render_overviews0_0Ba_
FN:208,_RNCNvMs_NtNtCsdG3rhVUllIu_5ruchy7runtime11dataflow_uiNtB6_10DataflowUI15render_overviews1_0Ba_
FN:208,_RNCNvMs_NtNtCsdG3rhVUllIu_5ruchy7runtime11dataflow_uiNtB6_10DataflowUI15render_overviews2_0Ba_
FN:206,_RNCNvMs_NtNtCsdG3rhVUllIu_5ruchy7runtime11dataflow_uiNtB6_10DataflowUI15render_overviews_0Ba_
FN:307,_RNCNvMs_NtNtCsdG3rhVUllIu_5ruchy7runtime11dataflow_uiNtB6_10DataflowUI18render_data_viewer0Ba_
FN:629,_RNvMs_NtNtCsdG3rhVUllIu_5ruchy7runtime11dataflow_uiNtB4_10DataflowUI11print_title
FN:435,_RNvMs_NtNtCsdG3rhVUllIu_5ruchy7runtime11dataflow_uiNtB4_10DataflowUI11render_diff
FN:475,_RNvMs_NtNtCsdG3rhVUllIu_5ruchy7runtime11dataflow_uiNtB4_10DataflowUI11render_help
FN:610,_RNvMs_NtNtCsdG3rhVUllIu_5ruchy7runtime11dataflow_uiNtB4_10DataflowUI12clear_screen
FN:684,_RNvMs_NtNtCsdG3rhVUllIu_5ruchy7runtime11dataflow_uiNtB4_10DataflowUI12format_bytes
FN:616,_RNvMs_NtNtCsdG3rhVUllIu_5ruchy7runtime11dataflow_uiNtB4_10DataflowUI12print_header
FN:596,_RNvMs_NtNtCsdG3rhVUllIu_5ruchy7runtime11dataflow_uiNtB4_10DataflowUI14get_user_input
FN:507,_RNvMs_NtNtCsdG3rhVUllIu_5ruchy7runtime11dataflow_uiNtB4_10DataflowUI14handle_command
FN:403,_RNvMs_NtNtCsdG3rhVUllIu_5ruchy7runtime11dataflow_uiNtB4_10DataflowUI14render_history
FN:356,_RNvMs_NtNtCsdG3rhVUllIu_5ruchy7runtime11dataflow_uiNtB4_10DataflowUI14render_metrics
FN:654,_RNvMs_NtNtCsdG3rhVUllIu_5ruchy7runtime11dataflow_uiNtB4_10DataflowUI15print_help_hint
FN:649,_RNvMs_NtNtCsdG3rhVUllIu_5ruchy7runtime11dataflow_uiNtB4_10DataflowUI15print_separator
FN:142,_RNvMs_NtNtCsdG3rhVUllIu_5ruchy7runtime11dataflow_uiNtB4_10DataflowUI15refresh_display
FN:164,_RNvMs_NtNtCsdG3rhVUllIu_5ruchy7runtime11dataflow_uiNtB4_10DataflowUI15render_overview
FN:116,_RNvMs_NtNtCsdG3rhVUllIu_5ruchy7runtime11dataflow_uiNtB4_10DataflowUI15run_interactive
FN:703,_RNvMs_NtNtCsdG3rhVUllIu_5ruchy7runtime11dataflow_uiNtB4_10DataflowUI16format_timestamp
FN:764,_RNvMs_NtNtCsdG3rhVUllIu_5ruchy7runtime11dataflow_uiNtB4_10DataflowUI16get_sample_stage
FN:660,_RNvMs_NtNtCsdG3rhVUllIu_5ruchy7runtime11dataflow_uiNtB4_10DataflowUI16print_status_bar
FN:721,_RNvMs_NtNtCsdG3rhVUllIu_5ruchy7runtime11dataflow_uiNtB4_10DataflowUI17get_sample_stages
FN:679,_RNvMs_NtNtCsdG3rhVUllIu_5ruchy7runtime11dataflow_uiNtB4_10DataflowUI17get_terminal_size
FN:279,_RNvMs_NtNtCsdG3rhVUllIu_5ruchy7runtime11dataflow_uiNtB4_10DataflowUI18render_breakpoints
FN:302,_RNvMs_NtNtCsdG3rhVUllIu_5ruchy7runtime11dataflow_uiNtB4_10DataflowUI18render_data_viewer
FN:708,_RNvMs_NtNtCsdG3rhVUllIu_5ruchy7runtime11dataflow_uiNtB4_10DataflowUI19render_session_info
FN:225,_RNvMs_NtNtCsdG3rhVUllIu_5ruchy7runtime11dataflow_uiNtB4_10DataflowUI19render_stage_detail
FN:674,_RNvMs_NtNtCsdG3rhVUllIu_5ruchy7runtime11dataflow_uiNtB4_10DataflowUI20print_command_prompt
FN:640,_RNvMs_NtNtCsdG3rhVUllIu_5ruchy7runtime11dataflow_uiNtB4_10DataflowUI20print_section_header
FN:808,_RNvMs_NtNtCsdG3rhVUllIu_5ruchy7runtime11dataflow_uiNtB4_10DataflowUI28get_sample_materialized_data
FN:103,_RNvMs_NtNtCsdG3rhVUllIu_5ruchy7runtime11dataflow_uiNtB4_10DataflowUI3new
FN:88,_RNvXNtNtCsdG3rhVUllIu_5ruchy7runtime11dataflow_uiNtB2_8UIConfigNtNtCs66KPHxksi63_4core7default7Default7default
FNDA:0,_RNCNvMs_NtNtCsdG3rhVUllIu_5ruchy7runtime11dataflow_uiNtB6_10DataflowUI14render_historys_0Ba_
FNDA:0,_RNCNvMs_NtNtCsdG3rhVUllIu_5ruchy7runtime11dataflow_uiNtB6_10DataflowUI11render_diff0Ba_
FNDA:0,_RNCNvMs_NtNtCsdG3rhVUllIu_5ruchy7runtime11dataflow_uiNtB6_10DataflowUI14handle_command0Ba_
FNDA:0,_RNCNvMs_NtNtCsdG3rhVUllIu_5ruchy7runtime11dataflow_uiNtB6_10DataflowUI14render_history0Ba_
FNDA:0,_RNCNvMs_NtNtCsdG3rhVUllIu_5ruchy7runtime11dataflow_uiNtB6_10DataflowUI14render_metrics0Ba_
FNDA:0,_RNCNvMs_NtNtCsdG3rhVUllIu_5ruchy7runtime11dataflow_uiNtB6_10DataflowUI14render_metricss0_0Ba_
FNDA:0,_RNCNvMs_NtNtCsdG3rhVUllIu_5ruchy7runtime11dataflow_uiNtB6_10DataflowUI14render_metricss_0Ba_
FNDA:0,_RNCNvMs_NtNtCsdG3rhVUllIu_5ruchy7runtime11dataflow_uiNtB6_10DataflowUI15render_overview0Ba_
FNDA:0,_RNCNvMs_NtNtCsdG3rhVUllIu_5ruchy7runtime11dataflow_uiNtB6_10DataflowUI15render_overviews0_0Ba_
FNDA:0,_RNCNvMs_NtNtCsdG3rhVUllIu_5ruchy7runtime11dataflow_uiNtB6_10DataflowUI15render_overviews1_0Ba_
FNDA:0,_RNCNvMs_NtNtCsdG3rhVUllIu_5ruchy7runtime11dataflow_uiNtB6_10DataflowUI15render_overviews2_0Ba_
FNDA:0,_RNCNvMs_NtNtCsdG3rhVUllIu_5ruchy7runtime11dataflow_uiNtB6_10DataflowUI15render_overviews_0Ba_
FNDA:0,_RNCNvMs_NtNtCsdG3rhVUllIu_5ruchy7runtime11dataflow_uiNtB6_10DataflowUI18render_data_viewer0Ba_
FNDA:0,_RNvMs_NtNtCsdG3rhVUllIu_5ruchy7runtime11dataflow_uiNtB4_10DataflowUI11print_title
FNDA:0,_RNvMs_NtNtCsdG3rhVUllIu_5ruchy7runtime11dataflow_uiNtB4_10DataflowUI11render_diff
FNDA:0,_RNvMs_NtNtCsdG3rhVUllIu_5ruchy7runtime11dataflow_uiNtB4_10DataflowUI11render_help
FNDA:0,_RNvMs_NtNtCsdG3rhVUllIu_5ruchy7runtime11dataflow_uiNtB4_10DataflowUI12clear_screen
FNDA:0,_RNvMs_NtNtCsdG3rhVUllIu_5ruchy7runtime11dataflow_uiNtB4_10DataflowUI12format_bytes
FNDA:0,_RNvMs_NtNtCsdG3rhVUllIu_5ruchy7runtime11dataflow_uiNtB4_10DataflowUI12print_header
FNDA:0,_RNvMs_NtNtCsdG3rhVUllIu_5ruchy7runtime11dataflow_uiNtB4_10DataflowUI14get_user_input
FNDA:0,_RNvMs_NtNtCsdG3rhVUllIu_5ruchy7runtime11dataflow_uiNtB4_10DataflowUI14handle_command
FNDA:0,_RNvMs_NtNtCsdG3rhVUllIu_5ruchy7runtime11dataflow_uiNtB4_10DataflowUI14render_history
FNDA:0,_RNvMs_NtNtCsdG3rhVUllIu_5ruchy7runtime11dataflow_uiNtB4_10DataflowUI14render_metrics
FNDA:0,_RNvMs_NtNtCsdG3rhVUllIu_5ruchy7runtime11dataflow_uiNtB4_10DataflowUI15print_help_hint
FNDA:0,_RNvMs_NtNtCsdG3rhVUllIu_5ruchy7runtime11dataflow_uiNtB4_10DataflowUI15print_separator
FNDA:0,_RNvMs_NtNtCsdG3rhVUllIu_5ruchy7runtime11dataflow_uiNtB4_10DataflowUI15refresh_display
FNDA:0,_RNvMs_NtNtCsdG3rhVUllIu_5ruchy7runtime11dataflow_uiNtB4_10DataflowUI15render_overview
FNDA:0,_RNvMs_NtNtCsdG3rhVUllIu_5ruchy7runtime11dataflow_uiNtB4_10DataflowUI15run_interactive
FNDA:0,_RNvMs_NtNtCsdG3rhVUllIu_5ruchy7runtime11dataflow_uiNtB4_10DataflowUI16format_timestamp
FNDA:0,_RNvMs_NtNtCsdG3rhVUllIu_5ruchy7runtime11dataflow_uiNtB4_10DataflowUI16get_sample_stage
FNDA:0,_RNvMs_NtNtCsdG3rhVUllIu_5ruchy7runtime11dataflow_uiNtB4_10DataflowUI16print_status_bar
FNDA:0,_RNvMs_NtNtCsdG3rhVUllIu_5ruchy7runtime11dataflow_uiNtB4_10DataflowUI17get_sample_stages
FNDA:0,_RNvMs_NtNtCsdG3rhVUllIu_5ruchy7runtime11dataflow_uiNtB4_10DataflowUI17get_terminal_size
FNDA:0,_RNvMs_NtNtCsdG3rhVUllIu_5ruchy7runtime11dataflow_uiNtB4_10DataflowUI18render_breakpoints
FNDA:0,_RNvMs_NtNtCsdG3rhVUllIu_5ruchy7runtime11dataflow_uiNtB4_10DataflowUI18render_data_viewer
FNDA:0,_RNvMs_NtNtCsdG3rhVUllIu_5ruchy7runtime11dataflow_uiNtB4_10DataflowUI19render_session_info
FNDA:0,_RNvMs_NtNtCsdG3rhVUllIu_5ruchy7runtime11dataflow_uiNtB4_10DataflowUI19render_stage_detail
FNDA:0,_RNvMs_NtNtCsdG3rhVUllIu_5ruchy7runtime11dataflow_uiNtB4_10DataflowUI20print_command_prompt
FNDA:0,_RNvMs_NtNtCsdG3rhVUllIu_5ruchy7runtime11dataflow_uiNtB4_10DataflowUI20print_section_header
FNDA:0,_RNvMs_NtNtCsdG3rhVUllIu_5ruchy7runtime11dataflow_uiNtB4_10DataflowUI28get_sample_materialized_data
FNDA:0,_RNvMs_NtNtCsdG3rhVUllIu_5ruchy7runtime11dataflow_uiNtB4_10DataflowUI3new
FNDA:0,_RNvXNtNtCsdG3rhVUllIu_5ruchy7runtime11dataflow_uiNtB2_8UIConfigNtNtCs66KPHxksi63_4core7default7Default7default
FNF:42
FNH:0
DA:88,0
DA:89,0
DA:90,0
DA:91,0
DA:92,0
DA:93,0
DA:94,0
DA:95,0
DA:96,0
DA:97,0
DA:98,0
DA:103,0
DA:104,0
DA:105,0
DA:106,0
DA:107,0
DA:108,0
DA:109,0
DA:110,0
DA:111,0
DA:112,0
DA:113,0
DA:116,0
DA:117,0
DA:118,0
DA:121,0
DA:123,0
DA:124,0
DA:125,0
DA:126,0
DA:128,0
DA:131,0
DA:132,0
DA:133,0
DA:135,0
DA:138,0
DA:139,0
DA:142,0
DA:143,0
DA:145,0
DA:146,0
DA:147,0
DA:148,0
DA:149,0
DA:150,0
DA:151,0
DA:152,0
DA:153,0
DA:156,0
DA:157,0
DA:159,0
DA:160,0
DA:161,0
DA:164,0
DA:165,0
DA:167,0
DA:168,0
DA:169,0
DA:171,0
DA:172,0
DA:175,0
DA:177,0
DA:178,0
DA:179,0
DA:181,0
DA:182,0
DA:183,0
DA:184,0
DA:185,0
DA:186,0
DA:187,0
DA:189,0
DA:191,0
DA:192,0
DA:193,0
DA:194,0
DA:195,0
DA:196,0
DA:197,0
DA:198,0
DA:201,0
DA:204,0
DA:206,0
DA:208,0
DA:210,0
DA:211,0
DA:221,0
DA:222,0
DA:225,0
DA:226,0
DA:229,0
DA:231,0
DA:232,0
DA:233,0
DA:234,0
DA:235,0
DA:237,0
DA:238,0
DA:239,0
DA:241,0
DA:242,0
DA:243,0
DA:245,0
DA:246,0
DA:247,0
DA:250,0
DA:251,0
DA:252,0
DA:253,0
DA:254,0
DA:255,0
DA:256,0
DA:258,0
DA:259,0
DA:260,0
DA:261,0
DA:262,0
DA:263,0
DA:264,0
DA:267,0
DA:268,0
DA:269,0
DA:270,0
DA:271,0
DA:272,0
DA:273,0
DA:275,0
DA:276,0
DA:279,0
DA:280,0
DA:282,0
DA:283,0
DA:284,0
DA:285,0
DA:288,0
DA:289,0
DA:291,0
DA:292,0
DA:293,0
DA:294,0
DA:295,0
DA:296,0
DA:298,0
DA:299,0
DA:302,0
DA:303,0
DA:305,0
DA:306,0
DA:307,0
DA:310,0
DA:312,0
DA:315,0
DA:316,0
DA:317,0
DA:318,0
DA:320,0
DA:321,0
DA:322,0
DA:324,0
DA:327,0
DA:328,0
DA:329,0
DA:330,0
DA:332,0
DA:335,0
DA:336,0
DA:337,0
DA:338,0
DA:339,0
DA:341,0
DA:343,0
DA:345,0
DA:348,0
DA:349,0
DA:350,0
DA:352,0
DA:353,0
DA:356,0
DA:357,0
DA:359,0
DA:360,0
DA:361,0
DA:363,0
DA:365,0
DA:366,0
DA:367,0
DA:368,0
DA:370,0
DA:371,0
DA:372,0
DA:374,0
DA:376,0
DA:377,0
DA:379,0
DA:381,0
DA:382,0
DA:389,0
DA:390,0
DA:391,0
DA:393,0
DA:394,0
DA:395,0
DA:396,0
DA:397,0
DA:399,0
DA:400,0
DA:403,0
DA:404,0
DA:406,0
DA:407,0
DA:408,0
DA:410,0
DA:411,0
DA:413,0
DA:414,0
DA:415,0
DA:417,0
DA:418,0
DA:419,0
DA:420,0
DA:421,0
DA:422,0
DA:424,0
DA:426,0
DA:431,0
DA:432,0
DA:435,0
DA:436,0
DA:438,0
DA:439,0
DA:440,0
DA:443,0
DA:444,0
DA:445,0
DA:446,0
DA:447,0
DA:449,0
DA:450,0
DA:451,0
DA:452,0
DA:453,0
DA:454,0
DA:455,0
DA:457,0
DA:458,0
DA:459,0
DA:460,0
DA:461,0
DA:462,0
DA:463,0
DA:465,0
DA:466,0
DA:467,0
DA:468,0
DA:471,0
DA:472,0
DA:475,0
DA:476,0
DA:478,0
DA:479,0
DA:480,0
DA:481,0
DA:482,0
DA:483,0
DA:484,0
DA:485,0
DA:486,0
DA:487,0
DA:489,0
DA:490,0
DA:491,0
DA:492,0
DA:493,0
DA:494,0
DA:495,0
DA:497,0
DA:498,0
DA:499,0
DA:500,0
DA:501,0
DA:503,0
DA:504,0
DA:507,0
DA:508,0
DA:509,0
DA:510,0
DA:511,0
DA:513,0
DA:514,0
DA:515,0
DA:516,0
DA:517,0
DA:519,0
DA:520,0
DA:521,0
DA:523,0
DA:524,0
DA:525,0
DA:526,0
DA:527,0
DA:528,0
DA:529,0
DA:531,0
DA:532,0
DA:533,0
DA:535,0
DA:536,0
DA:537,0
DA:538,0
DA:539,0
DA:540,0
DA:541,0
DA:543,0
DA:544,0
DA:545,0
DA:547,0
DA:548,0
DA:549,0
DA:551,0
DA:552,0
DA:553,0
DA:554,0
DA:555,0
DA:556,0
DA:557,0
DA:559,0
DA:561,0
DA:562,0
DA:564,0
DA:565,0
DA:566,0
DA:567,0
DA:568,0
DA:569,0
DA:571,0
DA:572,0
DA:574,0
DA:575,0
DA:576,0
DA:577,0
DA:578,0
DA:579,0
DA:580,0
DA:581,0
DA:583,0
DA:584,0
DA:585,0
DA:586,0
DA:589,0
DA:590,0
DA:593,0
DA:596,0
DA:597,0
DA:598,0
DA:600,0
DA:601,0
DA:602,0
DA:603,0
DA:604,0
DA:606,0
DA:610,0
DA:611,0
DA:612,0
DA:613,0
DA:614,0
DA:616,0
DA:617,0
DA:618,0
DA:619,0
DA:620,0
DA:621,0
DA:622,0
DA:623,0
DA:624,0
DA:625,0
DA:626,0
DA:627,0
DA:629,0
DA:630,0
DA:631,0
DA:632,0
DA:633,0
DA:634,0
DA:635,0
DA:636,0
DA:637,0
DA:638,0
DA:640,0
DA:641,0
DA:642,0
DA:643,0
DA:644,0
DA:645,0
DA:646,0
DA:647,0
DA:649,0
DA:650,0
DA:651,0
DA:652,0
DA:654,0
DA:655,0
DA:656,0
DA:657,0
DA:658,0
DA:660,0
DA:661,0
DA:666,0
DA:667,0
DA:668,0
DA:669,0
DA:670,0
DA:671,0
DA:672,0
DA:674,0
DA:675,0
DA:676,0
DA:677,0
DA:679,0
DA:681,0
DA:682,0
DA:684,0
DA:686,0
DA:687,0
DA:689,0
DA:690,0
DA:691,0
DA:692,0
DA:694,0
DA:695,0
DA:696,0
DA:697,0
DA:699,0
DA:701,0
DA:703,0
DA:705,0
DA:706,0
DA:708,0
DA:709,0
DA:710,0
DA:711,0
DA:712,0
DA:713,0
DA:714,0
DA:715,0
DA:716,0
DA:717,0
DA:721,0
DA:724,0
DA:725,0
DA:726,0
DA:727,0
DA:728,0
DA:729,0
DA:730,0
DA:731,0
DA:732,0
DA:733,0
DA:734,0
DA:735,0
DA:736,0
DA:737,0
DA:738,0
DA:739,0
DA:740,0
DA:741,0
DA:742,0
DA:743,0
DA:744,0
DA:745,0
DA:746,0
DA:747,0
DA:748,0
DA:749,0
DA:750,0
DA:751,0
DA:752,0
DA:753,0
DA:754,0
DA:755,0
DA:756,0
DA:757,0
DA:758,0
DA:759,0
DA:760,0
DA:762,0
DA:764,0
DA:767,0
DA:768,0
DA:769,0
DA:770,0
DA:771,0
DA:772,0
DA:773,0
DA:774,0
DA:775,0
DA:776,0
DA:777,0
DA:778,0
DA:779,0
DA:780,0
DA:781,0
DA:782,0
DA:783,0
DA:784,0
DA:785,0
DA:786,0
DA:787,0
DA:788,0
DA:789,0
DA:790,0
DA:791,0
DA:792,0
DA:793,0
DA:794,0
DA:795,0
DA:796,0
DA:797,0
DA:798,0
DA:799,0
DA:800,0
DA:801,0
DA:802,0
DA:803,0
DA:804,0
DA:805,0
DA:806,0
DA:808,0
DA:813,0
DA:814,0
DA:815,0
DA:816,0
DA:817,0
DA:818,0
DA:819,0
DA:820,0
DA:821,0
DA:822,0
DA:823,0
DA:824,0
DA:825,0
DA:826,0
DA:827,0
DA:828,0
DA:829,0
DA:830,0
DA:831,0
DA:832,0
DA:833,0
DA:834,0
DA:835,0
DA:836,0
DA:837,0
DA:838,0
DA:839,0
DA:840,0
DA:841,0
DA:842,0
DA:843,0
DA:844,0
DA:845,0
DA:846,0
DA:847,0
DA:848,0
DA:849,0
DA:850,0
DA:851,0
DA:852,0
DA:853,0
DA:854,0
DA:855,0
DA:856,0
DA:857,0
DA:858,0
DA:859,0
DA:860,0
DA:861,0
DA:862,0
BRF:0
BRH:0
LF:590
LH:0
end_of_record
SF:/home/noah/src/ruchy/src/runtime/deterministic.rs
FN:242,_RNCNvMs2_NtNtCsdG3rhVUllIu_5ruchy7runtime13deterministicNtNtB9_4repl4Repl18compute_state_hash0Bb_
FN:79,_RNCNvXs1_NtNtCsdG3rhVUllIu_5ruchy7runtime13deterministicNtNtB9_4repl4ReplNtNtB9_6replay17DeterministicRepl17execute_with_seed0Bb_
FN:237,_RNvMs2_NtNtCsdG3rhVUllIu_5ruchy7runtime13deterministicNtNtB7_4repl4Repl18compute_state_hash
FN:211,_RNvMs2_NtNtCsdG3rhVUllIu_5ruchy7runtime13deterministicNtNtB7_4repl4Repl19estimate_heap_usage
FN:230,_RNvMs2_NtNtCsdG3rhVUllIu_5ruchy7runtime13deterministicNtNtB7_4repl4Repl20estimate_stack_depth
FN:117,_RNvXs1_NtNtCsdG3rhVUllIu_5ruchy7runtime13deterministicNtNtB7_4repl4ReplNtNtB7_6replay17DeterministicRepl10checkpoint
FN:69,_RNvXs1_NtNtCsdG3rhVUllIu_5ruchy7runtime13deterministicNtNtB7_4repl4ReplNtNtB7_6replay17DeterministicRepl17execute_with_seed
FN:167,_RNvXs1_NtNtCsdG3rhVUllIu_5ruchy7runtime13deterministicNtNtB7_4repl4ReplNtNtB7_6replay17DeterministicRepl20validate_determinism
FN:141,_RNvXs1_NtNtCsdG3rhVUllIu_5ruchy7runtime13deterministicNtNtB7_4repl4ReplNtNtB7_6replay17DeterministicRepl7restore
FN:48,_RNvMs0_NtNtCsdG3rhVUllIu_5ruchy7runtime13deterministicNtB5_16DeterministicRng3new
FN:55,_RNvMs0_NtNtCsdG3rhVUllIu_5ruchy7runtime13deterministicNtB5_16DeterministicRng4next
FN:62,_RNvMs0_NtNtCsdG3rhVUllIu_5ruchy7runtime13deterministicNtB5_16DeterministicRng5reset
FN:28,_RNvMs_NtNtCsdG3rhVUllIu_5ruchy7runtime13deterministicNtB4_8MockTime3new
FN:36,_RNvMs_NtNtCsdG3rhVUllIu_5ruchy7runtime13deterministicNtB4_8MockTime3now
FN:32,_RNvMs_NtNtCsdG3rhVUllIu_5ruchy7runtime13deterministicNtB4_8MockTime7advance
FN:22,_RNvXNtNtCsdG3rhVUllIu_5ruchy7runtime13deterministicNtB2_8MockTimeNtNtCs66KPHxksi63_4core7default7Default7default
FNDA:0,_RNCNvMs2_NtNtCsdG3rhVUllIu_5ruchy7runtime13deterministicNtNtB9_4repl4Repl18compute_state_hash0Bb_
FNDA:0,_RNCNvXs1_NtNtCsdG3rhVUllIu_5ruchy7runtime13deterministicNtNtB9_4repl4ReplNtNtB9_6replay17DeterministicRepl17execute_with_seed0Bb_
FNDA:0,_RNvMs2_NtNtCsdG3rhVUllIu_5ruchy7runtime13deterministicNtNtB7_4repl4Repl18compute_state_hash
FNDA:0,_RNvMs2_NtNtCsdG3rhVUllIu_5ruchy7runtime13deterministicNtNtB7_4repl4Repl19estimate_heap_usage
FNDA:0,_RNvMs2_NtNtCsdG3rhVUllIu_5ruchy7runtime13deterministicNtNtB7_4repl4Repl20estimate_stack_depth
FNDA:0,_RNvXs1_NtNtCsdG3rhVUllIu_5ruchy7runtime13deterministicNtNtB7_4repl4ReplNtNtB7_6replay17DeterministicRepl10checkpoint
FNDA:0,_RNvXs1_NtNtCsdG3rhVUllIu_5ruchy7runtime13deterministicNtNtB7_4repl4ReplNtNtB7_6replay17DeterministicRepl17execute_with_seed
FNDA:0,_RNvXs1_NtNtCsdG3rhVUllIu_5ruchy7runtime13deterministicNtNtB7_4repl4ReplNtNtB7_6replay17DeterministicRepl20validate_determinism
FNDA:0,_RNvXs1_NtNtCsdG3rhVUllIu_5ruchy7runtime13deterministicNtNtB7_4repl4ReplNtNtB7_6replay17DeterministicRepl7restore
FNDA:0,_RNvMs0_NtNtCsdG3rhVUllIu_5ruchy7runtime13deterministicNtB5_16DeterministicRng3new
FNDA:0,_RNvMs0_NtNtCsdG3rhVUllIu_5ruchy7runtime13deterministicNtB5_16DeterministicRng4next
FNDA:0,_RNvMs0_NtNtCsdG3rhVUllIu_5ruchy7runtime13deterministicNtB5_16DeterministicRng5reset
FNDA:0,_RNvMs_NtNtCsdG3rhVUllIu_5ruchy7runtime13deterministicNtB4_8MockTime3new
FNDA:0,_RNvMs_NtNtCsdG3rhVUllIu_5ruchy7runtime13deterministicNtB4_8MockTime3now
FNDA:0,_RNvMs_NtNtCsdG3rhVUllIu_5ruchy7runtime13deterministicNtB4_8MockTime7advance
FNDA:0,_RNvXNtNtCsdG3rhVUllIu_5ruchy7runtime13deterministicNtB2_8MockTimeNtNtCs66KPHxksi63_4core7default7Default7default
FNF:16
FNH:0
DA:22,0
DA:23,0
DA:24,0
DA:28,0
DA:29,0
DA:30,0
DA:32,0
DA:33,0
DA:34,0
DA:36,0
DA:37,0
DA:38,0
DA:48,0
DA:49,0
DA:50,0
DA:51,0
DA:52,0
DA:53,0
DA:55,0
DA:57,0
DA:58,0
DA:59,0
DA:60,0
DA:62,0
DA:63,0
DA:64,0
DA:69,0
DA:71,0
DA:72,0
DA:73,0
DA:79,0
DA:82,0
DA:83,0
DA:84,0
DA:85,0
DA:86,0
DA:87,0
DA:88,0
DA:89,0
DA:90,0
DA:91,0
DA:94,0
DA:96,0
DA:99,0
DA:100,0
DA:101,0
DA:104,0
DA:106,0
DA:107,0
DA:108,0
DA:109,0
DA:110,0
DA:111,0
DA:112,0
DA:113,0
DA:114,0
DA:115,0
DA:117,0
DA:118,0
DA:119,0
DA:122,0
DA:123,0
DA:124,0
DA:129,0
DA:130,0
DA:131,0
DA:132,0
DA:133,0
DA:134,0
DA:135,0
DA:136,0
DA:137,0
DA:138,0
DA:139,0
DA:141,0
DA:143,0
DA:146,0
DA:147,0
DA:149,0
DA:150,0
DA:151,0
DA:152,0
DA:153,0
DA:154,0
DA:155,0
DA:156,0
DA:158,0
DA:161,0
DA:164,0
DA:165,0
DA:167,0
DA:168,0
DA:171,0
DA:172,0
DA:173,0
DA:174,0
DA:175,0
DA:176,0
DA:177,0
DA:178,0
DA:179,0
DA:180,0
DA:181,0
DA:182,0
DA:183,0
DA:184,0
DA:185,0
DA:186,0
DA:187,0
DA:192,0
DA:193,0
DA:194,0
DA:195,0
DA:196,0
DA:197,0
DA:198,0
DA:201,0
DA:202,0
DA:203,0
DA:204,0
DA:205,0
DA:211,0
DA:213,0
DA:215,0
DA:216,0
DA:217,0
DA:218,0
DA:219,0
DA:220,0
DA:221,0
DA:222,0
DA:226,0
DA:227,0
DA:230,0
DA:233,0
DA:234,0
DA:237,0
DA:238,0
DA:241,0
DA:242,0
DA:244,0
DA:245,0
DA:246,0
DA:247,0
DA:248,0
DA:249,0
DA:251,0
DA:252,0
BRF:0
BRH:0
LF:150
LH:0
end_of_record
SF:/home/noah/src/ruchy/src/runtime/grammar_coverage.rs
FN:124,_RNvMNtNtCsdG3rhVUllIu_5ruchy7runtime16grammar_coverageNtB2_21GrammarCoverageMatrix11is_complete
FN:134,_RNvMNtNtCsdG3rhVUllIu_5ruchy7runtime16grammar_coverageNtB2_21GrammarCoverageMatrix15assert_complete
FN:68,_RNvMNtNtCsdG3rhVUllIu_5ruchy7runtime16grammar_coverageNtB2_21GrammarCoverageMatrix19record_ast_variants
FN:29,_RNvMNtNtCsdG3rhVUllIu_5ruchy7runtime16grammar_coverageNtB2_21GrammarCoverageMatrix3new
FN:34,_RNvMNtNtCsdG3rhVUllIu_5ruchy7runtime16grammar_coverageNtB2_21GrammarCoverageMatrix6record
FN:150,_RNvMNtNtCsdG3rhVUllIu_5ruchy7runtime16grammar_coverageNtB2_21GrammarCoverageMatrix6report
FNDA:0,_RNvMNtNtCsdG3rhVUllIu_5ruchy7runtime16grammar_coverageNtB2_21GrammarCoverageMatrix11is_complete
FNDA:0,_RNvMNtNtCsdG3rhVUllIu_5ruchy7runtime16grammar_coverageNtB2_21GrammarCoverageMatrix15assert_complete
FNDA:0,_RNvMNtNtCsdG3rhVUllIu_5ruchy7runtime16grammar_coverageNtB2_21GrammarCoverageMatrix19record_ast_variants
FNDA:0,_RNvMNtNtCsdG3rhVUllIu_5ruchy7runtime16grammar_coverageNtB2_21GrammarCoverageMatrix3new
FNDA:0,_RNvMNtNtCsdG3rhVUllIu_5ruchy7runtime16grammar_coverageNtB2_21GrammarCoverageMatrix6record
FNDA:0,_RNvMNtNtCsdG3rhVUllIu_5ruchy7runtime16grammar_coverageNtB2_21GrammarCoverageMatrix6report
FNF:6
FNH:0
DA:29,0
DA:30,0
DA:31,0
DA:34,0
DA:35,0
DA:36,0
DA:37,0
DA:38,0
DA:39,0
DA:40,0
DA:41,0
DA:43,0
DA:44,0
DA:45,0
DA:46,0
DA:47,0
DA:49,0
DA:50,0
DA:53,0
DA:54,0
DA:55,0
DA:56,0
DA:57,0
DA:58,0
DA:59,0
DA:60,0
DA:61,0
DA:62,0
DA:65,0
DA:68,0
DA:71,0
DA:72,0
DA:73,0
DA:74,0
DA:75,0
DA:76,0
DA:77,0
DA:78,0
DA:79,0
DA:80,0
DA:81,0
DA:82,0
DA:83,0
DA:84,0
DA:85,0
DA:86,0
DA:87,0
DA:88,0
DA:89,0
DA:90,0
DA:91,0
DA:92,0
DA:93,0
DA:94,0
DA:95,0
DA:96,0
DA:97,0
DA:98,0
DA:99,0
DA:100,0
DA:101,0
DA:102,0
DA:103,0
DA:104,0
DA:105,0
DA:106,0
DA:107,0
DA:108,0
DA:109,0
DA:110,0
DA:111,0
DA:112,0
DA:113,0
DA:114,0
DA:115,0
DA:116,0
DA:117,0
DA:120,0
DA:121,0
DA:124,0
DA:125,0
DA:126,0
DA:134,0
DA:135,0
DA:136,0
DA:137,0
DA:141,0
DA:142,0
DA:143,0
DA:144,0
DA:147,0
DA:150,0
DA:153,0
DA:154,0
DA:155,0
DA:157,0
DA:158,0
DA:159,0
DA:160,0
DA:162,0
DA:163,0
DA:164,0
DA:165,0
DA:168,0
DA:169,0
DA:170,0
DA:172,0
DA:174,0
DA:175,0
DA:177,0
DA:179,0
DA:182,0
DA:183,0
DA:184,0
DA:186,0
DA:187,0
DA:188,0
DA:189,0
DA:190,0
DA:191,0
DA:192,0
DA:193,0
DA:195,0
DA:196,0
DA:197,0
DA:198,0
DA:199,0
DA:200,0
DA:202,0
DA:203,0
BRF:0
BRH:0
LF:130
LH:0
end_of_record
SF:/home/noah/src/ruchy/src/runtime/inspect.rs
FN:258,_RNvXs7_NtNtCsdG3rhVUllIu_5ruchy7runtime7inspectNtNtCs8Ty2CzGA6U3_5alloc6string6StringNtB5_7Inspect7inspect
FN:186,_RINvMs1_NtNtCsdG3rhVUllIu_5ruchy7runtime7inspectNtB6_9Inspector5enterpEBa_
FN:282,_RNvXININtNtCsdG3rhVUllIu_5ruchy7runtime7inspects9_0pEINtNtCs8Ty2CzGA6U3_5alloc3vec3VecpENtB5_7Inspect7inspectB9_
FN:316,_RNvXININtNtCsdG3rhVUllIu_5ruchy7runtime7inspectsa_0ppEINtNtNtNtCsiKSG5X70Gj7_3std11collections4hash3map7HashMapppENtB5_7Inspect7inspectB9_
FN:352,_RNvXININtNtCsdG3rhVUllIu_5ruchy7runtime7inspectsb_0pEINtNtCs66KPHxksi63_4core6option6OptionpENtB5_7Inspect7inspectB9_
FN:365,_RNvXININtNtCsdG3rhVUllIu_5ruchy7runtime7inspectsc_0ppEINtNtCs66KPHxksi63_4core6result6ResultppENtB5_7Inspect7inspectB9_
FN:14,_RNvYpNtNtNtCsdG3rhVUllIu_5ruchy7runtime7inspect7Inspect13inspect_depthB9_
FN:46,_RNvMNtNtCsdG3rhVUllIu_5ruchy7runtime7inspectNtB2_8VisitSet3new
FN:54,_RNvMNtNtCsdG3rhVUllIu_5ruchy7runtime7inspectNtB2_8VisitSet6insert
FN:85,_RNvMNtNtCsdG3rhVUllIu_5ruchy7runtime7inspectNtB2_8VisitSet8contains
FN:203,_RNvMs1_NtNtCsdG3rhVUllIu_5ruchy7runtime7inspectNtB5_9Inspector10has_budget
FN:174,_RNvMs1_NtNtCsdG3rhVUllIu_5ruchy7runtime7inspectNtB5_9Inspector10with_style
FN:218,_RNvMs1_NtNtCsdG3rhVUllIu_5ruchy7runtime7inspectNtB5_9Inspector12at_max_depth
FN:208,_RNvMs1_NtNtCsdG3rhVUllIu_5ruchy7runtime7inspectNtB5_9Inspector14consume_budget
FN:169,_RNvMs1_NtNtCsdG3rhVUllIu_5ruchy7runtime7inspectNtB5_9Inspector3new
FN:198,_RNvMs1_NtNtCsdG3rhVUllIu_5ruchy7runtime7inspectNtB5_9Inspector4exit
FN:213,_RNvMs1_NtNtCsdG3rhVUllIu_5ruchy7runtime7inspectNtB5_9Inspector5depth
FN:162,_RNvXs0_NtNtCsdG3rhVUllIu_5ruchy7runtime7inspectNtB5_9InspectorNtNtCs66KPHxksi63_4core7default7Default7default
FN:224,_RNvXs2_NtNtCsdG3rhVUllIu_5ruchy7runtime7inspectNtB5_9InspectorNtNtCs66KPHxksi63_4core3fmt5Write9write_str
FN:234,_RNvXs3_NtNtCsdG3rhVUllIu_5ruchy7runtime7inspectlNtB5_7Inspect7inspect
FN:240,_RNvXs4_NtNtCsdG3rhVUllIu_5ruchy7runtime7inspectxNtB5_7Inspect7inspect
FN:246,_RNvXs5_NtNtCsdG3rhVUllIu_5ruchy7runtime7inspectdNtB5_7Inspect7inspect
FN:252,_RNvXs6_NtNtCsdG3rhVUllIu_5ruchy7runtime7inspectbNtB5_7Inspect7inspect
FN:270,_RNvXs8_NtNtCsdG3rhVUllIu_5ruchy7runtime7inspectReNtB5_7Inspect7inspect
FN:116,_RNvXs_NtNtCsdG3rhVUllIu_5ruchy7runtime7inspectNtB4_12InspectStyleNtNtCs66KPHxksi63_4core7default7Default7default
FNDA:0,_RNvXs7_NtNtCsdG3rhVUllIu_5ruchy7runtime7inspectNtNtCs8Ty2CzGA6U3_5alloc6string6StringNtB5_7Inspect7inspect
FNDA:0,_RINvMs1_NtNtCsdG3rhVUllIu_5ruchy7runtime7inspectNtB6_9Inspector5enterpEBa_
FNDA:0,_RNvXININtNtCsdG3rhVUllIu_5ruchy7runtime7inspects9_0pEINtNtCs8Ty2CzGA6U3_5alloc3vec3VecpENtB5_7Inspect7inspectB9_
FNDA:0,_RNvXININtNtCsdG3rhVUllIu_5ruchy7runtime7inspectsa_0ppEINtNtNtNtCsiKSG5X70Gj7_3std11collections4hash3map7HashMapppENtB5_7Inspect7inspectB9_
FNDA:0,_RNvXININtNtCsdG3rhVUllIu_5ruchy7runtime7inspectsb_0pEINtNtCs66KPHxksi63_4core6option6OptionpENtB5_7Inspect7inspectB9_
FNDA:0,_RNvXININtNtCsdG3rhVUllIu_5ruchy7runtime7inspectsc_0ppEINtNtCs66KPHxksi63_4core6result6ResultppENtB5_7Inspect7inspectB9_
FNDA:0,_RNvYpNtNtNtCsdG3rhVUllIu_5ruchy7runtime7inspect7Inspect13inspect_depthB9_
FNDA:0,_RNvMNtNtCsdG3rhVUllIu_5ruchy7runtime7inspectNtB2_8VisitSet3new
FNDA:0,_RNvMNtNtCsdG3rhVUllIu_5ruchy7runtime7inspectNtB2_8VisitSet6insert
FNDA:0,_RNvMNtNtCsdG3rhVUllIu_5ruchy7runtime7inspectNtB2_8VisitSet8contains
FNDA:0,_RNvMs1_NtNtCsdG3rhVUllIu_5ruchy7runtime7inspectNtB5_9Inspector10has_budget
FNDA:0,_RNvMs1_NtNtCsdG3rhVUllIu_5ruchy7runtime7inspectNtB5_9Inspector10with_style
FNDA:0,_RNvMs1_NtNtCsdG3rhVUllIu_5ruchy7runtime7inspectNtB5_9Inspector12at_max_depth
FNDA:0,_RNvMs1_NtNtCsdG3rhVUllIu_5ruchy7runtime7inspectNtB5_9Inspector14consume_budget
FNDA:0,_RNvMs1_NtNtCsdG3rhVUllIu_5ruchy7runtime7inspectNtB5_9Inspector3new
FNDA:0,_RNvMs1_NtNtCsdG3rhVUllIu_5ruchy7runtime7inspectNtB5_9Inspector4exit
FNDA:0,_RNvMs1_NtNtCsdG3rhVUllIu_5ruchy7runtime7inspectNtB5_9Inspector5depth
FNDA:0,_RNvXs0_NtNtCsdG3rhVUllIu_5ruchy7runtime7inspectNtB5_9InspectorNtNtCs66KPHxksi63_4core7default7Default7default
FNDA:0,_RNvXs2_NtNtCsdG3rhVUllIu_5ruchy7runtime7inspectNtB5_9InspectorNtNtCs66KPHxksi63_4core3fmt5Write9write_str
FNDA:0,_RNvXs3_NtNtCsdG3rhVUllIu_5ruchy7runtime7inspectlNtB5_7Inspect7inspect
FNDA:0,_RNvXs4_NtNtCsdG3rhVUllIu_5ruchy7runtime7inspectxNtB5_7Inspect7inspect
FNDA:0,_RNvXs5_NtNtCsdG3rhVUllIu_5ruchy7runtime7inspectdNtB5_7Inspect7inspect
FNDA:0,_RNvXs6_NtNtCsdG3rhVUllIu_5ruchy7runtime7inspectbNtB5_7Inspect7inspect
FNDA:0,_RNvXs8_NtNtCsdG3rhVUllIu_5ruchy7runtime7inspectReNtB5_7Inspect7inspect
FNDA:0,_RNvXs_NtNtCsdG3rhVUllIu_5ruchy7runtime7inspectNtB4_12InspectStyleNtNtCs66KPHxksi63_4core7default7Default7default
FNF:25
FNH:0
DA:14,0
DA:15,0
DA:16,0
DA:46,0
DA:47,0
DA:48,0
DA:49,0
DA:50,0
DA:51,0
DA:52,0
DA:54,0
DA:56,0
DA:57,0
DA:58,0
DA:59,0
DA:63,0
DA:64,0
DA:65,0
DA:68,0
DA:69,0
DA:70,0
DA:71,0
DA:74,0
DA:75,0
DA:76,0
DA:77,0
DA:78,0
DA:79,0
DA:80,0
DA:81,0
DA:83,0
DA:85,0
DA:87,0
DA:88,0
DA:89,0
DA:90,0
DA:94,0
DA:95,0
DA:97,0
DA:99,0
DA:116,0
DA:117,0
DA:118,0
DA:119,0
DA:120,0
DA:121,0
DA:122,0
DA:123,0
DA:162,0
DA:163,0
DA:164,0
DA:169,0
DA:170,0
DA:171,0
DA:174,0
DA:175,0
DA:176,0
DA:177,0
DA:178,0
DA:179,0
DA:180,0
DA:181,0
DA:182,0
DA:183,0
DA:186,0
DA:187,0
DA:188,0
DA:189,0
DA:191,0
DA:192,0
DA:193,0
DA:195,0
DA:198,0
DA:199,0
DA:200,0
DA:203,0
DA:204,0
DA:205,0
DA:208,0
DA:209,0
DA:210,0
DA:213,0
DA:214,0
DA:215,0
DA:218,0
DA:219,0
DA:220,0
DA:224,0
DA:225,0
DA:226,0
DA:227,0
DA:228,0
DA:234,0
DA:235,0
DA:236,0
DA:240,0
DA:241,0
DA:242,0
DA:246,0
DA:247,0
DA:248,0
DA:252,0
DA:253,0
DA:254,0
DA:258,0
DA:259,0
DA:260,0
DA:262,0
DA:263,0
DA:264,0
DA:266,0
DA:270,0
DA:271,0
DA:272,0
DA:274,0
DA:275,0
DA:276,0
DA:278,0
DA:282,0
DA:283,0
DA:284,0
DA:285,0
DA:287,0
DA:288,0
DA:289,0
DA:291,0
DA:293,0
DA:294,0
DA:295,0
DA:296,0
DA:297,0
DA:298,0
DA:300,0
DA:301,0
DA:302,0
DA:303,0
DA:306,0
DA:307,0
DA:308,0
DA:310,0
DA:311,0
DA:312,0
DA:316,0
DA:317,0
DA:318,0
DA:319,0
DA:321,0
DA:322,0
DA:323,0
DA:325,0
DA:327,0
DA:328,0
DA:329,0
DA:330,0
DA:331,0
DA:332,0
DA:333,0
DA:334,0
DA:336,0
DA:337,0
DA:338,0
DA:339,0
DA:342,0
DA:343,0
DA:344,0
DA:346,0
DA:347,0
DA:348,0
DA:352,0
DA:353,0
DA:354,0
DA:355,0
DA:356,0
DA:357,0
DA:359,0
DA:361,0
DA:365,0
DA:366,0
DA:367,0
DA:368,0
DA:369,0
DA:370,0
DA:372,0
DA:373,0
DA:374,0
DA:375,0
DA:378,0
BRF:0
BRH:0
LF:187
LH:0
end_of_record
SF:/home/noah/src/ruchy/src/runtime/interpreter.rs
FN:465,_RNCNvMs4_NtNtCsdG3rhVUllIu_5ruchy7runtime11interpreterNtB7_12TypeFeedback16record_binary_op0Bb_
FN:547,_RNCNvMs4_NtNtCsdG3rhVUllIu_5ruchy7runtime11interpreterNtB7_12TypeFeedback20record_function_call0Bb_
FN:557,_RNCNvMs4_NtNtCsdG3rhVUllIu_5ruchy7runtime11interpreterNtB7_12TypeFeedback20record_function_calls_0Bb_
FN:496,_RNCNvMs4_NtNtCsdG3rhVUllIu_5ruchy7runtime11interpreterNtB7_12TypeFeedback26record_variable_assignment0Bb_
FN:2710,_RNCNvMsd_NtNtCsdG3rhVUllIu_5ruchy7runtime11interpreterNtB7_11Interpreter20compute_field_access0Bb_
FN:2714,_RNCNvMsd_NtNtCsdG3rhVUllIu_5ruchy7runtime11interpreterNtB7_11Interpreter20compute_field_accesss_0Bb_
FN:75,_RNvMNtNtCsdG3rhVUllIu_5ruchy7runtime11interpreterNtB2_5Value10from_array
FN:70,_RNvMNtNtCsdG3rhVUllIu_5ruchy7runtime11interpreterNtB2_5Value11from_string
FN:65,_RNvMNtNtCsdG3rhVUllIu_5ruchy7runtime11interpreterNtB2_5Value3nil
FN:109,_RNvMNtNtCsdG3rhVUllIu_5ruchy7runtime11interpreterNtB2_5Value6as_f64
FN:96,_RNvMNtNtCsdG3rhVUllIu_5ruchy7runtime11interpreterNtB2_5Value6as_i64
FN:80,_RNvMNtNtCsdG3rhVUllIu_5ruchy7runtime11interpreterNtB2_5Value6is_nil
FN:122,_RNvMNtNtCsdG3rhVUllIu_5ruchy7runtime11interpreterNtB2_5Value7as_bool
FN:55,_RNvMNtNtCsdG3rhVUllIu_5ruchy7runtime11interpreterNtB2_5Value8from_f64
FN:50,_RNvMNtNtCsdG3rhVUllIu_5ruchy7runtime11interpreterNtB2_5Value8from_i64
FN:60,_RNvMNtNtCsdG3rhVUllIu_5ruchy7runtime11interpreterNtB2_5Value9from_bool
FN:85,_RNvMNtNtCsdG3rhVUllIu_5ruchy7runtime11interpreterNtB2_5Value9is_truthy
FN:133,_RNvMNtNtCsdG3rhVUllIu_5ruchy7runtime11interpreterNtB2_5Value9type_name
FN:303,_RNvMs2_NtNtCsdG3rhVUllIu_5ruchy7runtime11interpreterNtB5_11InlineCache3new
FN:331,_RNvMs2_NtNtCsdG3rhVUllIu_5ruchy7runtime11interpreterNtB5_11InlineCache6insert
FN:313,_RNvMs2_NtNtCsdG3rhVUllIu_5ruchy7runtime11interpreterNtB5_11InlineCache6lookup
FN:368,_RNvMs2_NtNtCsdG3rhVUllIu_5ruchy7runtime11interpreterNtB5_11InlineCache8hit_rate
FN:642,_RNvMs4_NtNtCsdG3rhVUllIu_5ruchy7runtime11interpreterNtB5_12TypeFeedback14get_statistics
FN:450,_RNvMs4_NtNtCsdG3rhVUllIu_5ruchy7runtime11interpreterNtB5_12TypeFeedback16record_binary_op
FN:533,_RNvMs4_NtNtCsdG3rhVUllIu_5ruchy7runtime11interpreterNtB5_12TypeFeedback20record_function_call
FN:491,_RNvMs4_NtNtCsdG3rhVUllIu_5ruchy7runtime11interpreterNtB5_12TypeFeedback26record_variable_assignment
FN:578,_RNvMs4_NtNtCsdG3rhVUllIu_5ruchy7runtime11interpreterNtB5_12TypeFeedback29get_specialization_candidates
FN:440,_RNvMs4_NtNtCsdG3rhVUllIu_5ruchy7runtime11interpreterNtB5_12TypeFeedback3new
FN:824,_RNvMs6_NtNtCsdG3rhVUllIu_5ruchy7runtime11interpreterNtB5_14ConservativeGC10mark_phase
FN:848,_RNvMs6_NtNtCsdG3rhVUllIu_5ruchy7runtime11interpreterNtB5_14ConservativeGC11mark_object
FN:881,_RNvMs6_NtNtCsdG3rhVUllIu_5ruchy7runtime11interpreterNtB5_14ConservativeGC11sweep_phase
FN:776,_RNvMs6_NtNtCsdG3rhVUllIu_5ruchy7runtime11interpreterNtB5_14ConservativeGC12track_object
FN:968,_RNvMs6_NtNtCsdG3rhVUllIu_5ruchy7runtime11interpreterNtB5_14ConservativeGC13force_collect
FN:870,_RNvMs6_NtNtCsdG3rhVUllIu_5ruchy7runtime11interpreterNtB5_14ConservativeGC14find_object_id
FN:841,_RNvMs6_NtNtCsdG3rhVUllIu_5ruchy7runtime11interpreterNtB5_14ConservativeGC14is_root_object
