SF:/home/noah/src/ruchy/src/backend/compiler.rs
FN:281,_RNCNvNtNtNtCskTACvQmcrtm_5ruchy7backend8compiler5testss_22test_get_rustc_version0B9_
FN:280,_RNvNtNtNtCskTACvQmcrtm_5ruchy7backend8compiler5testss_22test_get_rustc_version
FN:274,_RNvNtNtNtCskTACvQmcrtm_5ruchy7backend8compiler5testss_26test_check_rustc_available
FN:286,_RNvNtNtNtCskTACvQmcrtm_5ruchy7backend8compiler5testss_27test_compile_simple_program
FN:73,_RNvNtNtCskTACvQmcrtm_5ruchy7backend8compiler17compile_to_binary
FN:256,_RNvNtNtCskTACvQmcrtm_5ruchy7backend8compiler17get_rustc_version
FN:140,_RNvNtNtCskTACvQmcrtm_5ruchy7backend8compiler17prepare_rust_file
FN:158,_RNvNtNtCskTACvQmcrtm_5ruchy7backend8compiler19build_rustc_command
FN:193,_RNvNtNtCskTACvQmcrtm_5ruchy7backend8compiler19execute_compilation
FN:124,_RNvNtNtCskTACvQmcrtm_5ruchy7backend8compiler19parse_and_transpile
FN:174,_RNvNtNtCskTACvQmcrtm_5ruchy7backend8compiler20apply_optional_flags
FN:206,_RNvNtNtCskTACvQmcrtm_5ruchy7backend8compiler20verify_output_exists
FN:228,_RNvNtNtCskTACvQmcrtm_5ruchy7backend8compiler21check_rustc_available
FN:106,_RNvNtNtCskTACvQmcrtm_5ruchy7backend8compiler24compile_source_to_binary
FN:34,_RNvXNtNtCskTACvQmcrtm_5ruchy7backend8compilerNtB2_14CompileOptionsNtNtCs66KPHxksi63_4core7default7Default7default
FNDA:0,_RNCNvNtNtNtCskTACvQmcrtm_5ruchy7backend8compiler5testss_22test_get_rustc_version0B9_
FNDA:1,_RNvNtNtNtCskTACvQmcrtm_5ruchy7backend8compiler5testss_22test_get_rustc_version
FNDA:1,_RNvNtNtNtCskTACvQmcrtm_5ruchy7backend8compiler5testss_26test_check_rustc_available
FNDA:1,_RNvNtNtNtCskTACvQmcrtm_5ruchy7backend8compiler5testss_27test_compile_simple_program
FNDA:0,_RNvNtNtCskTACvQmcrtm_5ruchy7backend8compiler17compile_to_binary
FNDA:1,_RNvNtNtCskTACvQmcrtm_5ruchy7backend8compiler17get_rustc_version
FNDA:1,_RNvNtNtCskTACvQmcrtm_5ruchy7backend8compiler17prepare_rust_file
FNDA:1,_RNvNtNtCskTACvQmcrtm_5ruchy7backend8compiler19build_rustc_command
FNDA:1,_RNvNtNtCskTACvQmcrtm_5ruchy7backend8compiler19execute_compilation
FNDA:1,_RNvNtNtCskTACvQmcrtm_5ruchy7backend8compiler19parse_and_transpile
FNDA:1,_RNvNtNtCskTACvQmcrtm_5ruchy7backend8compiler20apply_optional_flags
FNDA:1,_RNvNtNtCskTACvQmcrtm_5ruchy7backend8compiler20verify_output_exists
FNDA:1,_RNvNtNtCskTACvQmcrtm_5ruchy7backend8compiler21check_rustc_available
FNDA:1,_RNvNtNtCskTACvQmcrtm_5ruchy7backend8compiler24compile_source_to_binary
FNDA:1,_RNvXNtNtCskTACvQmcrtm_5ruchy7backend8compilerNtB2_14CompileOptionsNtNtCs66KPHxksi63_4core7default7Default7default
FNF:15
FNH:13
DA:34,1
DA:35,1
DA:36,1
DA:37,1
DA:38,1
DA:39,1
DA:40,1
DA:41,1
DA:42,1
DA:43,1
DA:73,0
DA:75,0
DA:76,0
DA:78,0
DA:79,0
DA:106,1
DA:108,1
DA:111,1
DA:114,1
DA:115,1
DA:118,1
DA:120,1
DA:121,1
DA:124,1
DA:125,1
DA:127,1
DA:128,1
DA:129,1
DA:131,1
DA:132,1
DA:133,1
DA:135,1
DA:136,1
DA:137,1
DA:140,1
DA:141,1
DA:142,1
DA:144,1
DA:145,1
DA:148,1
DA:149,1
DA:151,1
DA:152,1
DA:154,1
DA:155,1
DA:158,1
DA:159,1
DA:160,1
DA:161,1
DA:162,1
DA:165,1
DA:168,1
DA:170,1
DA:171,1
DA:174,1
DA:175,1
DA:176,0
DA:177,1
DA:179,1
DA:180,0
DA:181,1
DA:183,1
DA:184,0
DA:185,1
DA:187,1
DA:188,0
DA:189,0
DA:190,1
DA:193,1
DA:194,1
DA:195,1
DA:197,1
DA:198,0
DA:199,0
DA:200,1
DA:202,1
DA:203,1
DA:206,1
DA:207,1
DA:208,0
DA:209,1
DA:210,1
DA:211,1
DA:228,1
DA:229,1
DA:230,1
DA:231,1
DA:232,1
DA:234,1
DA:235,0
DA:236,1
DA:238,1
DA:239,1
DA:256,1
DA:257,1
DA:258,1
DA:259,1
DA:260,1
DA:262,1
DA:263,0
DA:264,1
DA:266,1
DA:267,1
DA:274,1
DA:276,1
DA:277,1
DA:280,1
DA:281,1
DA:282,1
DA:283,1
DA:286,1
DA:287,1
DA:288,1
DA:289,1
DA:290,1
DA:291,1
DA:293,1
DA:294,1
DA:295,1
DA:296,1
DA:300,1
DA:301,1
BRF:0
BRH:0
LF:123
LH:107
end_of_record
SF:/home/noah/src/ruchy/src/backend/module_loader.rs
FN:344,_RNvNtNtNtCskTACvQmcrtm_5ruchy7backend13module_loader5tests18create_test_module
FN:463,_RNvNtNtNtCskTACvQmcrtm_5ruchy7backend13module_loader5testss_16test_clear_cache
FN:421,_RNvNtNtNtCskTACvQmcrtm_5ruchy7backend13module_loader5testss_19test_stats_tracking
FN:361,_RNvNtNtNtCskTACvQmcrtm_5ruchy7backend13module_loader5testss_20test_add_search_path
FN:485,_RNvNtNtNtCskTACvQmcrtm_5ruchy7backend13module_loader5testss_23test_parsed_module_name
FN:351,_RNvNtNtNtCskTACvQmcrtm_5ruchy7backend13module_loader5testss_27test_module_loader_creation
FN:450,_RNvNtNtNtCskTACvQmcrtm_5ruchy7backend13module_loader5testss_32test_cache_hit_ratio_calculation
FN:370,_RNvNtNtNtCskTACvQmcrtm_5ruchy7backend13module_loader5testss_32test_resolve_module_path_success
FN:396,_RNvNtNtNtCskTACvQmcrtm_5ruchy7backend13module_loader5testss_34test_circular_dependency_detection
FN:386,_RNvNtNtNtCskTACvQmcrtm_5ruchy7backend13module_loader5testss_34test_resolve_module_path_not_found
FN:81,_RINvMNtNtCskTACvQmcrtm_5ruchy7backend13module_loaderNtB3_12ModuleLoader15add_search_pathRNtNtCsiKSG5X70Gj7_3std4path4PathEB7_
FN:81,_RINvMNtNtCskTACvQmcrtm_5ruchy7backend13module_loaderNtB3_12ModuleLoader15add_search_pathReEB7_
FN:198,_RNCNvMNtNtCskTACvQmcrtm_5ruchy7backend13module_loaderNtB4_12ModuleLoader19resolve_module_path0B8_
FN:302,_RNCNvMs0_NtNtCskTACvQmcrtm_5ruchy7backend13module_loaderNtB7_12ParsedModule4name0Bb_
FN:264,_RNvMNtNtCskTACvQmcrtm_5ruchy7backend13module_loaderNtB2_12ModuleLoader11clear_cache
FN:107,_RNvMNtNtCskTACvQmcrtm_5ruchy7backend13module_loaderNtB2_12ModuleLoader11load_module
FN:206,_RNvMNtNtCskTACvQmcrtm_5ruchy7backend13module_loaderNtB2_12ModuleLoader14is_cache_valid
FN:178,_RNvMNtNtCskTACvQmcrtm_5ruchy7backend13module_loaderNtB2_12ModuleLoader19resolve_module_path
FN:222,_RNvMNtNtCskTACvQmcrtm_5ruchy7backend13module_loaderNtB2_12ModuleLoader20collect_dependencies
FN:215,_RNvMNtNtCskTACvQmcrtm_5ruchy7backend13module_loaderNtB2_12ModuleLoader20extract_dependencies
FN:60,_RNvMNtNtCskTACvQmcrtm_5ruchy7backend13module_loaderNtB2_12ModuleLoader3new
FN:251,_RNvMNtNtCskTACvQmcrtm_5ruchy7backend13module_loaderNtB2_12ModuleLoader5stats
FN:308,_RNvMs0_NtNtCskTACvQmcrtm_5ruchy7backend13module_loaderNtB5_12ParsedModule16has_dependencies
FN:299,_RNvMs0_NtNtCskTACvQmcrtm_5ruchy7backend13module_loaderNtB5_12ParsedModule4name
FN:329,_RNvMs1_NtNtCskTACvQmcrtm_5ruchy7backend13module_loaderNtB5_17ModuleLoaderStats15cache_hit_ratio
FN:158,_RNCNvMNtNtCskTACvQmcrtm_5ruchy7backend13module_loaderNtB4_12ModuleLoader11load_module0B8_
FN:272,_RNvMNtNtCskTACvQmcrtm_5ruchy7backend13module_loaderNtB2_12ModuleLoader10is_loading
FN:278,_RNvXs_NtNtCskTACvQmcrtm_5ruchy7backend13module_loaderNtB4_12ModuleLoaderNtNtCs66KPHxksi63_4core7default7Default7default
FNDA:5,_RNvNtNtNtCskTACvQmcrtm_5ruchy7backend13module_loader5tests18create_test_module
FNDA:1,_RNvNtNtNtCskTACvQmcrtm_5ruchy7backend13module_loader5testss_16test_clear_cache
FNDA:1,_RNvNtNtNtCskTACvQmcrtm_5ruchy7backend13module_loader5testss_19test_stats_tracking
FNDA:1,_RNvNtNtNtCskTACvQmcrtm_5ruchy7backend13module_loader5testss_20test_add_search_path
FNDA:1,_RNvNtNtNtCskTACvQmcrtm_5ruchy7backend13module_loader5testss_23test_parsed_module_name
FNDA:1,_RNvNtNtNtCskTACvQmcrtm_5ruchy7backend13module_loader5testss_27test_module_loader_creation
FNDA:1,_RNvNtNtNtCskTACvQmcrtm_5ruchy7backend13module_loader5testss_32test_cache_hit_ratio_calculation
FNDA:1,_RNvNtNtNtCskTACvQmcrtm_5ruchy7backend13module_loader5testss_32test_resolve_module_path_success
FNDA:1,_RNvNtNtNtCskTACvQmcrtm_5ruchy7backend13module_loader5testss_34test_circular_dependency_detection
FNDA:1,_RNvNtNtNtCskTACvQmcrtm_5ruchy7backend13module_loader5testss_34test_resolve_module_path_not_found
FNDA:7,_RINvMNtNtCskTACvQmcrtm_5ruchy7backend13module_loaderNtB3_12ModuleLoader15add_search_pathRNtNtCsiKSG5X70Gj7_3std4path4PathEB7_
FNDA:2,_RINvMNtNtCskTACvQmcrtm_5ruchy7backend13module_loaderNtB3_12ModuleLoader15add_search_pathReEB7_
FNDA:3,_RNCNvMNtNtCskTACvQmcrtm_5ruchy7backend13module_loaderNtB4_12ModuleLoader19resolve_module_path0B8_
FNDA:1,_RNCNvMs0_NtNtCskTACvQmcrtm_5ruchy7backend13module_loaderNtB7_12ParsedModule4name0Bb_
FNDA:2,_RNvMNtNtCskTACvQmcrtm_5ruchy7backend13module_loaderNtB2_12ModuleLoader11clear_cache
FNDA:8,_RNvMNtNtCskTACvQmcrtm_5ruchy7backend13module_loaderNtB2_12ModuleLoader11load_module
FNDA:1,_RNvMNtNtCskTACvQmcrtm_5ruchy7backend13module_loaderNtB2_12ModuleLoader14is_cache_valid
FNDA:9,_RNvMNtNtCskTACvQmcrtm_5ruchy7backend13module_loaderNtB2_12ModuleLoader19resolve_module_path
FNDA:9,_RNvMNtNtCskTACvQmcrtm_5ruchy7backend13module_loaderNtB2_12ModuleLoader20collect_dependencies
FNDA:7,_RNvMNtNtCskTACvQmcrtm_5ruchy7backend13module_loaderNtB2_12ModuleLoader20extract_dependencies
FNDA:111,_RNvMNtNtCskTACvQmcrtm_5ruchy7backend13module_loaderNtB2_12ModuleLoader3new
FNDA:7,_RNvMNtNtCskTACvQmcrtm_5ruchy7backend13module_loaderNtB2_12ModuleLoader5stats
FNDA:1,_RNvMs0_NtNtCskTACvQmcrtm_5ruchy7backend13module_loaderNtB5_12ParsedModule16has_dependencies
FNDA:1,_RNvMs0_NtNtCskTACvQmcrtm_5ruchy7backend13module_loaderNtB5_12ParsedModule4name
FNDA:1,_RNvMs1_NtNtCskTACvQmcrtm_5ruchy7backend13module_loaderNtB5_17ModuleLoaderStats15cache_hit_ratio
FNDA:1,_RNCNvMNtNtCskTACvQmcrtm_5ruchy7backend13module_loaderNtB4_12ModuleLoader11load_module0B8_
FNDA:0,_RNvMNtNtCskTACvQmcrtm_5ruchy7backend13module_loaderNtB2_12ModuleLoader10is_loading
FNDA:0,_RNvXs_NtNtCskTACvQmcrtm_5ruchy7backend13module_loaderNtB4_12ModuleLoaderNtNtCs66KPHxksi63_4core7default7Default7default
FNF:27
FNH:25
DA:60,111
DA:61,111
DA:62,111
DA:63,111
DA:64,111
DA:65,111
DA:66,111
DA:67,111
DA:68,111
DA:69,111
DA:70,111
DA:71,111
DA:72,111
DA:81,9
DA:82,9
DA:83,9
DA:107,8
DA:109,8
DA:110,0
DA:111,0
DA:112,0
DA:113,8
DA:116,8
DA:117,1
DA:118,1
DA:119,1
DA:120,0
DA:121,7
DA:124,7
DA:125,7
DA:128,7
DA:129,7
DA:132,7
DA:135,7
DA:136,7
DA:137,7
DA:140,7
DA:143,7
DA:144,7
DA:145,7
DA:146,7
DA:147,7
DA:151,7
DA:152,2
DA:153,1
DA:154,1
DA:155,1
DA:156,1
DA:157,1
DA:158,1
DA:162,5
DA:165,5
DA:166,5
DA:167,5
DA:169,5
DA:170,8
DA:178,9
DA:179,9
DA:180,9
DA:181,9
DA:182,9
DA:183,9
DA:185,27
DA:186,80
DA:187,62
DA:188,62
DA:189,8
DA:190,54
DA:194,1
DA:195,1
DA:197,1
DA:198,3
DA:199,1
DA:200,1
DA:201,1
DA:203,9
DA:206,1
DA:207,1
DA:208,1
DA:209,1
DA:215,7
DA:216,7
DA:217,7
DA:218,7
DA:219,7
DA:222,9
DA:223,9
DA:224,2
DA:226,2
DA:227,2
DA:228,2
DA:230,1
DA:231,2
DA:232,1
DA:233,1
DA:235,0
DA:236,0
DA:237,0
DA:238,1
DA:239,1
DA:240,1
DA:242,5
DA:243,5
DA:244,5
DA:245,5
DA:247,9
DA:251,7
DA:252,7
DA:253,7
DA:254,7
DA:255,7
DA:256,7
DA:257,7
DA:258,7
DA:264,2
DA:265,2
DA:266,2
DA:267,2
DA:268,2
DA:272,0
DA:273,0
DA:274,0
DA:278,0
DA:279,0
DA:280,0
DA:299,1
DA:300,1
DA:301,1
DA:302,1
DA:303,1
DA:304,1
DA:308,1
DA:309,1
DA:310,1
DA:329,1
DA:330,1
DA:331,0
DA:333,1
DA:335,1
DA:344,5
DA:345,5
DA:346,5
DA:347,5
DA:348,5
DA:351,1
DA:352,1
DA:353,1
DA:354,1
DA:355,1
DA:356,1
DA:357,1
DA:358,1
DA:361,1
DA:362,1
DA:363,1
DA:365,1
DA:366,1
DA:367,1
DA:370,1
DA:371,1
DA:372,1
DA:373,1
DA:376,1
DA:378,1
DA:379,1
DA:380,1
DA:382,1
DA:383,1
DA:386,1
DA:387,1
DA:388,1
DA:390,1
DA:391,1
DA:392,1
DA:393,1
DA:396,1
DA:397,1
DA:398,1
DA:399,1
DA:402,1
DA:403,1
DA:405,1
DA:406,1
DA:408,1
DA:409,1
DA:412,1
DA:413,0
DA:415,1
DA:417,1
DA:418,1
DA:421,1
DA:422,1
DA:423,1
DA:424,1
DA:425,1
DA:427,1
DA:429,1
DA:430,1
DA:431,1
DA:432,1
DA:435,1
DA:436,1
DA:437,1
DA:438,1
DA:441,1
DA:442,1
DA:443,1
DA:444,1
DA:446,1
DA:447,1
DA:450,1
DA:451,1
DA:452,1
DA:453,1
DA:454,1
DA:455,1
DA:456,1
DA:458,1
DA:459,1
DA:460,1
DA:463,1
DA:464,1
DA:465,1
DA:466,1
DA:467,1
DA:469,1
DA:472,1
DA:473,1
DA:476,1
DA:477,1
DA:478,1
DA:479,1
DA:481,1
DA:482,1
DA:485,1
DA:486,1
DA:487,1
DA:489,1
DA:490,1
DA:491,1
DA:492,1
DA:493,1
DA:494,1
DA:495,1
DA:497,1
DA:498,1
DA:500,1
DA:501,1
BRF:0
BRH:0
LF:251
LH:236
end_of_record
SF:/home/noah/src/ruchy/src/backend/module_resolver.rs
FN:246,_RNCNvMNtNtCskTACvQmcrtm_5ruchy7backend15module_resolverNtB4_14ModuleResolver15resolve_if_expr0B8_
FN:154,_RNCNvMNtNtCskTACvQmcrtm_5ruchy7backend15module_resolverNtB4_14ModuleResolver19resolve_import_expr0B8_
FN:287,_RNvMNtNtCskTACvQmcrtm_5ruchy7backend15module_resolverNtB2_14ModuleResolver11clear_cache
FN:93,_RNvMNtNtCskTACvQmcrtm_5ruchy7backend15module_resolverNtB2_14ModuleResolver12resolve_expr
FN:258,_RNvMNtNtCskTACvQmcrtm_5ruchy7backend15module_resolverNtB2_14ModuleResolver14is_file_import
FN:237,_RNvMNtNtCskTACvQmcrtm_5ruchy7backend15module_resolverNtB2_14ModuleResolver15resolve_if_expr
FN:88,_RNvMNtNtCskTACvQmcrtm_5ruchy7backend15module_resolverNtB2_14ModuleResolver15resolve_imports
FN:186,_RNvMNtNtCskTACvQmcrtm_5ruchy7backend15module_resolverNtB2_14ModuleResolver18resolve_block_expr
FN:134,_RNvMNtNtCskTACvQmcrtm_5ruchy7backend15module_resolverNtB2_14ModuleResolver19resolve_import_expr
FN:196,_RNvMNtNtCskTACvQmcrtm_5ruchy7backend15module_resolverNtB2_14ModuleResolver19resolve_module_expr
FN:266,_RNvMNtNtCskTACvQmcrtm_5ruchy7backend15module_resolverNtB2_14ModuleResolver21create_use_statements
FN:209,_RNvMNtNtCskTACvQmcrtm_5ruchy7backend15module_resolverNtB2_14ModuleResolver21resolve_function_expr
FN:54,_RNvMNtNtCskTACvQmcrtm_5ruchy7backend15module_resolverNtB2_14ModuleResolver3new
FN:280,_RNvMNtNtCskTACvQmcrtm_5ruchy7backend15module_resolverNtB2_14ModuleResolver5stats
FN:305,_RNvNtNtNtCskTACvQmcrtm_5ruchy7backend15module_resolver5tests18create_test_module
FN:327,_RNvNtNtNtCskTACvQmcrtm_5ruchy7backend15module_resolver5testss_19test_is_file_import
FN:319,_RNvNtNtNtCskTACvQmcrtm_5ruchy7backend15module_resolver5testss_20test_add_search_path
FN:483,_RNvNtNtNtCskTACvQmcrtm_5ruchy7backend15module_resolver5testss_20test_stats_and_cache
FN:396,_RNvNtNtNtCskTACvQmcrtm_5ruchy7backend15module_resolver5testss_28test_resolve_non_file_import
FN:312,_RNvNtNtNtCskTACvQmcrtm_5ruchy7backend15module_resolver5testss_29test_module_resolver_creation
FN:423,_RNvNtNtNtCskTACvQmcrtm_5ruchy7backend15module_resolver5testss_31test_resolve_block_with_imports
FN:344,_RNvNtNtNtCskTACvQmcrtm_5ruchy7backend15module_resolver5testss_31test_resolve_simple_file_import
FN:65,_RINvMNtNtCskTACvQmcrtm_5ruchy7backend15module_resolverNtB3_14ModuleResolver15add_search_pathRNtNtCsiKSG5X70Gj7_3std4path4PathEB7_
FN:65,_RINvMNtNtCskTACvQmcrtm_5ruchy7backend15module_resolverNtB3_14ModuleResolver15add_search_pathReEB7_
FN:190,_RNCNvMNtNtCskTACvQmcrtm_5ruchy7backend15module_resolverNtB4_14ModuleResolver18resolve_block_expr0B8_
FN:293,_RNvXs_NtNtCskTACvQmcrtm_5ruchy7backend15module_resolverNtB4_14ModuleResolverNtNtCs66KPHxksi63_4core7default7Default7default
FNDA:5,_RNCNvMNtNtCskTACvQmcrtm_5ruchy7backend15module_resolverNtB4_14ModuleResolver15resolve_if_expr0B8_
FNDA:3,_RNCNvMNtNtCskTACvQmcrtm_5ruchy7backend15module_resolverNtB4_14ModuleResolver19resolve_import_expr0B8_
FNDA:1,_RNvMNtNtCskTACvQmcrtm_5ruchy7backend15module_resolverNtB2_14ModuleResolver11clear_cache
FNDA:154,_RNvMNtNtCskTACvQmcrtm_5ruchy7backend15module_resolverNtB2_14ModuleResolver12resolve_expr
FNDA:13,_RNvMNtNtCskTACvQmcrtm_5ruchy7backend15module_resolverNtB2_14ModuleResolver14is_file_import
FNDA:5,_RNvMNtNtCskTACvQmcrtm_5ruchy7backend15module_resolverNtB2_14ModuleResolver15resolve_if_expr
FNDA:101,_RNvMNtNtCskTACvQmcrtm_5ruchy7backend15module_resolverNtB2_14ModuleResolver15resolve_imports
FNDA:22,_RNvMNtNtCskTACvQmcrtm_5ruchy7backend15module_resolverNtB2_14ModuleResolver18resolve_block_expr
FNDA:5,_RNvMNtNtCskTACvQmcrtm_5ruchy7backend15module_resolverNtB2_14ModuleResolver19resolve_import_expr
FNDA:0,_RNvMNtNtCskTACvQmcrtm_5ruchy7backend15module_resolverNtB2_14ModuleResolver19resolve_module_expr
FNDA:0,_RNvMNtNtCskTACvQmcrtm_5ruchy7backend15module_resolverNtB2_14ModuleResolver21create_use_statements
FNDA:9,_RNvMNtNtCskTACvQmcrtm_5ruchy7backend15module_resolverNtB2_14ModuleResolver21resolve_function_expr
FNDA:104,_RNvMNtNtCskTACvQmcrtm_5ruchy7backend15module_resolverNtB2_14ModuleResolver3new
FNDA:4,_RNvMNtNtCskTACvQmcrtm_5ruchy7backend15module_resolverNtB2_14ModuleResolver5stats
FNDA:3,_RNvNtNtNtCskTACvQmcrtm_5ruchy7backend15module_resolver5tests18create_test_module
FNDA:1,_RNvNtNtNtCskTACvQmcrtm_5ruchy7backend15module_resolver5testss_19test_is_file_import
FNDA:1,_RNvNtNtNtCskTACvQmcrtm_5ruchy7backend15module_resolver5testss_20test_add_search_path
FNDA:1,_RNvNtNtNtCskTACvQmcrtm_5ruchy7backend15module_resolver5testss_20test_stats_and_cache
FNDA:1,_RNvNtNtNtCskTACvQmcrtm_5ruchy7backend15module_resolver5testss_28test_resolve_non_file_import
FNDA:1,_RNvNtNtNtCskTACvQmcrtm_5ruchy7backend15module_resolver5testss_29test_module_resolver_creation
FNDA:1,_RNvNtNtNtCskTACvQmcrtm_5ruchy7backend15module_resolver5testss_31test_resolve_block_with_imports
FNDA:1,_RNvNtNtNtCskTACvQmcrtm_5ruchy7backend15module_resolver5testss_31test_resolve_simple_file_import
FNDA:3,_RINvMNtNtCskTACvQmcrtm_5ruchy7backend15module_resolverNtB3_14ModuleResolver15add_search_pathRNtNtCsiKSG5X70Gj7_3std4path4PathEB7_
FNDA:1,_RINvMNtNtCskTACvQmcrtm_5ruchy7backend15module_resolverNtB3_14ModuleResolver15add_search_pathReEB7_
FNDA:26,_RNCNvMNtNtCskTACvQmcrtm_5ruchy7backend15module_resolverNtB4_14ModuleResolver18resolve_block_expr0B8_
FNDA:0,_RNvXs_NtNtCskTACvQmcrtm_5ruchy7backend15module_resolverNtB4_14ModuleResolverNtNtCs66KPHxksi63_4core7default7Default7default
FNF:25
FNH:22
DA:54,104
DA:55,104
DA:56,104
DA:57,104
DA:58,104
DA:65,4
DA:66,4
DA:67,4
DA:88,101
DA:89,101
DA:90,101
DA:93,154
DA:94,154
DA:95,5
DA:96,5
DA:98,22
DA:99,22
DA:101,0
DA:102,0
DA:105,9
DA:106,9
DA:107,9
DA:108,9
DA:109,9
DA:110,9
DA:111,9
DA:113,9
DA:114,9
DA:115,9
DA:116,9
DA:117,9
DA:118,9
DA:119,9
DA:120,9
DA:121,9
DA:124,5
DA:125,5
DA:129,113
DA:131,154
DA:134,5
DA:136,5
DA:138,3
DA:139,3
DA:142,3
DA:145,3
DA:146,3
DA:147,3
DA:148,3
DA:149,3
DA:150,3
DA:154,3
DA:156,3
DA:157,3
DA:158,3
DA:159,3
DA:160,3
DA:161,3
DA:165,0
DA:169,3
DA:170,3
DA:171,3
DA:172,3
DA:175,2
DA:176,2
DA:177,2
DA:178,2
DA:179,2
DA:180,2
DA:181,2
DA:183,5
DA:186,22
DA:188,22
DA:189,22
DA:190,26
DA:191,22
DA:192,22
DA:193,22
DA:196,0
DA:198,0
DA:199,0
DA:200,0
DA:201,0
DA:202,0
DA:203,0
DA:204,0
DA:205,0
DA:206,0
DA:209,9
DA:210,9
DA:211,9
DA:212,9
DA:213,9
DA:214,9
DA:215,9
DA:216,9
DA:217,9
DA:218,9
DA:219,9
DA:221,9
DA:222,9
DA:223,9
DA:224,9
DA:225,9
DA:226,9
DA:227,9
DA:228,9
DA:229,9
DA:230,9
DA:231,9
DA:232,9
DA:233,9
DA:234,9
DA:237,5
DA:238,5
DA:239,5
DA:240,5
DA:241,5
DA:242,5
DA:243,5
DA:244,5
DA:245,5
DA:246,5
DA:247,5
DA:248,5
DA:249,5
DA:250,5
DA:251,5
DA:252,5
DA:253,5
DA:254,5
DA:255,5
DA:258,13
DA:259,13
DA:260,9
DA:261,9
DA:262,7
DA:263,13
DA:266,0
DA:269,0
DA:270,0
DA:271,0
DA:272,0
DA:273,0
DA:274,0
DA:276,0
DA:280,4
DA:281,4
DA:282,4
DA:287,1
DA:288,1
DA:289,1
DA:293,0
DA:294,0
DA:295,0
DA:305,3
DA:306,3
DA:307,3
DA:308,3
DA:309,3
DA:312,1
DA:313,1
DA:314,1
DA:315,1
DA:316,1
DA:319,1
DA:320,1
DA:321,1
DA:324,1
DA:327,1
DA:328,1
DA:331,1
DA:332,1
DA:333,1
DA:336,1
DA:337,1
DA:338,1
DA:339,1
DA:340,1
DA:341,1
DA:344,1
DA:345,1
DA:346,1
DA:347,1
DA:350,1
DA:351,1
DA:352,1
DA:353,1
DA:354,1
DA:357,1
DA:358,1
DA:359,1
DA:360,1
DA:361,1
DA:362,1
DA:366,1
DA:369,1
DA:370,1
DA:371,1
DA:373,1
DA:374,1
DA:375,1
DA:377,0
DA:380,1
DA:381,1
DA:382,1
DA:383,1
DA:384,1
DA:386,0
DA:389,0
DA:392,1
DA:393,1
DA:396,1
DA:397,1
DA:400,1
DA:401,1
DA:402,1
DA:403,1
DA:404,1
DA:405,1
DA:409,1
DA:411,1
DA:412,1
DA:413,1
DA:414,1
DA:416,0
DA:419,1
DA:420,1
DA:423,1
DA:424,1
DA:425,1
DA:426,1
DA:428,1
DA:431,1
DA:432,1
DA:433,1
DA:434,1
DA:435,1
DA:436,1
DA:437,1
DA:438,1
DA:439,1
DA:440,1
DA:441,1
DA:442,1
DA:443,1
DA:444,1
DA:445,1
DA:446,1
DA:447,1
DA:448,1
DA:449,1
DA:450,1
DA:451,1
DA:452,1
DA:455,1
DA:457,1
DA:458,1
DA:461,1
DA:462,1
DA:463,1
DA:464,1
DA:465,1
DA:467,0
DA:471,1
DA:474,1
DA:476,0
DA:479,1
DA:480,1
DA:483,1
DA:484,1
DA:485,1
DA:486,1
DA:487,1
DA:489,1
DA:491,1
DA:492,1
DA:495,1
DA:496,1
DA:497,1
DA:498,1
DA:499,1
DA:500,1
DA:503,1
DA:505,1
DA:506,1
DA:507,1
DA:510,1
DA:511,1
DA:512,1
DA:513,1
DA:515,1
DA:516,1
BRF:0
BRH:0
LF:295
LH:265
end_of_record
SF:/home/noah/src/ruchy/src/backend/transpiler/actors.rs
FN:30,_RNCNCNvMNtNtNtCskTACvQmcrtm_5ruchy7backend10transpiler6actorsNtB8_10Transpiler15transpile_actor00Bc_
FN:59,_RNCNCNvMNtNtNtCskTACvQmcrtm_5ruchy7backend10transpiler6actorsNtB8_10Transpiler15transpile_actors_00Bc_
FN:26,_RNCNvMNtNtNtCskTACvQmcrtm_5ruchy7backend10transpiler6actorsNtB6_10Transpiler15transpile_actor0Ba_
FN:73,_RNCNvMNtNtNtCskTACvQmcrtm_5ruchy7backend10transpiler6actorsNtB6_10Transpiler15transpile_actors0_0Ba_
FN:57,_RNCNvMNtNtNtCskTACvQmcrtm_5ruchy7backend10transpiler6actorsNtB6_10Transpiler15transpile_actors_0Ba_
FN:181,_RNCNvMNtNtNtCskTACvQmcrtm_5ruchy7backend10transpiler6actorsNtB6_10Transpiler17transpile_command0Ba_
FN:150,_RNvMNtNtNtCskTACvQmcrtm_5ruchy7backend10transpiler6actorsNtB4_10Transpiler13transpile_ask
FN:140,_RNvMNtNtNtCskTACvQmcrtm_5ruchy7backend10transpiler6actorsNtB4_10Transpiler14transpile_send
FN:14,_RNvMNtNtNtCskTACvQmcrtm_5ruchy7backend10transpiler6actorsNtB4_10Transpiler15transpile_actor
FN:173,_RNvMNtNtNtCskTACvQmcrtm_5ruchy7backend10transpiler6actorsNtB4_10Transpiler17transpile_command
FNDA:0,_RNCNCNvMNtNtNtCskTACvQmcrtm_5ruchy7backend10transpiler6actorsNtB8_10Transpiler15transpile_actor00Bc_
FNDA:0,_RNCNCNvMNtNtNtCskTACvQmcrtm_5ruchy7backend10transpiler6actorsNtB8_10Transpiler15transpile_actors_00Bc_
FNDA:1,_RNCNvMNtNtNtCskTACvQmcrtm_5ruchy7backend10transpiler6actorsNtB6_10Transpiler15transpile_actor0Ba_
FNDA:0,_RNCNvMNtNtNtCskTACvQmcrtm_5ruchy7backend10transpiler6actorsNtB6_10Transpiler15transpile_actors0_0Ba_
FNDA:0,_RNCNvMNtNtNtCskTACvQmcrtm_5ruchy7backend10transpiler6actorsNtB6_10Transpiler15transpile_actors_0Ba_
FNDA:0,_RNCNvMNtNtNtCskTACvQmcrtm_5ruchy7backend10transpiler6actorsNtB6_10Transpiler17transpile_command0Ba_
FNDA:1,_RNvMNtNtNtCskTACvQmcrtm_5ruchy7backend10transpiler6actorsNtB4_10Transpiler13transpile_ask
FNDA:1,_RNvMNtNtNtCskTACvQmcrtm_5ruchy7backend10transpiler6actorsNtB4_10Transpiler14transpile_send
FNDA:1,_RNvMNtNtNtCskTACvQmcrtm_5ruchy7backend10transpiler6actorsNtB4_10Transpiler15transpile_actor
FNDA:0,_RNvMNtNtNtCskTACvQmcrtm_5ruchy7backend10transpiler6actorsNtB4_10Transpiler17transpile_command
FNF:10
FNH:4
DA:14,1
DA:15,1
DA:16,1
DA:17,1
DA:18,1
DA:19,1
DA:20,1
DA:21,1
DA:24,1
DA:25,1
DA:26,1
DA:27,1
DA:28,1
DA:29,1
DA:30,1
DA:31,1
DA:32,1
DA:33,1
DA:36,1
DA:37,1
DA:39,3
DA:40,2
DA:42,2
DA:44,2
DA:46,2
DA:47,2
DA:54,0
DA:55,0
DA:56,0
DA:57,0
DA:58,0
DA:59,0
DA:60,0
DA:61,0
DA:63,0
DA:64,0
DA:66,0
DA:70,0
DA:71,0
DA:72,0
DA:73,0
DA:74,0
DA:76,0
DA:78,0
DA:79,0
DA:80,0
DA:81,0
DA:82,0
DA:83,0
DA:84,0
DA:85,0
DA:86,0
DA:96,1
DA:137,1
DA:140,1
DA:141,1
DA:142,1
DA:144,1
DA:145,1
DA:146,1
DA:147,1
DA:150,1
DA:151,1
DA:152,1
DA:153,1
DA:154,1
DA:155,1
DA:156,1
DA:157,1
DA:159,1
DA:160,0
DA:161,0
DA:162,0
DA:163,0
DA:166,1
DA:167,1
DA:168,1
DA:170,1
DA:173,0
DA:174,0
DA:175,0
DA:176,0
DA:177,0
DA:178,0
DA:179,0
DA:180,0
DA:181,0
DA:183,0
DA:189,0
BRF:0
BRH:0
LF:95
LH:49
end_of_record
SF:/home/noah/src/ruchy/src/backend/transpiler/codegen_minimal.rs
FN:94,_RNvMNtNtNtCskTACvQmcrtm_5ruchy7backend10transpiler15codegen_minimalNtB2_14MinimalCodeGen11gen_if_expr
FN:220,_RNvMNtNtNtCskTACvQmcrtm_5ruchy7backend10transpiler15codegen_minimalNtB2_14MinimalCodeGen11gen_literal
FN:264,_RNvMNtNtNtCskTACvQmcrtm_5ruchy7backend10transpiler15codegen_minimalNtB2_14MinimalCodeGen11gen_pattern
FN:58,_RNvMNtNtNtCskTACvQmcrtm_5ruchy7backend10transpiler15codegen_minimalNtB2_14MinimalCodeGen12gen_let_expr
FN:255,_RNvMNtNtNtCskTACvQmcrtm_5ruchy7backend10transpiler15codegen_minimalNtB2_14MinimalCodeGen12gen_unary_op
FN:231,_RNvMNtNtNtCskTACvQmcrtm_5ruchy7backend10transpiler15codegen_minimalNtB2_14MinimalCodeGen13gen_binary_op
FN:86,_RNvMNtNtNtCskTACvQmcrtm_5ruchy7backend10transpiler15codegen_minimalNtB2_14MinimalCodeGen13gen_call_expr
FN:137,_RNvMNtNtNtCskTACvQmcrtm_5ruchy7backend10transpiler15codegen_minimalNtB2_14MinimalCodeGen13gen_list_expr
FN:109,_RNvMNtNtNtCskTACvQmcrtm_5ruchy7backend10transpiler15codegen_minimalNtB2_14MinimalCodeGen14gen_block_expr
FN:177,_RNvMNtNtNtCskTACvQmcrtm_5ruchy7backend10transpiler15codegen_minimalNtB2_14MinimalCodeGen14gen_macro_call
FN:125,_RNvMNtNtNtCskTACvQmcrtm_5ruchy7backend10transpiler15codegen_minimalNtB2_14MinimalCodeGen14gen_match_expr
FN:145,_RNvMNtNtNtCskTACvQmcrtm_5ruchy7backend10transpiler15codegen_minimalNtB2_14MinimalCodeGen14gen_struct_def
FN:52,_RNvMNtNtNtCskTACvQmcrtm_5ruchy7backend10transpiler15codegen_minimalNtB2_14MinimalCodeGen14gen_unary_expr
FN:45,_RNvMNtNtNtCskTACvQmcrtm_5ruchy7backend10transpiler15codegen_minimalNtB2_14MinimalCodeGen15gen_binary_expr
FN:77,_RNvMNtNtNtCskTACvQmcrtm_5ruchy7backend10transpiler15codegen_minimalNtB2_14MinimalCodeGen15gen_lambda_expr
FN:168,_RNvMNtNtNtCskTACvQmcrtm_5ruchy7backend10transpiler15codegen_minimalNtB2_14MinimalCodeGen15gen_method_call
FN:64,_RNvMNtNtNtCskTACvQmcrtm_5ruchy7backend10transpiler15codegen_minimalNtB2_14MinimalCodeGen17gen_function_expr
FN:156,_RNvMNtNtNtCskTACvQmcrtm_5ruchy7backend10transpiler15codegen_minimalNtB2_14MinimalCodeGen18gen_struct_literal
FN:185,_RNvMNtNtNtCskTACvQmcrtm_5ruchy7backend10transpiler15codegen_minimalNtB2_14MinimalCodeGen24gen_string_interpolation
FN:14,_RNvMNtNtNtCskTACvQmcrtm_5ruchy7backend10transpiler15codegen_minimalNtB2_14MinimalCodeGen8gen_expr
FN:150,_RNCNvMNtNtNtCskTACvQmcrtm_5ruchy7backend10transpiler15codegen_minimalNtB4_14MinimalCodeGen14gen_struct_def0Ba_
FN:70,_RNCNvMNtNtNtCskTACvQmcrtm_5ruchy7backend10transpiler15codegen_minimalNtB4_14MinimalCodeGen17gen_function_expr0Ba_
FN:158,_RNCNvMNtNtNtCskTACvQmcrtm_5ruchy7backend10transpiler15codegen_minimalNtB4_14MinimalCodeGen18gen_struct_literal0Ba_
FN:300,_RNvMNtNtNtCskTACvQmcrtm_5ruchy7backend10transpiler15codegen_minimalNtB2_14MinimalCodeGen11gen_program
FN:295,_RNvMNtNtNtCskTACvQmcrtm_5ruchy7backend10transpiler15codegen_minimalNtB2_14MinimalCodeGen8gen_type
FN:313,_RNvNtNtNtNtCskTACvQmcrtm_5ruchy7backend10transpiler15codegen_minimal5tests7gen_str
FN:339,_RNvNtNtNtNtCskTACvQmcrtm_5ruchy7backend10transpiler15codegen_minimal5testss_11test_lambda
FN:327,_RNvNtNtNtNtCskTACvQmcrtm_5ruchy7backend10transpiler15codegen_minimal5testss_15test_binary_ops
FN:333,_RNvNtNtNtNtCskTACvQmcrtm_5ruchy7backend10transpiler15codegen_minimal5testss_17test_function_def
FN:320,_RNvNtNtNtNtCskTACvQmcrtm_5ruchy7backend10transpiler15codegen_minimal5testss_22test_basic_expressions
FN:344,_RNvNtNtNtNtCskTACvQmcrtm_5ruchy7backend10transpiler15codegen_minimal5testss_9test_list
FNDA:0,_RNvMNtNtNtCskTACvQmcrtm_5ruchy7backend10transpiler15codegen_minimalNtB2_14MinimalCodeGen11gen_if_expr
FNDA:9,_RNvMNtNtNtCskTACvQmcrtm_5ruchy7backend10transpiler15codegen_minimalNtB2_14MinimalCodeGen11gen_literal
FNDA:0,_RNvMNtNtNtCskTACvQmcrtm_5ruchy7backend10transpiler15codegen_minimalNtB2_14MinimalCodeGen11gen_pattern
FNDA:0,_RNvMNtNtNtCskTACvQmcrtm_5ruchy7backend10transpiler15codegen_minimalNtB2_14MinimalCodeGen12gen_let_expr
FNDA:0,_RNvMNtNtNtCskTACvQmcrtm_5ruchy7backend10transpiler15codegen_minimalNtB2_14MinimalCodeGen12gen_unary_op
FNDA:4,_RNvMNtNtNtCskTACvQmcrtm_5ruchy7backend10transpiler15codegen_minimalNtB2_14MinimalCodeGen13gen_binary_op
FNDA:0,_RNvMNtNtNtCskTACvQmcrtm_5ruchy7backend10transpiler15codegen_minimalNtB2_14MinimalCodeGen13gen_call_expr
FNDA:1,_RNvMNtNtNtCskTACvQmcrtm_5ruchy7backend10transpiler15codegen_minimalNtB2_14MinimalCodeGen13gen_list_expr
FNDA:1,_RNvMNtNtNtCskTACvQmcrtm_5ruchy7backend10transpiler15codegen_minimalNtB2_14MinimalCodeGen14gen_block_expr
FNDA:0,_RNvMNtNtNtCskTACvQmcrtm_5ruchy7backend10transpiler15codegen_minimalNtB2_14MinimalCodeGen14gen_macro_call
FNDA:0,_RNvMNtNtNtCskTACvQmcrtm_5ruchy7backend10transpiler15codegen_minimalNtB2_14MinimalCodeGen14gen_match_expr
FNDA:0,_RNvMNtNtNtCskTACvQmcrtm_5ruchy7backend10transpiler15codegen_minimalNtB2_14MinimalCodeGen14gen_struct_def
FNDA:0,_RNvMNtNtNtCskTACvQmcrtm_5ruchy7backend10transpiler15codegen_minimalNtB2_14MinimalCodeGen14gen_unary_expr
FNDA:4,_RNvMNtNtNtCskTACvQmcrtm_5ruchy7backend10transpiler15codegen_minimalNtB2_14MinimalCodeGen15gen_binary_expr
FNDA:1,_RNvMNtNtNtCskTACvQmcrtm_5ruchy7backend10transpiler15codegen_minimalNtB2_14MinimalCodeGen15gen_lambda_expr
FNDA:0,_RNvMNtNtNtCskTACvQmcrtm_5ruchy7backend10transpiler15codegen_minimalNtB2_14MinimalCodeGen15gen_method_call
FNDA:1,_RNvMNtNtNtCskTACvQmcrtm_5ruchy7backend10transpiler15codegen_minimalNtB2_14MinimalCodeGen17gen_function_expr
FNDA:0,_RNvMNtNtNtCskTACvQmcrtm_5ruchy7backend10transpiler15codegen_minimalNtB2_14MinimalCodeGen18gen_struct_literal
FNDA:0,_RNvMNtNtNtCskTACvQmcrtm_5ruchy7backend10transpiler15codegen_minimalNtB2_14MinimalCodeGen24gen_string_interpolation
FNDA:22,_RNvMNtNtNtCskTACvQmcrtm_5ruchy7backend10transpiler15codegen_minimalNtB2_14MinimalCodeGen8gen_expr
FNDA:0,_RNCNvMNtNtNtCskTACvQmcrtm_5ruchy7backend10transpiler15codegen_minimalNtB4_14MinimalCodeGen14gen_struct_def0Ba_
FNDA:2,_RNCNvMNtNtNtCskTACvQmcrtm_5ruchy7backend10transpiler15codegen_minimalNtB4_14MinimalCodeGen17gen_function_expr0Ba_
FNDA:0,_RNCNvMNtNtNtCskTACvQmcrtm_5ruchy7backend10transpiler15codegen_minimalNtB4_14MinimalCodeGen18gen_struct_literal0Ba_
FNDA:0,_RNvMNtNtNtCskTACvQmcrtm_5ruchy7backend10transpiler15codegen_minimalNtB2_14MinimalCodeGen11gen_program
FNDA:0,_RNvMNtNtNtCskTACvQmcrtm_5ruchy7backend10transpiler15codegen_minimalNtB2_14MinimalCodeGen8gen_type
FNDA:8,_RNvNtNtNtNtCskTACvQmcrtm_5ruchy7backend10transpiler15codegen_minimal5tests7gen_str
FNDA:1,_RNvNtNtNtNtCskTACvQmcrtm_5ruchy7backend10transpiler15codegen_minimal5testss_11test_lambda
FNDA:1,_RNvNtNtNtNtCskTACvQmcrtm_5ruchy7backend10transpiler15codegen_minimal5testss_15test_binary_ops
FNDA:1,_RNvNtNtNtNtCskTACvQmcrtm_5ruchy7backend10transpiler15codegen_minimal5testss_17test_function_def
FNDA:1,_RNvNtNtNtNtCskTACvQmcrtm_5ruchy7backend10transpiler15codegen_minimal5testss_22test_basic_expressions
FNDA:1,_RNvNtNtNtNtCskTACvQmcrtm_5ruchy7backend10transpiler15codegen_minimal5testss_9test_list
FNF:31
FNH:15
DA:14,22
DA:17,22
DA:18,9
DA:19,5
DA:20,4
DA:21,0
DA:22,0
DA:23,1
DA:24,1
DA:25,0
DA:26,0
DA:27,0
DA:28,1
DA:29,0
DA:30,1
DA:31,0
DA:32,0
DA:33,0
DA:34,0
DA:35,0
DA:36,0
DA:37,0
DA:38,0
DA:39,0
DA:40,0
DA:41,0
DA:43,22
DA:45,4
DA:46,4
DA:47,4
DA:48,4
DA:49,4
DA:50,4
DA:52,0
DA:53,0
DA:54,0
DA:55,0
DA:56,0
DA:58,0
DA:59,0
DA:60,0
DA:61,0
DA:62,0
DA:64,1
DA:65,1
DA:66,1
DA:67,1
DA:68,1
DA:69,1
DA:70,2
DA:71,1
DA:72,1
DA:73,1
DA:74,1
DA:75,1
DA:77,1
DA:78,1
DA:79,1
DA:80,1
DA:81,1
DA:82,1
DA:83,1
DA:84,1
DA:86,0
DA:87,0
DA:88,0
DA:89,0
DA:90,0
DA:91,0
DA:92,0
DA:94,0
DA:95,0
DA:96,0
DA:97,0
DA:98,0
DA:99,0
DA:100,0
DA:101,0
DA:102,0
DA:103,0
DA:105,0
DA:107,0
DA:109,1
DA:110,1
DA:111,1
DA:112,1
DA:113,1
DA:114,1
DA:115,1
DA:116,1
DA:117,1
DA:118,0
DA:119,0
DA:121,1
DA:122,1
DA:123,1
DA:125,0
DA:126,0
DA:127,0
DA:128,0
DA:129,0
DA:130,0
DA:131,0
DA:133,0
DA:134,0
DA:135,0
DA:137,1
DA:138,1
DA:139,1
DA:140,1
DA:141,1
DA:142,1
DA:143,1
DA:145,0
DA:146,0
DA:147,0
DA:148,0
DA:149,0
DA:150,0
DA:151,0
DA:152,0
DA:153,0
DA:154,0
DA:156,0
DA:157,0
DA:158,0
DA:159,0
DA:160,0
DA:161,0
DA:162,0
DA:163,0
DA:164,0
DA:165,0
DA:166,0
DA:168,0
DA:169,0
DA:170,0
DA:171,0
DA:172,0
DA:173,0
DA:174,0
DA:175,0
DA:177,0
DA:178,0
DA:179,0
DA:180,0
DA:181,0
DA:182,0
DA:183,0
DA:185,0
DA:186,0
DA:187,0
DA:189,0
DA:190,0
DA:191,0
DA:193,0
DA:194,0
DA:195,0
DA:196,0
DA:197,0
DA:198,0
DA:199,0
DA:200,0
DA:202,0
DA:203,0
DA:204,0
DA:205,0
DA:206,0
DA:211,0
DA:212,0
DA:213,0
DA:214,0
DA:215,0
DA:216,0
DA:217,0
DA:218,0
DA:220,9
DA:221,9
DA:222,7
DA:223,0
DA:224,1
DA:225,1
DA:226,0
DA:227,0
DA:229,9
DA:231,4
DA:232,4
DA:233,3
DA:234,0
DA:235,1
DA:236,0
DA:237,0
DA:238,0
DA:239,0
DA:240,0
DA:241,0
DA:242,0
DA:243,0
DA:244,0
DA:245,0
DA:246,0
DA:247,0
DA:248,0
DA:249,0
DA:250,0
DA:251,0
DA:253,4
DA:255,0
DA:256,0
DA:257,0
DA:258,0
DA:259,0
DA:260,0
DA:262,0
DA:264,0
DA:265,0
DA:266,0
DA:267,0
DA:268,0
DA:269,0
DA:270,0
DA:271,0
DA:272,0
DA:273,0
DA:274,0
DA:276,0
DA:277,0
DA:278,0
DA:280,0
DA:281,0
DA:282,0
DA:284,0
DA:285,0
DA:286,0
DA:288,0
DA:289,0
DA:291,0
DA:295,0
DA:296,0
DA:297,0
DA:300,0
DA:301,0
DA:302,0
DA:303,0
DA:304,0
DA:305,0
DA:313,8
DA:314,8
DA:315,8
DA:316,8
DA:317,8
DA:320,1
DA:321,1
DA:322,1
DA:323,1
DA:324,1
DA:327,1
DA:328,1
DA:329,1
DA:330,1
DA:333,1
DA:334,1
DA:335,1
DA:336,1
DA:339,1
DA:340,1
DA:341,1
DA:344,1
DA:345,1
DA:346,1
BRF:0
BRH:0
LF:273
LH:91
end_of_record
SF:/home/noah/src/ruchy/src/backend/transpiler/dataframe.rs
FN:36,_RNCNvMNtNtNtCskTACvQmcrtm_5ruchy7backend10transpiler9dataframeNtB6_10Transpiler19transpile_dataframe0Ba_
FN:153,_RNCNvMNtNtNtCskTACvQmcrtm_5ruchy7backend10transpiler9dataframeNtB6_10Transpiler26transpile_dataframe_method0Ba_
FN:67,_RNCNvMNtNtNtCskTACvQmcrtm_5ruchy7backend10transpiler9dataframeNtB6_10Transpiler29transpile_dataframe_operation0Ba_
FN:88,_RNCNvMNtNtNtCskTACvQmcrtm_5ruchy7backend10transpiler9dataframeNtB6_10Transpiler29transpile_dataframe_operations0_0Ba_
FN:95,_RNCNvMNtNtNtCskTACvQmcrtm_5ruchy7backend10transpiler9dataframeNtB6_10Transpiler29transpile_dataframe_operations1_0Ba_
FN:117,_RNCNvMNtNtNtCskTACvQmcrtm_5ruchy7backend10transpiler9dataframeNtB6_10Transpiler29transpile_dataframe_operations2_0Ba_
FN:80,_RNCNvMNtNtNtCskTACvQmcrtm_5ruchy7backend10transpiler9dataframeNtB6_10Transpiler29transpile_dataframe_operations_0Ba_
FN:345,_RNvNtNtNtNtCskTACvQmcrtm_5ruchy7backend10transpiler9dataframe5tests17make_literal_expr
FN:341,_RNvNtNtNtNtCskTACvQmcrtm_5ruchy7backend10transpiler9dataframe5tests20make_test_transpiler
FN:354,_RNvNtNtNtNtCskTACvQmcrtm_5ruchy7backend10transpiler9dataframe5testss_20test_empty_dataframe
FN:363,_RNvNtNtNtNtCskTACvQmcrtm_5ruchy7backend10transpiler9dataframe5testss_27test_dataframe_with_columns
FN:422,_RNvNtNtNtNtCskTACvQmcrtm_5ruchy7backend10transpiler9dataframe5testss_29test_dataframe_sort_operation
FN:434,_RNvNtNtNtNtCskTACvQmcrtm_5ruchy7backend10transpiler9dataframe5testss_30test_dataframe_join_operations
FN:398,_RNvNtNtNtNtCskTACvQmcrtm_5ruchy7backend10transpiler9dataframe5testss_31test_dataframe_filter_operation
FN:481,_RNvNtNtNtNtCskTACvQmcrtm_5ruchy7backend10transpiler9dataframe5testss_31test_dataframe_limit_operations
FN:385,_RNvNtNtNtNtCskTACvQmcrtm_5ruchy7backend10transpiler9dataframe5testss_31test_dataframe_select_operation
FN:410,_RNvNtNtNtNtCskTACvQmcrtm_5ruchy7backend10transpiler9dataframe5testss_32test_dataframe_groupby_operation
FN:460,_RNvNtNtNtNtCskTACvQmcrtm_5ruchy7backend10transpiler9dataframe5testss_35test_dataframe_aggregate_operations
FN:505,_RNvNtNtNtNtCskTACvQmcrtm_5ruchy7backend10transpiler9dataframe5testss_39test_dataframe_with_empty_column_values
FN:303,_RNvMNtNtNtCskTACvQmcrtm_5ruchy7backend10transpiler9dataframeNtB4_10Transpiler17is_dataframe_expr
FN:243,_RNvMNtNtNtCskTACvQmcrtm_5ruchy7backend10transpiler9dataframeNtB4_10Transpiler17transpile_groupby
FN:15,_RNvMNtNtNtCskTACvQmcrtm_5ruchy7backend10transpiler9dataframeNtB4_10Transpiler19transpile_dataframe
FN:276,_RNvMNtNtNtCskTACvQmcrtm_5ruchy7backend10transpiler9dataframeNtB4_10Transpiler19transpile_head_tail
FN:189,_RNvMNtNtNtCskTACvQmcrtm_5ruchy7backend10transpiler9dataframeNtB4_10Transpiler24transpile_builder_method
FN:290,_RNvMNtNtNtCskTACvQmcrtm_5ruchy7backend10transpiler9dataframeNtB4_10Transpiler24transpile_default_method
FN:231,_RNvMNtNtNtCskTACvQmcrtm_5ruchy7backend10transpiler9dataframeNtB4_10Transpiler24transpile_lazy_operation
FN:145,_RNvMNtNtNtCskTACvQmcrtm_5ruchy7backend10transpiler9dataframeNtB4_10Transpiler26transpile_dataframe_method
FN:253,_RNvMNtNtNtCskTACvQmcrtm_5ruchy7backend10transpiler9dataframeNtB4_10Transpiler26transpile_simple_operation
FN:210,_RNvMNtNtNtCskTACvQmcrtm_5ruchy7backend10transpiler9dataframeNtB4_10Transpiler27transpile_inspection_method
FN:265,_RNvMNtNtNtCskTACvQmcrtm_5ruchy7backend10transpiler9dataframeNtB4_10Transpiler28transpile_statistical_method
FN:57,_RNvMNtNtNtCskTACvQmcrtm_5ruchy7backend10transpiler9dataframeNtB4_10Transpiler29transpile_dataframe_operation
FNDA:4,_RNCNvMNtNtNtCskTACvQmcrtm_5ruchy7backend10transpiler9dataframeNtB6_10Transpiler19transpile_dataframe0Ba_
FNDA:0,_RNCNvMNtNtNtCskTACvQmcrtm_5ruchy7backend10transpiler9dataframeNtB6_10Transpiler26transpile_dataframe_method0Ba_
FNDA:2,_RNCNvMNtNtNtCskTACvQmcrtm_5ruchy7backend10transpiler9dataframeNtB6_10Transpiler29transpile_dataframe_operation0Ba_
FNDA:1,_RNCNvMNtNtNtCskTACvQmcrtm_5ruchy7backend10transpiler9dataframeNtB6_10Transpiler29transpile_dataframe_operations0_0Ba_
FNDA:3,_RNCNvMNtNtNtCskTACvQmcrtm_5ruchy7backend10transpiler9dataframeNtB6_10Transpiler29transpile_dataframe_operations1_0Ba_
FNDA:6,_RNCNvMNtNtNtCskTACvQmcrtm_5ruchy7backend10transpiler9dataframeNtB6_10Transpiler29transpile_dataframe_operations2_0Ba_
FNDA:1,_RNCNvMNtNtNtCskTACvQmcrtm_5ruchy7backend10transpiler9dataframeNtB6_10Transpiler29transpile_dataframe_operations_0Ba_
FNDA:13,_RNvNtNtNtNtCskTACvQmcrtm_5ruchy7backend10transpiler9dataframe5tests17make_literal_expr
FNDA:10,_RNvNtNtNtNtCskTACvQmcrtm_5ruchy7backend10transpiler9dataframe5tests20make_test_transpiler
FNDA:1,_RNvNtNtNtNtCskTACvQmcrtm_5ruchy7backend10transpiler9dataframe5testss_20test_empty_dataframe
FNDA:1,_RNvNtNtNtNtCskTACvQmcrtm_5ruchy7backend10transpiler9dataframe5testss_27test_dataframe_with_columns
FNDA:1,_RNvNtNtNtNtCskTACvQmcrtm_5ruchy7backend10transpiler9dataframe5testss_29test_dataframe_sort_operation
FNDA:1,_RNvNtNtNtNtCskTACvQmcrtm_5ruchy7backend10transpiler9dataframe5testss_30test_dataframe_join_operations
FNDA:1,_RNvNtNtNtNtCskTACvQmcrtm_5ruchy7backend10transpiler9dataframe5testss_31test_dataframe_filter_operation
FNDA:1,_RNvNtNtNtNtCskTACvQmcrtm_5ruchy7backend10transpiler9dataframe5testss_31test_dataframe_limit_operations
FNDA:1,_RNvNtNtNtNtCskTACvQmcrtm_5ruchy7backend10transpiler9dataframe5testss_31test_dataframe_select_operation
FNDA:1,_RNvNtNtNtNtCskTACvQmcrtm_5ruchy7backend10transpiler9dataframe5testss_32test_dataframe_groupby_operation
FNDA:1,_RNvNtNtNtNtCskTACvQmcrtm_5ruchy7backend10transpiler9dataframe5testss_35test_dataframe_aggregate_operations
FNDA:1,_RNvNtNtNtNtCskTACvQmcrtm_5ruchy7backend10transpiler9dataframe5testss_39test_dataframe_with_empty_column_values
FNDA:21,_RNvMNtNtNtCskTACvQmcrtm_5ruchy7backend10transpiler9dataframeNtB4_10Transpiler17is_dataframe_expr
FNDA:0,_RNvMNtNtNtCskTACvQmcrtm_5ruchy7backend10transpiler9dataframeNtB4_10Transpiler17transpile_groupby
FNDA:3,_RNvMNtNtNtCskTACvQmcrtm_5ruchy7backend10transpiler9dataframeNtB4_10Transpiler19transpile_dataframe
FNDA:0,_RNvMNtNtNtCskTACvQmcrtm_5ruchy7backend10transpiler9dataframeNtB4_10Transpiler19transpile_head_tail
FNDA:0,_RNvMNtNtNtCskTACvQmcrtm_5ruchy7backend10transpiler9dataframeNtB4_10Transpiler24transpile_builder_method
FNDA:0,_RNvMNtNtNtCskTACvQmcrtm_5ruchy7backend10transpiler9dataframeNtB4_10Transpiler24transpile_default_method
FNDA:0,_RNvMNtNtNtCskTACvQmcrtm_5ruchy7backend10transpiler9dataframeNtB4_10Transpiler24transpile_lazy_operation
FNDA:0,_RNvMNtNtNtCskTACvQmcrtm_5ruchy7backend10transpiler9dataframeNtB4_10Transpiler26transpile_dataframe_method
FNDA:0,_RNvMNtNtNtCskTACvQmcrtm_5ruchy7backend10transpiler9dataframeNtB4_10Transpiler26transpile_simple_operation
FNDA:0,_RNvMNtNtNtCskTACvQmcrtm_5ruchy7backend10transpiler9dataframeNtB4_10Transpiler27transpile_inspection_method
FNDA:0,_RNvMNtNtNtCskTACvQmcrtm_5ruchy7backend10transpiler9dataframeNtB4_10Transpiler28transpile_statistical_method
FNDA:11,_RNvMNtNtNtCskTACvQmcrtm_5ruchy7backend10transpiler9dataframeNtB4_10Transpiler29transpile_dataframe_operation
FNF:31
FNH:21
DA:15,3
DA:16,3
DA:18,1
DA:19,1
DA:20,1
DA:21,2
DA:23,2
DA:25,5
DA:26,3
DA:29,3
DA:30,1
DA:33,2
DA:34,2
DA:35,2
DA:36,4
DA:37,2
DA:38,2
DA:39,2
DA:43,3
DA:49,2
DA:54,3
DA:57,11
DA:58,11
DA:59,11
DA:60,11
DA:61,11
DA:62,11
DA:64,11
DA:65,1
DA:66,1
DA:67,2
DA:68,1
DA:72,1
DA:73,1
DA:74,1
DA:75,1
DA:76,1
DA:78,1
DA:79,1
DA:80,1
DA:81,1
DA:85,1
DA:87,1
DA:88,1
DA:89,1
DA:93,3
DA:94,3
DA:95,3
DA:97,3
DA:98,1
DA:99,1
DA:100,1
DA:101,0
DA:104,3
DA:113,1
DA:115,1
DA:116,1
DA:117,6
DA:118,1
DA:119,1
DA:120,1
DA:121,1
DA:122,1
DA:123,1
DA:124,0
DA:125,6
DA:126,1
DA:128,1
DA:132,1
DA:133,1
DA:134,1
DA:135,1
DA:136,1
DA:137,1
DA:138,1
DA:139,1
DA:140,1
DA:142,11
DA:145,0
DA:146,0
DA:147,0
DA:148,0
DA:149,0
DA:150,0
DA:151,0
DA:153,0
DA:154,0
DA:157,0
DA:159,0
DA:160,0
DA:163,0
DA:164,0
DA:167,0
DA:168,0
DA:170,0
DA:171,0
DA:173,0
DA:174,0
DA:177,0
DA:178,0
DA:181,0
DA:182,0
DA:185,0
DA:187,0
DA:189,0
DA:190,0
DA:191,0
DA:192,0
DA:193,0
DA:194,0
DA:195,0
DA:196,0
DA:197,0
DA:198,0
DA:199,0
DA:200,0
DA:202,0
DA:205,0
DA:206,0
DA:208,0
DA:210,0
DA:211,0
DA:212,0
DA:213,0
DA:214,0
DA:215,0
DA:216,0
DA:217,0
DA:218,0
DA:219,0
DA:220,0
DA:221,0
DA:222,0
DA:224,0
DA:227,0
DA:229,0
DA:231,0
DA:232,0
DA:233,0
DA:234,0
DA:235,0
DA:236,0
DA:237,0
DA:238,0
DA:241,0
DA:243,0
DA:244,0
DA:245,0
DA:246,0
DA:247,0
DA:248,0
DA:251,0
DA:253,0
DA:254,0
DA:255,0
DA:256,0
DA:257,0
DA:258,0
DA:259,0
DA:260,0
DA:263,0
DA:265,0
DA:266,0
DA:267,0
DA:268,0
DA:269,0
DA:270,0
DA:271,0
DA:272,0
DA:273,0
DA:274,0
DA:276,0
DA:277,0
DA:278,0
DA:279,0
DA:280,0
DA:281,0
DA:282,0
DA:283,0
DA:284,0
DA:286,0
DA:288,0
DA:290,0
DA:291,0
DA:292,0
DA:293,0
DA:294,0
DA:295,0
DA:296,0
DA:297,0
DA:300,0
DA:303,21
DA:306,3
DA:308,3
DA:311,0
DA:312,0
DA:313,0
DA:315,0
DA:320,0
DA:322,0
DA:323,0
DA:324,0
DA:325,0
DA:329,0
DA:331,21
DA:333,21
DA:341,10
DA:342,10
DA:343,10
DA:345,13
DA:346,13
DA:347,13
DA:348,13
DA:349,13
DA:350,13
DA:351,13
DA:354,1
DA:355,1
DA:356,1
DA:357,1
DA:358,1
DA:359,1
DA:360,1
DA:363,1
DA:364,1
DA:365,1
DA:366,1
DA:367,1
DA:368,1
DA:369,1
DA:370,1
DA:371,1
DA:372,1
DA:373,1
DA:376,1
DA:377,1
DA:378,1
DA:379,1
DA:380,1
DA:381,1
DA:382,1
DA:385,1
DA:386,1
DA:387,1
DA:388,1
DA:390,1
DA:391,1
DA:392,1
DA:393,1
DA:394,1
DA:395,1
DA:398,1
DA:399,1
DA:400,1
DA:401,1
DA:402,1
DA:404,1
DA:405,1
DA:406,1
DA:407,1
DA:410,1
DA:411,1
DA:412,1
DA:413,1
DA:415,1
DA:416,1
DA:417,1
DA:418,1
DA:419,1
DA:422,1
DA:423,1
DA:424,1
DA:425,1
DA:427,1
DA:428,1
DA:429,1
DA:430,1
DA:431,1
DA:434,1
DA:435,1
DA:436,1
DA:437,1
DA:439,1
DA:440,1
DA:441,1
DA:442,1
DA:445,4
DA:446,3
DA:447,3
DA:448,3
DA:449,3
DA:450,3
DA:452,3
DA:453,3
DA:454,3
DA:455,3
DA:457,1
DA:460,1
DA:461,1
DA:462,1
DA:464,1
DA:465,1
DA:466,1
DA:467,1
DA:468,1
DA:469,1
DA:470,1
DA:473,1
DA:474,1
DA:475,1
DA:477,1
DA:478,1
DA:481,1
DA:482,1
DA:483,1
DA:486,1
DA:487,1
DA:488,1
DA:489,1
DA:492,1
DA:493,1
DA:494,1
DA:495,1
DA:498,1
DA:499,1
DA:500,1
DA:501,1
DA:502,1
DA:505,1
DA:506,1
DA:507,1
DA:508,1
DA:509,1
DA:510,1
DA:511,1
DA:514,1
DA:515,1
DA:516,1
DA:517,1
DA:518,1
DA:519,1
BRF:0
BRH:0
LF:348
LH:222
end_of_record
SF:/home/noah/src/ruchy/src/backend/transpiler/dataframe_builder.rs
FN:88,_RNvMNtNtNtCskTACvQmcrtm_5ruchy7backend10transpiler17dataframe_builderNtB4_10Transpiler20is_dataframe_builder
FN:63,_RNvMNtNtNtCskTACvQmcrtm_5ruchy7backend10transpiler17dataframe_builderNtB4_10Transpiler20extract_column_chain
FN:15,_RNvMNtNtNtCskTACvQmcrtm_5ruchy7backend10transpiler17dataframe_builderNtB4_10Transpiler27transpile_dataframe_builder
FN:43,_RNvMNtNtNtCskTACvQmcrtm_5ruchy7backend10transpiler17dataframe_builderNtB4_10Transpiler31extract_dataframe_builder_chain
FNDA:0,_RNvMNtNtNtCskTACvQmcrtm_5ruchy7backend10transpiler17dataframe_builderNtB4_10Transpiler20is_dataframe_builder
FNDA:0,_RNvMNtNtNtCskTACvQmcrtm_5ruchy7backend10transpiler17dataframe_builderNtB4_10Transpiler20extract_column_chain
FNDA:0,_RNvMNtNtNtCskTACvQmcrtm_5ruchy7backend10transpiler17dataframe_builderNtB4_10Transpiler27transpile_dataframe_builder
FNDA:0,_RNvMNtNtNtCskTACvQmcrtm_5ruchy7backend10transpiler17dataframe_builderNtB4_10Transpiler31extract_dataframe_builder_chain
FNF:4
FNH:0
DA:15,0
DA:17,0
DA:19,0
DA:20,0
DA:21,0
DA:22,0
DA:23,0
DA:29,0
DA:30,0
DA:32,0
DA:37,0
DA:39,0
DA:43,0
DA:44,0
DA:46,0
DA:47,0
DA:50,0
DA:51,0
DA:52,0
DA:53,0
DA:55,0
DA:58,0
DA:60,0
DA:63,0
DA:64,0
DA:65,0
DA:66,0
DA:67,0
DA:68,0
DA:71,0
DA:74,0
DA:76,0
DA:77,0
DA:78,0
DA:79,0
DA:80,0
DA:81,0
DA:83,0
DA:85,0
DA:88,0
DA:89,0
DA:90,0
DA:91,0
DA:93,0
DA:94,0
DA:95,0
DA:97,0
DA:100,0
DA:102,0
BRF:0
BRH:0
LF:49
LH:0
end_of_record
SF:/home/noah/src/ruchy/src/backend/transpiler/dispatcher.rs
FN:581,_RNCNvMNtNtNtCskTACvQmcrtm_5ruchy7backend10transpiler10dispatcherNtB6_10Transpiler19transpile_vec_macro0Ba_
FN:516,_RNCNvMNtNtNtCskTACvQmcrtm_5ruchy7backend10transpiler10dispatcherNtB6_10Transpiler20transpile_print_args0Ba_
FN:599,_RNCNvMNtNtNtCskTACvQmcrtm_5ruchy7backend10transpiler10dispatcherNtB6_10Transpiler22transpile_assert_macro0Ba_
FN:625,_RNCNvMNtNtNtCskTACvQmcrtm_5ruchy7backend10transpiler10dispatcherNtB6_10Transpiler25transpile_assert_eq_macro0Ba_
FN:647,_RNCNvMNtNtNtCskTACvQmcrtm_5ruchy7backend10transpiler10dispatcherNtB6_10Transpiler25transpile_assert_ne_macro0Ba_
FN:669,_RNCNvMNtNtNtCskTACvQmcrtm_5ruchy7backend10transpiler10dispatcherNtB6_10Transpiler27transpile_control_misc_expr0Ba_
FN:560,_RNCNvMNtNtNtCskTACvQmcrtm_5ruchy7backend10transpiler10dispatcherNtB6_10Transpiler40transpile_string_interpolation_for_prints_0Ba_
FN:550,_RNCNvMNtNtNtCskTACvQmcrtm_5ruchy7backend10transpiler10dispatcherNtB6_10Transpiler40transpile_string_interpolation_for_print0Ba_
FN:220,_RNvMNtNtNtCskTACvQmcrtm_5ruchy7backend10transpiler10dispatcherNtB4_10Transpiler15transpile_macro
FN:676,_RNvMNtNtNtCskTACvQmcrtm_5ruchy7backend10transpiler10dispatcherNtB4_10Transpiler19make_break_continue
FN:370,_RNvMNtNtNtCskTACvQmcrtm_5ruchy7backend10transpiler10dispatcherNtB4_10Transpiler19transpile_misc_expr
FN:315,_RNvMNtNtNtCskTACvQmcrtm_5ruchy7backend10transpiler10dispatcherNtB4_10Transpiler19transpile_result_ok
FN:27,_RNvMNtNtNtCskTACvQmcrtm_5ruchy7backend10transpiler10dispatcherNtB4_10Transpiler19transpile_type_cast
FN:578,_RNvMNtNtNtCskTACvQmcrtm_5ruchy7backend10transpiler10dispatcherNtB4_10Transpiler19transpile_vec_macro
FN:343,_RNvMNtNtNtCskTACvQmcrtm_5ruchy7backend10transpiler10dispatcherNtB4_10Transpiler20transpile_actor_expr
FN:14,_RNvMNtNtNtCskTACvQmcrtm_5ruchy7backend10transpiler10dispatcherNtB4_10Transpiler20transpile_basic_expr
FN:49,_RNvMNtNtNtCskTACvQmcrtm_5ruchy7backend10transpiler10dispatcherNtB4_10Transpiler20transpile_identifier
FN:486,_RNvMNtNtNtCskTACvQmcrtm_5ruchy7backend10transpiler10dispatcherNtB4_10Transpiler20transpile_print_args
FN:320,_RNvMNtNtNtCskTACvQmcrtm_5ruchy7backend10transpiler10dispatcherNtB4_10Transpiler20transpile_result_err
FN:332,_RNvMNtNtNtCskTACvQmcrtm_5ruchy7backend10transpiler10dispatcherNtB4_10Transpiler21transpile_option_some
FN:472,_RNvMNtNtNtCskTACvQmcrtm_5ruchy7backend10transpiler10dispatcherNtB4_10Transpiler21transpile_panic_macro
FN:455,_RNvMNtNtNtCskTACvQmcrtm_5ruchy7backend10transpiler10dispatcherNtB4_10Transpiler21transpile_print_macro
FN:240,_RNvMNtNtNtCskTACvQmcrtm_5ruchy7backend10transpiler10dispatcherNtB4_10Transpiler21transpile_struct_expr
FN:596,_RNvMNtNtNtCskTACvQmcrtm_5ruchy7backend10transpiler10dispatcherNtB4_10Transpiler22transpile_assert_macro
FN:337,_RNvMNtNtNtCskTACvQmcrtm_5ruchy7backend10transpiler10dispatcherNtB4_10Transpiler22transpile_try_operator
FN:178,_RNvMNtNtNtCskTACvQmcrtm_5ruchy7backend10transpiler10dispatcherNtB4_10Transpiler23transpile_function_expr
FN:438,_RNvMNtNtNtCskTACvQmcrtm_5ruchy7backend10transpiler10dispatcherNtB4_10Transpiler23transpile_println_macro
FN:277,_RNvMNtNtNtCskTACvQmcrtm_5ruchy7backend10transpiler10dispatcherNtB4_10Transpiler24transpile_data_only_expr
FN:90,_RNvMNtNtNtCskTACvQmcrtm_5ruchy7backend10transpiler10dispatcherNtB4_10Transpiler24transpile_qualified_name
FN:401,_RNvMNtNtNtCskTACvQmcrtm_5ruchy7backend10transpiler10dispatcherNtB4_10Transpiler24transpile_type_decl_expr
FN:618,_RNvMNtNtNtCskTACvQmcrtm_5ruchy7backend10transpiler10dispatcherNtB4_10Transpiler25transpile_assert_eq_macro
FN:640,_RNvMNtNtNtCskTACvQmcrtm_5ruchy7backend10transpiler10dispatcherNtB4_10Transpiler25transpile_assert_ne_macro
FN:258,_RNvMNtNtNtCskTACvQmcrtm_5ruchy7backend10transpiler10dispatcherNtB4_10Transpiler25transpile_data_error_expr
FN:303,_RNvMNtNtNtCskTACvQmcrtm_5ruchy7backend10transpiler10dispatcherNtB4_10Transpiler25transpile_error_only_expr
FN:654,_RNvMNtNtNtCskTACvQmcrtm_5ruchy7backend10transpiler10dispatcherNtB4_10Transpiler27transpile_control_misc_expr
FN:136,_RNvMNtNtNtCskTACvQmcrtm_5ruchy7backend10transpiler10dispatcherNtB4_10Transpiler28transpile_operator_only_expr
FN:114,_RNvMNtNtNtCskTACvQmcrtm_5ruchy7backend10transpiler10dispatcherNtB4_10Transpiler31transpile_operator_control_expr
FN:148,_RNvMNtNtNtCskTACvQmcrtm_5ruchy7backend10transpiler10dispatcherNtB4_10Transpiler32transpile_control_flow_only_expr
FN:549,_RNvMNtNtNtCskTACvQmcrtm_5ruchy7backend10transpiler10dispatcherNtB4_10Transpiler40transpile_string_interpolation_for_print
FNDA:0,_RNCNvMNtNtNtCskTACvQmcrtm_5ruchy7backend10transpiler10dispatcherNtB6_10Transpiler19transpile_vec_macro0Ba_
FNDA:0,_RNCNvMNtNtNtCskTACvQmcrtm_5ruchy7backend10transpiler10dispatcherNtB6_10Transpiler20transpile_print_args0Ba_
FNDA:0,_RNCNvMNtNtNtCskTACvQmcrtm_5ruchy7backend10transpiler10dispatcherNtB6_10Transpiler22transpile_assert_macro0Ba_
FNDA:0,_RNCNvMNtNtNtCskTACvQmcrtm_5ruchy7backend10transpiler10dispatcherNtB6_10Transpiler25transpile_assert_eq_macro0Ba_
FNDA:0,_RNCNvMNtNtNtCskTACvQmcrtm_5ruchy7backend10transpiler10dispatcherNtB6_10Transpiler25transpile_assert_ne_macro0Ba_
FNDA:0,_RNCNvMNtNtNtCskTACvQmcrtm_5ruchy7backend10transpiler10dispatcherNtB6_10Transpiler27transpile_control_misc_expr0Ba_
FNDA:0,_RNCNvMNtNtNtCskTACvQmcrtm_5ruchy7backend10transpiler10dispatcherNtB6_10Transpiler40transpile_string_interpolation_for_prints_0Ba_
FNDA:0,_RNCNvMNtNtNtCskTACvQmcrtm_5ruchy7backend10transpiler10dispatcherNtB6_10Transpiler40transpile_string_interpolation_for_print0Ba_
FNDA:0,_RNvMNtNtNtCskTACvQmcrtm_5ruchy7backend10transpiler10dispatcherNtB4_10Transpiler15transpile_macro
FNDA:0,_RNvMNtNtNtCskTACvQmcrtm_5ruchy7backend10transpiler10dispatcherNtB4_10Transpiler19make_break_continue
FNDA:45,_RNvMNtNtNtCskTACvQmcrtm_5ruchy7backend10transpiler10dispatcherNtB4_10Transpiler19transpile_misc_expr
FNDA:0,_RNvMNtNtNtCskTACvQmcrtm_5ruchy7backend10transpiler10dispatcherNtB4_10Transpiler19transpile_result_ok
FNDA:0,_RNvMNtNtNtCskTACvQmcrtm_5ruchy7backend10transpiler10dispatcherNtB4_10Transpiler19transpile_type_cast
FNDA:0,_RNvMNtNtNtCskTACvQmcrtm_5ruchy7backend10transpiler10dispatcherNtB4_10Transpiler19transpile_vec_macro
FNDA:3,_RNvMNtNtNtCskTACvQmcrtm_5ruchy7backend10transpiler10dispatcherNtB4_10Transpiler20transpile_actor_expr
FNDA:643,_RNvMNtNtNtCskTACvQmcrtm_5ruchy7backend10transpiler10dispatcherNtB4_10Transpiler20transpile_basic_expr
FNDA:230,_RNvMNtNtNtCskTACvQmcrtm_5ruchy7backend10transpiler10dispatcherNtB4_10Transpiler20transpile_identifier
FNDA:0,_RNvMNtNtNtCskTACvQmcrtm_5ruchy7backend10transpiler10dispatcherNtB4_10Transpiler20transpile_print_args
FNDA:0,_RNvMNtNtNtCskTACvQmcrtm_5ruchy7backend10transpiler10dispatcherNtB4_10Transpiler20transpile_result_err
FNDA:0,_RNvMNtNtNtCskTACvQmcrtm_5ruchy7backend10transpiler10dispatcherNtB4_10Transpiler21transpile_option_some
FNDA:0,_RNvMNtNtNtCskTACvQmcrtm_5ruchy7backend10transpiler10dispatcherNtB4_10Transpiler21transpile_panic_macro
FNDA:0,_RNvMNtNtNtCskTACvQmcrtm_5ruchy7backend10transpiler10dispatcherNtB4_10Transpiler21transpile_print_macro
FNDA:15,_RNvMNtNtNtCskTACvQmcrtm_5ruchy7backend10transpiler10dispatcherNtB4_10Transpiler21transpile_struct_expr
FNDA:0,_RNvMNtNtNtCskTACvQmcrtm_5ruchy7backend10transpiler10dispatcherNtB4_10Transpiler22transpile_assert_macro
FNDA:0,_RNvMNtNtNtCskTACvQmcrtm_5ruchy7backend10transpiler10dispatcherNtB4_10Transpiler22transpile_try_operator
FNDA:84,_RNvMNtNtNtCskTACvQmcrtm_5ruchy7backend10transpiler10dispatcherNtB4_10Transpiler23transpile_function_expr
FNDA:0,_RNvMNtNtNtCskTACvQmcrtm_5ruchy7backend10transpiler10dispatcherNtB4_10Transpiler23transpile_println_macro
FNDA:40,_RNvMNtNtNtCskTACvQmcrtm_5ruchy7backend10transpiler10dispatcherNtB4_10Transpiler24transpile_data_only_expr
FNDA:0,_RNvMNtNtNtCskTACvQmcrtm_5ruchy7backend10transpiler10dispatcherNtB4_10Transpiler24transpile_qualified_name
FNDA:3,_RNvMNtNtNtCskTACvQmcrtm_5ruchy7backend10transpiler10dispatcherNtB4_10Transpiler24transpile_type_decl_expr
FNDA:0,_RNvMNtNtNtCskTACvQmcrtm_5ruchy7backend10transpiler10dispatcherNtB4_10Transpiler25transpile_assert_eq_macro
FNDA:0,_RNvMNtNtNtCskTACvQmcrtm_5ruchy7backend10transpiler10dispatcherNtB4_10Transpiler25transpile_assert_ne_macro
FNDA:40,_RNvMNtNtNtCskTACvQmcrtm_5ruchy7backend10transpiler10dispatcherNtB4_10Transpiler25transpile_data_error_expr
FNDA:0,_RNvMNtNtNtCskTACvQmcrtm_5ruchy7backend10transpiler10dispatcherNtB4_10Transpiler25transpile_error_only_expr
FNDA:0,_RNvMNtNtNtCskTACvQmcrtm_5ruchy7backend10transpiler10dispatcherNtB4_10Transpiler27transpile_control_misc_expr
FNDA:167,_RNvMNtNtNtCskTACvQmcrtm_5ruchy7backend10transpiler10dispatcherNtB4_10Transpiler28transpile_operator_only_expr
FNDA:206,_RNvMNtNtNtCskTACvQmcrtm_5ruchy7backend10transpiler10dispatcherNtB4_10Transpiler31transpile_operator_control_expr
FNDA:39,_RNvMNtNtNtCskTACvQmcrtm_5ruchy7backend10transpiler10dispatcherNtB4_10Transpiler32transpile_control_flow_only_expr
FNDA:0,_RNvMNtNtNtCskTACvQmcrtm_5ruchy7backend10transpiler10dispatcherNtB4_10Transpiler40transpile_string_interpolation_for_print
FNF:39
FNH:12
DA:14,643
DA:15,643
DA:16,408
DA:17,230
DA:18,0
DA:19,0
DA:21,5
DA:22,0
DA:23,0
DA:25,643
DA:27,0
DA:28,0
DA:31,0
DA:32,0
DA:33,0
DA:34,0
DA:35,0
DA:36,0
DA:37,0
DA:38,0
DA:39,0
DA:40,0
DA:41,0
DA:42,0
DA:43,0
DA:46,0
DA:47,0
DA:49,230
DA:51,230
DA:53,0
DA:54,0
DA:56,0
DA:57,0
DA:58,0
DA:59,0
DA:60,0
DA:62,0
DA:65,0
DA:66,0
DA:68,0
DA:69,0
DA:70,0
DA:73,0
DA:76,230
DA:78,0
DA:79,230
DA:80,1
DA:82,229
DA:85,230
DA:86,230
DA:88,230
DA:90,0
DA:92,0
DA:93,0
DA:95,0
DA:97,0
DA:98,0
DA:101,0
DA:102,0
DA:103,0
DA:104,0
DA:105,0
DA:106,0
DA:107,0
DA:109,0
DA:111,0
DA:114,206
DA:115,206
DA:122,167
DA:131,39
DA:132,0
DA:134,206
DA:136,167
DA:137,167
DA:138,132
DA:139,34
DA:140,0
DA:141,0
DA:142,1
DA:143,0
DA:144,0
DA:146,167
DA:148,39
DA:149,39
DA:151,29
DA:152,29
DA:153,29
DA:154,29
DA:155,6
DA:156,2
DA:157,2
DA:159,0
DA:160,0
DA:161,0
DA:162,0
DA:163,0
DA:165,0
DA:166,0
DA:167,0
DA:168,0
DA:169,0
DA:170,0
DA:171,0
DA:173,0
DA:175,39
DA:178,84
DA:179,84
DA:181,18
DA:182,18
DA:183,18
DA:184,18
DA:185,18
DA:186,18
DA:187,18
DA:188,18
DA:189,18
DA:190,18
DA:191,18
DA:192,18
DA:193,18
DA:194,18
DA:195,18
DA:196,18
DA:198,11
DA:199,35
DA:201,20
DA:202,20
DA:203,20
DA:204,20
DA:205,0
DA:206,0
DA:208,84
DA:220,0
DA:221,0
DA:223,0
DA:224,0
DA:225,0
DA:228,0
DA:231,0
DA:232,0
DA:233,0
DA:235,0
DA:237,0
DA:240,15
DA:241,15
DA:243,5
DA:244,5
DA:245,5
DA:246,5
DA:247,5
DA:248,1
DA:249,4
DA:250,2
DA:251,1
DA:252,2
DA:253,0
DA:255,15
DA:258,40
DA:259,40
DA:266,40
DA:272,0
DA:273,0
DA:275,40
DA:277,40
DA:278,40
DA:279,0
DA:280,0
DA:281,0
DA:283,32
DA:284,0
DA:285,1
DA:287,3
DA:288,3
DA:289,3
DA:290,3
DA:292,3
DA:295,4
DA:296,4
DA:297,4
DA:298,4
DA:299,0
DA:301,40
DA:303,0
DA:304,0
DA:305,0
DA:306,0
DA:307,0
DA:308,0
DA:309,0
DA:310,0
DA:311,0
DA:313,0
DA:315,0
DA:316,0
DA:317,0
DA:318,0
DA:320,0
DA:321,0
DA:323,0
DA:325,0
DA:327,0
DA:329,0
DA:330,0
DA:332,0
DA:333,0
DA:334,0
DA:335,0
DA:337,0
DA:338,0
DA:339,0
DA:340,0
DA:343,3
DA:344,3
DA:346,1
DA:347,1
DA:348,1
DA:349,1
DA:350,1
DA:351,1
DA:354,0
DA:355,0
DA:356,0
DA:357,0
DA:358,1
DA:360,1
DA:362,0
DA:363,0
DA:365,0
DA:367,3
DA:370,45
DA:371,45
DA:373,15
DA:375,15
DA:376,15
DA:377,15
DA:378,15
DA:380,0
DA:382,0
DA:383,0
DA:385,0
DA:386,25
DA:387,1
DA:388,1
DA:389,0
DA:393,3
DA:395,0
DA:397,0
DA:399,45
DA:401,3
DA:402,3
DA:404,1
DA:405,1
DA:406,1
DA:407,1
DA:408,1
DA:410,1
DA:411,1
DA:412,1
DA:413,1
DA:414,1
DA:415,1
DA:417,0
DA:418,0
DA:419,0
DA:421,1
DA:422,1
DA:423,1
DA:424,1
DA:425,1
DA:426,0
DA:428,3
DA:438,0
DA:439,0
DA:440,0
DA:441,0
DA:443,0
DA:445,0
DA:455,0
DA:456,0
DA:457,0
DA:458,0
DA:460,0
DA:462,0
DA:472,0
DA:473,0
DA:474,0
DA:475,0
DA:477,0
DA:479,0
DA:486,0
DA:487,0
DA:488,0
DA:489,0
DA:492,0
DA:493,0
DA:494,0
DA:497,0
DA:499,0
DA:500,0
DA:501,0
DA:504,0
DA:507,0
DA:508,0
DA:509,0
DA:512,0
DA:515,0
DA:516,0
DA:517,0
DA:518,0
DA:519,0
DA:521,0
DA:522,0
DA:526,0
DA:527,0
DA:530,0
DA:534,0
DA:539,0
DA:540,0
DA:542,0
DA:549,0
DA:550,0
DA:554,0
DA:556,0
DA:559,0
DA:560,0
DA:561,0
DA:563,0
DA:564,0
DA:565,0
DA:566,0
DA:568,0
DA:578,0
DA:579,0
DA:580,0
DA:581,0
DA:582,0
DA:583,0
DA:585,0
DA:586,0
DA:596,0
DA:597,0
DA:598,0
DA:599,0
DA:600,0
DA:601,0
DA:603,0
DA:604,0
DA:606,0
DA:608,0
DA:618,0
DA:619,0
DA:620,0
DA:621,0
DA:623,0
DA:624,0
DA:625,0
DA:626,0
DA:627,0
DA:629,0
DA:630,0
DA:640,0
DA:641,0
DA:642,0
DA:643,0
DA:645,0
DA:646,0
DA:647,0
DA:648,0
DA:649,0
DA:651,0
DA:652,0
DA:654,0
DA:655,0
DA:656,0
DA:657,0
DA:658,0
DA:659,0
DA:660,0
DA:661,0
DA:662,0
DA:664,0
DA:667,0
DA:668,0
DA:669,0
DA:670,0
DA:672,0
DA:674,0
DA:676,0
DA:677,0
DA:678,0
DA:680,0
DA:682,0
DA:683,0
DA:684,0
DA:685,0
DA:687,0
DA:689,0
BRF:0
BRH:0
LF:405
LH:134
end_of_record
SF:/home/noah/src/ruchy/src/backend/transpiler/expressions.rs
FN:500,_RNCNvMNtNtNtCskTACvQmcrtm_5ruchy7backend10transpiler11expressionsNtB6_10Transpiler14transpile_lists_0Ba_
FN:509,_RNCNvMNtNtNtCskTACvQmcrtm_5ruchy7backend10transpiler11expressionsNtB6_10Transpiler15transpile_tuple0Ba_
FN:448,_RNvMNtNtNtCskTACvQmcrtm_5ruchy7backend10transpiler11expressionsNtB4_10Transpiler23transpile_pre_decrement
FN:430,_RNvMNtNtNtCskTACvQmcrtm_5ruchy7backend10transpiler11expressionsNtB4_10Transpiler23transpile_pre_increment
FN:454,_RNvMNtNtNtCskTACvQmcrtm_5ruchy7backend10transpiler11expressionsNtB4_10Transpiler24transpile_post_decrement
FN:436,_RNvMNtNtNtCskTACvQmcrtm_5ruchy7backend10transpiler11expressionsNtB4_10Transpiler24transpile_post_increment
FN:648,_RNvNtNtNtNtCskTACvQmcrtm_5ruchy7backend10transpiler11expressions5tests17create_transpiler
FN:888,_RNvNtNtNtNtCskTACvQmcrtm_5ruchy7backend10transpiler11expressions5testss_19test_transpile_list
FN:915,_RNvNtNtNtNtCskTACvQmcrtm_5ruchy7backend10transpiler11expressions5testss_20test_transpile_range
FN:902,_RNvNtNtNtNtCskTACvQmcrtm_5ruchy7backend10transpiler11expressions5testss_25test_transpile_empty_list
FN:846,_RNvNtNtNtNtCskTACvQmcrtm_5ruchy7backend10transpiler11expressions5testss_25test_transpile_identifier
FN:705,_RNvNtNtNtNtCskTACvQmcrtm_5ruchy7backend10transpiler11expressions5testss_27test_transpile_unit_literal
FN:774,_RNvNtNtNtNtCskTACvQmcrtm_5ruchy7backend10transpiler11expressions5testss_28test_transpile_binary_modulo
FN:666,_RNvNtNtNtNtCskTACvQmcrtm_5ruchy7backend10transpiler11expressions5testss_28test_transpile_float_literal
FN:859,_RNvNtNtNtNtCskTACvQmcrtm_5ruchy7backend10transpiler11expressions5testss_28test_transpile_function_call
FN:679,_RNvNtNtNtNtCskTACvQmcrtm_5ruchy7backend10transpiler11expressions5testss_29test_transpile_string_literal
FN:1022,_RNvNtNtNtNtCskTACvQmcrtm_5ruchy7backend10transpiler11expressions5testss_30test_method_call_transpilation
FN:718,_RNvNtNtNtNtCskTACvQmcrtm_5ruchy7backend10transpiler11expressions5testss_30test_transpile_binary_addition
FN:760,_RNvNtNtNtNtCskTACvQmcrtm_5ruchy7backend10transpiler11expressions5testss_30test_transpile_binary_division
FN:692,_RNvNtNtNtNtCskTACvQmcrtm_5ruchy7backend10transpiler11expressions5testss_30test_transpile_boolean_literal
FN:929,_RNvNtNtNtNtCskTACvQmcrtm_5ruchy7backend10transpiler11expressions5testss_30test_transpile_inclusive_range
FN:653,_RNvNtNtNtNtCskTACvQmcrtm_5ruchy7backend10transpiler11expressions5testss_30test_transpile_integer_literal
FN:826,_RNvNtNtNtNtCskTACvQmcrtm_5ruchy7backend10transpiler11expressions5testss_30test_transpile_unary_operators
FN:983,_RNvNtNtNtNtCskTACvQmcrtm_5ruchy7backend10transpiler11expressions5testss_31test_complex_nested_expressions
FN:943,_RNvNtNtNtNtCskTACvQmcrtm_5ruchy7backend10transpiler11expressions5testss_31test_transpile_block_expression
FN:960,_RNvNtNtNtNtCskTACvQmcrtm_5ruchy7backend10transpiler11expressions5testss_32test_definitely_string_detection
FN:808,_RNvNtNtNtNtCskTACvQmcrtm_5ruchy7backend10transpiler11expressions5testss_32test_transpile_logical_operators
FN:732,_RNvNtNtNtNtCskTACvQmcrtm_5ruchy7backend10transpiler11expressions5testss_33test_transpile_binary_subtraction
FN:999,_RNvNtNtNtNtCskTACvQmcrtm_5ruchy7backend10transpiler11expressions5testss_34test_integer_literal_size_handling
FN:790,_RNvNtNtNtNtCskTACvQmcrtm_5ruchy7backend10transpiler11expressions5testss_35test_transpile_comparison_operators
FN:746,_RNvNtNtNtNtCskTACvQmcrtm_5ruchy7backend10transpiler11expressions5testss_36test_transpile_binary_multiplication
FN:874,_RNvNtNtNtNtCskTACvQmcrtm_5ruchy7backend10transpiler11expressions5testss_36test_transpile_function_call_no_args
FN:1037,_RNvNtNtNtNtCskTACvQmcrtm_5ruchy7backend10transpiler11expressions5testss_39test_string_interpolation_transpilation
FN:478,_RNCNvMNtNtNtCskTACvQmcrtm_5ruchy7backend10transpiler11expressionsNtB6_10Transpiler14transpile_list0Ba_
FN:476,_RNvMNtNtNtCskTACvQmcrtm_5ruchy7backend10transpiler11expressionsNtB4_10Transpiler14transpile_list
FN:271,_RNvMNtNtNtCskTACvQmcrtm_5ruchy7backend10transpiler11expressionsNtB4_10Transpiler15transpile_await
FN:515,_RNvMNtNtNtCskTACvQmcrtm_5ruchy7backend10transpiler11expressionsNtB4_10Transpiler15transpile_range
FN:352,_RNvMNtNtNtCskTACvQmcrtm_5ruchy7backend10transpiler11expressionsNtB4_10Transpiler15transpile_slice
FN:283,_RNvMNtNtNtCskTACvQmcrtm_5ruchy7backend10transpiler11expressionsNtB4_10Transpiler15transpile_throw
FN:507,_RNvMNtNtNtCskTACvQmcrtm_5ruchy7backend10transpiler11expressionsNtB4_10Transpiler15transpile_tuple
FN:259,_RNvMNtNtNtCskTACvQmcrtm_5ruchy7backend10transpiler11expressionsNtB4_10Transpiler15transpile_unary
FN:380,_RNvMNtNtNtCskTACvQmcrtm_5ruchy7backend10transpiler11expressionsNtB4_10Transpiler16transpile_assign
FN:86,_RNvMNtNtNtCskTACvQmcrtm_5ruchy7backend10transpiler11expressionsNtB4_10Transpiler16transpile_binary
FN:32,_RNvMNtNtNtCskTACvQmcrtm_5ruchy7backend10transpiler11expressionsNtB4_10Transpiler17transpile_integer
FN:14,_RNvMNtNtNtCskTACvQmcrtm_5ruchy7backend10transpiler11expressionsNtB4_10Transpiler17transpile_literal
FN:209,_RNvMNtNtNtCskTACvQmcrtm_5ruchy7backend10transpiler11expressionsNtB4_10Transpiler18transpile_equality
FN:217,_RNvMNtNtNtCskTACvQmcrtm_5ruchy7backend10transpiler11expressionsNtB4_10Transpiler18transpile_ordering
FN:143,_RNvMNtNtNtCskTACvQmcrtm_5ruchy7backend10transpiler11expressionsNtB4_10Transpiler19transpile_binary_op
FN:251,_RNvMNtNtNtCskTACvQmcrtm_5ruchy7backend10transpiler11expressionsNtB4_10Transpiler19transpile_shift_ops
FN:605,_RNvMNtNtNtCskTACvQmcrtm_5ruchy7backend10transpiler11expressionsNtB4_10Transpiler20is_definitely_string
FN:139,_RNvMNtNtNtCskTACvQmcrtm_5ruchy7backend10transpiler11expressionsNtB4_10Transpiler20is_right_associative
FN:466,_RNvMNtNtNtCskTACvQmcrtm_5ruchy7backend10transpiler11expressionsNtB4_10Transpiler20transpile_array_init
FN:241,_RNvMNtNtNtCskTACvQmcrtm_5ruchy7backend10transpiler11expressionsNtB4_10Transpiler20transpile_bitwise_op
FN:233,_RNvMNtNtNtCskTACvQmcrtm_5ruchy7backend10transpiler11expressionsNtB4_10Transpiler20transpile_logical_op
FN:400,_RNvMNtNtNtCskTACvQmcrtm_5ruchy7backend10transpiler11expressionsNtB4_10Transpiler21get_compound_op_token
FN:277,_RNvMNtNtNtCskTACvQmcrtm_5ruchy7backend10transpiler11expressionsNtB4_10Transpiler21transpile_async_block
FN:225,_RNvMNtNtNtCskTACvQmcrtm_5ruchy7backend10transpiler11expressionsNtB4_10Transpiler21transpile_greater_ops
FN:192,_RNvMNtNtNtCskTACvQmcrtm_5ruchy7backend10transpiler11expressionsNtB4_10Transpiler22transpile_division_mod
FN:291,_RNvMNtNtNtCskTACvQmcrtm_5ruchy7backend10transpiler11expressionsNtB4_10Transpiler22transpile_field_access
FN:328,_RNvMNtNtNtCskTACvQmcrtm_5ruchy7backend10transpiler11expressionsNtB4_10Transpiler22transpile_index_access
FN:125,_RNvMNtNtNtCskTACvQmcrtm_5ruchy7backend10transpiler11expressionsNtB4_10Transpiler23get_operator_precedence
FN:167,_RNvMNtNtNtCskTACvQmcrtm_5ruchy7backend10transpiler11expressionsNtB4_10Transpiler23transpile_arithmetic_op
FN:200,_RNvMNtNtNtCskTACvQmcrtm_5ruchy7backend10transpiler11expressionsNtB4_10Transpiler23transpile_comparison_op
FN:412,_RNvMNtNtNtCskTACvQmcrtm_5ruchy7backend10transpiler11expressionsNtB4_10Transpiler24get_basic_compound_token
FN:532,_RNvMNtNtNtCskTACvQmcrtm_5ruchy7backend10transpiler11expressionsNtB4_10Transpiler24transpile_object_literal
FN:23,_RNvMNtNtNtCskTACvQmcrtm_5ruchy7backend10transpiler11expressionsNtB4_10Transpiler24transpile_simple_literal
FN:577,_RNvMNtNtNtCskTACvQmcrtm_5ruchy7backend10transpiler11expressionsNtB4_10Transpiler24transpile_struct_literal
FN:387,_RNvMNtNtNtCskTACvQmcrtm_5ruchy7backend10transpiler11expressionsNtB4_10Transpiler25transpile_compound_assign
FN:178,_RNvMNtNtNtCskTACvQmcrtm_5ruchy7backend10transpiler11expressionsNtB4_10Transpiler26transpile_basic_arithmetic
FN:421,_RNvMNtNtNtCskTACvQmcrtm_5ruchy7backend10transpiler11expressionsNtB4_10Transpiler27get_division_compound_token
FN:546,_RNvMNtNtNtCskTACvQmcrtm_5ruchy7backend10transpiler11expressionsNtB4_10Transpiler28collect_hashmap_field_tokens
FN:103,_RNvMNtNtNtCskTACvQmcrtm_5ruchy7backend10transpiler11expressionsNtB4_10Transpiler30transpile_expr_with_precedence
FN:632,_RNvMNtNtNtCskTACvQmcrtm_5ruchy7backend10transpiler11expressionsNtB4_10Transpiler30transpile_string_concatenation
FN:50,_RNvMNtNtNtCskTACvQmcrtm_5ruchy7backend10transpiler11expressionsNtB4_10Transpiler30transpile_string_interpolation
FNDA:68,_RNCNvMNtNtNtCskTACvQmcrtm_5ruchy7backend10transpiler11expressionsNtB6_10Transpiler14transpile_lists_0Ba_
FNDA:2,_RNCNvMNtNtNtCskTACvQmcrtm_5ruchy7backend10transpiler11expressionsNtB6_10Transpiler15transpile_tuple0Ba_
FNDA:0,_RNvMNtNtNtCskTACvQmcrtm_5ruchy7backend10transpiler11expressionsNtB4_10Transpiler23transpile_pre_decrement
FNDA:0,_RNvMNtNtNtCskTACvQmcrtm_5ruchy7backend10transpiler11expressionsNtB4_10Transpiler23transpile_pre_increment
FNDA:0,_RNvMNtNtNtCskTACvQmcrtm_5ruchy7backend10transpiler11expressionsNtB4_10Transpiler24transpile_post_decrement
FNDA:0,_RNvMNtNtNtCskTACvQmcrtm_5ruchy7backend10transpiler11expressionsNtB4_10Transpiler24transpile_post_increment
FNDA:31,_RNvNtNtNtNtCskTACvQmcrtm_5ruchy7backend10transpiler11expressions5tests17create_transpiler
FNDA:1,_RNvNtNtNtNtCskTACvQmcrtm_5ruchy7backend10transpiler11expressions5testss_19test_transpile_list
FNDA:1,_RNvNtNtNtNtCskTACvQmcrtm_5ruchy7backend10transpiler11expressions5testss_20test_transpile_range
FNDA:1,_RNvNtNtNtNtCskTACvQmcrtm_5ruchy7backend10transpiler11expressions5testss_25test_transpile_empty_list
FNDA:1,_RNvNtNtNtNtCskTACvQmcrtm_5ruchy7backend10transpiler11expressions5testss_25test_transpile_identifier
FNDA:1,_RNvNtNtNtNtCskTACvQmcrtm_5ruchy7backend10transpiler11expressions5testss_27test_transpile_unit_literal
FNDA:1,_RNvNtNtNtNtCskTACvQmcrtm_5ruchy7backend10transpiler11expressions5testss_28test_transpile_binary_modulo
FNDA:1,_RNvNtNtNtNtCskTACvQmcrtm_5ruchy7backend10transpiler11expressions5testss_28test_transpile_float_literal
FNDA:1,_RNvNtNtNtNtCskTACvQmcrtm_5ruchy7backend10transpiler11expressions5testss_28test_transpile_function_call
FNDA:1,_RNvNtNtNtNtCskTACvQmcrtm_5ruchy7backend10transpiler11expressions5testss_29test_transpile_string_literal
FNDA:1,_RNvNtNtNtNtCskTACvQmcrtm_5ruchy7backend10transpiler11expressions5testss_30test_method_call_transpilation
FNDA:1,_RNvNtNtNtNtCskTACvQmcrtm_5ruchy7backend10transpiler11expressions5testss_30test_transpile_binary_addition
FNDA:1,_RNvNtNtNtNtCskTACvQmcrtm_5ruchy7backend10transpiler11expressions5testss_30test_transpile_binary_division
FNDA:1,_RNvNtNtNtNtCskTACvQmcrtm_5ruchy7backend10transpiler11expressions5testss_30test_transpile_boolean_literal
FNDA:1,_RNvNtNtNtNtCskTACvQmcrtm_5ruchy7backend10transpiler11expressions5testss_30test_transpile_inclusive_range
FNDA:1,_RNvNtNtNtNtCskTACvQmcrtm_5ruchy7backend10transpiler11expressions5testss_30test_transpile_integer_literal
FNDA:1,_RNvNtNtNtNtCskTACvQmcrtm_5ruchy7backend10transpiler11expressions5testss_30test_transpile_unary_operators
FNDA:1,_RNvNtNtNtNtCskTACvQmcrtm_5ruchy7backend10transpiler11expressions5testss_31test_complex_nested_expressions
FNDA:1,_RNvNtNtNtNtCskTACvQmcrtm_5ruchy7backend10transpiler11expressions5testss_31test_transpile_block_expression
FNDA:1,_RNvNtNtNtNtCskTACvQmcrtm_5ruchy7backend10transpiler11expressions5testss_32test_definitely_string_detection
FNDA:1,_RNvNtNtNtNtCskTACvQmcrtm_5ruchy7backend10transpiler11expressions5testss_32test_transpile_logical_operators
FNDA:1,_RNvNtNtNtNtCskTACvQmcrtm_5ruchy7backend10transpiler11expressions5testss_33test_transpile_binary_subtraction
FNDA:1,_RNvNtNtNtNtCskTACvQmcrtm_5ruchy7backend10transpiler11expressions5testss_34test_integer_literal_size_handling
FNDA:1,_RNvNtNtNtNtCskTACvQmcrtm_5ruchy7backend10transpiler11expressions5testss_35test_transpile_comparison_operators
FNDA:1,_RNvNtNtNtNtCskTACvQmcrtm_5ruchy7backend10transpiler11expressions5testss_36test_transpile_binary_multiplication
FNDA:1,_RNvNtNtNtNtCskTACvQmcrtm_5ruchy7backend10transpiler11expressions5testss_36test_transpile_function_call_no_args
FNDA:1,_RNvNtNtNtNtCskTACvQmcrtm_5ruchy7backend10transpiler11expressions5testss_39test_string_interpolation_transpilation
FNDA:68,_RNCNvMNtNtNtCskTACvQmcrtm_5ruchy7backend10transpiler11expressionsNtB6_10Transpiler14transpile_list0Ba_
FNDA:32,_RNvMNtNtNtCskTACvQmcrtm_5ruchy7backend10transpiler11expressionsNtB4_10Transpiler14transpile_list
FNDA:1,_RNvMNtNtNtCskTACvQmcrtm_5ruchy7backend10transpiler11expressionsNtB4_10Transpiler15transpile_await
FNDA:4,_RNvMNtNtNtCskTACvQmcrtm_5ruchy7backend10transpiler11expressionsNtB4_10Transpiler15transpile_range
FNDA:2,_RNvMNtNtNtCskTACvQmcrtm_5ruchy7backend10transpiler11expressionsNtB4_10Transpiler15transpile_slice
FNDA:0,_RNvMNtNtNtCskTACvQmcrtm_5ruchy7backend10transpiler11expressionsNtB4_10Transpiler15transpile_throw
FNDA:1,_RNvMNtNtNtCskTACvQmcrtm_5ruchy7backend10transpiler11expressionsNtB4_10Transpiler15transpile_tuple
FNDA:34,_RNvMNtNtNtCskTACvQmcrtm_5ruchy7backend10transpiler11expressionsNtB4_10Transpiler15transpile_unary
FNDA:0,_RNvMNtNtNtCskTACvQmcrtm_5ruchy7backend10transpiler11expressionsNtB4_10Transpiler16transpile_assign
FNDA:132,_RNvMNtNtNtCskTACvQmcrtm_5ruchy7backend10transpiler11expressionsNtB4_10Transpiler16transpile_binary
FNDA:304,_RNvMNtNtNtCskTACvQmcrtm_5ruchy7backend10transpiler11expressionsNtB4_10Transpiler17transpile_integer
FNDA:428,_RNvMNtNtNtCskTACvQmcrtm_5ruchy7backend10transpiler11expressionsNtB4_10Transpiler17transpile_literal
FNDA:6,_RNvMNtNtNtCskTACvQmcrtm_5ruchy7backend10transpiler11expressionsNtB4_10Transpiler18transpile_equality
FNDA:29,_RNvMNtNtNtCskTACvQmcrtm_5ruchy7backend10transpiler11expressionsNtB4_10Transpiler18transpile_ordering
FNDA:131,_RNvMNtNtNtCskTACvQmcrtm_5ruchy7backend10transpiler11expressionsNtB4_10Transpiler19transpile_binary_op
FNDA:2,_RNvMNtNtNtCskTACvQmcrtm_5ruchy7backend10transpiler11expressionsNtB4_10Transpiler19transpile_shift_ops
FNDA:99,_RNvMNtNtNtCskTACvQmcrtm_5ruchy7backend10transpiler11expressionsNtB4_10Transpiler20is_definitely_string
FNDA:1,_RNvMNtNtNtCskTACvQmcrtm_5ruchy7backend10transpiler11expressionsNtB4_10Transpiler20is_right_associative
FNDA:0,_RNvMNtNtNtCskTACvQmcrtm_5ruchy7backend10transpiler11expressionsNtB4_10Transpiler20transpile_array_init
FNDA:7,_RNvMNtNtNtCskTACvQmcrtm_5ruchy7backend10transpiler11expressionsNtB4_10Transpiler20transpile_bitwise_op
FNDA:8,_RNvMNtNtNtCskTACvQmcrtm_5ruchy7backend10transpiler11expressionsNtB4_10Transpiler20transpile_logical_op
FNDA:0,_RNvMNtNtNtCskTACvQmcrtm_5ruchy7backend10transpiler11expressionsNtB4_10Transpiler21get_compound_op_token
FNDA:0,_RNvMNtNtNtCskTACvQmcrtm_5ruchy7backend10transpiler11expressionsNtB4_10Transpiler21transpile_async_block
FNDA:14,_RNvMNtNtNtCskTACvQmcrtm_5ruchy7backend10transpiler11expressionsNtB4_10Transpiler21transpile_greater_ops
FNDA:7,_RNvMNtNtNtCskTACvQmcrtm_5ruchy7backend10transpiler11expressionsNtB4_10Transpiler22transpile_division_mod
FNDA:2,_RNvMNtNtNtCskTACvQmcrtm_5ruchy7backend10transpiler11expressionsNtB4_10Transpiler22transpile_field_access
FNDA:1,_RNvMNtNtNtCskTACvQmcrtm_5ruchy7backend10transpiler11expressionsNtB4_10Transpiler22transpile_index_access
FNDA:52,_RNvMNtNtNtCskTACvQmcrtm_5ruchy7backend10transpiler11expressionsNtB4_10Transpiler23get_operator_precedence
FNDA:81,_RNvMNtNtNtCskTACvQmcrtm_5ruchy7backend10transpiler11expressionsNtB4_10Transpiler23transpile_arithmetic_op
FNDA:35,_RNvMNtNtNtCskTACvQmcrtm_5ruchy7backend10transpiler11expressionsNtB4_10Transpiler23transpile_comparison_op
FNDA:0,_RNvMNtNtNtCskTACvQmcrtm_5ruchy7backend10transpiler11expressionsNtB4_10Transpiler24get_basic_compound_token
FNDA:4,_RNvMNtNtNtCskTACvQmcrtm_5ruchy7backend10transpiler11expressionsNtB4_10Transpiler24transpile_object_literal
FNDA:90,_RNvMNtNtNtCskTACvQmcrtm_5ruchy7backend10transpiler11expressionsNtB4_10Transpiler24transpile_simple_literal
FNDA:1,_RNvMNtNtNtCskTACvQmcrtm_5ruchy7backend10transpiler11expressionsNtB4_10Transpiler24transpile_struct_literal
FNDA:0,_RNvMNtNtNtCskTACvQmcrtm_5ruchy7backend10transpiler11expressionsNtB4_10Transpiler25transpile_compound_assign
FNDA:79,_RNvMNtNtNtCskTACvQmcrtm_5ruchy7backend10transpiler11expressionsNtB4_10Transpiler26transpile_basic_arithmetic
FNDA:0,_RNvMNtNtNtCskTACvQmcrtm_5ruchy7backend10transpiler11expressionsNtB4_10Transpiler27get_division_compound_token
FNDA:4,_RNvMNtNtNtCskTACvQmcrtm_5ruchy7backend10transpiler11expressionsNtB4_10Transpiler28collect_hashmap_field_tokens
FNDA:262,_RNvMNtNtNtCskTACvQmcrtm_5ruchy7backend10transpiler11expressionsNtB4_10Transpiler30transpile_expr_with_precedence
FNDA:1,_RNvMNtNtNtCskTACvQmcrtm_5ruchy7backend10transpiler11expressionsNtB4_10Transpiler30transpile_string_concatenation
FNDA:5,_RNvMNtNtNtCskTACvQmcrtm_5ruchy7backend10transpiler11expressionsNtB4_10Transpiler30transpile_string_interpolation
FNF:74
FNH:62
DA:14,428
DA:15,428
DA:16,301
DA:17,19
DA:18,18
DA:19,90
DA:21,428
DA:23,90
DA:24,90
DA:25,61
DA:26,29
DA:27,0
DA:28,0
DA:30,90
DA:32,304
DA:35,304
DA:37,239
DA:38,239
DA:41,65
DA:42,65
DA:44,304
DA:50,5
DA:51,5
DA:52,0
DA:53,5
DA:55,5
DA:56,5
DA:58,16
DA:59,11
DA:60,6
DA:61,6
DA:62,6
DA:63,6
DA:64,5
DA:65,5
DA:66,5
DA:67,5
DA:69,0
DA:71,0
DA:72,0
DA:73,0
DA:74,0
DA:75,0
DA:80,5
DA:83,5
DA:86,132
DA:89,132
DA:90,1
DA:91,131
DA:94,131
DA:95,131
DA:97,131
DA:98,132
DA:103,262
DA:104,262
DA:107,262
DA:108,26
DA:109,26
DA:113,26
DA:114,18
DA:116,26
DA:117,8
DA:118,18
DA:119,236
DA:121,254
DA:122,262
DA:125,52
DA:126,52
DA:127,0
DA:128,6
DA:129,0
DA:130,9
DA:131,14
DA:132,13
DA:133,1
DA:134,9
DA:136,52
DA:139,1
DA:140,1
DA:141,1
DA:143,131
DA:149,131
DA:152,81
DA:156,35
DA:159,8
DA:162,7
DA:165,131
DA:167,81
DA:169,81
DA:171,79
DA:173,2
DA:174,0
DA:176,81
DA:178,79
DA:179,79
DA:180,79
DA:181,79
DA:182,79
DA:184,79
DA:185,48
DA:186,8
DA:187,16
DA:188,7
DA:190,79
DA:192,7
DA:193,7
DA:194,4
DA:195,3
DA:196,0
DA:198,7
DA:200,35
DA:202,35
DA:203,6
DA:204,29
DA:205,0
DA:207,35
DA:209,6
DA:210,6
DA:211,3
DA:212,3
DA:213,0
DA:215,6
DA:217,29
DA:218,29
DA:219,9
DA:220,6
DA:221,14
DA:223,29
DA:225,14
DA:226,14
DA:227,9
DA:228,5
DA:229,0
DA:231,14
DA:233,8
DA:234,8
DA:235,6
DA:236,2
DA:237,0
DA:239,8
DA:241,7
DA:243,7
DA:244,2
DA:245,2
DA:246,1
DA:247,2
DA:249,7
DA:251,2
DA:252,2
DA:253,2
DA:254,0
DA:256,2
DA:259,34
DA:260,34
DA:262,34
DA:263,20
DA:264,7
DA:265,7
DA:267,34
DA:271,1
DA:272,1
DA:273,1
DA:274,1
DA:277,0
DA:278,0
DA:279,0
DA:280,0
DA:283,0
DA:284,0
DA:285,0
DA:286,0
DA:287,0
DA:288,0
DA:291,2
DA:294,2
DA:297,0
DA:300,0
DA:301,0
DA:302,0
DA:303,0
DA:304,0
DA:308,1
DA:309,1
DA:311,0
DA:313,0
DA:314,0
DA:318,1
DA:319,1
DA:320,1
DA:321,1
DA:322,1
DA:325,2
DA:328,1
DA:331,1
DA:332,1
DA:335,1
DA:338,0
DA:339,0
DA:340,0
DA:341,0
DA:342,0
DA:346,1
DA:349,1
DA:352,2
DA:353,2
DA:355,2
DA:358,0
DA:360,0
DA:362,0
DA:363,0
DA:365,2
DA:367,2
DA:368,2
DA:370,0
DA:372,0
DA:373,0
DA:374,0
DA:377,2
DA:380,0
DA:381,0
DA:382,0
DA:383,0
DA:384,0
DA:387,0
DA:388,0
DA:389,0
DA:390,0
DA:391,0
DA:392,0
DA:393,0
DA:394,0
DA:395,0
DA:397,0
DA:398,0
DA:400,0
DA:402,0
DA:403,0
DA:404,0
DA:407,0
DA:410,0
DA:412,0
DA:413,0
DA:414,0
DA:415,0
DA:416,0
DA:417,0
DA:419,0
DA:421,0
DA:422,0
DA:423,0
DA:424,0
DA:425,0
DA:427,0
DA:430,0
DA:431,0
DA:432,0
DA:433,0
DA:436,0
DA:437,0
DA:438,0
DA:439,0
DA:440,0
DA:441,0
DA:442,0
DA:443,0
DA:444,0
DA:445,0
DA:448,0
DA:449,0
DA:450,0
DA:451,0
DA:454,0
DA:455,0
DA:456,0
DA:457,0
DA:458,0
DA:459,0
DA:460,0
DA:461,0
DA:462,0
DA:463,0
DA:466,0
DA:467,0
DA:468,0
DA:472,0
DA:473,0
DA:476,32
DA:478,68
DA:480,32
DA:482,0
DA:483,0
DA:485,0
DA:486,0
DA:487,0
DA:488,0
DA:490,0
DA:491,0
DA:495,0
DA:496,0
DA:499,32
DA:500,68
DA:501,32
DA:502,32
DA:504,32
DA:507,1
DA:508,1
DA:509,2
DA:510,1
DA:511,1
DA:512,1
DA:515,4
DA:516,4
DA:517,4
DA:518,4
DA:519,4
DA:520,4
DA:521,4
DA:522,4
DA:524,4
DA:525,1
DA:527,3
DA:529,4
DA:532,4
DA:533,4
DA:534,4
DA:535,4
DA:536,4
DA:537,4
DA:544,4
DA:546,4
DA:547,4
DA:548,4
DA:549,4
DA:551,4
DA:553,8
DA:554,4
DA:555,4
DA:556,4
DA:557,4
DA:559,0
DA:560,0
DA:562,0
DA:569,4
DA:572,4
DA:573,4
DA:577,1
DA:578,1
DA:579,1
DA:580,1
DA:581,1
DA:582,1
DA:583,1
DA:585,3
DA:586,2
DA:587,2
DA:589,0
DA:590,0
DA:592,2
DA:594,2
DA:597,1
DA:602,1
DA:605,99
DA:606,65
DA:608,1
DA:610,0
DA:612,1
DA:613,1
DA:616,0
DA:617,0
DA:618,0
DA:622,22
DA:624,5
DA:626,70
DA:628,99
DA:632,1
DA:633,1
DA:634,1
DA:638,1
DA:639,1
DA:648,31
DA:649,31
DA:650,31
DA:653,1
DA:654,1
DA:655,1
DA:656,1
DA:657,1
DA:659,1
DA:660,1
DA:662,1
DA:663,1
DA:666,1
DA:667,1
DA:668,1
DA:669,1
DA:670,1
DA:672,1
DA:673,1
DA:675,1
DA:676,1
DA:679,1
DA:680,1
DA:681,1
DA:682,1
DA:683,1
DA:685,1
DA:686,1
DA:688,1
DA:689,1
DA:692,1
DA:693,1
DA:694,1
DA:695,1
DA:696,1
DA:698,1
DA:699,1
DA:701,1
DA:702,1
DA:705,1
DA:706,1
DA:707,1
DA:708,1
DA:709,1
DA:711,1
DA:712,1
DA:714,1
DA:715,1
DA:718,1
DA:719,1
DA:720,1
DA:721,1
DA:722,1
DA:724,1
DA:725,1
DA:727,1
DA:728,1
DA:729,1
DA:732,1
DA:733,1
DA:734,1
DA:735,1
DA:736,1
DA:738,1
DA:739,1
DA:741,1
DA:742,1
DA:743,1
DA:746,1
DA:747,1
DA:748,1
DA:749,1
DA:750,1
DA:752,1
DA:753,1
DA:755,1
DA:756,1
DA:757,1
DA:760,1
DA:761,1
DA:762,1
DA:763,1
DA:764,1
DA:766,1
DA:767,1
DA:769,1
DA:770,1
DA:771,1
DA:774,1
DA:775,1
DA:776,1
DA:777,1
DA:778,1
DA:780,1
DA:781,1
DA:783,1
DA:784,1
DA:785,1
DA:790,1
DA:791,1
DA:793,7
DA:794,6
DA:795,6
DA:796,6
DA:797,6
DA:799,6
DA:800,6
DA:802,6
DA:803,0
DA:805,1
DA:808,1
DA:809,1
DA:811,3
DA:812,2
DA:813,2
DA:814,2
DA:815,2
DA:817,2
DA:818,2
DA:820,2
DA:821,0
DA:823,1
DA:826,1
DA:827,1
DA:828,1
DA:829,1
DA:832,3
DA:833,2
DA:834,2
DA:835,2
DA:837,2
DA:838,2
DA:840,2
DA:841,0
DA:843,1
DA:846,1
DA:847,1
DA:848,1
DA:849,1
DA:850,1
DA:852,1
DA:853,1
DA:855,1
DA:856,1
DA:859,1
DA:860,1
DA:861,1
DA:862,1
DA:863,1
DA:865,1
DA:866,1
DA:868,1
DA:869,1
DA:870,1
DA:871,1
DA:874,1
DA:875,1
DA:876,1
DA:877,1
DA:878,1
DA:880,1
DA:881,1
DA:883,1
DA:884,1
DA:885,1
DA:888,1
DA:889,1
DA:890,1
DA:891,1
DA:892,1
DA:894,1
DA:895,1
DA:897,1
DA:898,1
DA:899,1
DA:902,1
DA:903,1
DA:904,1
DA:905,1
DA:906,1
DA:908,1
DA:909,1
DA:911,1
DA:912,1
DA:915,1
DA:916,1
DA:917,1
DA:918,1
DA:919,1
DA:921,1
DA:922,1
DA:924,1
DA:925,1
DA:926,1
DA:929,1
DA:930,1
DA:931,1
DA:932,1
DA:933,1
DA:935,1
DA:936,1
DA:938,1
DA:939,1
DA:940,1
DA:943,1
DA:944,1
DA:945,1
DA:946,1
DA:947,1
DA:949,1
DA:950,1
DA:952,1
DA:953,1
DA:954,1
DA:955,1
DA:956,1
DA:957,1
DA:960,1
DA:962,1
DA:963,1
DA:964,1
DA:965,1
DA:966,0
DA:967,0
DA:968,0
DA:969,1
DA:972,1
DA:973,1
DA:974,1
DA:975,1
DA:976,0
DA:977,0
DA:978,0
DA:979,1
DA:980,1
DA:983,1
DA:984,1
DA:985,1
DA:986,1
DA:987,1
DA:989,1
DA:990,1
DA:993,1
DA:994,1
DA:995,1
DA:996,1
DA:999,1
DA:1001,1
DA:1002,1
DA:1008,1
DA:1009,1
DA:1010,1
DA:1015,1
DA:1016,1
DA:1019,1
DA:1022,1
DA:1023,1
DA:1024,1
DA:1025,1
DA:1026,1
DA:1028,1
DA:1029,1
DA:1031,1
DA:1032,1
DA:1033,1
DA:1034,1
DA:1037,1
DA:1038,1
DA:1039,1
DA:1040,1
DA:1041,1
DA:1043,1
DA:1044,1
DA:1047,1
DA:1048,1
DA:1049,1
BRF:0
BRH:0
LF:658
LH:512
end_of_record
SF:/home/noah/src/ruchy/src/backend/transpiler/method_call_refactored.rs
FN:19,_RNCNvMNtNtNtCskTACvQmcrtm_5ruchy7backend10transpiler22method_call_refactoredNtB6_10Transpiler32transpile_method_call_refactored0Ba_
FN:172,_RNvMNtNtNtCskTACvQmcrtm_5ruchy7backend10transpiler22method_call_refactoredNtB4_10Transpiler23transpile_string_method
FN:90,_RNvMNtNtNtCskTACvQmcrtm_5ruchy7backend10transpiler22method_call_refactoredNtB4_10Transpiler24transpile_hashmap_method
FN:107,_RNvMNtNtNtCskTACvQmcrtm_5ruchy7backend10transpiler22method_call_refactoredNtB4_10Transpiler24transpile_hashset_method
FN:64,_RNvMNtNtNtCskTACvQmcrtm_5ruchy7backend10transpiler22method_call_refactoredNtB4_10Transpiler25transpile_iterator_method
FN:136,_RNvMNtNtNtCskTACvQmcrtm_5ruchy7backend10transpiler22method_call_refactoredNtB4_10Transpiler28transpile_collection_mutator
FN:147,_RNvMNtNtNtCskTACvQmcrtm_5ruchy7backend10transpiler22method_call_refactoredNtB4_10Transpiler29transpile_collection_accessor
FN:12,_RNvMNtNtNtCskTACvQmcrtm_5ruchy7backend10transpiler22method_call_refactoredNtB4_10Transpiler32transpile_method_call_refactored
FN:206,_RNvMNtNtNtCskTACvQmcrtm_5ruchy7backend10transpiler22method_call_refactoredNtB4_10Transpiler37transpile_dataframe_method_refactored
FNDA:16,_RNCNvMNtNtNtCskTACvQmcrtm_5ruchy7backend10transpiler22method_call_refactoredNtB6_10Transpiler32transpile_method_call_refactored0Ba_
FNDA:4,_RNvMNtNtNtCskTACvQmcrtm_5ruchy7backend10transpiler22method_call_refactoredNtB4_10Transpiler23transpile_string_method
FNDA:3,_RNvMNtNtNtCskTACvQmcrtm_5ruchy7backend10transpiler22method_call_refactoredNtB4_10Transpiler24transpile_hashmap_method
FNDA:2,_RNvMNtNtNtCskTACvQmcrtm_5ruchy7backend10transpiler22method_call_refactoredNtB4_10Transpiler24transpile_hashset_method
FNDA:6,_RNvMNtNtNtCskTACvQmcrtm_5ruchy7backend10transpiler22method_call_refactoredNtB4_10Transpiler25transpile_iterator_method
FNDA:2,_RNvMNtNtNtCskTACvQmcrtm_5ruchy7backend10transpiler22method_call_refactoredNtB4_10Transpiler28transpile_collection_mutator
FNDA:2,_RNvMNtNtNtCskTACvQmcrtm_5ruchy7backend10transpiler22method_call_refactoredNtB4_10Transpiler29transpile_collection_accessor
FNDA:22,_RNvMNtNtNtCskTACvQmcrtm_5ruchy7backend10transpiler22method_call_refactoredNtB4_10Transpiler32transpile_method_call_refactored
FNDA:0,_RNvMNtNtNtCskTACvQmcrtm_5ruchy7backend10transpiler22method_call_refactoredNtB4_10Transpiler37transpile_dataframe_method_refactored
FNF:9
FNH:8
DA:12,22
DA:13,22
DA:14,22
DA:15,22
DA:16,22
DA:17,22
DA:18,22
DA:19,22
DA:20,22
DA:23,22
DA:25,22
DA:26,6
DA:29,16
DA:30,3
DA:33,13
DA:34,2
DA:37,11
DA:38,2
DA:41,9
DA:42,2
DA:45,7
DA:46,6
DA:47,4
DA:50,3
DA:51,3
DA:52,3
DA:53,0
DA:57,3
DA:58,3
DA:61,22
DA:64,6
DA:65,6
DA:66,6
DA:67,6
DA:68,6
DA:69,6
DA:70,6
DA:71,6
DA:72,5
DA:73,4
DA:74,3
DA:75,0
DA:76,0
DA:77,0
DA:78,0
DA:79,0
DA:80,0
DA:82,3
DA:83,2
DA:84,1
DA:85,0
DA:87,6
DA:90,3
DA:91,3
DA:92,3
DA:93,3
DA:94,3
DA:95,3
DA:96,3
DA:97,3
DA:98,3
DA:99,2
DA:100,1
DA:101,1
DA:102,0
DA:104,3
DA:107,2
DA:108,2
DA:109,2
DA:110,2
DA:111,2
DA:112,2
DA:113,2
DA:114,2
DA:115,1
DA:116,1
DA:118,1
DA:119,1
DA:120,0
DA:121,1
DA:122,1
DA:123,1
DA:124,1
DA:125,1
DA:126,1
DA:127,1
DA:128,1
DA:129,1
DA:131,0
DA:133,2
DA:136,2
DA:137,2
DA:138,2
DA:139,2
DA:140,2
DA:141,2
DA:142,2
DA:143,2
DA:144,2
DA:147,2
DA:148,2
DA:149,2
DA:150,2
DA:151,2
DA:152,2
DA:153,2
DA:154,2
DA:155,0
DA:156,0
DA:157,0
DA:158,0
DA:159,0
DA:160,0
DA:162,2
DA:163,2
DA:165,2
DA:166,2
DA:169,2
DA:172,4
DA:173,4
DA:174,4
DA:175,4
DA:176,4
DA:177,4
DA:178,4
DA:179,4
DA:180,4
DA:181,3
DA:182,3
DA:183,3
DA:184,2
DA:185,1
DA:186,0
DA:188,1
DA:191,1
DA:192,1
DA:193,0
DA:194,1
DA:195,1
DA:197,0
DA:198,0
DA:199,0
DA:201,0
DA:203,4
DA:206,0
DA:207,0
DA:208,0
DA:209,0
DA:210,0
DA:211,0
DA:212,0
DA:213,0
DA:214,0
BRF:0
BRH:0
LF:154
LH:122
end_of_record
SF:/home/noah/src/ruchy/src/backend/transpiler/method_call_refactored_tests.rs
FN:10,_RNvNtNtNtNtCskTACvQmcrtm_5ruchy7backend10transpiler22method_call_refactored5tests17create_transpiler
FN:14,_RNvNtNtNtNtCskTACvQmcrtm_5ruchy7backend10transpiler22method_call_refactored5tests29parse_and_extract_method_call
FN:26,_RNvNtNtNtNtCskTACvQmcrtm_5ruchy7backend10transpiler22method_call_refactored5testss_15test_map_method
FN:64,_RNvNtNtNtNtCskTACvQmcrtm_5ruchy7backend10transpiler22method_call_refactored5testss_16test_hashmap_get
FN:233,_RNvNtNtNtNtCskTACvQmcrtm_5ruchy7backend10transpiler22method_call_refactored5testss_16test_numeric_abs
FN:185,_RNvNtNtNtNtCskTACvQmcrtm_5ruchy7backend10transpiler22method_call_refactored5testss_16test_string_trim
FN:297,_RNvNtNtNtNtCskTACvQmcrtm_5ruchy7backend10transpiler22method_call_refactored5testss_17test_iterator_all
FN:285,_RNvNtNtNtNtCskTACvQmcrtm_5ruchy7backend10transpiler22method_call_refactored5testss_17test_iterator_any
FN:197,_RNvNtNtNtNtCskTACvQmcrtm_5ruchy7backend10transpiler22method_call_refactored5testss_17test_string_split
FN:39,_RNvNtNtNtNtCskTACvQmcrtm_5ruchy7backend10transpiler22method_call_refactored5testss_18test_filter_method
FN:87,_RNvNtNtNtNtCskTACvQmcrtm_5ruchy7backend10transpiler22method_call_refactored5testss_18test_hashmap_items
FN:112,_RNvNtNtNtNtCskTACvQmcrtm_5ruchy7backend10transpiler22method_call_refactored5testss_18test_hashset_union
FN:309,_RNvNtNtNtNtCskTACvQmcrtm_5ruchy7backend10transpiler22method_call_refactored5testss_18test_iterator_find
FN:221,_RNvNtNtNtNtCskTACvQmcrtm_5ruchy7backend10transpiler22method_call_refactored5testss_18test_numeric_round
FN:52,_RNvNtNtNtNtCskTACvQmcrtm_5ruchy7backend10transpiler22method_call_refactored5testss_18test_reduce_method
FN:149,_RNvNtNtNtNtCskTACvQmcrtm_5ruchy7backend10transpiler22method_call_refactored5testss_19test_collection_len
FN:137,_RNvNtNtNtNtCskTACvQmcrtm_5ruchy7backend10transpiler22method_call_refactored5testss_19test_collection_pop
FN:209,_RNvNtNtNtNtCskTACvQmcrtm_5ruchy7backend10transpiler22method_call_refactored5testss_19test_string_replace
FN:260,_RNvNtNtNtNtCskTACvQmcrtm_5ruchy7backend10transpiler22method_call_refactored5testss_20test_advanced_unique
FN:125,_RNvNtNtNtNtCskTACvQmcrtm_5ruchy7backend10transpiler22method_call_refactored5testss_20test_collection_push
FN:173,_RNvNtNtNtNtCskTACvQmcrtm_5ruchy7backend10transpiler22method_call_refactored5testss_20test_string_to_upper
FN:246,_RNvNtNtNtNtCskTACvQmcrtm_5ruchy7backend10transpiler22method_call_refactored5testss_21test_advanced_flatten
FN:100,_RNvNtNtNtNtCskTACvQmcrtm_5ruchy7backend10transpiler22method_call_refactored5testss_21test_hashset_contains
FN:161,_RNvNtNtNtNtCskTACvQmcrtm_5ruchy7backend10transpiler22method_call_refactored5testss_24test_collection_is_empty
FN:273,_RNvNtNtNtNtCskTACvQmcrtm_5ruchy7backend10transpiler22method_call_refactored5testss_24test_default_method_call
FN:76,_RNvNtNtNtNtCskTACvQmcrtm_5ruchy7backend10transpiler22method_call_refactored5testss_25test_hashmap_contains_key
FNDA:22,_RNvNtNtNtNtCskTACvQmcrtm_5ruchy7backend10transpiler22method_call_refactored5tests17create_transpiler
FNDA:22,_RNvNtNtNtNtCskTACvQmcrtm_5ruchy7backend10transpiler22method_call_refactored5tests29parse_and_extract_method_call
FNDA:1,_RNvNtNtNtNtCskTACvQmcrtm_5ruchy7backend10transpiler22method_call_refactored5testss_15test_map_method
FNDA:1,_RNvNtNtNtNtCskTACvQmcrtm_5ruchy7backend10transpiler22method_call_refactored5testss_16test_hashmap_get
FNDA:1,_RNvNtNtNtNtCskTACvQmcrtm_5ruchy7backend10transpiler22method_call_refactored5testss_16test_numeric_abs
FNDA:1,_RNvNtNtNtNtCskTACvQmcrtm_5ruchy7backend10transpiler22method_call_refactored5testss_16test_string_trim
FNDA:1,_RNvNtNtNtNtCskTACvQmcrtm_5ruchy7backend10transpiler22method_call_refactored5testss_17test_iterator_all
FNDA:1,_RNvNtNtNtNtCskTACvQmcrtm_5ruchy7backend10transpiler22method_call_refactored5testss_17test_iterator_any
FNDA:1,_RNvNtNtNtNtCskTACvQmcrtm_5ruchy7backend10transpiler22method_call_refactored5testss_17test_string_split
FNDA:1,_RNvNtNtNtNtCskTACvQmcrtm_5ruchy7backend10transpiler22method_call_refactored5testss_18test_filter_method
FNDA:1,_RNvNtNtNtNtCskTACvQmcrtm_5ruchy7backend10transpiler22method_call_refactored5testss_18test_hashmap_items
FNDA:1,_RNvNtNtNtNtCskTACvQmcrtm_5ruchy7backend10transpiler22method_call_refactored5testss_18test_hashset_union
FNDA:1,_RNvNtNtNtNtCskTACvQmcrtm_5ruchy7backend10transpiler22method_call_refactored5testss_18test_iterator_find
FNDA:1,_RNvNtNtNtNtCskTACvQmcrtm_5ruchy7backend10transpiler22method_call_refactored5testss_18test_numeric_round
FNDA:1,_RNvNtNtNtNtCskTACvQmcrtm_5ruchy7backend10transpiler22method_call_refactored5testss_18test_reduce_method
FNDA:1,_RNvNtNtNtNtCskTACvQmcrtm_5ruchy7backend10transpiler22method_call_refactored5testss_19test_collection_len
FNDA:1,_RNvNtNtNtNtCskTACvQmcrtm_5ruchy7backend10transpiler22method_call_refactored5testss_19test_collection_pop
FNDA:1,_RNvNtNtNtNtCskTACvQmcrtm_5ruchy7backend10transpiler22method_call_refactored5testss_19test_string_replace
FNDA:0,_RNvNtNtNtNtCskTACvQmcrtm_5ruchy7backend10transpiler22method_call_refactored5testss_20test_advanced_unique
FNDA:1,_RNvNtNtNtNtCskTACvQmcrtm_5ruchy7backend10transpiler22method_call_refactored5testss_20test_collection_push
FNDA:1,_RNvNtNtNtNtCskTACvQmcrtm_5ruchy7backend10transpiler22method_call_refactored5testss_20test_string_to_upper
FNDA:0,_RNvNtNtNtNtCskTACvQmcrtm_5ruchy7backend10transpiler22method_call_refactored5testss_21test_advanced_flatten
FNDA:1,_RNvNtNtNtNtCskTACvQmcrtm_5ruchy7backend10transpiler22method_call_refactored5testss_21test_hashset_contains
FNDA:1,_RNvNtNtNtNtCskTACvQmcrtm_5ruchy7backend10transpiler22method_call_refactored5testss_24test_collection_is_empty
FNDA:1,_RNvNtNtNtNtCskTACvQmcrtm_5ruchy7backend10transpiler22method_call_refactored5testss_24test_default_method_call
FNDA:1,_RNvNtNtNtNtCskTACvQmcrtm_5ruchy7backend10transpiler22method_call_refactored5testss_25test_hashmap_contains_key
FNF:26
FNH:24
DA:10,22
DA:11,22
DA:12,22
DA:14,22
DA:15,22
DA:16,22
DA:18,22
DA:19,22
DA:21,0
DA:23,22
DA:26,1
DA:27,1
DA:28,1
DA:30,1
DA:31,1
DA:33,1
DA:34,1
DA:35,1
DA:36,1
DA:39,1
DA:40,1
DA:41,1
DA:43,1
DA:44,1
DA:46,1
DA:47,1
DA:48,1
DA:49,1
DA:52,1
DA:53,1
DA:54,1
DA:56,1
DA:57,1
DA:59,1
DA:60,1
DA:61,1
DA:64,1
DA:65,1
DA:66,1
DA:68,1
DA:69,1
DA:71,1
DA:72,1
DA:73,1
DA:76,1
DA:77,1
DA:78,1
DA:80,1
DA:81,1
DA:83,1
DA:84,1
DA:87,1
DA:88,1
DA:89,1
DA:91,1
DA:92,1
DA:94,1
DA:95,1
DA:96,1
DA:97,1
DA:100,1
DA:101,1
DA:102,1
DA:104,1
DA:105,1
DA:107,1
DA:108,1
DA:109,1
DA:112,1
DA:113,1
DA:114,1
DA:116,1
DA:117,1
DA:119,1
DA:120,1
DA:121,1
DA:122,1
DA:125,1
DA:126,1
DA:127,1
DA:129,1
DA:130,1
DA:132,1
DA:133,1
DA:134,1
DA:137,1
DA:138,1
DA:139,1
DA:141,1
DA:142,1
DA:144,1
DA:145,1
DA:146,1
DA:149,1
DA:150,1
DA:151,1
DA:153,1
DA:154,1
DA:156,1
DA:157,1
DA:158,1
DA:161,1
DA:162,1
DA:163,1
DA:165,1
DA:166,1
DA:168,1
DA:169,1
DA:170,1
DA:173,1
DA:174,1
DA:175,1
DA:177,1
DA:178,1
DA:180,1
DA:181,1
DA:182,1
DA:185,1
DA:186,1
DA:187,1
DA:189,1
DA:190,1
DA:192,1
DA:193,1
DA:194,1
DA:197,1
DA:198,1
DA:199,1
DA:201,1
DA:202,1
DA:204,1
DA:205,1
DA:206,1
DA:209,1
DA:210,1
DA:211,1
DA:213,1
DA:214,1
DA:216,1
DA:217,1
DA:218,1
DA:221,1
DA:222,1
DA:223,1
DA:225,1
DA:226,1
DA:228,1
DA:229,1
DA:230,1
DA:233,1
DA:234,1
DA:235,1
DA:237,1
DA:238,1
DA:240,1
DA:241,1
DA:242,1
DA:246,0
DA:247,0
DA:248,0
DA:250,0
DA:251,0
DA:253,0
DA:254,0
DA:255,0
DA:256,0
DA:260,0
DA:261,0
DA:262,0
DA:264,0
DA:265,0
DA:267,0
DA:268,0
DA:269,0
DA:270,0
DA:273,1
DA:274,1
DA:275,1
DA:277,1
DA:278,1
DA:280,1
DA:281,1
DA:282,1
DA:285,1
DA:286,1
DA:287,1
DA:289,1
DA:290,1
DA:292,1
DA:293,1
DA:294,1
DA:297,1
DA:298,1
DA:299,1
DA:301,1
DA:302,1
DA:304,1
DA:305,1
DA:306,1
DA:309,1
DA:310,1
DA:311,1
DA:313,1
DA:314,1
DA:316,1
DA:317,1
DA:318,1
BRF:0
BRH:0
LF:207
LH:188
end_of_record
SF:/home/noah/src/ruchy/src/backend/transpiler/mod.rs
FN:130,_RNCNvMs_NtNtCskTACvQmcrtm_5ruchy7backend10transpilerNtB6_10Transpiler28collect_signatures_from_expr0Ba_
FN:563,_RNCNvMs_NtNtCskTACvQmcrtm_5ruchy7backend10transpilerNtB6_10Transpiler30transpile_statement_only_blocks_0Ba_
FN:257,_RNvMs_NtNtCskTACvQmcrtm_5ruchy7backend10transpilerNtB4_10Transpiler15resolve_imports
FN:883,_RNvMs_NtNtCskTACvQmcrtm_5ruchy7backend10transpilerNtB4_10Transpiler17transpile_minimal
FN:864,_RNvMs_NtNtCskTACvQmcrtm_5ruchy7backend10transpilerNtB4_10Transpiler19transpile_to_string
FN:52,_RNvXNtNtCskTACvQmcrtm_5ruchy7backend10transpilerNtB2_10TranspilerNtNtCs66KPHxksi63_4core7default7Default7default
FN:322,_RNCNvMs_NtNtCskTACvQmcrtm_5ruchy7backend10transpilerNtB6_10Transpiler16contains_hashmap0Ba_
FN:642,_RNCNvMs_NtNtCskTACvQmcrtm_5ruchy7backend10transpilerNtB6_10Transpiler17is_statement_expr0Ba_
FN:550,_RNCNvMs_NtNtCskTACvQmcrtm_5ruchy7backend10transpilerNtB6_10Transpiler30transpile_statement_only_block0Ba_
FN:906,_RNvMs_NtNtCskTACvQmcrtm_5ruchy7backend10transpilerNtB4_10Transpiler14transpile_expr
FN:152,_RNvMs_NtNtCskTACvQmcrtm_5ruchy7backend10transpilerNtB4_10Transpiler14type_to_string
FN:300,_RNvMs_NtNtCskTACvQmcrtm_5ruchy7backend10transpilerNtB4_10Transpiler16contains_hashmap
FN:625,_RNvMs_NtNtCskTACvQmcrtm_5ruchy7backend10transpilerNtB4_10Transpiler17is_statement_expr
FN:111,_RNvMs_NtNtCskTACvQmcrtm_5ruchy7backend10transpilerNtB4_10Transpiler18analyze_mutability
FN:332,_RNvMs_NtNtCskTACvQmcrtm_5ruchy7backend10transpilerNtB4_10Transpiler18contains_dataframe
FN:361,_RNvMs_NtNtCskTACvQmcrtm_5ruchy7backend10transpilerNtB4_10Transpiler20transpile_to_program
FN:795,_RNvMs_NtNtCskTACvQmcrtm_5ruchy7backend10transpilerNtB4_10Transpiler22wrap_statement_in_main
FN:162,_RNvMs_NtNtCskTACvQmcrtm_5ruchy7backend10transpilerNtB4_10Transpiler23analyze_expr_mutability
FN:448,_RNvMs_NtNtCskTACvQmcrtm_5ruchy7backend10transpilerNtB4_10Transpiler23transpile_program_block
FN:888,_RNvMs_NtNtCskTACvQmcrtm_5ruchy7backend10transpilerNtB4_10Transpiler24is_rust_reserved_keyword
FN:400,_RNvMs_NtNtCskTACvQmcrtm_5ruchy7backend10transpilerNtB4_10Transpiler25transpile_single_function
FN:746,_RNvMs_NtNtCskTACvQmcrtm_5ruchy7backend10transpilerNtB4_10Transpiler26extract_main_function_body
FN:118,_RNvMs_NtNtCskTACvQmcrtm_5ruchy7backend10transpilerNtB4_10Transpiler27collect_function_signatures
FN:460,_RNvMs_NtNtCskTACvQmcrtm_5ruchy7backend10transpilerNtB4_10Transpiler28categorize_block_expressions
FN:124,_RNvMs_NtNtCskTACvQmcrtm_5ruchy7backend10transpilerNtB4_10Transpiler28collect_signatures_from_expr
FN:264,_RNvMs_NtNtCskTACvQmcrtm_5ruchy7backend10transpilerNtB4_10Transpiler28resolve_imports_with_context
FN:782,_RNvMs_NtNtCskTACvQmcrtm_5ruchy7backend10transpilerNtB4_10Transpiler28transpile_expression_program
FN:514,_RNvMs_NtNtCskTACvQmcrtm_5ruchy7backend10transpilerNtB4_10Transpiler28transpile_module_declaration
FN:93,_RNvMs_NtNtCskTACvQmcrtm_5ruchy7backend10transpilerNtB4_10Transpiler30generate_value_printing_tokens
FN:755,_RNvMs_NtNtCskTACvQmcrtm_5ruchy7backend10transpilerNtB4_10Transpiler30transpile_block_with_functions
FN:548,_RNvMs_NtNtCskTACvQmcrtm_5ruchy7backend10transpilerNtB4_10Transpiler30transpile_statement_only_block
FN:78,_RNvMs_NtNtCskTACvQmcrtm_5ruchy7backend10transpilerNtB4_10Transpiler31generate_result_printing_tokens
FN:381,_RNvMs_NtNtCskTACvQmcrtm_5ruchy7backend10transpilerNtB4_10Transpiler33transpile_to_program_with_context
FN:825,_RNvMs_NtNtCskTACvQmcrtm_5ruchy7backend10transpilerNtB4_10Transpiler33wrap_in_main_with_result_printing
FN:648,_RNvMs_NtNtCskTACvQmcrtm_5ruchy7backend10transpilerNtB4_10Transpiler34transpile_block_with_main_function
FN:68,_RNvMs_NtNtCskTACvQmcrtm_5ruchy7backend10transpilerNtB4_10Transpiler3new
FN:295,_RNvMs_NtNtCskTACvQmcrtm_5ruchy7backend10transpilerNtB4_10Transpiler9transpile
FNDA:8,_RNCNvMs_NtNtCskTACvQmcrtm_5ruchy7backend10transpilerNtB6_10Transpiler28collect_signatures_from_expr0Ba_
FNDA:1,_RNCNvMs_NtNtCskTACvQmcrtm_5ruchy7backend10transpilerNtB6_10Transpiler30transpile_statement_only_blocks_0Ba_
FNDA:0,_RNvMs_NtNtCskTACvQmcrtm_5ruchy7backend10transpilerNtB4_10Transpiler15resolve_imports
FNDA:0,_RNvMs_NtNtCskTACvQmcrtm_5ruchy7backend10transpilerNtB4_10Transpiler17transpile_minimal
FNDA:0,_RNvMs_NtNtCskTACvQmcrtm_5ruchy7backend10transpilerNtB4_10Transpiler19transpile_to_string
FNDA:0,_RNvXNtNtCskTACvQmcrtm_5ruchy7backend10transpilerNtB2_10TranspilerNtNtCs66KPHxksi63_4core7default7Default7default
FNDA:5,_RNCNvMs_NtNtCskTACvQmcrtm_5ruchy7backend10transpilerNtB6_10Transpiler16contains_hashmap0Ba_
FNDA:0,_RNCNvMs_NtNtCskTACvQmcrtm_5ruchy7backend10transpilerNtB6_10Transpiler17is_statement_expr0Ba_
FNDA:3,_RNCNvMs_NtNtCskTACvQmcrtm_5ruchy7backend10transpilerNtB6_10Transpiler30transpile_statement_only_block0Ba_
FNDA:1028,_RNvMs_NtNtCskTACvQmcrtm_5ruchy7backend10transpilerNtB4_10Transpiler14transpile_expr
FNDA:8,_RNvMs_NtNtCskTACvQmcrtm_5ruchy7backend10transpilerNtB4_10Transpiler14type_to_string
FNDA:196,_RNvMs_NtNtCskTACvQmcrtm_5ruchy7backend10transpilerNtB4_10Transpiler16contains_hashmap
FNDA:91,_RNvMs_NtNtCskTACvQmcrtm_5ruchy7backend10transpilerNtB4_10Transpiler17is_statement_expr
FNDA:3,_RNvMs_NtNtCskTACvQmcrtm_5ruchy7backend10transpilerNtB4_10Transpiler18analyze_mutability
FNDA:97,_RNvMs_NtNtCskTACvQmcrtm_5ruchy7backend10transpilerNtB4_10Transpiler18contains_dataframe
FNDA:97,_RNvMs_NtNtCskTACvQmcrtm_5ruchy7backend10transpilerNtB4_10Transpiler20transpile_to_program
FNDA:5,_RNvMs_NtNtCskTACvQmcrtm_5ruchy7backend10transpilerNtB4_10Transpiler22wrap_statement_in_main
FNDA:344,_RNvMs_NtNtCskTACvQmcrtm_5ruchy7backend10transpilerNtB4_10Transpiler23analyze_expr_mutability
FNDA:3,_RNvMs_NtNtCskTACvQmcrtm_5ruchy7backend10transpilerNtB4_10Transpiler23transpile_program_block
FNDA:245,_RNvMs_NtNtCskTACvQmcrtm_5ruchy7backend10transpilerNtB4_10Transpiler24is_rust_reserved_keyword
FNDA:7,_RNvMs_NtNtCskTACvQmcrtm_5ruchy7backend10transpilerNtB4_10Transpiler25transpile_single_function
FNDA:0,_RNvMs_NtNtCskTACvQmcrtm_5ruchy7backend10transpilerNtB4_10Transpiler26extract_main_function_body
FNDA:3,_RNvMs_NtNtCskTACvQmcrtm_5ruchy7backend10transpilerNtB4_10Transpiler27collect_function_signatures
FNDA:3,_RNvMs_NtNtCskTACvQmcrtm_5ruchy7backend10transpilerNtB4_10Transpiler28categorize_block_expressions
FNDA:105,_RNvMs_NtNtCskTACvQmcrtm_5ruchy7backend10transpilerNtB4_10Transpiler28collect_signatures_from_expr
FNDA:97,_RNvMs_NtNtCskTACvQmcrtm_5ruchy7backend10transpilerNtB4_10Transpiler28resolve_imports_with_context
FNDA:87,_RNvMs_NtNtCskTACvQmcrtm_5ruchy7backend10transpilerNtB4_10Transpiler28transpile_expression_program
FNDA:0,_RNvMs_NtNtCskTACvQmcrtm_5ruchy7backend10transpilerNtB4_10Transpiler28transpile_module_declaration
FNDA:0,_RNvMs_NtNtCskTACvQmcrtm_5ruchy7backend10transpilerNtB4_10Transpiler30generate_value_printing_tokens
FNDA:1,_RNvMs_NtNtCskTACvQmcrtm_5ruchy7backend10transpilerNtB4_10Transpiler30transpile_block_with_functions
FNDA:2,_RNvMs_NtNtCskTACvQmcrtm_5ruchy7backend10transpilerNtB4_10Transpiler30transpile_statement_only_block
FNDA:83,_RNvMs_NtNtCskTACvQmcrtm_5ruchy7backend10transpilerNtB4_10Transpiler31generate_result_printing_tokens
FNDA:97,_RNvMs_NtNtCskTACvQmcrtm_5ruchy7backend10transpilerNtB4_10Transpiler33transpile_to_program_with_context
FNDA:83,_RNvMs_NtNtCskTACvQmcrtm_5ruchy7backend10transpilerNtB4_10Transpiler33wrap_in_main_with_result_printing
FNDA:0,_RNvMs_NtNtCskTACvQmcrtm_5ruchy7backend10transpilerNtB4_10Transpiler34transpile_block_with_main_function
FNDA:349,_RNvMs_NtNtCskTACvQmcrtm_5ruchy7backend10transpilerNtB4_10Transpiler3new
FNDA:159,_RNvMs_NtNtCskTACvQmcrtm_5ruchy7backend10transpilerNtB4_10Transpiler9transpile
FNF:37
FNH:28
DA:52,0
DA:53,0
DA:54,0
DA:68,349
DA:69,349
DA:70,349
DA:71,349
DA:72,349
DA:73,349
DA:74,349
DA:78,83
DA:79,83
DA:90,83
DA:93,0
DA:94,0
DA:108,0
DA:111,3
DA:112,8
DA:113,5
DA:114,5
DA:115,3
DA:118,3
DA:119,8
DA:120,5
DA:121,5
DA:122,3
DA:124,105
DA:127,105
DA:128,8
DA:129,8
DA:130,8
DA:131,8
DA:133,8
DA:134,8
DA:135,8
DA:136,8
DA:138,8
DA:140,0
DA:141,0
DA:142,0
DA:143,0
DA:145,6
DA:146,6
DA:147,6
DA:148,91
DA:150,105
DA:152,8
DA:155,8
DA:156,8
DA:157,0
DA:158,0
DA:160,8
DA:162,344
DA:165,344
DA:167,0
DA:168,0
DA:169,0
DA:170,0
DA:171,0
DA:174,0
DA:175,0
DA:176,0
DA:177,0
DA:178,0
DA:181,0
DA:182,0
DA:183,0
DA:184,0
DA:185,0
DA:186,0
DA:187,0
DA:190,20
DA:191,42
DA:192,22
DA:193,22
DA:196,5
DA:197,5
DA:198,5
DA:199,5
DA:200,5
DA:201,5
DA:203,1
DA:204,1
DA:205,1
DA:206,1
DA:207,1
DA:208,1
DA:209,1
DA:210,1
DA:212,3
DA:213,3
DA:214,10
DA:215,7
DA:216,7
DA:219,9
DA:220,9
DA:221,9
DA:222,9
DA:224,8
DA:225,8
DA:226,8
DA:227,4
DA:228,4
DA:229,4
DA:231,43
DA:232,43
DA:233,43
DA:234,43
DA:235,4
DA:236,4
DA:237,4
DA:239,23
DA:240,23
DA:241,49
DA:242,26
DA:243,26
DA:245,19
DA:246,19
DA:247,25
DA:248,6
DA:249,6
DA:251,204
DA:253,344
DA:257,0
DA:259,0
DA:260,0
DA:261,0
DA:264,97
DA:265,97
DA:268,97
DA:269,0
DA:270,0
DA:271,0
DA:272,97
DA:274,97
DA:275,97
DA:295,159
DA:296,159
DA:297,159
DA:300,196
DA:303,196
DA:304,0
DA:305,17
DA:307,17
DA:308,0
DA:310,17
DA:313,0
DA:315,0
DA:317,20
DA:318,8
DA:319,5
DA:320,5
DA:321,5
DA:322,5
DA:324,27
DA:325,27
DA:327,119
DA:329,196
DA:332,97
DA:333,97
DA:334,97
DA:337,97
DA:361,97
DA:363,97
DA:364,3
DA:365,3
DA:366,94
DA:367,94
DA:368,94
DA:369,94
DA:371,97
DA:372,97
DA:373,97
DA:374,97
DA:375,97
DA:376,97
DA:377,97
DA:378,97
DA:381,97
DA:383,97
DA:384,97
DA:385,97
DA:387,97
DA:388,7
DA:389,7
DA:391,3
DA:392,3
DA:395,87
DA:398,97
DA:400,7
DA:402,7
DA:403,7
DA:404,0
DA:406,7
DA:408,7
DA:409,0
DA:410,0
DA:411,0
DA:412,0
DA:413,0
DA:414,0
DA:415,0
DA:416,0
DA:417,0
DA:418,0
DA:419,0
DA:420,0
DA:421,0
DA:422,0
DA:423,0
DA:424,0
DA:425,0
DA:426,0
DA:427,0
DA:428,0
DA:429,0
DA:430,0
DA:431,0
DA:432,0
DA:433,0
DA:434,0
DA:435,0
DA:436,0
DA:437,0
DA:438,6
DA:439,6
DA:440,6
DA:441,6
DA:442,1
DA:443,1
DA:444,1
DA:446,7
DA:448,3
DA:449,3
DA:451,3
DA:452,2
DA:453,1
DA:454,0
DA:456,1
DA:458,3
DA:460,3
DA:461,3
DA:462,3
DA:463,3
DA:464,3
DA:465,3
DA:468,8
DA:469,5
DA:470,1
DA:471,1
DA:472,0
DA:473,0
DA:474,0
DA:476,1
DA:479,0
DA:481,0
DA:483,0
DA:485,0
DA:486,0
DA:487,0
DA:489,0
DA:490,0
DA:491,0
DA:492,0
DA:495,0
DA:499,4
DA:501,4
DA:502,4
DA:503,2
DA:504,2
DA:505,2
DA:506,2
DA:511,3
DA:512,3
DA:514,0
DA:515,0
DA:518,0
DA:520,0
DA:522,0
DA:523,0
DA:526,0
DA:530,0
DA:535,0
DA:538,0
DA:541,0
DA:542,0
DA:543,0
DA:544,0
DA:545,0
DA:546,0
DA:548,2
DA:550,3
DA:552,2
DA:554,1
DA:556,0
DA:559,1
DA:563,1
DA:564,1
DA:565,1
DA:567,1
DA:568,0
DA:571,1
DA:573,1
DA:574,1
DA:577,1
DA:578,0
DA:579,0
DA:580,0
DA:586,1
DA:591,1
DA:592,0
DA:593,0
DA:594,0
DA:595,0
DA:596,0
DA:597,0
DA:598,0
DA:599,0
DA:600,0
DA:601,0
DA:602,0
DA:603,0
DA:604,0
DA:605,0
DA:606,0
DA:607,0
DA:608,0
DA:609,0
DA:610,0
DA:611,1
DA:612,1
DA:613,1
DA:614,1
DA:615,1
DA:619,1
DA:620,1
DA:621,1
DA:623,2
DA:625,91
DA:626,91
DA:628,5
DA:630,0
DA:632,2
DA:634,15
DA:635,15
DA:636,15
DA:638,0
DA:642,0
DA:644,69
DA:646,91
DA:648,0
DA:649,0
DA:651,0
DA:652,0
DA:654,0
DA:657,0
DA:658,0
DA:665,0
DA:671,0
DA:677,0
DA:685,0
DA:686,0
DA:689,0
DA:692,0
DA:693,0
DA:706,0
DA:718,0
DA:730,0
DA:743,0
DA:746,0
DA:747,0
DA:749,0
DA:751,0
DA:753,0
DA:755,1
DA:757,1
DA:758,0
DA:764,0
DA:769,0
DA:774,1
DA:779,1
DA:782,87
DA:783,87
DA:786,87
DA:788,5
DA:791,82
DA:793,87
DA:795,5
DA:797,5
DA:798,0
DA:799,0
DA:800,0
DA:801,0
DA:802,0
DA:803,0
DA:804,0
DA:805,0
DA:806,0
DA:807,0
DA:808,0
DA:809,0
DA:810,0
DA:811,0
DA:812,0
DA:813,0
DA:814,0
DA:815,0
DA:816,0
DA:817,5
DA:818,5
DA:819,5
DA:820,5
DA:821,5
DA:823,5
DA:825,83
DA:826,83
DA:827,83
DA:828,0
DA:829,0
DA:830,0
DA:831,0
DA:832,0
DA:833,0
DA:834,0
DA:835,0
DA:836,0
DA:837,0
DA:838,0
DA:839,0
DA:840,0
DA:841,0
DA:842,0
DA:844,0
DA:845,0
DA:846,0
DA:847,0
DA:848,0
DA:849,0
DA:850,0
DA:853,83
DA:854,83
DA:855,83
DA:856,83
DA:857,83
DA:858,83
DA:861,83
DA:864,0
DA:865,0
DA:868,0
DA:869,0
DA:872,0
DA:873,0
DA:874,0
DA:875,0
DA:876,0
DA:879,0
DA:880,0
DA:883,0
DA:884,0
DA:885,0
DA:888,245
DA:890,245
DA:891,245
DA:892,245
DA:893,245
DA:894,245
DA:895,245
DA:896,243
DA:897,243
DA:899,245
DA:906,1028
DA:916,1028
DA:919,643
DA:936,206
DA:940,76
DA:946,15
DA:962,40
DA:965,3
DA:968,45
DA:970,1028
BRF:0
BRH:0
LF:486
LH:275
end_of_record
SF:/home/noah/src/ruchy/src/backend/transpiler/patterns.rs
FN:207,_RNCNvMNtNtNtCskTACvQmcrtm_5ruchy7backend10transpiler8patternsNtB6_10Transpiler20transpile_or_pattern0Ba_
FN:147,_RNCNvMNtNtNtCskTACvQmcrtm_5ruchy7backend10transpiler8patternsNtB6_10Transpiler22transpile_list_patterns_0Ba_
FN:131,_RNCNvMNtNtNtCskTACvQmcrtm_5ruchy7backend10transpiler8patternsNtB6_10Transpiler23transpile_tuple_pattern0Ba_
FN:194,_RNCNvMNtNtNtCskTACvQmcrtm_5ruchy7backend10transpiler8patternsNtB6_10Transpiler24transpile_field_patterns0Ba_
FN:125,_RNCNvMNtNtNtCskTACvQmcrtm_5ruchy7backend10transpiler8patternsNtB6_10Transpiler32transpile_qualified_name_pattern0Ba_
FN:141,_RNCNvMNtNtNtCskTACvQmcrtm_5ruchy7backend10transpiler8patternsNtB6_10Transpiler22transpile_list_pattern0Ba_
FN:30,_RNvMNtNtNtCskTACvQmcrtm_5ruchy7backend10transpiler8patternsNtB4_10Transpiler15transpile_match
FN:96,_RNvMNtNtNtCskTACvQmcrtm_5ruchy7backend10transpiler8patternsNtB4_10Transpiler17transpile_pattern
FN:205,_RNvMNtNtNtCskTACvQmcrtm_5ruchy7backend10transpiler8patternsNtB4_10Transpiler20transpile_or_pattern
FN:136,_RNvMNtNtNtCskTACvQmcrtm_5ruchy7backend10transpiler8patternsNtB4_10Transpiler22transpile_list_pattern
FN:220,_RNvMNtNtNtCskTACvQmcrtm_5ruchy7backend10transpiler8patternsNtB4_10Transpiler23transpile_range_pattern
FN:129,_RNvMNtNtNtCskTACvQmcrtm_5ruchy7backend10transpiler8patternsNtB4_10Transpiler23transpile_tuple_pattern
FN:193,_RNvMNtNtNtCskTACvQmcrtm_5ruchy7backend10transpiler8patternsNtB4_10Transpiler24transpile_field_patterns
FN:153,_RNvMNtNtNtCskTACvQmcrtm_5ruchy7backend10transpiler8patternsNtB4_10Transpiler24transpile_list_with_rest
FN:250,_RNvMNtNtNtCskTACvQmcrtm_5ruchy7backend10transpiler8patternsNtB4_10Transpiler24transpile_option_pattern
FN:241,_RNvMNtNtNtCskTACvQmcrtm_5ruchy7backend10transpiler8patternsNtB4_10Transpiler24transpile_result_pattern
FN:168,_RNvMNtNtNtCskTACvQmcrtm_5ruchy7backend10transpiler8patternsNtB4_10Transpiler24transpile_struct_pattern
FN:119,_RNvMNtNtNtCskTACvQmcrtm_5ruchy7backend10transpiler8patternsNtB4_10Transpiler28transpile_identifier_pattern
FN:236,_RNvMNtNtNtCskTACvQmcrtm_5ruchy7backend10transpiler8patternsNtB4_10Transpiler28transpile_rest_named_pattern
FN:124,_RNvMNtNtNtCskTACvQmcrtm_5ruchy7backend10transpiler8patternsNtB4_10Transpiler32transpile_qualified_name_pattern
FNDA:6,_RNCNvMNtNtNtCskTACvQmcrtm_5ruchy7backend10transpiler8patternsNtB6_10Transpiler20transpile_or_pattern0Ba_
FNDA:3,_RNCNvMNtNtNtCskTACvQmcrtm_5ruchy7backend10transpiler8patternsNtB6_10Transpiler22transpile_list_patterns_0Ba_
FNDA:8,_RNCNvMNtNtNtCskTACvQmcrtm_5ruchy7backend10transpiler8patternsNtB6_10Transpiler23transpile_tuple_pattern0Ba_
FNDA:4,_RNCNvMNtNtNtCskTACvQmcrtm_5ruchy7backend10transpiler8patternsNtB6_10Transpiler24transpile_field_patterns0Ba_
FNDA:4,_RNCNvMNtNtNtCskTACvQmcrtm_5ruchy7backend10transpiler8patternsNtB6_10Transpiler32transpile_qualified_name_pattern0Ba_
FNDA:9,_RNCNvMNtNtNtCskTACvQmcrtm_5ruchy7backend10transpiler8patternsNtB6_10Transpiler22transpile_list_pattern0Ba_
FNDA:6,_RNvMNtNtNtCskTACvQmcrtm_5ruchy7backend10transpiler8patternsNtB4_10Transpiler15transpile_match
FNDA:61,_RNvMNtNtNtCskTACvQmcrtm_5ruchy7backend10transpiler8patternsNtB4_10Transpiler17transpile_pattern
FNDA:2,_RNvMNtNtNtCskTACvQmcrtm_5ruchy7backend10transpiler8patternsNtB4_10Transpiler20transpile_or_pattern
FNDA:5,_RNvMNtNtNtCskTACvQmcrtm_5ruchy7backend10transpiler8patternsNtB4_10Transpiler22transpile_list_pattern
FNDA:2,_RNvMNtNtNtCskTACvQmcrtm_5ruchy7backend10transpiler8patternsNtB4_10Transpiler23transpile_range_pattern
FNDA:4,_RNvMNtNtNtCskTACvQmcrtm_5ruchy7backend10transpiler8patternsNtB4_10Transpiler23transpile_tuple_pattern
FNDA:3,_RNvMNtNtNtCskTACvQmcrtm_5ruchy7backend10transpiler8patternsNtB4_10Transpiler24transpile_field_patterns
FNDA:3,_RNvMNtNtNtCskTACvQmcrtm_5ruchy7backend10transpiler8patternsNtB4_10Transpiler24transpile_list_with_rest
FNDA:0,_RNvMNtNtNtCskTACvQmcrtm_5ruchy7backend10transpiler8patternsNtB4_10Transpiler24transpile_option_pattern
FNDA:0,_RNvMNtNtNtCskTACvQmcrtm_5ruchy7backend10transpiler8patternsNtB4_10Transpiler24transpile_result_pattern
FNDA:3,_RNvMNtNtNtCskTACvQmcrtm_5ruchy7backend10transpiler8patternsNtB4_10Transpiler24transpile_struct_pattern
FNDA:17,_RNvMNtNtNtCskTACvQmcrtm_5ruchy7backend10transpiler8patternsNtB4_10Transpiler28transpile_identifier_pattern
FNDA:0,_RNvMNtNtNtCskTACvQmcrtm_5ruchy7backend10transpiler8patternsNtB4_10Transpiler28transpile_rest_named_pattern
FNDA:1,_RNvMNtNtNtCskTACvQmcrtm_5ruchy7backend10transpiler8patternsNtB4_10Transpiler32transpile_qualified_name_pattern
FNF:20
FNH:17
DA:30,6
DA:31,6
DA:33,6
DA:34,19
DA:35,13
DA:36,13
DA:39,13
DA:40,1
DA:41,1
DA:44,12
DA:45,12
DA:46,12
DA:47,12
DA:48,12
DA:51,6
DA:56,6
DA:96,61
DA:97,61
DA:98,7
DA:99,20
DA:100,17
DA:101,1
DA:102,4
DA:103,5
DA:104,3
DA:105,3
DA:106,2
DA:107,2
DA:108,2
DA:109,0
DA:110,0
DA:111,0
DA:112,0
DA:113,0
DA:114,0
DA:115,0
DA:117,61
DA:119,17
DA:120,17
DA:121,17
DA:122,17
DA:124,1
DA:125,4
DA:126,1
DA:127,1
DA:129,4
DA:130,4
DA:131,8
DA:132,4
DA:133,4
DA:134,4
DA:136,5
DA:137,5
DA:138,1
DA:139,4
DA:141,9
DA:143,4
DA:144,3
DA:146,1
DA:147,3
DA:148,1
DA:149,1
DA:151,5
DA:153,3
DA:154,3
DA:155,9
DA:156,6
DA:157,2
DA:158,1
DA:159,1
DA:160,1
DA:161,1
DA:162,3
DA:165,3
DA:166,3
DA:168,3
DA:169,3
DA:170,3
DA:171,3
DA:172,3
DA:173,3
DA:174,3
DA:175,0
DA:176,3
DA:178,3
DA:180,3
DA:181,0
DA:182,3
DA:184,3
DA:186,3
DA:187,2
DA:189,1
DA:191,3
DA:193,3
DA:194,4
DA:195,4
DA:196,4
DA:197,4
DA:198,4
DA:200,0
DA:202,4
DA:203,3
DA:205,2
DA:206,2
DA:207,6
DA:208,2
DA:210,2
DA:211,6
DA:212,6
DA:213,4
DA:214,4
DA:215,6
DA:217,2
DA:218,2
DA:220,2
DA:221,2
DA:222,2
DA:223,2
DA:224,2
DA:225,2
DA:226,2
DA:227,2
DA:229,2
DA:230,1
DA:232,1
DA:234,2
DA:236,0
DA:237,0
DA:238,0
DA:239,0
DA:241,0
DA:242,0
DA:243,0
DA:244,0
DA:246,0
DA:248,0
DA:250,0
DA:251,0
DA:252,0
DA:253,0
DA:255,0
DA:257,0
BRF:0
BRH:0
LF:149
LH:123
end_of_record
SF:/home/noah/src/ruchy/src/backend/transpiler/patterns_tests.rs
FN:8,_RNvNtNtNtNtCskTACvQmcrtm_5ruchy7backend10transpiler8patterns5tests17create_transpiler
FN:297,_RNvNtNtNtNtCskTACvQmcrtm_5ruchy7backend10transpiler8patterns5testss_15test_or_pattern
FN:262,_RNvNtNtNtNtCskTACvQmcrtm_5ruchy7backend10transpiler8patterns5testss_18test_range_pattern
FN:13,_RNvNtNtNtNtCskTACvQmcrtm_5ruchy7backend10transpiler8patterns5testss_21test_wildcard_pattern
FN:25,_RNvNtNtNtNtCskTACvQmcrtm_5ruchy7backend10transpiler8patterns5testss_23test_identifier_pattern
FN:112,_RNvNtNtNtNtCskTACvQmcrtm_5ruchy7backend10transpiler8patterns5testss_23test_list_pattern_empty
FN:124,_RNvNtNtNtNtCskTACvQmcrtm_5ruchy7backend10transpiler8patterns5testss_24test_list_pattern_simple
FN:61,_RNvNtNtNtNtCskTACvQmcrtm_5ruchy7backend10transpiler8patterns5testss_25test_literal_pattern_bool
FN:91,_RNvNtNtNtNtCskTACvQmcrtm_5ruchy7backend10transpiler8patterns5testss_25test_tuple_pattern_nested
FN:73,_RNvNtNtNtNtCskTACvQmcrtm_5ruchy7backend10transpiler8patterns5testss_25test_tuple_pattern_simple
FN:181,_RNvNtNtNtNtCskTACvQmcrtm_5ruchy7backend10transpiler8patterns5testss_26test_struct_pattern_simple
FN:317,_RNvNtNtNtNtCskTACvQmcrtm_5ruchy7backend10transpiler8patterns5testss_27test_complex_nested_pattern
FN:144,_RNvNtNtNtNtCskTACvQmcrtm_5ruchy7backend10transpiler8patterns5testss_27test_list_pattern_with_rest
FN:49,_RNvNtNtNtNtCskTACvQmcrtm_5ruchy7backend10transpiler8patterns5testss_27test_literal_pattern_string
FN:242,_RNvNtNtNtNtCskTACvQmcrtm_5ruchy7backend10transpiler8patterns5testss_27test_qualified_name_pattern
FN:37,_RNvNtNtNtNtCskTACvQmcrtm_5ruchy7backend10transpiler8patterns5testss_28test_literal_pattern_integer
FN:279,_RNvNtNtNtNtCskTACvQmcrtm_5ruchy7backend10transpiler8patterns5testss_28test_range_pattern_inclusive
FN:212,_RNvNtNtNtNtCskTACvQmcrtm_5ruchy7backend10transpiler8patterns5testss_29test_struct_pattern_with_rest
FN:162,_RNvNtNtNtNtCskTACvQmcrtm_5ruchy7backend10transpiler8patterns5testss_33test_list_pattern_with_named_rest
FNDA:18,_RNvNtNtNtNtCskTACvQmcrtm_5ruchy7backend10transpiler8patterns5tests17create_transpiler
FNDA:1,_RNvNtNtNtNtCskTACvQmcrtm_5ruchy7backend10transpiler8patterns5testss_15test_or_pattern
FNDA:1,_RNvNtNtNtNtCskTACvQmcrtm_5ruchy7backend10transpiler8patterns5testss_18test_range_pattern
FNDA:1,_RNvNtNtNtNtCskTACvQmcrtm_5ruchy7backend10transpiler8patterns5testss_21test_wildcard_pattern
FNDA:1,_RNvNtNtNtNtCskTACvQmcrtm_5ruchy7backend10transpiler8patterns5testss_23test_identifier_pattern
FNDA:1,_RNvNtNtNtNtCskTACvQmcrtm_5ruchy7backend10transpiler8patterns5testss_23test_list_pattern_empty
FNDA:1,_RNvNtNtNtNtCskTACvQmcrtm_5ruchy7backend10transpiler8patterns5testss_24test_list_pattern_simple
FNDA:1,_RNvNtNtNtNtCskTACvQmcrtm_5ruchy7backend10transpiler8patterns5testss_25test_literal_pattern_bool
FNDA:1,_RNvNtNtNtNtCskTACvQmcrtm_5ruchy7backend10transpiler8patterns5testss_25test_tuple_pattern_nested
FNDA:1,_RNvNtNtNtNtCskTACvQmcrtm_5ruchy7backend10transpiler8patterns5testss_25test_tuple_pattern_simple
FNDA:1,_RNvNtNtNtNtCskTACvQmcrtm_5ruchy7backend10transpiler8patterns5testss_26test_struct_pattern_simple
FNDA:1,_RNvNtNtNtNtCskTACvQmcrtm_5ruchy7backend10transpiler8patterns5testss_27test_complex_nested_pattern
FNDA:1,_RNvNtNtNtNtCskTACvQmcrtm_5ruchy7backend10transpiler8patterns5testss_27test_list_pattern_with_rest
FNDA:1,_RNvNtNtNtNtCskTACvQmcrtm_5ruchy7backend10transpiler8patterns5testss_27test_literal_pattern_string
FNDA:1,_RNvNtNtNtNtCskTACvQmcrtm_5ruchy7backend10transpiler8patterns5testss_27test_qualified_name_pattern
FNDA:1,_RNvNtNtNtNtCskTACvQmcrtm_5ruchy7backend10transpiler8patterns5testss_28test_literal_pattern_integer
FNDA:1,_RNvNtNtNtNtCskTACvQmcrtm_5ruchy7backend10transpiler8patterns5testss_28test_range_pattern_inclusive
FNDA:1,_RNvNtNtNtNtCskTACvQmcrtm_5ruchy7backend10transpiler8patterns5testss_29test_struct_pattern_with_rest
FNDA:1,_RNvNtNtNtNtCskTACvQmcrtm_5ruchy7backend10transpiler8patterns5testss_33test_list_pattern_with_named_rest
FNF:19
FNH:19
DA:8,18
DA:9,18
DA:10,18
DA:13,1
DA:14,1
DA:15,1
DA:17,1
DA:18,1
DA:20,1
DA:21,1
DA:22,1
DA:25,1
DA:26,1
DA:27,1
DA:29,1
DA:30,1
DA:32,1
DA:33,1
DA:34,1
DA:37,1
DA:38,1
DA:39,1
DA:41,1
DA:42,1
DA:44,1
DA:45,1
DA:46,1
DA:49,1
DA:50,1
DA:51,1
DA:53,1
DA:54,1
DA:56,1
DA:57,1
DA:58,1
DA:61,1
DA:62,1
DA:63,1
DA:65,1
DA:66,1
DA:68,1
DA:69,1
DA:70,1
DA:73,1
DA:74,1
DA:75,1
DA:76,1
DA:77,1
DA:78,1
DA:80,1
DA:81,1
DA:83,1
DA:84,1
DA:85,1
DA:86,1
DA:87,1
DA:88,1
DA:91,1
DA:92,1
DA:93,1
DA:94,1
DA:95,1
DA:96,1
DA:97,1
DA:98,1
DA:99,1
DA:101,1
DA:102,1
DA:104,1
DA:105,1
DA:106,1
DA:107,1
DA:108,1
DA:109,1
DA:112,1
DA:113,1
DA:114,1
DA:116,1
DA:117,1
DA:119,1
DA:120,1
DA:121,1
DA:124,1
DA:125,1
DA:126,1
DA:127,1
DA:128,1
DA:129,1
DA:130,1
DA:132,1
DA:133,1
DA:135,1
DA:136,1
DA:137,1
DA:138,1
DA:139,1
DA:140,1
DA:141,1
DA:144,1
DA:145,1
DA:146,1
DA:147,1
DA:148,1
DA:149,1
DA:151,1
DA:152,1
DA:154,1
DA:155,1
DA:156,1
DA:157,1
DA:158,1
DA:159,1
DA:162,1
DA:163,1
DA:164,1
DA:165,1
DA:166,1
DA:167,1
DA:169,1
DA:170,1
DA:172,1
DA:173,1
DA:174,1
DA:175,1
DA:176,1
DA:177,1
DA:178,1
DA:181,1
DA:182,1
DA:183,1
DA:184,1
DA:185,1
DA:186,1
DA:187,1
DA:188,1
DA:189,1
DA:190,1
DA:191,1
DA:192,1
DA:193,1
DA:194,1
DA:195,1
DA:196,1
DA:198,1
DA:199,1
DA:201,1
DA:202,1
DA:203,1
DA:204,1
DA:205,1
DA:206,1
DA:207,1
DA:208,1
DA:209,1
DA:212,1
DA:213,1
DA:214,1
DA:215,1
DA:216,1
DA:217,1
DA:218,1
DA:219,1
DA:220,1
DA:221,1
DA:222,1
DA:223,1
DA:225,1
DA:226,1
DA:228,1
DA:229,1
DA:230,1
DA:231,1
DA:232,1
DA:233,1
DA:242,1
DA:243,1
DA:244,1
DA:245,1
DA:246,1
DA:247,1
DA:248,1
DA:249,1
DA:251,1
DA:252,1
DA:254,1
DA:255,1
DA:256,1
DA:257,1
DA:258,1
DA:259,1
DA:262,1
DA:263,1
DA:264,1
DA:265,1
DA:266,1
DA:267,1
DA:268,1
DA:270,1
DA:271,1
DA:273,1
DA:274,1
DA:275,1
DA:276,1
DA:279,1
DA:280,1
DA:281,1
DA:282,1
DA:283,1
DA:284,1
DA:285,1
DA:287,1
DA:288,1
DA:290,1
DA:291,1
DA:292,1
DA:293,1
DA:294,1
DA:297,1
DA:298,1
DA:299,1
DA:300,1
DA:301,1
DA:302,1
DA:303,1
DA:305,1
DA:306,1
DA:308,1
DA:309,1
DA:310,1
DA:311,1
DA:312,1
DA:313,1
DA:314,1
DA:317,1
DA:318,1
DA:319,1
DA:320,1
DA:321,1
DA:322,1
DA:323,1
DA:324,1
DA:325,1
DA:326,1
DA:327,1
DA:328,1
DA:329,1
DA:330,1
DA:331,1
DA:332,1
DA:333,1
DA:334,1
DA:336,1
DA:337,1
DA:339,1
DA:340,1
DA:341,1
DA:342,1
DA:343,1
DA:344,1
DA:345,1
BRF:0
BRH:0
LF:260
LH:260
end_of_record
SF:/home/noah/src/ruchy/src/backend/transpiler/result_type.rs
FN:168,_RNvMNtNtNtCskTACvQmcrtm_5ruchy7backend10transpiler11result_typeNtB4_10Transpiler20transpile_result_map
FN:142,_RNvMNtNtNtCskTACvQmcrtm_5ruchy7backend10transpiler11result_typeNtB4_10Transpiler22transpile_result_chain
FN:100,_RNvMNtNtNtCskTACvQmcrtm_5ruchy7backend10transpiler11result_typeNtB4_10Transpiler22transpile_result_match
FN:158,_RNvMNtNtNtCskTACvQmcrtm_5ruchy7backend10transpiler11result_typeNtB4_10Transpiler26transpile_result_unwrap_or
FN:235,_RNvNtNtNtNtCskTACvQmcrtm_5ruchy7backend10transpiler11result_type5testss_25test_transpile_error_type
FN:224,_RNvNtNtNtNtCskTACvQmcrtm_5ruchy7backend10transpiler11result_type5testss_30test_result_helpers_generation
FN:190,_RNCNvMNtNtNtCskTACvQmcrtm_5ruchy7backend10transpiler11result_typeNtB6_10Transpiler20transpile_error_type0Ba_
FN:178,_RNvMNtNtNtCskTACvQmcrtm_5ruchy7backend10transpiler11result_typeNtB4_10Transpiler20transpile_error_type
FN:31,_RNvMNtNtNtCskTACvQmcrtm_5ruchy7backend10transpiler11result_typeNtB4_10Transpiler23generate_result_helpers
FNDA:0,_RNvMNtNtNtCskTACvQmcrtm_5ruchy7backend10transpiler11result_typeNtB4_10Transpiler20transpile_result_map
FNDA:0,_RNvMNtNtNtCskTACvQmcrtm_5ruchy7backend10transpiler11result_typeNtB4_10Transpiler22transpile_result_chain
FNDA:0,_RNvMNtNtNtCskTACvQmcrtm_5ruchy7backend10transpiler11result_typeNtB4_10Transpiler22transpile_result_match
FNDA:0,_RNvMNtNtNtCskTACvQmcrtm_5ruchy7backend10transpiler11result_typeNtB4_10Transpiler26transpile_result_unwrap_or
FNDA:1,_RNvNtNtNtNtCskTACvQmcrtm_5ruchy7backend10transpiler11result_type5testss_25test_transpile_error_type
FNDA:1,_RNvNtNtNtNtCskTACvQmcrtm_5ruchy7backend10transpiler11result_type5testss_30test_result_helpers_generation
FNDA:0,_RNCNvMNtNtNtCskTACvQmcrtm_5ruchy7backend10transpiler11result_typeNtB6_10Transpiler20transpile_error_type0Ba_
FNDA:1,_RNvMNtNtNtCskTACvQmcrtm_5ruchy7backend10transpiler11result_typeNtB4_10Transpiler20transpile_error_type
FNDA:2,_RNvMNtNtNtCskTACvQmcrtm_5ruchy7backend10transpiler11result_typeNtB4_10Transpiler23generate_result_helpers
FNF:9
FNH:4
DA:31,2
DA:32,2
DA:82,2
DA:100,0
DA:101,0
DA:102,0
DA:103,0
DA:104,0
DA:105,0
DA:106,0
DA:108,0
DA:109,0
DA:110,0
DA:111,0
DA:112,0
DA:113,0
DA:115,0
DA:117,0
DA:120,0
DA:125,0
DA:142,0
DA:143,0
DA:144,0
DA:145,0
DA:147,0
DA:149,0
DA:150,0
DA:151,0
DA:154,0
DA:155,0
DA:158,0
DA:159,0
DA:160,0
DA:162,0
DA:163,0
DA:164,0
DA:165,0
DA:168,0
DA:169,0
DA:170,0
DA:172,0
DA:173,0
DA:174,0
DA:175,0
DA:178,1
DA:179,1
DA:180,1
DA:181,1
DA:182,1
DA:183,1
DA:184,1
DA:186,4
DA:187,3
DA:188,3
DA:190,2
DA:192,0
DA:193,0
DA:194,2
DA:196,1
DA:198,3
DA:201,1
DA:215,1
DA:224,1
DA:225,1
DA:226,1
DA:227,1
DA:228,1
DA:229,1
DA:230,1
DA:231,1
DA:232,1
DA:235,1
DA:236,1
DA:237,1
DA:238,1
DA:239,1
DA:240,1
DA:243,1
DA:244,1
DA:247,1
DA:248,1
DA:249,1
DA:250,1
DA:253,1
DA:254,1
DA:255,1
DA:256,1
BRF:0
BRH:0
LF:88
LH:44
end_of_record
SF:/home/noah/src/ruchy/src/backend/transpiler/statements.rs
FN:504,_RNCNCNCNvMNtNtNtCskTACvQmcrtm_5ruchy7backend10transpiler10statementsNtBa_10Transpiler27generate_function_signature000Be_
FN:466,_RNCNCNvMNtNtNtCskTACvQmcrtm_5ruchy7backend10transpiler10statementsNtB8_10Transpiler26generate_type_param_tokens00Bc_
FN:504,_RNCNCNvMNtNtNtCskTACvQmcrtm_5ruchy7backend10transpiler10statementsNtB8_10Transpiler27generate_function_signature00Bc_
FN:582,_RNCNvMNtNtNtCskTACvQmcrtm_5ruchy7backend10transpiler10statementsNtB6_10Transpiler16transpile_lambda0Ba_
FN:1052,_RNCNvMNtNtNtCskTACvQmcrtm_5ruchy7backend10transpiler10statementsNtB6_10Transpiler18transpile_pipeline0Ba_
FN:1061,_RNCNvMNtNtNtCskTACvQmcrtm_5ruchy7backend10transpiler10statementsNtB6_10Transpiler18transpile_pipelines_0Ba_
FN:1902,_RNCNvMNtNtNtCskTACvQmcrtm_5ruchy7backend10transpiler10statementsNtB6_10Transpiler20process_import_items0Ba_
FN:369,_RNCNvMNtNtNtCskTACvQmcrtm_5ruchy7backend10transpiler10statementsNtB6_10Transpiler21generate_param_tokens0Ba_
FN:771,_RNCNvMNtNtNtCskTACvQmcrtm_5ruchy7backend10transpiler10statementsNtB6_10Transpiler25transpile_method_call_old0Ba_
FN:1973,_RNCNvMNtNtNtCskTACvQmcrtm_5ruchy7backend10transpiler10statementsNtB6_10Transpiler25try_transpile_print_macro0Ba_
FN:463,_RNCNvMNtNtNtCskTACvQmcrtm_5ruchy7backend10transpiler10statementsNtB6_10Transpiler26generate_type_param_tokens0Ba_
FN:498,_RNCNvMNtNtNtCskTACvQmcrtm_5ruchy7backend10transpiler10statementsNtB6_10Transpiler27generate_function_signature0Ba_
FN:1990,_RNCNvMNtNtNtCskTACvQmcrtm_5ruchy7backend10transpiler10statementsNtB6_10Transpiler29transpile_print_multiple_args0Ba_
FN:2034,_RNCNvMNtNtNtCskTACvQmcrtm_5ruchy7backend10transpiler10statementsNtB6_10Transpiler29transpile_print_multiple_argss0_0Ba_
FN:2023,_RNCNvMNtNtNtCskTACvQmcrtm_5ruchy7backend10transpiler10statementsNtB6_10Transpiler29transpile_print_multiple_argss_0Ba_
FN:2559,_RNCNvMNtNtNtCskTACvQmcrtm_5ruchy7backend10transpiler10statementsNtB6_10Transpiler31transpile_regular_function_call0Ba_
FN:2571,_RNCNvMNtNtNtCskTACvQmcrtm_5ruchy7backend10transpiler10statementsNtB6_10Transpiler31transpile_regular_function_calls_0Ba_
FN:2614,_RNvNtNtNtNtCskTACvQmcrtm_5ruchy7backend10transpiler10statements5tests17create_transpiler
FN:2787,_RNvNtNtNtNtCskTACvQmcrtm_5ruchy7backend10transpiler10statements5testss_21test_generic_function
FN:2746,_RNvNtNtNtNtCskTACvQmcrtm_5ruchy7backend10transpiler10statements5testss_21test_match_expression
FN:2759,_RNvNtNtNtNtCskTACvQmcrtm_5ruchy7backend10transpiler10statements5testss_22test_lambda_expression
FN:2844,_RNvNtNtNtNtCskTACvQmcrtm_5ruchy7backend10transpiler10statements5testss_23test_nested_expressions
FN:2675,_RNvNtNtNtNtCskTACvQmcrtm_5ruchy7backend10transpiler10statements5testss_23test_transpile_for_loop
FN:2689,_RNvNtNtNtNtCskTACvQmcrtm_5ruchy7backend10transpiler10statements5testss_25test_transpile_while_loop
FN:2889,_RNvNtNtNtNtCskTACvQmcrtm_5ruchy7backend10transpiler10statements5testss_26test_return_type_inference
FN:2647,_RNvNtNtNtNtCskTACvQmcrtm_5ruchy7backend10transpiler10statements5testss_26test_transpile_let_binding
FN:2662,_RNvNtNtNtNtCskTACvQmcrtm_5ruchy7backend10transpiler10statements5testss_26test_transpile_mutable_let
FN:2619,_RNvNtNtNtNtCskTACvQmcrtm_5ruchy7backend10transpiler10statements5testss_27test_transpile_if_with_else
FN:2815,_RNvNtNtNtNtCskTACvQmcrtm_5ruchy7backend10transpiler10statements5testss_28test_dataframe_function_call
FN:2702,_RNvNtNtNtNtCskTACvQmcrtm_5ruchy7backend10transpiler10statements5testss_29test_function_with_parameters
FN:2773,_RNvNtNtNtNtCskTACvQmcrtm_5ruchy7backend10transpiler10statements5testss_30test_reserved_keyword_handling
FN:2633,_RNvNtNtNtNtCskTACvQmcrtm_5ruchy7backend10transpiler10statements5testss_30test_transpile_if_without_else
FN:2800,_RNvNtNtNtNtCskTACvQmcrtm_5ruchy7backend10transpiler10statements5testss_31test_main_function_special_case
FN:2860,_RNvNtNtNtNtCskTACvQmcrtm_5ruchy7backend10transpiler10statements5testss_31test_type_inference_integration
FN:2717,_RNvNtNtNtNtCskTACvQmcrtm_5ruchy7backend10transpiler10statements5testss_32test_function_without_parameters
FN:2731,_RNvNtNtNtNtCskTACvQmcrtm_5ruchy7backend10transpiler10statements5testss_32test_looks_like_numeric_function
FN:2902,_RNvNtNtNtNtCskTACvQmcrtm_5ruchy7backend10transpiler10statements5testss_33test_void_function_no_return_type
FN:2915,_RNvNtNtNtNtCskTACvQmcrtm_5ruchy7backend10transpiler10statements5testss_34test_complex_function_combinations
FN:2829,_RNvNtNtNtNtCskTACvQmcrtm_5ruchy7backend10transpiler10statements5testss_44test_regular_function_call_string_conversion
FN:1918,_RNCNvMNtNtNtCskTACvQmcrtm_5ruchy7backend10transpiler10statementsNtB6_10Transpiler16transpile_export0Ba_
FN:1290,_RNCNvMNtNtNtCskTACvQmcrtm_5ruchy7backend10transpiler10statementsNtB6_10Transpiler23transpile_std_fs_import0Ba_
FN:1917,_RNvMNtNtNtCskTACvQmcrtm_5ruchy7backend10transpiler10statementsNtB4_10Transpiler16transpile_export
FN:2278,_RNvMNtNtNtCskTACvQmcrtm_5ruchy7backend10transpiler10statementsNtB4_10Transpiler21transpile_int_generic
FN:2312,_RNvMNtNtNtCskTACvQmcrtm_5ruchy7backend10transpiler10statementsNtB4_10Transpiler23transpile_float_generic
FN:1282,_RNvMNtNtNtCskTACvQmcrtm_5ruchy7backend10transpiler10statementsNtB4_10Transpiler23transpile_std_fs_import
FN:2246,_RNvMNtNtNtCskTACvQmcrtm_5ruchy7backend10transpiler10statementsNtB4_10Transpiler24transpile_int_conversion
FN:2237,_RNvMNtNtNtCskTACvQmcrtm_5ruchy7backend10transpiler10statementsNtB4_10Transpiler24transpile_str_conversion
FN:2318,_RNvMNtNtNtCskTACvQmcrtm_5ruchy7backend10transpiler10statementsNtB4_10Transpiler25transpile_bool_conversion
FN:2284,_RNvMNtNtNtCskTACvQmcrtm_5ruchy7backend10transpiler10statementsNtB4_10Transpiler26transpile_float_conversion
FN:2226,_RNvMNtNtNtCskTACvQmcrtm_5ruchy7backend10transpiler10statementsNtB4_10Transpiler33try_transpile_type_conversion_old
FN:599,_RNCNvMNtNtNtCskTACvQmcrtm_5ruchy7backend10transpiler10statementsNtB6_10Transpiler16transpile_lambdas_0Ba_
FN:320,_RNCNvMNtNtNtCskTACvQmcrtm_5ruchy7backend10transpiler10statementsNtB6_10Transpiler18is_void_expression0Ba_
FN:331,_RNCNvMNtNtNtCskTACvQmcrtm_5ruchy7backend10transpiler10statementsNtB6_10Transpiler18is_void_expressions0_0Ba_
FN:326,_RNCNvMNtNtNtCskTACvQmcrtm_5ruchy7backend10transpiler10statementsNtB6_10Transpiler18is_void_expressions_0Ba_
FN:555,_RNCNvMNtNtNtCskTACvQmcrtm_5ruchy7backend10transpiler10statementsNtB6_10Transpiler18transpile_function0Ba_
FN:51,_RNCNvMNtNtNtCskTACvQmcrtm_5ruchy7backend10transpiler10statementsNtB6_10Transpiler19is_variable_mutated0Ba_
FN:71,_RNCNvMNtNtNtCskTACvQmcrtm_5ruchy7backend10transpiler10statementsNtB6_10Transpiler19is_variable_mutateds0_0Ba_
FN:97,_RNCNvMNtNtNtCskTACvQmcrtm_5ruchy7backend10transpiler10statementsNtB6_10Transpiler19is_variable_mutateds1_0Ba_
FN:101,_RNCNvMNtNtNtCskTACvQmcrtm_5ruchy7backend10transpiler10statementsNtB6_10Transpiler19is_variable_mutateds2_0Ba_
FN:57,_RNCNvMNtNtNtCskTACvQmcrtm_5ruchy7backend10transpiler10statementsNtB6_10Transpiler19is_variable_mutateds_0Ba_
FN:1391,_RNCNvMNtNtNtCskTACvQmcrtm_5ruchy7backend10transpiler10statementsNtB6_10Transpiler33transpile_std_fs_import_with_path0Ba_
FN:109,_RNvMNtNtNtCskTACvQmcrtm_5ruchy7backend10transpiler10statementsNtB4_10Transpiler12transpile_if
FN:2084,_RNvMNtNtNtCskTACvQmcrtm_5ruchy7backend10transpiler10statementsNtB4_10Transpiler13transpile_abs
FN:1078,_RNvMNtNtNtCskTACvQmcrtm_5ruchy7backend10transpiler10statementsNtB4_10Transpiler13transpile_for
FN:137,_RNvMNtNtNtCskTACvQmcrtm_5ruchy7backend10transpiler10statementsNtB4_10Transpiler13transpile_let
FN:2109,_RNvMNtNtNtCskTACvQmcrtm_5ruchy7backend10transpiler10statementsNtB4_10Transpiler13transpile_max
FN:2096,_RNvMNtNtNtCskTACvQmcrtm_5ruchy7backend10transpiler10statementsNtB4_10Transpiler13transpile_min
FN:2078,_RNvMNtNtNtCskTACvQmcrtm_5ruchy7backend10transpiler10statementsNtB4_10Transpiler13transpile_pow
FN:1846,_RNvMNtNtNtCskTACvQmcrtm_5ruchy7backend10transpiler10statementsNtB4_10Transpiler14path_to_tokens
FN:639,_RNvMNtNtNtCskTACvQmcrtm_5ruchy7backend10transpiler10statementsNtB4_10Transpiler14transpile_call
FN:2127,_RNvMNtNtNtCskTACvQmcrtm_5ruchy7backend10transpiler10statementsNtB4_10Transpiler14transpile_ceil
FN:1161,_RNvMNtNtNtCskTACvQmcrtm_5ruchy7backend10transpiler10statementsNtB4_10Transpiler14transpile_loop
FN:2073,_RNvMNtNtNtCskTACvQmcrtm_5ruchy7backend10transpiler10statementsNtB4_10Transpiler14transpile_sqrt
FN:1013,_RNvMNtNtNtCskTACvQmcrtm_5ruchy7backend10transpiler10statementsNtB4_10Transpiler15transpile_block
FN:2122,_RNvMNtNtNtCskTACvQmcrtm_5ruchy7backend10transpiler10statementsNtB4_10Transpiler15transpile_floor
FN:2132,_RNvMNtNtNtCskTACvQmcrtm_5ruchy7backend10transpiler10statementsNtB4_10Transpiler15transpile_round
FN:1102,_RNvMNtNtNtCskTACvQmcrtm_5ruchy7backend10transpiler10statementsNtB4_10Transpiler15transpile_while
FN:351,_RNvMNtNtNtCskTACvQmcrtm_5ruchy7backend10transpiler10statementsNtB4_10Transpiler16infer_param_type
FN:1114,_RNvMNtNtNtCskTACvQmcrtm_5ruchy7backend10transpiler10statementsNtB4_10Transpiler16transpile_if_let
FN:1273,_RNvMNtNtNtCskTACvQmcrtm_5ruchy7backend10transpiler10statementsNtB4_10Transpiler16transpile_import
FN:579,_RNvMNtNtNtCskTACvQmcrtm_5ruchy7backend10transpiler10statementsNtB4_10Transpiler16transpile_lambda
FN:1260,_RNvMNtNtNtCskTACvQmcrtm_5ruchy7backend10transpiler10statementsNtB4_10Transpiler16transpile_module
FN:297,_RNvMNtNtNtCskTACvQmcrtm_5ruchy7backend10transpiler10statementsNtB4_10Transpiler18is_void_expression
FN:539,_RNvMNtNtNtCskTACvQmcrtm_5ruchy7backend10transpiler10statementsNtB4_10Transpiler18transpile_function
FN:1040,_RNvMNtNtNtCskTACvQmcrtm_5ruchy7backend10transpiler10statementsNtB4_10Transpiler18transpile_pipeline
FN:15,_RNvMNtNtNtCskTACvQmcrtm_5ruchy7backend10transpiler10statementsNtB4_10Transpiler19is_variable_mutated
FN:1172,_RNvMNtNtNtCskTACvQmcrtm_5ruchy7backend10transpiler10statementsNtB4_10Transpiler19transpile_try_catch
FN:1144,_RNvMNtNtNtCskTACvQmcrtm_5ruchy7backend10transpiler10statementsNtB4_10Transpiler19transpile_while_let
FN:408,_RNvMNtNtNtCskTACvQmcrtm_5ruchy7backend10transpiler10statementsNtB4_10Transpiler20generate_body_tokens
FN:1899,_RNvMNtNtNtCskTACvQmcrtm_5ruchy7backend10transpiler10statementsNtB4_10Transpiler20process_import_items
FN:2579,_RNvMNtNtNtCskTACvQmcrtm_5ruchy7backend10transpiler10statementsNtB4_10Transpiler21apply_string_coercion
FN:366,_RNvMNtNtNtCskTACvQmcrtm_5ruchy7backend10transpiler10statementsNtB4_10Transpiler21generate_param_tokens
FN:1832,_RNvMNtNtNtCskTACvQmcrtm_5ruchy7backend10transpiler10statementsNtB4_10Transpiler21handle_generic_import
FN:274,_RNvMNtNtNtCskTACvQmcrtm_5ruchy7backend10transpiler10statementsNtB4_10Transpiler21is_void_function_call
FN:238,_RNvMNtNtNtCskTACvQmcrtm_5ruchy7backend10transpiler10statementsNtB4_10Transpiler21transpile_let_pattern
FN:734,_RNvMNtNtNtCskTACvQmcrtm_5ruchy7backend10transpiler10statementsNtB4_10Transpiler21transpile_method_call
FN:343,_RNvMNtNtNtCskTACvQmcrtm_5ruchy7backend10transpiler10statementsNtB4_10Transpiler23has_non_unit_expression
FN:1783,_RNvMNtNtNtCskTACvQmcrtm_5ruchy7backend10transpiler10statementsNtB4_10Transpiler23transpile_import_inline
FN:1794,_RNvMNtNtNtCskTACvQmcrtm_5ruchy7backend10transpiler10statementsNtB4_10Transpiler24handle_std_module_import
FN:888,_RNvMNtNtNtCskTACvQmcrtm_5ruchy7backend10transpiler10statementsNtB4_10Transpiler24transpile_set_operations
FN:1561,_RNvMNtNtNtCskTACvQmcrtm_5ruchy7backend10transpiler10statementsNtB4_10Transpiler24transpile_std_mem_import
FN:1511,_RNvMNtNtNtCskTACvQmcrtm_5ruchy7backend10transpiler10statementsNtB4_10Transpiler24transpile_std_net_import
FN:903,_RNvMNtNtNtCskTACvQmcrtm_5ruchy7backend10transpiler10statementsNtB4_10Transpiler24transpile_string_methods
FN:1864,_RNvMNtNtNtCskTACvQmcrtm_5ruchy7backend10transpiler10statementsNtB4_10Transpiler25handle_single_import_item
FN:862,_RNvMNtNtNtCskTACvQmcrtm_5ruchy7backend10transpiler10statementsNtB4_10Transpiler25transpile_map_set_methods
FN:763,_RNvMNtNtNtCskTACvQmcrtm_5ruchy7backend10transpiler10statementsNtB4_10Transpiler25transpile_method_call_old
FN:1631,_RNvMNtNtNtCskTACvQmcrtm_5ruchy7backend10transpiler10statementsNtB4_10Transpiler25transpile_std_simd_import
FN:1943,_RNvMNtNtNtCskTACvQmcrtm_5ruchy7backend10transpiler10statementsNtB4_10Transpiler25try_transpile_print_macro
FN:2188,_RNvMNtNtNtCskTACvQmcrtm_5ruchy7backend10transpiler10statementsNtB4_10Transpiler26generate_input_with_prompt
FN:460,_RNvMNtNtNtCskTACvQmcrtm_5ruchy7backend10transpiler10statementsNtB4_10Transpiler26generate_type_param_tokens
FN:843,_RNvMNtNtNtCskTACvQmcrtm_5ruchy7backend10transpiler10statementsNtB4_10Transpiler26transpile_iterator_methods
FN:1715,_RNvMNtNtNtCskTACvQmcrtm_5ruchy7backend10transpiler10statementsNtB4_10Transpiler26transpile_std_bench_import
FN:1683,_RNvMNtNtNtCskTACvQmcrtm_5ruchy7backend10transpiler10statementsNtB4_10Transpiler26transpile_std_cache_import
FN:477,_RNvMNtNtNtCskTACvQmcrtm_5ruchy7backend10transpiler10statementsNtB4_10Transpiler27generate_function_signature
FN:1349,_RNvMNtNtNtCskTACvQmcrtm_5ruchy7backend10transpiler10statementsNtB4_10Transpiler27generate_read_file_function
FN:387,_RNvMNtNtNtCskTACvQmcrtm_5ruchy7backend10transpiler10statementsNtB4_10Transpiler27generate_return_type_tokens
FN:263,_RNvMNtNtNtCskTACvQmcrtm_5ruchy7backend10transpiler10statementsNtB4_10Transpiler27looks_like_numeric_function
FN:1484,_RNvMNtNtNtCskTACvQmcrtm_5ruchy7backend10transpiler10statementsNtB4_10Transpiler27transpile_std_signal_import
FN:1460,_RNvMNtNtNtCskTACvQmcrtm_5ruchy7backend10transpiler10statementsNtB4_10Transpiler27transpile_std_system_import
FN:2059,_RNvMNtNtNtCskTACvQmcrtm_5ruchy7backend10transpiler10statementsNtB4_10Transpiler27try_transpile_math_function
FN:1367,_RNvMNtNtNtCskTACvQmcrtm_5ruchy7backend10transpiler10statementsNtB4_10Transpiler28generate_all_file_operations
FN:1358,_RNvMNtNtNtCskTACvQmcrtm_5ruchy7backend10transpiler10statementsNtB4_10Transpiler28generate_write_file_function
FN:1890,_RNvMNtNtNtCskTACvQmcrtm_5ruchy7backend10transpiler10statementsNtB4_10Transpiler28handle_multiple_import_items
FN:1228,_RNvMNtNtNtCskTACvQmcrtm_5ruchy7backend10transpiler10statementsNtB4_10Transpiler28transpile_list_comprehension
FN:1437,_RNvMNtNtNtCskTACvQmcrtm_5ruchy7backend10transpiler10statementsNtB4_10Transpiler28transpile_std_process_import
FN:1752,_RNvMNtNtNtCskTACvQmcrtm_5ruchy7backend10transpiler10statementsNtB4_10Transpiler28transpile_std_profile_import
FN:2150,_RNvMNtNtNtCskTACvQmcrtm_5ruchy7backend10transpiler10statementsNtB4_10Transpiler28try_transpile_input_function
FN:2362,_RNvMNtNtNtCskTACvQmcrtm_5ruchy7backend10transpiler10statementsNtB4_10Transpiler28try_transpile_math_functions
FN:2171,_RNvMNtNtNtCskTACvQmcrtm_5ruchy7backend10transpiler10statementsNtB4_10Transpiler29generate_input_without_prompt
FN:1979,_RNvMNtNtNtCskTACvQmcrtm_5ruchy7backend10transpiler10statementsNtB4_10Transpiler29transpile_print_multiple_args
FN:1598,_RNvMNtNtNtCskTACvQmcrtm_5ruchy7backend10transpiler10statementsNtB4_10Transpiler29transpile_std_parallel_import
FN:2423,_RNvMNtNtNtCskTACvQmcrtm_5ruchy7backend10transpiler10statementsNtB4_10Transpiler29try_transpile_assert_function
FN:2218,_RNvMNtNtNtCskTACvQmcrtm_5ruchy7backend10transpiler10statementsNtB4_10Transpiler29try_transpile_type_conversion
FN:2549,_RNvMNtNtNtCskTACvQmcrtm_5ruchy7backend10transpiler10statementsNtB4_10Transpiler31transpile_regular_function_call
FN:2506,_RNvMNtNtNtCskTACvQmcrtm_5ruchy7backend10transpiler10statementsNtB4_10Transpiler32try_transpile_dataframe_function
FN:1378,_RNvMNtNtNtCskTACvQmcrtm_5ruchy7backend10transpiler10statementsNtB4_10Transpiler33transpile_std_fs_import_with_path
FN:690,_RNvMNtNtNtCskTACvQmcrtm_5ruchy7backend10transpiler10statementsNtB4_10Transpiler34transpile_print_with_interpolation
FN:2485,_RNvMNtNtNtCskTACvQmcrtm_5ruchy7backend10transpiler10statementsNtB4_10Transpiler36try_transpile_collection_constructor
FN:962,_RNvMNtNtNtCskTACvQmcrtm_5ruchy7backend10transpiler10statementsNtB4_10Transpiler37transpile_advanced_collection_methods
FNDA:0,_RNCNCNCNvMNtNtNtCskTACvQmcrtm_5ruchy7backend10transpiler10statementsNtBa_10Transpiler27generate_function_signature000Be_
FNDA:0,_RNCNCNvMNtNtNtCskTACvQmcrtm_5ruchy7backend10transpiler10statementsNtB8_10Transpiler26generate_type_param_tokens00Bc_
FNDA:0,_RNCNCNvMNtNtNtCskTACvQmcrtm_5ruchy7backend10transpiler10statementsNtB8_10Transpiler27generate_function_signature00Bc_
FNDA:13,_RNCNvMNtNtNtCskTACvQmcrtm_5ruchy7backend10transpiler10statementsNtB6_10Transpiler16transpile_lambda0Ba_
FNDA:0,_RNCNvMNtNtNtCskTACvQmcrtm_5ruchy7backend10transpiler10statementsNtB6_10Transpiler18transpile_pipeline0Ba_
FNDA:0,_RNCNvMNtNtNtCskTACvQmcrtm_5ruchy7backend10transpiler10statementsNtB6_10Transpiler18transpile_pipelines_0Ba_
FNDA:0,_RNCNvMNtNtNtCskTACvQmcrtm_5ruchy7backend10transpiler10statementsNtB6_10Transpiler20process_import_items0Ba_
FNDA:19,_RNCNvMNtNtNtCskTACvQmcrtm_5ruchy7backend10transpiler10statementsNtB6_10Transpiler21generate_param_tokens0Ba_
FNDA:7,_RNCNvMNtNtNtCskTACvQmcrtm_5ruchy7backend10transpiler10statementsNtB6_10Transpiler25transpile_method_call_old0Ba_
FNDA:3,_RNCNvMNtNtNtCskTACvQmcrtm_5ruchy7backend10transpiler10statementsNtB6_10Transpiler25try_transpile_print_macro0Ba_
FNDA:3,_RNCNvMNtNtNtCskTACvQmcrtm_5ruchy7backend10transpiler10statementsNtB6_10Transpiler26generate_type_param_tokens0Ba_
FNDA:0,_RNCNvMNtNtNtCskTACvQmcrtm_5ruchy7backend10transpiler10statementsNtB6_10Transpiler27generate_function_signature0Ba_
FNDA:0,_RNCNvMNtNtNtCskTACvQmcrtm_5ruchy7backend10transpiler10statementsNtB6_10Transpiler29transpile_print_multiple_args0Ba_
FNDA:0,_RNCNvMNtNtNtCskTACvQmcrtm_5ruchy7backend10transpiler10statementsNtB6_10Transpiler29transpile_print_multiple_argss0_0Ba_
FNDA:0,_RNCNvMNtNtNtCskTACvQmcrtm_5ruchy7backend10transpiler10statementsNtB6_10Transpiler29transpile_print_multiple_argss_0Ba_
FNDA:5,_RNCNvMNtNtNtCskTACvQmcrtm_5ruchy7backend10transpiler10statementsNtB6_10Transpiler31transpile_regular_function_call0Ba_
FNDA:13,_RNCNvMNtNtNtCskTACvQmcrtm_5ruchy7backend10transpiler10statementsNtB6_10Transpiler31transpile_regular_function_calls_0Ba_
FNDA:21,_RNvNtNtNtNtCskTACvQmcrtm_5ruchy7backend10transpiler10statements5tests17create_transpiler
FNDA:1,_RNvNtNtNtNtCskTACvQmcrtm_5ruchy7backend10transpiler10statements5testss_21test_generic_function
FNDA:1,_RNvNtNtNtNtCskTACvQmcrtm_5ruchy7backend10transpiler10statements5testss_21test_match_expression
FNDA:1,_RNvNtNtNtNtCskTACvQmcrtm_5ruchy7backend10transpiler10statements5testss_22test_lambda_expression
FNDA:1,_RNvNtNtNtNtCskTACvQmcrtm_5ruchy7backend10transpiler10statements5testss_23test_nested_expressions
FNDA:1,_RNvNtNtNtNtCskTACvQmcrtm_5ruchy7backend10transpiler10statements5testss_23test_transpile_for_loop
FNDA:1,_RNvNtNtNtNtCskTACvQmcrtm_5ruchy7backend10transpiler10statements5testss_25test_transpile_while_loop
FNDA:1,_RNvNtNtNtNtCskTACvQmcrtm_5ruchy7backend10transpiler10statements5testss_26test_return_type_inference
FNDA:1,_RNvNtNtNtNtCskTACvQmcrtm_5ruchy7backend10transpiler10statements5testss_26test_transpile_let_binding
FNDA:1,_RNvNtNtNtNtCskTACvQmcrtm_5ruchy7backend10transpiler10statements5testss_26test_transpile_mutable_let
FNDA:1,_RNvNtNtNtNtCskTACvQmcrtm_5ruchy7backend10transpiler10statements5testss_27test_transpile_if_with_else
FNDA:1,_RNvNtNtNtNtCskTACvQmcrtm_5ruchy7backend10transpiler10statements5testss_28test_dataframe_function_call
FNDA:1,_RNvNtNtNtNtCskTACvQmcrtm_5ruchy7backend10transpiler10statements5testss_29test_function_with_parameters
FNDA:1,_RNvNtNtNtNtCskTACvQmcrtm_5ruchy7backend10transpiler10statements5testss_30test_reserved_keyword_handling
FNDA:1,_RNvNtNtNtNtCskTACvQmcrtm_5ruchy7backend10transpiler10statements5testss_30test_transpile_if_without_else
FNDA:1,_RNvNtNtNtNtCskTACvQmcrtm_5ruchy7backend10transpiler10statements5testss_31test_main_function_special_case
FNDA:1,_RNvNtNtNtNtCskTACvQmcrtm_5ruchy7backend10transpiler10statements5testss_31test_type_inference_integration
FNDA:1,_RNvNtNtNtNtCskTACvQmcrtm_5ruchy7backend10transpiler10statements5testss_32test_function_without_parameters
FNDA:1,_RNvNtNtNtNtCskTACvQmcrtm_5ruchy7backend10transpiler10statements5testss_32test_looks_like_numeric_function
FNDA:1,_RNvNtNtNtNtCskTACvQmcrtm_5ruchy7backend10transpiler10statements5testss_33test_void_function_no_return_type
FNDA:1,_RNvNtNtNtNtCskTACvQmcrtm_5ruchy7backend10transpiler10statements5testss_34test_complex_function_combinations
FNDA:1,_RNvNtNtNtNtCskTACvQmcrtm_5ruchy7backend10transpiler10statements5testss_44test_regular_function_call_string_conversion
FNDA:0,_RNCNvMNtNtNtCskTACvQmcrtm_5ruchy7backend10transpiler10statementsNtB6_10Transpiler16transpile_export0Ba_
FNDA:0,_RNCNvMNtNtNtCskTACvQmcrtm_5ruchy7backend10transpiler10statementsNtB6_10Transpiler23transpile_std_fs_import0Ba_
FNDA:0,_RNvMNtNtNtCskTACvQmcrtm_5ruchy7backend10transpiler10statementsNtB4_10Transpiler16transpile_export
FNDA:0,_RNvMNtNtNtCskTACvQmcrtm_5ruchy7backend10transpiler10statementsNtB4_10Transpiler21transpile_int_generic
FNDA:0,_RNvMNtNtNtCskTACvQmcrtm_5ruchy7backend10transpiler10statementsNtB4_10Transpiler23transpile_float_generic
FNDA:0,_RNvMNtNtNtCskTACvQmcrtm_5ruchy7backend10transpiler10statementsNtB4_10Transpiler23transpile_std_fs_import
FNDA:0,_RNvMNtNtNtCskTACvQmcrtm_5ruchy7backend10transpiler10statementsNtB4_10Transpiler24transpile_int_conversion
FNDA:0,_RNvMNtNtNtCskTACvQmcrtm_5ruchy7backend10transpiler10statementsNtB4_10Transpiler24transpile_str_conversion
FNDA:0,_RNvMNtNtNtCskTACvQmcrtm_5ruchy7backend10transpiler10statementsNtB4_10Transpiler25transpile_bool_conversion
FNDA:0,_RNvMNtNtNtCskTACvQmcrtm_5ruchy7backend10transpiler10statementsNtB4_10Transpiler26transpile_float_conversion
FNDA:0,_RNvMNtNtNtCskTACvQmcrtm_5ruchy7backend10transpiler10statementsNtB4_10Transpiler33try_transpile_type_conversion_old
FNDA:0,_RNCNvMNtNtNtCskTACvQmcrtm_5ruchy7backend10transpiler10statementsNtB6_10Transpiler16transpile_lambdas_0Ba_
FNDA:7,_RNCNvMNtNtNtCskTACvQmcrtm_5ruchy7backend10transpiler10statementsNtB6_10Transpiler18is_void_expression0Ba_
FNDA:0,_RNCNvMNtNtNtCskTACvQmcrtm_5ruchy7backend10transpiler10statementsNtB6_10Transpiler18is_void_expressions0_0Ba_
FNDA:0,_RNCNvMNtNtNtCskTACvQmcrtm_5ruchy7backend10transpiler10statementsNtB6_10Transpiler18is_void_expressions_0Ba_
FNDA:0,_RNCNvMNtNtNtCskTACvQmcrtm_5ruchy7backend10transpiler10statementsNtB6_10Transpiler18transpile_function0Ba_
FNDA:3,_RNCNvMNtNtNtCskTACvQmcrtm_5ruchy7backend10transpiler10statementsNtB6_10Transpiler19is_variable_mutated0Ba_
FNDA:0,_RNCNvMNtNtNtCskTACvQmcrtm_5ruchy7backend10transpiler10statementsNtB6_10Transpiler19is_variable_mutateds0_0Ba_
FNDA:2,_RNCNvMNtNtNtCskTACvQmcrtm_5ruchy7backend10transpiler10statementsNtB6_10Transpiler19is_variable_mutateds1_0Ba_
FNDA:0,_RNCNvMNtNtNtCskTACvQmcrtm_5ruchy7backend10transpiler10statementsNtB6_10Transpiler19is_variable_mutateds2_0Ba_
FNDA:0,_RNCNvMNtNtNtCskTACvQmcrtm_5ruchy7backend10transpiler10statementsNtB6_10Transpiler19is_variable_mutateds_0Ba_
FNDA:0,_RNCNvMNtNtNtCskTACvQmcrtm_5ruchy7backend10transpiler10statementsNtB6_10Transpiler33transpile_std_fs_import_with_path0Ba_
FNDA:29,_RNvMNtNtNtCskTACvQmcrtm_5ruchy7backend10transpiler10statementsNtB4_10Transpiler12transpile_if
FNDA:0,_RNvMNtNtNtCskTACvQmcrtm_5ruchy7backend10transpiler10statementsNtB4_10Transpiler13transpile_abs
FNDA:2,_RNvMNtNtNtCskTACvQmcrtm_5ruchy7backend10transpiler10statementsNtB4_10Transpiler13transpile_for
FNDA:15,_RNvMNtNtNtCskTACvQmcrtm_5ruchy7backend10transpiler10statementsNtB4_10Transpiler13transpile_let
FNDA:0,_RNvMNtNtNtCskTACvQmcrtm_5ruchy7backend10transpiler10statementsNtB4_10Transpiler13transpile_max
FNDA:0,_RNvMNtNtNtCskTACvQmcrtm_5ruchy7backend10transpiler10statementsNtB4_10Transpiler13transpile_min
FNDA:0,_RNvMNtNtNtCskTACvQmcrtm_5ruchy7backend10transpiler10statementsNtB4_10Transpiler13transpile_pow
FNDA:1,_RNvMNtNtNtCskTACvQmcrtm_5ruchy7backend10transpiler10statementsNtB4_10Transpiler14path_to_tokens
FNDA:35,_RNvMNtNtNtCskTACvQmcrtm_5ruchy7backend10transpiler10statementsNtB4_10Transpiler14transpile_call
FNDA:0,_RNvMNtNtNtCskTACvQmcrtm_5ruchy7backend10transpiler10statementsNtB4_10Transpiler14transpile_ceil
FNDA:0,_RNvMNtNtNtCskTACvQmcrtm_5ruchy7backend10transpiler10statementsNtB4_10Transpiler14transpile_loop
FNDA:0,_RNvMNtNtNtCskTACvQmcrtm_5ruchy7backend10transpiler10statementsNtB4_10Transpiler14transpile_sqrt
FNDA:25,_RNvMNtNtNtCskTACvQmcrtm_5ruchy7backend10transpiler10statementsNtB4_10Transpiler15transpile_block
FNDA:0,_RNvMNtNtNtCskTACvQmcrtm_5ruchy7backend10transpiler10statementsNtB4_10Transpiler15transpile_floor
FNDA:0,_RNvMNtNtNtCskTACvQmcrtm_5ruchy7backend10transpiler10statementsNtB4_10Transpiler15transpile_round
FNDA:2,_RNvMNtNtNtCskTACvQmcrtm_5ruchy7backend10transpiler10statementsNtB4_10Transpiler15transpile_while
FNDA:14,_RNvMNtNtNtCskTACvQmcrtm_5ruchy7backend10transpiler10statementsNtB4_10Transpiler16infer_param_type
FNDA:0,_RNvMNtNtNtCskTACvQmcrtm_5ruchy7backend10transpiler10statementsNtB4_10Transpiler16transpile_if_let
FNDA:1,_RNvMNtNtNtCskTACvQmcrtm_5ruchy7backend10transpiler10statementsNtB4_10Transpiler16transpile_import
FNDA:11,_RNvMNtNtNtCskTACvQmcrtm_5ruchy7backend10transpiler10statementsNtB4_10Transpiler16transpile_lambda
FNDA:0,_RNvMNtNtNtCskTACvQmcrtm_5ruchy7backend10transpiler10statementsNtB4_10Transpiler16transpile_module
FNDA:16,_RNvMNtNtNtCskTACvQmcrtm_5ruchy7backend10transpiler10statementsNtB4_10Transpiler18is_void_expression
FNDA:18,_RNvMNtNtNtCskTACvQmcrtm_5ruchy7backend10transpiler10statementsNtB4_10Transpiler18transpile_function
FNDA:1,_RNvMNtNtNtCskTACvQmcrtm_5ruchy7backend10transpiler10statementsNtB4_10Transpiler18transpile_pipeline
FNDA:45,_RNvMNtNtNtCskTACvQmcrtm_5ruchy7backend10transpiler10statementsNtB4_10Transpiler19is_variable_mutated
FNDA:0,_RNvMNtNtNtCskTACvQmcrtm_5ruchy7backend10transpiler10statementsNtB4_10Transpiler19transpile_try_catch
FNDA:0,_RNvMNtNtNtCskTACvQmcrtm_5ruchy7backend10transpiler10statementsNtB4_10Transpiler19transpile_while_let
FNDA:18,_RNvMNtNtNtCskTACvQmcrtm_5ruchy7backend10transpiler10statementsNtB4_10Transpiler20generate_body_tokens
FNDA:0,_RNvMNtNtNtCskTACvQmcrtm_5ruchy7backend10transpiler10statementsNtB4_10Transpiler20process_import_items
FNDA:5,_RNvMNtNtNtCskTACvQmcrtm_5ruchy7backend10transpiler10statementsNtB4_10Transpiler21apply_string_coercion
FNDA:18,_RNvMNtNtNtCskTACvQmcrtm_5ruchy7backend10transpiler10statementsNtB4_10Transpiler21generate_param_tokens
FNDA:1,_RNvMNtNtNtCskTACvQmcrtm_5ruchy7backend10transpiler10statementsNtB4_10Transpiler21handle_generic_import
FNDA:2,_RNvMNtNtNtCskTACvQmcrtm_5ruchy7backend10transpiler10statementsNtB4_10Transpiler21is_void_function_call
FNDA:0,_RNvMNtNtNtCskTACvQmcrtm_5ruchy7backend10transpiler10statementsNtB4_10Transpiler21transpile_let_pattern
FNDA:20,_RNvMNtNtNtCskTACvQmcrtm_5ruchy7backend10transpiler10statementsNtB4_10Transpiler21transpile_method_call
FNDA:7,_RNvMNtNtNtCskTACvQmcrtm_5ruchy7backend10transpiler10statementsNtB4_10Transpiler23has_non_unit_expression
FNDA:1,_RNvMNtNtNtCskTACvQmcrtm_5ruchy7backend10transpiler10statementsNtB4_10Transpiler23transpile_import_inline
FNDA:1,_RNvMNtNtNtCskTACvQmcrtm_5ruchy7backend10transpiler10statementsNtB4_10Transpiler24handle_std_module_import
FNDA:0,_RNvMNtNtNtCskTACvQmcrtm_5ruchy7backend10transpiler10statementsNtB4_10Transpiler24transpile_set_operations
FNDA:0,_RNvMNtNtNtCskTACvQmcrtm_5ruchy7backend10transpiler10statementsNtB4_10Transpiler24transpile_std_mem_import
FNDA:0,_RNvMNtNtNtCskTACvQmcrtm_5ruchy7backend10transpiler10statementsNtB4_10Transpiler24transpile_std_net_import
FNDA:4,_RNvMNtNtNtCskTACvQmcrtm_5ruchy7backend10transpiler10statementsNtB4_10Transpiler24transpile_string_methods
FNDA:0,_RNvMNtNtNtCskTACvQmcrtm_5ruchy7backend10transpiler10statementsNtB4_10Transpiler25handle_single_import_item
FNDA:4,_RNvMNtNtNtCskTACvQmcrtm_5ruchy7backend10transpiler10statementsNtB4_10Transpiler25transpile_map_set_methods
FNDA:20,_RNvMNtNtNtCskTACvQmcrtm_5ruchy7backend10transpiler10statementsNtB4_10Transpiler25transpile_method_call_old
FNDA:0,_RNvMNtNtNtCskTACvQmcrtm_5ruchy7backend10transpiler10statementsNtB4_10Transpiler25transpile_std_simd_import
FNDA:35,_RNvMNtNtNtCskTACvQmcrtm_5ruchy7backend10transpiler10statementsNtB4_10Transpiler25try_transpile_print_macro
FNDA:0,_RNvMNtNtNtCskTACvQmcrtm_5ruchy7backend10transpiler10statementsNtB4_10Transpiler26generate_input_with_prompt
FNDA:18,_RNvMNtNtNtCskTACvQmcrtm_5ruchy7backend10transpiler10statementsNtB4_10Transpiler26generate_type_param_tokens
FNDA:3,_RNvMNtNtNtCskTACvQmcrtm_5ruchy7backend10transpiler10statementsNtB4_10Transpiler26transpile_iterator_methods
FNDA:0,_RNvMNtNtNtCskTACvQmcrtm_5ruchy7backend10transpiler10statementsNtB4_10Transpiler26transpile_std_bench_import
FNDA:0,_RNvMNtNtNtCskTACvQmcrtm_5ruchy7backend10transpiler10statementsNtB4_10Transpiler26transpile_std_cache_import
FNDA:18,_RNvMNtNtNtCskTACvQmcrtm_5ruchy7backend10transpiler10statementsNtB4_10Transpiler27generate_function_signature
FNDA:0,_RNvMNtNtNtCskTACvQmcrtm_5ruchy7backend10transpiler10statementsNtB4_10Transpiler27generate_read_file_function
FNDA:18,_RNvMNtNtNtCskTACvQmcrtm_5ruchy7backend10transpiler10statementsNtB4_10Transpiler27generate_return_type_tokens
FNDA:23,_RNvMNtNtNtCskTACvQmcrtm_5ruchy7backend10transpiler10statementsNtB4_10Transpiler27looks_like_numeric_function
FNDA:0,_RNvMNtNtNtCskTACvQmcrtm_5ruchy7backend10transpiler10statementsNtB4_10Transpiler27transpile_std_signal_import
FNDA:0,_RNvMNtNtNtCskTACvQmcrtm_5ruchy7backend10transpiler10statementsNtB4_10Transpiler27transpile_std_system_import
FNDA:31,_RNvMNtNtNtCskTACvQmcrtm_5ruchy7backend10transpiler10statementsNtB4_10Transpiler27try_transpile_math_function
FNDA:0,_RNvMNtNtNtCskTACvQmcrtm_5ruchy7backend10transpiler10statementsNtB4_10Transpiler28generate_all_file_operations
FNDA:0,_RNvMNtNtNtCskTACvQmcrtm_5ruchy7backend10transpiler10statementsNtB4_10Transpiler28generate_write_file_function
FNDA:0,_RNvMNtNtNtCskTACvQmcrtm_5ruchy7backend10transpiler10statementsNtB4_10Transpiler28handle_multiple_import_items
FNDA:3,_RNvMNtNtNtCskTACvQmcrtm_5ruchy7backend10transpiler10statementsNtB4_10Transpiler28transpile_list_comprehension
FNDA:0,_RNvMNtNtNtCskTACvQmcrtm_5ruchy7backend10transpiler10statementsNtB4_10Transpiler28transpile_std_process_import
FNDA:0,_RNvMNtNtNtCskTACvQmcrtm_5ruchy7backend10transpiler10statementsNtB4_10Transpiler28transpile_std_profile_import
FNDA:31,_RNvMNtNtNtCskTACvQmcrtm_5ruchy7backend10transpiler10statementsNtB4_10Transpiler28try_transpile_input_function
FNDA:17,_RNvMNtNtNtCskTACvQmcrtm_5ruchy7backend10transpiler10statementsNtB4_10Transpiler28try_transpile_math_functions
FNDA:0,_RNvMNtNtNtCskTACvQmcrtm_5ruchy7backend10transpiler10statementsNtB4_10Transpiler29generate_input_without_prompt
FNDA:0,_RNvMNtNtNtCskTACvQmcrtm_5ruchy7backend10transpiler10statementsNtB4_10Transpiler29transpile_print_multiple_args
FNDA:0,_RNvMNtNtNtCskTACvQmcrtm_5ruchy7backend10transpiler10statementsNtB4_10Transpiler29transpile_std_parallel_import
FNDA:31,_RNvMNtNtNtCskTACvQmcrtm_5ruchy7backend10transpiler10statementsNtB4_10Transpiler29try_transpile_assert_function
FNDA:31,_RNvMNtNtNtCskTACvQmcrtm_5ruchy7backend10transpiler10statementsNtB4_10Transpiler29try_transpile_type_conversion
FNDA:16,_RNvMNtNtNtCskTACvQmcrtm_5ruchy7backend10transpiler10statementsNtB4_10Transpiler31transpile_regular_function_call
FNDA:17,_RNvMNtNtNtCskTACvQmcrtm_5ruchy7backend10transpiler10statementsNtB4_10Transpiler32try_transpile_dataframe_function
FNDA:0,_RNvMNtNtNtCskTACvQmcrtm_5ruchy7backend10transpiler10statementsNtB4_10Transpiler33transpile_std_fs_import_with_path
FNDA:0,_RNvMNtNtNtCskTACvQmcrtm_5ruchy7backend10transpiler10statementsNtB4_10Transpiler34transpile_print_with_interpolation
FNDA:17,_RNvMNtNtNtCskTACvQmcrtm_5ruchy7backend10transpiler10statementsNtB4_10Transpiler36try_transpile_collection_constructor
FNDA:0,_RNvMNtNtNtCskTACvQmcrtm_5ruchy7backend10transpiler10statementsNtB4_10Transpiler37transpile_advanced_collection_methods
FNF:139
FNH:73
DA:15,45
DA:18,45
DA:20,0
DA:21,0
DA:22,0
DA:23,0
DA:24,0
DA:25,0
DA:26,0
DA:29,0
DA:30,0
DA:31,0
DA:32,0
DA:33,0
DA:34,0
DA:35,0
DA:38,0
DA:39,0
DA:40,0
DA:41,0
DA:42,0
DA:43,0
DA:44,0
DA:45,0
DA:46,0
DA:47,0
DA:50,1
DA:51,3
DA:54,0
DA:55,0
DA:56,0
DA:57,0
DA:60,0
DA:61,0
DA:62,0
DA:65,0
DA:66,0
DA:69,0
DA:70,0
DA:71,0
DA:74,4
DA:75,4
DA:78,0
DA:79,0
DA:82,0
DA:83,0
DA:86,10
DA:87,10
DA:88,10
DA:91,0
DA:92,0
DA:95,2
DA:96,2
DA:97,2
DA:99,0
DA:100,0
DA:101,0
DA:104,28
DA:106,45
DA:109,29
DA:110,29
DA:111,29
DA:112,29
DA:113,29
DA:114,29
DA:115,29
DA:116,29
DA:118,29
DA:119,17
DA:120,17
DA:121,17
DA:122,17
DA:123,17
DA:124,17
DA:125,17
DA:126,17
DA:128,12
DA:129,12
DA:130,12
DA:131,12
DA:132,12
DA:134,29
DA:137,15
DA:138,15
DA:139,15
DA:140,15
DA:141,15
DA:142,15
DA:143,15
DA:145,15
DA:146,1
DA:148,14
DA:150,15
DA:153,15
DA:154,14
DA:155,14
DA:159,15
DA:160,0
DA:161,0
DA:163,15
DA:167,10
DA:168,5
DA:169,1
DA:171,4
DA:176,10
DA:178,1
DA:181,1
DA:182,0
DA:183,1
DA:184,1
DA:185,1
DA:188,3
DA:189,3
DA:193,3
DA:194,2
DA:195,2
DA:198,3
DA:199,2
DA:200,2
DA:201,2
DA:202,0
DA:203,0
DA:204,0
DA:206,1
DA:207,0
DA:208,1
DA:209,1
DA:210,1
DA:214,1
DA:217,9
DA:218,9
DA:219,0
DA:220,0
DA:221,0
DA:222,0
DA:223,0
DA:224,0
DA:226,9
DA:227,9
DA:228,9
DA:229,9
DA:230,9
DA:231,9
DA:235,15
DA:238,0
DA:239,0
DA:240,0
DA:241,0
DA:242,0
DA:243,0
DA:244,0
DA:245,0
DA:248,0
DA:249,0
DA:252,0
DA:253,0
DA:254,0
DA:255,0
DA:256,0
DA:257,0
DA:258,0
DA:260,0
DA:263,23
DA:264,23
DA:265,23
DA:266,21
DA:267,21
DA:268,17
DA:270,23
DA:274,2
DA:275,2
DA:276,2
DA:277,2
DA:279,2
DA:281,2
DA:283,1
DA:285,1
DA:286,1
DA:289,0
DA:292,0
DA:294,2
DA:297,16
DA:298,2
DA:300,1
DA:303,2
DA:307,0
DA:311,0
DA:314,0
DA:315,0
DA:319,7
DA:320,7
DA:324,1
DA:325,1
DA:326,0
DA:330,0
DA:331,0
DA:335,0
DA:338,6
DA:340,16
DA:343,7
DA:344,7
DA:345,7
DA:351,14
DA:354,14
DA:355,2
DA:356,12
DA:357,5
DA:358,4
DA:359,9
DA:361,3
DA:363,14
DA:366,18
DA:367,18
DA:368,18
DA:369,19
DA:370,19
DA:371,19
DA:372,19
DA:373,19
DA:374,14
DA:376,5
DA:379,0
DA:381,19
DA:382,19
DA:383,18
DA:384,18
DA:387,18
DA:389,18
DA:390,0
DA:391,18
DA:393,18
DA:394,4
DA:395,4
DA:396,14
DA:397,2
DA:398,12
DA:399,5
DA:400,7
DA:401,5
DA:403,2
DA:405,18
DA:408,18
DA:409,18
DA:410,0
DA:411,0
DA:412,0
DA:415,18
DA:416,17
DA:418,17
DA:420,17
DA:423,0
DA:424,0
DA:425,0
DA:429,0
DA:430,0
DA:431,0
DA:432,0
DA:434,0
DA:435,0
DA:436,0
DA:437,0
DA:438,0
DA:439,0
DA:440,0
DA:444,0
DA:445,0
DA:447,0
DA:453,1
DA:457,18
DA:460,18
DA:461,18
DA:462,18
DA:463,18
DA:464,3
DA:466,0
DA:469,3
DA:470,3
DA:472,3
DA:473,18
DA:474,18
DA:477,18
DA:478,18
DA:479,18
DA:480,18
DA:481,18
DA:482,18
DA:483,18
DA:484,18
DA:485,18
DA:486,18
DA:487,18
DA:489,18
DA:490,0
DA:492,18
DA:494,18
DA:497,18
DA:498,18
DA:499,0
DA:500,0
DA:501,0
DA:503,0
DA:504,0
DA:505,0
DA:506,0
DA:508,0
DA:509,18
DA:511,18
DA:512,15
DA:518,0
DA:524,3
DA:530,0
DA:537,18
DA:539,18
DA:540,18
DA:541,18
DA:542,18
DA:543,18
DA:544,18
DA:545,18
DA:546,18
DA:547,18
DA:548,18
DA:549,18
DA:550,18
DA:551,18
DA:552,18
DA:555,18
DA:557,18
DA:558,0
DA:560,18
DA:563,18
DA:564,18
DA:566,18
DA:567,18
DA:568,18
DA:569,18
DA:570,18
DA:571,18
DA:572,18
DA:573,18
DA:574,18
DA:576,18
DA:579,11
DA:580,11
DA:581,11
DA:582,13
DA:583,11
DA:584,11
DA:587,11
DA:588,0
DA:591,11
DA:592,11
DA:593,11
DA:594,11
DA:595,11
DA:596,11
DA:597,11
DA:598,11
DA:599,11
DA:601,11
DA:639,35
DA:640,35
DA:643,35
DA:644,35
DA:645,0
DA:647,35
DA:651,35
DA:652,4
DA:653,31
DA:655,31
DA:656,0
DA:657,31
DA:659,31
DA:660,0
DA:661,31
DA:663,31
DA:664,0
DA:665,31
DA:667,31
DA:668,14
DA:669,17
DA:671,17
DA:672,0
DA:673,17
DA:675,17
DA:676,0
DA:677,17
DA:679,17
DA:680,1
DA:681,16
DA:682,0
DA:685,16
DA:686,35
DA:690,0
DA:691,0
DA:692,0
DA:693,0
DA:694,0
DA:695,0
DA:696,0
DA:697,0
DA:698,0
DA:700,0
DA:701,0
DA:703,0
DA:704,0
DA:705,0
DA:706,0
DA:707,0
DA:708,0
DA:709,0
DA:710,0
DA:711,0
DA:712,0
DA:714,0
DA:716,0
DA:717,0
DA:718,0
DA:719,0
DA:720,0
DA:725,0
DA:727,0
DA:730,0
DA:734,20
DA:735,20
DA:736,20
DA:737,20
DA:738,20
DA:739,20
DA:741,20
DA:743,0
DA:744,0
DA:745,0
DA:746,0
DA:747,0
DA:748,0
DA:749,0
DA:750,0
DA:751,0
DA:753,0
DA:754,0
DA:755,0
DA:756,20
DA:759,20
DA:760,20
DA:763,20
DA:764,20
DA:765,20
DA:766,20
DA:767,20
DA:768,20
DA:769,20
DA:770,20
DA:771,20
DA:772,20
DA:775,20
DA:776,0
DA:777,0
DA:779,0
DA:780,20
DA:783,20
DA:785,20
DA:786,3
DA:789,17
DA:790,13
DA:791,4
DA:794,13
DA:795,0
DA:798,13
DA:799,3
DA:802,10
DA:803,9
DA:804,9
DA:806,1
DA:807,0
DA:809,1
DA:813,9
DA:814,7
DA:815,6
DA:816,4
DA:819,5
DA:821,1
DA:823,4
DA:825,0
DA:828,4
DA:829,1
DA:832,3
DA:833,0
DA:837,3
DA:840,20
DA:843,3
DA:844,3
DA:845,3
DA:847,1
DA:849,2
DA:851,1
DA:853,1
DA:855,1
DA:857,0
DA:859,3
DA:862,4
DA:863,4
DA:864,4
DA:866,1
DA:868,3
DA:869,2
DA:871,1
DA:873,1
DA:875,0
DA:877,0
DA:879,0
DA:881,0
DA:883,0
DA:885,4
DA:888,0
DA:889,0
DA:890,0
DA:891,0
DA:892,0
DA:893,0
DA:894,0
DA:895,0
DA:896,0
DA:897,0
DA:898,0
DA:899,0
DA:900,0
DA:903,4
DA:904,4
DA:905,4
DA:907,0
DA:909,4
DA:910,1
DA:911,1
DA:913,3
DA:914,1
DA:915,1
DA:917,2
DA:918,1
DA:920,1
DA:921,0
DA:923,1
DA:924,0
DA:926,1
DA:927,0
DA:929,1
DA:930,0
DA:932,1
DA:933,1
DA:935,0
DA:936,0
DA:938,0
DA:940,0
DA:941,0
DA:943,0
DA:945,0
DA:946,0
DA:947,0
DA:948,0
DA:949,0
DA:950,0
DA:951,0
DA:952,0
DA:953,0
DA:954,0
DA:955,0
DA:957,0
DA:959,4
DA:962,0
DA:963,0
DA:964,0
DA:966,0
DA:967,0
DA:968,0
DA:969,0
DA:970,0
DA:971,0
DA:973,0
DA:975,0
DA:976,0
DA:977,0
DA:978,0
DA:979,0
DA:981,0
DA:983,0
DA:984,0
DA:985,0
DA:986,0
DA:988,0
DA:990,0
DA:991,0
DA:992,0
DA:993,0
DA:994,0
DA:995,0
DA:996,0
DA:997,0
DA:998,0
DA:1000,0
DA:1002,0
DA:1003,0
DA:1004,0
DA:1005,0
DA:1006,0
DA:1008,0
DA:1010,0
DA:1013,25
DA:1014,25
DA:1015,2
DA:1016,23
DA:1018,23
DA:1020,27
DA:1021,27
DA:1024,27
DA:1025,4
DA:1026,23
DA:1027,23
DA:1028,23
DA:1031,23
DA:1036,25
DA:1040,1
DA:1041,1
DA:1043,3
DA:1045,2
DA:1048,2
DA:1049,0
DA:1050,0
DA:1051,0
DA:1052,0
DA:1053,0
DA:1056,0
DA:1058,0
DA:1059,0
DA:1060,0
DA:1061,0
DA:1062,0
DA:1064,0
DA:1068,2
DA:1069,2
DA:1074,1
DA:1075,1
DA:1078,2
DA:1079,2
DA:1080,2
DA:1083,2
DA:1084,2
DA:1085,2
DA:1086,2
DA:1087,2
DA:1088,2
DA:1089,2
DA:1092,0
DA:1093,0
DA:1094,0
DA:1095,0
DA:1096,0
DA:1097,0
DA:1099,2
DA:1102,2
DA:1103,2
DA:1104,2
DA:1106,2
DA:1107,2
DA:1108,2
DA:1109,2
DA:1110,2
DA:1111,2
DA:1114,0
DA:1115,0
DA:1116,0
DA:1117,0
DA:1118,0
DA:1119,0
DA:1120,0
DA:1121,0
DA:1122,0
DA:1123,0
DA:1125,0
DA:1126,0
DA:1127,0
DA:1128,0
DA:1129,0
DA:1130,0
DA:1131,0
DA:1132,0
DA:1133,0
DA:1135,0
DA:1136,0
DA:1137,0
DA:1138,0
DA:1139,0
DA:1141,0
DA:1144,0
DA:1145,0
DA:1146,0
DA:1147,0
DA:1148,0
DA:1149,0
DA:1150,0
DA:1151,0
DA:1152,0
DA:1154,0
DA:1155,0
DA:1156,0
DA:1157,0
DA:1158,0
DA:1159,0
DA:1161,0
DA:1162,0
DA:1164,0
DA:1165,0
DA:1166,0
DA:1167,0
DA:1168,0
DA:1169,0
DA:1172,0
DA:1173,0
DA:1174,0
DA:1175,0
DA:1176,0
DA:1177,0
DA:1180,0
DA:1182,0
DA:1183,0
DA:1184,0
DA:1187,0
DA:1188,0
DA:1189,0
DA:1190,0
DA:1192,0
DA:1195,0
DA:1196,0
DA:1197,0
DA:1214,0
DA:1224,0
DA:1225,0
DA:1228,3
DA:1229,3
DA:1230,3
DA:1231,3
DA:1232,3
DA:1233,3
DA:1234,3
DA:1235,3
DA:1236,3
DA:1237,3
DA:1239,3
DA:1240,2
DA:1241,2
DA:1242,2
DA:1243,2
DA:1244,2
DA:1245,2
DA:1246,2
DA:1247,2
DA:1249,1
DA:1250,1
DA:1251,1
DA:1252,1
DA:1253,1
DA:1254,1
DA:1256,3
DA:1260,0
DA:1261,0
DA:1262,0
DA:1264,0
DA:1265,0
DA:1266,0
DA:1267,0
DA:1268,0
DA:1269,0
DA:1273,1
DA:1278,1
DA:1279,1
DA:1282,0
DA:1285,0
DA:1288,0
DA:1290,0
DA:1291,0
DA:1292,0
DA:1293,0
DA:1295,0
DA:1296,0
DA:1297,0
DA:1298,0
DA:1299,0
DA:1300,0
DA:1301,0
DA:1302,0
DA:1303,0
DA:1304,0
DA:1305,0
DA:1306,0
DA:1307,0
DA:1308,0
DA:1309,0
DA:1312,0
DA:1313,0
DA:1314,0
DA:1315,0
DA:1316,0
DA:1317,0
DA:1318,0
DA:1319,0
DA:1320,0
DA:1321,0
DA:1322,0
DA:1323,0
DA:1324,0
DA:1325,0
DA:1326,0
DA:1327,0
DA:1328,0
DA:1329,0
DA:1330,0
DA:1331,0
DA:1332,0
DA:1333,0
DA:1334,0
DA:1335,0
DA:1338,0
DA:1339,0
DA:1340,0
DA:1345,0
DA:1346,0
DA:1349,0
DA:1350,0
DA:1355,0
DA:1358,0
DA:1359,0
DA:1364,0
DA:1367,0
DA:1368,0
DA:1369,0
DA:1371,0
DA:1375,0
DA:1378,0
DA:1382,0
DA:1385,0
DA:1387,0
DA:1390,0
DA:1391,0
DA:1392,0
DA:1394,0
DA:1395,0
DA:1396,0
DA:1397,0
DA:1399,0
DA:1400,0
DA:1401,0
DA:1402,0
DA:1403,0
DA:1404,0
DA:1405,0
DA:1409,0
DA:1410,0
DA:1412,0
DA:1414,0
DA:1415,0
DA:1416,0
DA:1417,0
DA:1423,0
DA:1425,0
DA:1426,0
DA:1427,0
DA:1428,0
DA:1429,0
DA:1431,0
DA:1433,0
DA:1434,0
DA:1437,0
DA:1439,0
DA:1457,0
DA:1460,0
DA:1462,0
DA:1481,0
DA:1484,0
DA:1486,0
DA:1508,0
DA:1511,0
DA:1513,0
DA:1559,0
DA:1561,0
DA:1563,0
DA:1596,0
DA:1598,0
DA:1600,0
DA:1629,0
DA:1631,0
DA:1633,0
DA:1681,0
DA:1683,0
DA:1685,0
DA:1713,0
DA:1715,0
DA:1717,0
DA:1750,0
DA:1752,0
DA:1754,0
DA:1778,0
DA:1783,1
DA:1785,1
DA:1786,0
DA:1787,1
DA:1790,1
DA:1791,1
DA:1794,1
DA:1795,1
DA:1796,0
DA:1797,1
DA:1798,1
DA:1799,0
DA:1800,1
DA:1801,1
DA:1802,0
DA:1803,1
DA:1804,1
DA:1805,0
DA:1806,1
DA:1807,1
DA:1808,0
DA:1809,1
DA:1810,1
DA:1811,0
DA:1812,1
DA:1813,1
DA:1814,0
DA:1815,1
DA:1816,1
DA:1817,0
DA:1818,1
DA:1819,1
DA:1820,0
DA:1821,1
DA:1822,1
DA:1823,0
DA:1824,1
DA:1825,1
DA:1826,0
DA:1827,1
DA:1828,1
DA:1829,1
DA:1832,1
DA:1834,1
DA:1836,1
DA:1837,1
DA:1838,0
DA:1839,0
DA:1841,0
DA:1843,1
DA:1846,1
DA:1847,1
DA:1848,1
DA:1850,1
DA:1851,1
DA:1852,0
DA:1853,1
DA:1854,1
DA:1855,1
DA:1856,1
DA:1857,1
DA:1860,1
DA:1861,1
DA:1864,0
DA:1865,0
DA:1866,0
DA:1867,0
DA:1868,0
DA:1871,0
DA:1872,0
DA:1873,0
DA:1874,0
DA:1876,0
DA:1877,0
DA:1880,0
DA:1881,0
DA:1882,0
DA:1883,0
DA:1885,0
DA:1887,0
DA:1890,0
DA:1891,0
DA:1892,0
DA:1893,0
DA:1894,0
DA:1895,0
DA:1896,0
DA:1899,0
DA:1902,0
DA:1903,0
DA:1904,0
DA:1905,0
DA:1907,0
DA:1908,0
DA:1909,0
DA:1910,0
DA:1912,0
DA:1913,0
DA:1914,0
DA:1917,0
DA:1918,0
DA:1920,0
DA:1921,0
DA:1922,0
DA:1924,0
DA:1926,0
DA:1943,35
DA:1944,35
DA:1945,35
DA:1946,35
DA:1947,35
DA:1948,35
DA:1949,35
DA:1950,31
DA:1951,4
DA:1954,4
DA:1955,4
DA:1956,0
DA:1957,4
DA:1959,4
DA:1960,1
DA:1962,1
DA:1963,1
DA:1964,3
DA:1965,0
DA:1968,3
DA:1969,0
DA:1970,3
DA:1973,3
DA:1974,3
DA:1975,3
DA:1976,35
DA:1979,0
DA:1980,0
DA:1981,0
DA:1982,0
DA:1983,0
DA:1986,0
DA:1987,0
DA:1988,0
DA:1990,0
DA:1991,0
DA:1993,0
DA:1995,0
DA:1999,0
DA:2004,0
DA:2005,0
DA:2006,0
DA:2010,0
DA:2015,0
DA:2016,0
DA:2018,0
DA:2019,0
DA:2020,0
DA:2023,0
DA:2024,0
DA:2025,0
DA:2026,0
DA:2028,0
DA:2029,0
DA:2030,0
DA:2034,0
DA:2035,0
DA:2036,0
DA:2037,0
DA:2039,0
DA:2040,0
DA:2041,0
DA:2044,0
DA:2059,31
DA:2060,31
DA:2061,31
DA:2062,31
DA:2063,31
DA:2064,31
DA:2065,31
DA:2066,31
DA:2067,31
DA:2068,31
DA:2069,31
DA:2071,31
DA:2073,0
DA:2074,0
DA:2075,0
DA:2076,0
DA:2078,0
DA:2079,0
DA:2080,0
DA:2081,0
DA:2082,0
DA:2084,0
DA:2085,0
DA:2087,0
DA:2088,0
DA:2089,0
DA:2090,0
DA:2091,0
DA:2093,0
DA:2094,0
DA:2096,0
DA:2097,0
DA:2098,0
DA:2100,0
DA:2101,0
DA:2102,0
DA:2103,0
DA:2105,0
DA:2107,0
DA:2109,0
DA:2110,0
DA:2111,0
DA:2113,0
DA:2114,0
DA:2115,0
DA:2116,0
DA:2118,0
DA:2120,0
DA:2122,0
DA:2123,0
DA:2124,0
DA:2125,0
DA:2127,0
DA:2128,0
DA:2129,0
DA:2130,0
DA:2132,0
DA:2133,0
DA:2134,0
DA:2135,0
DA:2150,31
DA:2151,0
DA:2152,31
DA:2153,0
DA:2154,0
DA:2155,0
DA:2156,0
DA:2157,0
DA:2159,0
DA:2160,0
DA:2163,31
DA:2164,0
DA:2166,31
DA:2168,31
DA:2171,0
DA:2172,0
DA:2185,0
DA:2188,0
DA:2189,0
DA:2204,0
DA:2218,31
DA:2221,31
DA:2222,31
DA:2226,0
DA:2227,0
DA:2228,0
DA:2229,0
DA:2230,0
DA:2231,0
DA:2232,0
DA:2234,0
DA:2237,0
DA:2238,0
DA:2239,0
DA:2240,0
DA:2241,0
DA:2242,0
DA:2243,0
DA:2246,0
DA:2247,0
DA:2248,0
DA:2249,0
DA:2252,0
DA:2254,0
DA:2255,0
DA:2257,0
DA:2258,0
DA:2259,0
DA:2260,0
DA:2262,0
DA:2266,0
DA:2267,0
DA:2270,0
DA:2271,0
DA:2273,0
DA:2275,0
DA:2278,0
DA:2279,0
DA:2280,0
DA:2281,0
DA:2284,0
DA:2285,0
DA:2286,0
DA:2287,0
DA:2290,0
DA:2292,0
DA:2293,0
DA:2295,0
DA:2296,0
DA:2297,0
DA:2298,0
DA:2300,0
DA:2304,0
DA:2305,0
DA:2307,0
DA:2309,0
DA:2312,0
DA:2313,0
DA:2314,0
DA:2315,0
DA:2318,0
DA:2319,0
DA:2320,0
DA:2321,0
DA:2324,0
DA:2326,0
DA:2327,0
DA:2330,0
DA:2331,0
DA:2333,0
DA:2334,0
DA:2335,0
DA:2339,0
DA:2340,0
DA:2344,0
DA:2345,0
DA:2348,0
DA:2362,17
DA:2363,17
DA:2364,17
DA:2365,0
DA:2366,0
DA:2367,0
DA:2368,0
DA:2369,0
DA:2370,0
DA:2372,17
DA:2373,0
DA:2374,0
DA:2375,0
DA:2376,0
DA:2377,0
DA:2379,17
DA:2380,0
DA:2381,0
DA:2382,0
DA:2383,0
DA:2384,0
DA:2386,17
DA:2387,0
DA:2388,0
DA:2389,0
DA:2391,0
DA:2392,0
DA:2393,0
DA:2394,0
DA:2395,0
DA:2396,0
DA:2397,0
DA:2398,0
DA:2399,0
DA:2400,0
DA:2401,0
DA:2402,0
DA:2403,0
DA:2404,0
DA:2406,17
DA:2408,17
DA:2423,31
DA:2424,31
DA:2425,31
DA:2426,31
DA:2427,31
DA:2428,31
DA:2429,31
DA:2430,31
DA:2431,0
DA:2432,0
DA:2433,0
DA:2434,0
DA:2435,0
DA:2436,0
DA:2438,0
DA:2439,0
DA:2442,31
DA:2443,0
DA:2444,0
DA:2445,0
DA:2446,0
DA:2447,0
DA:2448,0
DA:2449,0
DA:2451,0
DA:2452,0
DA:2455,31
DA:2456,0
DA:2457,0
DA:2458,0
DA:2459,0
DA:2460,0
DA:2461,0
DA:2462,0
DA:2464,0
DA:2465,0
DA:2468,31
DA:2470,31
DA:2485,17
DA:2486,17
DA:2487,17
DA:2488,17
DA:2489,17
DA:2491,17
DA:2506,17
DA:2508,17
DA:2509,0
DA:2510,0
DA:2511,0
DA:2512,0
DA:2514,0
DA:2515,0
DA:2516,0
DA:2517,0
DA:2518,0
DA:2519,0
DA:2520,0
DA:2521,0
DA:2523,0
DA:2525,17
DA:2528,17
DA:2529,1
DA:2530,1
DA:2531,0
DA:2532,16
DA:2533,16
DA:2534,17
DA:2549,16
DA:2550,16
DA:2551,16
DA:2552,16
DA:2553,16
DA:2555,16
DA:2558,16
DA:2559,5
DA:2560,5
DA:2563,5
DA:2564,5
DA:2566,0
DA:2568,5
DA:2571,13
DA:2574,16
DA:2575,16
DA:2576,16
DA:2579,5
DA:2580,5
DA:2581,5
DA:2582,5
DA:2583,5
DA:2584,5
DA:2587,5
DA:2589,0
DA:2590,0
DA:2593,0
DA:2594,0
DA:2597,2
DA:2600,0
DA:2603,5
DA:2605,5
DA:2614,21
DA:2615,21
DA:2616,21
DA:2619,1
DA:2620,1
DA:2621,1
DA:2622,1
DA:2623,1
DA:2625,1
DA:2626,1
DA:2628,1
DA:2629,1
DA:2630,1
DA:2633,1
DA:2634,1
DA:2635,1
DA:2636,1
DA:2637,1
DA:2639,1
DA:2640,1
DA:2642,1
DA:2643,1
DA:2644,1
DA:2647,1
DA:2648,1
DA:2649,1
DA:2650,1
DA:2651,1
DA:2653,1
DA:2654,1
DA:2656,1
DA:2657,1
DA:2658,1
DA:2659,1
DA:2662,1
DA:2663,1
DA:2664,1
DA:2665,1
DA:2666,1
DA:2668,1
DA:2669,1
DA:2671,1
DA:2672,1
DA:2675,1
DA:2676,1
DA:2677,1
DA:2678,1
DA:2679,1
DA:2681,1
DA:2682,1
DA:2684,1
DA:2685,1
DA:2686,1
DA:2689,1
DA:2690,1
DA:2691,1
DA:2692,1
DA:2693,1
DA:2695,1
DA:2696,1
DA:2698,1
DA:2699,1
DA:2702,1
DA:2703,1
DA:2704,1
DA:2705,1
DA:2706,1
DA:2708,1
DA:2709,1
DA:2711,1
DA:2712,1
DA:2713,1
DA:2714,1
DA:2717,1
DA:2718,1
DA:2719,1
DA:2720,1
DA:2721,1
DA:2723,1
DA:2724,1
DA:2726,1
DA:2727,1
DA:2728,1
DA:2731,1
DA:2732,1
DA:2735,1
DA:2736,1
DA:2737,1
DA:2740,1
DA:2741,1
DA:2742,1
DA:2743,1
DA:2746,1
DA:2747,1
DA:2748,1
DA:2749,1
DA:2750,1
DA:2752,1
DA:2753,1
DA:2755,1
DA:2756,1
DA:2759,1
DA:2760,1
DA:2761,1
DA:2762,1
DA:2763,1
DA:2765,1
DA:2766,1
DA:2769,1
DA:2770,1
DA:2773,1
DA:2774,1
DA:2775,1
DA:2776,1
DA:2777,1
DA:2779,1
DA:2780,1
DA:2783,1
DA:2784,1
DA:2787,1
DA:2788,1
DA:2789,1
DA:2790,1
DA:2791,1
DA:2793,1
DA:2794,1
DA:2796,1
DA:2797,1
DA:2800,1
DA:2801,1
DA:2802,1
DA:2803,1
DA:2804,1
DA:2806,1
DA:2807,1
DA:2810,1
DA:2811,1
DA:2812,1
DA:2815,1
DA:2816,1
DA:2817,1
DA:2818,1
DA:2819,1
DA:2821,1
DA:2822,1
DA:2825,1
DA:2826,1
DA:2829,1
DA:2830,1
DA:2831,1
DA:2832,1
DA:2833,1
DA:2835,1
DA:2836,1
DA:2839,1
DA:2840,1
DA:2841,1
DA:2844,1
DA:2845,1
DA:2846,1
DA:2847,1
DA:2848,1
DA:2850,1
DA:2851,1
DA:2854,1
DA:2855,1
DA:2856,1
DA:2857,1
DA:2860,1
DA:2861,1
DA:2864,1
DA:2865,1
DA:2866,1
DA:2867,1
DA:2868,1
DA:2869,1
DA:2872,1
DA:2873,1
DA:2874,1
DA:2875,1
DA:2876,1
DA:2877,1
DA:2880,1
DA:2881,1
DA:2882,1
DA:2883,1
DA:2884,1
DA:2885,1
DA:2886,1
DA:2889,1
DA:2890,1
DA:2893,1
DA:2894,1
DA:2895,1
DA:2896,1
DA:2897,1
DA:2898,1
DA:2899,1
DA:2902,1
DA:2903,1
DA:2904,1
DA:2905,1
DA:2906,1
DA:2907,1
DA:2908,1
DA:2911,1
DA:2912,1
DA:2915,1
DA:2916,1
DA:2917,1
DA:2918,1
DA:2919,1
DA:2920,1
DA:2921,1
DA:2924,1
DA:2925,1
DA:2926,1
DA:2927,1
BRF:0
BRH:0
LF:1618
LH:800
end_of_record
SF:/home/noah/src/ruchy/src/backend/transpiler/type_conversion_refactored.rs
FN:251,_RNvNtNtNtCskTACvQmcrtm_5ruchy7backend10transpiler26type_conversion_refactored13is_tuple_expr
FN:247,_RNvNtNtNtCskTACvQmcrtm_5ruchy7backend10transpiler26type_conversion_refactored19is_single_text_part
FN:47,_RNvMNtNtNtCskTACvQmcrtm_5ruchy7backend10transpiler26type_conversion_refactoredNtB4_10Transpiler14convert_to_int
FN:187,_RNvMNtNtNtCskTACvQmcrtm_5ruchy7backend10transpiler26type_conversion_refactoredNtB4_10Transpiler14convert_to_set
FN:104,_RNvMNtNtNtCskTACvQmcrtm_5ruchy7backend10transpiler26type_conversion_refactoredNtB4_10Transpiler15convert_to_bool
FN:219,_RNvMNtNtNtCskTACvQmcrtm_5ruchy7backend10transpiler26type_conversion_refactoredNtB4_10Transpiler15convert_to_dict
FN:161,_RNvMNtNtNtCskTACvQmcrtm_5ruchy7backend10transpiler26type_conversion_refactoredNtB4_10Transpiler15convert_to_list
FN:78,_RNvMNtNtNtCskTACvQmcrtm_5ruchy7backend10transpiler26type_conversion_refactoredNtB4_10Transpiler16convert_to_float
FN:41,_RNvMNtNtNtCskTACvQmcrtm_5ruchy7backend10transpiler26type_conversion_refactoredNtB4_10Transpiler17convert_to_string
FN:135,_RNvMNtNtNtCskTACvQmcrtm_5ruchy7backend10transpiler26type_conversion_refactoredNtB4_10Transpiler22convert_string_to_bool
FN:147,_RNvMNtNtNtCskTACvQmcrtm_5ruchy7backend10transpiler26type_conversion_refactoredNtB4_10Transpiler23convert_generic_to_bool
FN:116,_RNvMNtNtNtCskTACvQmcrtm_5ruchy7backend10transpiler26type_conversion_refactoredNtB4_10Transpiler23convert_literal_to_bool
FN:141,_RNvMNtNtNtCskTACvQmcrtm_5ruchy7backend10transpiler26type_conversion_refactoredNtB4_10Transpiler26convert_collection_to_bool
FN:12,_RNvMNtNtNtCskTACvQmcrtm_5ruchy7backend10transpiler26type_conversion_refactoredNtB4_10Transpiler40try_transpile_type_conversion_refactored
FNDA:1,_RNvNtNtNtCskTACvQmcrtm_5ruchy7backend10transpiler26type_conversion_refactored13is_tuple_expr
FNDA:0,_RNvNtNtNtCskTACvQmcrtm_5ruchy7backend10transpiler26type_conversion_refactored19is_single_text_part
FNDA:6,_RNvMNtNtNtCskTACvQmcrtm_5ruchy7backend10transpiler26type_conversion_refactoredNtB4_10Transpiler14convert_to_int
FNDA:3,_RNvMNtNtNtCskTACvQmcrtm_5ruchy7backend10transpiler26type_conversion_refactoredNtB4_10Transpiler14convert_to_set
FNDA:9,_RNvMNtNtNtCskTACvQmcrtm_5ruchy7backend10transpiler26type_conversion_refactoredNtB4_10Transpiler15convert_to_bool
FNDA:3,_RNvMNtNtNtCskTACvQmcrtm_5ruchy7backend10transpiler26type_conversion_refactoredNtB4_10Transpiler15convert_to_dict
FNDA:4,_RNvMNtNtNtCskTACvQmcrtm_5ruchy7backend10transpiler26type_conversion_refactoredNtB4_10Transpiler15convert_to_list
FNDA:5,_RNvMNtNtNtCskTACvQmcrtm_5ruchy7backend10transpiler26type_conversion_refactoredNtB4_10Transpiler16convert_to_float
FNDA:7,_RNvMNtNtNtCskTACvQmcrtm_5ruchy7backend10transpiler26type_conversion_refactoredNtB4_10Transpiler17convert_to_string
FNDA:1,_RNvMNtNtNtCskTACvQmcrtm_5ruchy7backend10transpiler26type_conversion_refactoredNtB4_10Transpiler22convert_string_to_bool
FNDA:0,_RNvMNtNtNtCskTACvQmcrtm_5ruchy7backend10transpiler26type_conversion_refactoredNtB4_10Transpiler23convert_generic_to_bool
FNDA:7,_RNvMNtNtNtCskTACvQmcrtm_5ruchy7backend10transpiler26type_conversion_refactoredNtB4_10Transpiler23convert_literal_to_bool
FNDA:1,_RNvMNtNtNtCskTACvQmcrtm_5ruchy7backend10transpiler26type_conversion_refactoredNtB4_10Transpiler26convert_collection_to_bool
FNDA:56,_RNvMNtNtNtCskTACvQmcrtm_5ruchy7backend10transpiler26type_conversion_refactoredNtB4_10Transpiler40try_transpile_type_conversion_refactored
FNF:14
FNH:12
DA:12,56
DA:13,56
DA:14,56
DA:15,56
DA:16,56
DA:18,56
DA:19,56
DA:21,38
DA:22,1
DA:23,37
DA:25,18
DA:28,37
DA:29,37
DA:30,30
DA:31,24
DA:32,19
DA:33,10
DA:34,6
DA:35,3
DA:36,0
DA:38,56
DA:41,7
DA:42,7
DA:43,7
DA:44,7
DA:47,6
DA:48,6
DA:51,2
DA:52,2
DA:55,0
DA:56,0
DA:57,0
DA:61,2
DA:62,2
DA:66,1
DA:67,1
DA:71,1
DA:72,1
DA:75,6
DA:78,5
DA:79,5
DA:82,2
DA:83,2
DA:86,0
DA:87,0
DA:88,0
DA:92,3
DA:93,3
DA:97,0
DA:98,0
DA:101,5
DA:104,9
DA:106,9
DA:107,7
DA:108,1
DA:109,1
DA:110,0
DA:111,0
DA:113,9
DA:116,7
DA:117,7
DA:119,4
DA:120,4
DA:123,3
DA:124,3
DA:127,0
DA:128,0
DA:130,0
DA:132,7
DA:135,1
DA:136,1
DA:137,1
DA:138,1
DA:141,1
DA:142,1
DA:143,1
DA:144,1
DA:147,0
DA:148,0
DA:149,0
DA:150,0
DA:151,0
DA:152,0
DA:153,0
DA:154,0
DA:155,0
DA:156,0
DA:157,0
DA:158,0
DA:161,4
DA:162,3
DA:165,2
DA:166,2
DA:170,1
DA:171,1
DA:175,0
DA:176,0
DA:180,1
DA:181,1
DA:184,4
DA:187,3
DA:188,1
DA:191,2
DA:192,2
DA:193,2
DA:194,2
DA:198,0
DA:199,0
DA:200,0
DA:201,0
DA:202,0
DA:206,1
DA:207,1
DA:208,1
DA:209,1
DA:210,1
DA:211,1
DA:212,1
DA:213,1
DA:216,3
DA:219,3
DA:220,2
DA:222,2
DA:223,2
DA:224,2
DA:225,2
DA:226,2
DA:227,2
DA:228,2
DA:232,0
DA:233,0
DA:234,0
DA:235,0
DA:239,1
DA:242,3
DA:247,0
DA:248,0
DA:249,0
DA:251,1
DA:252,1
DA:253,1
BRF:0
BRH:0
LF:141
LH:101
end_of_record
SF:/home/noah/src/ruchy/src/backend/transpiler/type_conversion_refactored_tests.rs
FN:14,_RNvNtNtNtNtCskTACvQmcrtm_5ruchy7backend10transpiler26type_conversion_refactored5tests10parse_expr
FN:10,_RNvNtNtNtNtCskTACvQmcrtm_5ruchy7backend10transpiler26type_conversion_refactored5tests17create_transpiler
FN:316,_RNvNtNtNtNtCskTACvQmcrtm_5ruchy7backend10transpiler26type_conversion_refactored5testss_20test_dict_conversion
FN:271,_RNvNtNtNtNtCskTACvQmcrtm_5ruchy7backend10transpiler26type_conversion_refactored5testss_22test_invalid_arg_count
FN:257,_RNvNtNtNtNtCskTACvQmcrtm_5ruchy7backend10transpiler26type_conversion_refactored5testss_24test_not_type_conversion
FN:240,_RNvNtNtNtNtCskTACvQmcrtm_5ruchy7backend10transpiler26type_conversion_refactored5testss_24test_set_conversion_list
FN:54,_RNvNtNtNtNtCskTACvQmcrtm_5ruchy7backend10transpiler26type_conversion_refactored5testss_24test_str_conversion_bool
FN:138,_RNvNtNtNtNtCskTACvQmcrtm_5ruchy7backend10transpiler26type_conversion_refactored5testss_25test_bool_conversion_zero
FN:121,_RNvNtNtNtNtCskTACvQmcrtm_5ruchy7backend10transpiler26type_conversion_refactored5testss_25test_float_conversion_int
FN:86,_RNvNtNtNtNtCskTACvQmcrtm_5ruchy7backend10transpiler26type_conversion_refactored5testss_25test_int_conversion_float
FN:37,_RNvNtNtNtNtCskTACvQmcrtm_5ruchy7backend10transpiler26type_conversion_refactored5testss_25test_str_conversion_float
FN:223,_RNvNtNtNtNtCskTACvQmcrtm_5ruchy7backend10transpiler26type_conversion_refactored5testss_26test_list_conversion_range
FN:206,_RNvNtNtNtNtCskTACvQmcrtm_5ruchy7backend10transpiler26type_conversion_refactored5testss_27test_list_conversion_string
FN:20,_RNvNtNtNtNtCskTACvQmcrtm_5ruchy7backend10transpiler26type_conversion_refactored5testss_27test_str_conversion_integer
FN:155,_RNvNtNtNtNtCskTACvQmcrtm_5ruchy7backend10transpiler26type_conversion_refactored5testss_28test_bool_conversion_nonzero
FN:103,_RNvNtNtNtNtCskTACvQmcrtm_5ruchy7backend10transpiler26type_conversion_refactored5testss_28test_float_conversion_string
FN:349,_RNvNtNtNtNtCskTACvQmcrtm_5ruchy7backend10transpiler26type_conversion_refactored5testss_31test_all_type_conversions_exist
FN:172,_RNvNtNtNtNtCskTACvQmcrtm_5ruchy7backend10transpiler26type_conversion_refactored5testss_33test_bool_conversion_empty_string
FN:284,_RNvNtNtNtNtCskTACvQmcrtm_5ruchy7backend10transpiler26type_conversion_refactored5testss_33test_string_interpolation_to_bool
FN:68,_RNvNtNtNtNtCskTACvQmcrtm_5ruchy7backend10transpiler26type_conversion_refactored5testss_34test_int_conversion_string_literal
FN:189,_RNvNtNtNtNtCskTACvQmcrtm_5ruchy7backend10transpiler26type_conversion_refactored5testss_36test_bool_conversion_nonempty_string
FNDA:23,_RNvNtNtNtNtCskTACvQmcrtm_5ruchy7backend10transpiler26type_conversion_refactored5tests10parse_expr
FNDA:19,_RNvNtNtNtNtCskTACvQmcrtm_5ruchy7backend10transpiler26type_conversion_refactored5tests17create_transpiler
FNDA:1,_RNvNtNtNtNtCskTACvQmcrtm_5ruchy7backend10transpiler26type_conversion_refactored5testss_20test_dict_conversion
FNDA:1,_RNvNtNtNtNtCskTACvQmcrtm_5ruchy7backend10transpiler26type_conversion_refactored5testss_22test_invalid_arg_count
FNDA:1,_RNvNtNtNtNtCskTACvQmcrtm_5ruchy7backend10transpiler26type_conversion_refactored5testss_24test_not_type_conversion
FNDA:1,_RNvNtNtNtNtCskTACvQmcrtm_5ruchy7backend10transpiler26type_conversion_refactored5testss_24test_set_conversion_list
FNDA:1,_RNvNtNtNtNtCskTACvQmcrtm_5ruchy7backend10transpiler26type_conversion_refactored5testss_24test_str_conversion_bool
FNDA:1,_RNvNtNtNtNtCskTACvQmcrtm_5ruchy7backend10transpiler26type_conversion_refactored5testss_25test_bool_conversion_zero
FNDA:1,_RNvNtNtNtNtCskTACvQmcrtm_5ruchy7backend10transpiler26type_conversion_refactored5testss_25test_float_conversion_int
FNDA:1,_RNvNtNtNtNtCskTACvQmcrtm_5ruchy7backend10transpiler26type_conversion_refactored5testss_25test_int_conversion_float
FNDA:1,_RNvNtNtNtNtCskTACvQmcrtm_5ruchy7backend10transpiler26type_conversion_refactored5testss_25test_str_conversion_float
FNDA:1,_RNvNtNtNtNtCskTACvQmcrtm_5ruchy7backend10transpiler26type_conversion_refactored5testss_26test_list_conversion_range
FNDA:1,_RNvNtNtNtNtCskTACvQmcrtm_5ruchy7backend10transpiler26type_conversion_refactored5testss_27test_list_conversion_string
FNDA:1,_RNvNtNtNtNtCskTACvQmcrtm_5ruchy7backend10transpiler26type_conversion_refactored5testss_27test_str_conversion_integer
FNDA:1,_RNvNtNtNtNtCskTACvQmcrtm_5ruchy7backend10transpiler26type_conversion_refactored5testss_28test_bool_conversion_nonzero
FNDA:1,_RNvNtNtNtNtCskTACvQmcrtm_5ruchy7backend10transpiler26type_conversion_refactored5testss_28test_float_conversion_string
FNDA:1,_RNvNtNtNtNtCskTACvQmcrtm_5ruchy7backend10transpiler26type_conversion_refactored5testss_31test_all_type_conversions_exist
FNDA:1,_RNvNtNtNtNtCskTACvQmcrtm_5ruchy7backend10transpiler26type_conversion_refactored5testss_33test_bool_conversion_empty_string
FNDA:1,_RNvNtNtNtNtCskTACvQmcrtm_5ruchy7backend10transpiler26type_conversion_refactored5testss_33test_string_interpolation_to_bool
FNDA:1,_RNvNtNtNtNtCskTACvQmcrtm_5ruchy7backend10transpiler26type_conversion_refactored5testss_34test_int_conversion_string_literal
FNDA:1,_RNvNtNtNtNtCskTACvQmcrtm_5ruchy7backend10transpiler26type_conversion_refactored5testss_36test_bool_conversion_nonempty_string
FNF:21
FNH:21
DA:10,19
DA:11,19
DA:12,19
DA:14,23
DA:15,23
DA:16,23
DA:17,23
DA:20,1
DA:21,1
DA:22,1
DA:24,1
DA:25,1
DA:26,1
DA:27,1
DA:28,1
DA:29,1
DA:30,1
DA:31,1
DA:32,0
DA:33,0
DA:34,1
DA:37,1
DA:38,1
DA:39,1
DA:41,1
DA:42,1
DA:43,1
DA:44,1
DA:45,1
DA:46,1
DA:47,1
DA:48,1
DA:49,0
DA:50,0
DA:51,1
DA:54,1
DA:55,1
DA:56,1
DA:58,1
DA:59,1
DA:60,1
DA:61,1
DA:62,1
DA:63,0
DA:64,0
DA:65,1
DA:68,1
DA:69,1
DA:70,1
DA:72,1
DA:73,1
DA:74,1
DA:75,1
DA:76,1
DA:77,1
DA:78,1
DA:79,1
DA:80,1
DA:81,0
DA:82,0
DA:83,1
DA:86,1
DA:87,1
DA:88,1
DA:90,1
DA:91,1
DA:92,1
DA:93,1
DA:94,1
DA:95,1
DA:96,1
DA:97,1
DA:98,0
DA:99,0
DA:100,1
DA:103,1
DA:104,1
DA:105,1
DA:107,1
DA:108,1
DA:109,1
DA:110,1
DA:111,1
DA:112,1
DA:113,1
DA:114,1
DA:115,1
DA:116,0
DA:117,0
DA:118,1
DA:121,1
DA:122,1
DA:123,1
DA:125,1
DA:126,1
DA:127,1
DA:128,1
DA:129,1
DA:130,1
DA:131,1
DA:132,1
DA:133,0
DA:134,0
DA:135,1
DA:138,1
DA:139,1
DA:140,1
DA:142,1
DA:143,1
DA:144,1
DA:145,1
DA:146,1
DA:147,1
DA:148,1
DA:149,1
DA:150,0
DA:151,0
DA:152,1
DA:155,1
DA:156,1
DA:157,1
DA:159,1
DA:160,1
DA:161,1
DA:162,1
DA:163,1
DA:164,1
DA:165,1
DA:166,1
DA:167,0
DA:168,0
DA:169,1
DA:172,1
DA:173,1
DA:174,1
DA:176,1
DA:177,1
DA:178,1
DA:179,1
DA:180,1
DA:181,1
DA:182,1
DA:183,1
DA:184,0
DA:185,0
DA:186,1
DA:189,1
DA:190,1
DA:191,1
DA:193,1
DA:194,1
DA:195,1
DA:196,1
DA:197,1
DA:198,1
DA:199,1
DA:200,1
DA:201,0
DA:202,0
DA:203,1
DA:206,1
DA:207,1
DA:208,1
DA:210,1
DA:211,1
DA:212,1
DA:213,1
DA:214,1
DA:215,1
DA:216,1
DA:217,1
DA:218,0
DA:219,0
DA:220,1
DA:223,1
DA:224,1
DA:225,1
DA:227,1
DA:228,1
DA:229,1
DA:230,1
DA:231,1
DA:232,1
DA:233,1
DA:234,1
DA:235,0
DA:236,0
DA:237,1
DA:240,1
DA:241,1
DA:242,1
DA:244,1
DA:245,1
DA:246,1
DA:247,1
DA:248,1
DA:249,1
DA:250,1
DA:251,1
DA:252,0
DA:253,0
DA:254,1
DA:257,1
DA:258,1
DA:259,1
DA:261,1
DA:262,1
DA:263,1
DA:264,1
DA:265,1
DA:266,0
DA:267,0
DA:268,1
DA:271,1
DA:272,1
DA:273,1
DA:275,1
DA:276,1
DA:277,1
DA:278,1
DA:279,0
DA:280,0
DA:281,1
DA:284,1
DA:285,1
DA:287,1
DA:288,1
DA:289,1
DA:290,1
DA:291,1
DA:292,1
DA:293,1
DA:294,1
DA:295,1
DA:296,1
DA:297,1
DA:298,1
DA:299,1
DA:300,1
DA:301,1
DA:302,1
DA:303,1
DA:304,1
DA:306,1
DA:307,1
DA:308,1
DA:309,1
DA:310,1
DA:311,0
DA:312,0
DA:313,1
DA:316,1
DA:317,1
DA:319,1
DA:320,1
DA:321,1
DA:322,1
DA:323,1
DA:324,1
DA:325,1
DA:326,1
DA:327,1
DA:328,1
DA:329,1
DA:330,1
DA:331,1
DA:332,1
DA:333,1
DA:334,1
DA:336,1
DA:337,1
DA:338,1
DA:339,1
DA:340,1
DA:341,1
DA:342,1
DA:343,1
DA:344,0
DA:345,0
DA:346,1
DA:349,1
DA:350,1
DA:351,1
DA:353,8
DA:354,7
DA:355,7
DA:357,7
DA:358,7
DA:359,7
DA:360,7
DA:361,7
DA:362,0
DA:363,0
DA:365,1
BRF:0
BRH:0
LF:294
LH:256
end_of_record
SF:/home/noah/src/ruchy/src/backend/transpiler/type_inference.rs
FN:235,_RNCNvNtNtNtNtCskTACvQmcrtm_5ruchy7backend10transpiler14type_inference5tests27contains_numeric_operations0Bb_
FN:220,_RNvNtNtNtNtCskTACvQmcrtm_5ruchy7backend10transpiler14type_inference5tests27contains_numeric_operations
FN:442,_RNvNtNtNtNtCskTACvQmcrtm_5ruchy7backend10transpiler14type_inference5testss_26test_contains_param_helper
FN:510,_RNvNtNtNtNtCskTACvQmcrtm_5ruchy7backend10transpiler14type_inference5testss_26test_string_literal_helper
FN:426,_RNvNtNtNtNtCskTACvQmcrtm_5ruchy7backend10transpiler14type_inference5testss_27test_no_function_no_numeric
FN:475,_RNvNtNtNtNtCskTACvQmcrtm_5ruchy7backend10transpiler14type_inference5testss_29test_complex_nested_detection
FN:458,_RNvNtNtNtNtCskTACvQmcrtm_5ruchy7backend10transpiler14type_inference5testss_29test_contains_param_in_binary
FN:394,_RNvNtNtNtNtCskTACvQmcrtm_5ruchy7backend10transpiler14type_inference5testss_30test_detects_numeric_in_modulo
FN:331,_RNvNtNtNtNtCskTACvQmcrtm_5ruchy7backend10transpiler14type_inference5testss_31test_detects_function_in_lambda
FN:251,_RNvNtNtNtNtCskTACvQmcrtm_5ruchy7backend10transpiler14type_inference5testss_31test_detects_function_parameter
FN:268,_RNvNtNtNtNtCskTACvQmcrtm_5ruchy7backend10transpiler14type_inference5testss_31test_detects_numeric_operations
FN:346,_RNvNtNtNtNtCskTACvQmcrtm_5ruchy7backend10transpiler14type_inference5testss_32test_detects_numeric_in_addition
FN:378,_RNvNtNtNtNtCskTACvQmcrtm_5ruchy7backend10transpiler14type_inference5testss_32test_detects_numeric_in_division
FN:316,_RNvNtNtNtNtCskTACvQmcrtm_5ruchy7backend10transpiler14type_inference5testss_33test_detects_function_in_let_body
FN:284,_RNvNtNtNtNtCskTACvQmcrtm_5ruchy7backend10transpiler14type_inference5testss_33test_detects_nested_function_call
FN:301,_RNvNtNtNtNtCskTACvQmcrtm_5ruchy7backend10transpiler14type_inference5testss_34test_detects_function_in_if_branch
FN:410,_RNvNtNtNtNtCskTACvQmcrtm_5ruchy7backend10transpiler14type_inference5testss_34test_detects_numeric_in_comparison
FN:362,_RNvNtNtNtNtCskTACvQmcrtm_5ruchy7backend10transpiler14type_inference5testss_35test_detects_numeric_in_subtraction
FN:493,_RNvNtNtNtNtCskTACvQmcrtm_5ruchy7backend10transpiler14type_inference5testss_37test_string_concatenation_not_numeric
FN:199,_RNCNvNtNtNtCskTACvQmcrtm_5ruchy7backend10transpiler14type_inference14contains_param0B9_
FN:203,_RNCNvNtNtNtCskTACvQmcrtm_5ruchy7backend10transpiler14type_inference14contains_params_0B9_
FN:60,_RNCNvNtNtNtCskTACvQmcrtm_5ruchy7backend10transpiler14type_inference18check_if_for_param0B9_
FN:177,_RNCNvNtNtNtCskTACvQmcrtm_5ruchy7backend10transpiler14type_inference22check_if_numeric_usage0B9_
FN:188,_RNCNvNtNtNtCskTACvQmcrtm_5ruchy7backend10transpiler14type_inference24check_call_numeric_usage0B9_
FN:170,_RNCNvNtNtNtCskTACvQmcrtm_5ruchy7backend10transpiler14type_inference25check_block_numeric_usage0B9_
FN:86,_RNCNvNtNtNtCskTACvQmcrtm_5ruchy7backend10transpiler14type_inference25is_param_used_as_function0B9_
FN:94,_RNCNvNtNtNtCskTACvQmcrtm_5ruchy7backend10transpiler14type_inference25is_param_used_as_functions0_0B9_
FN:89,_RNCNvNtNtNtCskTACvQmcrtm_5ruchy7backend10transpiler14type_inference25is_param_used_as_functions_0B9_
FN:53,_RNCNvNtNtNtCskTACvQmcrtm_5ruchy7backend10transpiler14type_inference27check_expressions_for_param0B9_
FN:48,_RNCNvNtNtNtCskTACvQmcrtm_5ruchy7backend10transpiler14type_inference29check_call_for_param_argument0B9_
FN:192,_RNvNtNtNtCskTACvQmcrtm_5ruchy7backend10transpiler14type_inference14contains_param
FN:210,_RNvNtNtNtCskTACvQmcrtm_5ruchy7backend10transpiler14type_inference17is_string_literal
FN:57,_RNvNtNtNtCskTACvQmcrtm_5ruchy7backend10transpiler14type_inference18check_if_for_param
FN:64,_RNvNtNtNtCskTACvQmcrtm_5ruchy7backend10transpiler14type_inference19check_let_for_param
FN:150,_RNvNtNtNtCskTACvQmcrtm_5ruchy7backend10transpiler14type_inference19is_numeric_operator
FN:70,_RNvNtNtNtCskTACvQmcrtm_5ruchy7backend10transpiler14type_inference22check_binary_for_param
FN:174,_RNvNtNtNtCskTACvQmcrtm_5ruchy7backend10transpiler14type_inference22check_if_numeric_usage
FN:158,_RNvNtNtNtCskTACvQmcrtm_5ruchy7backend10transpiler14type_inference22has_param_in_operation
FN:181,_RNvNtNtNtCskTACvQmcrtm_5ruchy7backend10transpiler14type_inference23check_let_numeric_usage
FN:163,_RNvNtNtNtCskTACvQmcrtm_5ruchy7backend10transpiler14type_inference23is_string_concatenation
FN:187,_RNvNtNtNtCskTACvQmcrtm_5ruchy7backend10transpiler14type_inference24check_call_numeric_usage
FN:169,_RNvNtNtNtCskTACvQmcrtm_5ruchy7backend10transpiler14type_inference25check_block_numeric_usage
FN:76,_RNvNtNtNtCskTACvQmcrtm_5ruchy7backend10transpiler14type_inference25is_param_used_as_function
FN:113,_RNvNtNtNtCskTACvQmcrtm_5ruchy7backend10transpiler14type_inference25is_param_used_numerically
FN:135,_RNvNtNtNtCskTACvQmcrtm_5ruchy7backend10transpiler14type_inference26check_binary_numeric_usage
FN:52,_RNvNtNtNtCskTACvQmcrtm_5ruchy7backend10transpiler14type_inference27check_expressions_for_param
FN:36,_RNvNtNtNtCskTACvQmcrtm_5ruchy7backend10transpiler14type_inference29check_call_for_param_argument
FN:9,_RNvNtNtNtCskTACvQmcrtm_5ruchy7backend10transpiler14type_inference34is_param_used_as_function_argument
FNDA:0,_RNCNvNtNtNtNtCskTACvQmcrtm_5ruchy7backend10transpiler14type_inference5tests27contains_numeric_operations0Bb_
FNDA:0,_RNvNtNtNtNtCskTACvQmcrtm_5ruchy7backend10transpiler14type_inference5tests27contains_numeric_operations
FNDA:1,_RNvNtNtNtNtCskTACvQmcrtm_5ruchy7backend10transpiler14type_inference5testss_26test_contains_param_helper
FNDA:1,_RNvNtNtNtNtCskTACvQmcrtm_5ruchy7backend10transpiler14type_inference5testss_26test_string_literal_helper
FNDA:1,_RNvNtNtNtNtCskTACvQmcrtm_5ruchy7backend10transpiler14type_inference5testss_27test_no_function_no_numeric
FNDA:1,_RNvNtNtNtNtCskTACvQmcrtm_5ruchy7backend10transpiler14type_inference5testss_29test_complex_nested_detection
FNDA:1,_RNvNtNtNtNtCskTACvQmcrtm_5ruchy7backend10transpiler14type_inference5testss_29test_contains_param_in_binary
FNDA:1,_RNvNtNtNtNtCskTACvQmcrtm_5ruchy7backend10transpiler14type_inference5testss_30test_detects_numeric_in_modulo
FNDA:1,_RNvNtNtNtNtCskTACvQmcrtm_5ruchy7backend10transpiler14type_inference5testss_31test_detects_function_in_lambda
FNDA:1,_RNvNtNtNtNtCskTACvQmcrtm_5ruchy7backend10transpiler14type_inference5testss_31test_detects_function_parameter
FNDA:1,_RNvNtNtNtNtCskTACvQmcrtm_5ruchy7backend10transpiler14type_inference5testss_31test_detects_numeric_operations
FNDA:1,_RNvNtNtNtNtCskTACvQmcrtm_5ruchy7backend10transpiler14type_inference5testss_32test_detects_numeric_in_addition
FNDA:1,_RNvNtNtNtNtCskTACvQmcrtm_5ruchy7backend10transpiler14type_inference5testss_32test_detects_numeric_in_division
FNDA:1,_RNvNtNtNtNtCskTACvQmcrtm_5ruchy7backend10transpiler14type_inference5testss_33test_detects_function_in_let_body
FNDA:1,_RNvNtNtNtNtCskTACvQmcrtm_5ruchy7backend10transpiler14type_inference5testss_33test_detects_nested_function_call
FNDA:1,_RNvNtNtNtNtCskTACvQmcrtm_5ruchy7backend10transpiler14type_inference5testss_34test_detects_function_in_if_branch
FNDA:1,_RNvNtNtNtNtCskTACvQmcrtm_5ruchy7backend10transpiler14type_inference5testss_34test_detects_numeric_in_comparison
FNDA:1,_RNvNtNtNtNtCskTACvQmcrtm_5ruchy7backend10transpiler14type_inference5testss_35test_detects_numeric_in_subtraction
FNDA:1,_RNvNtNtNtNtCskTACvQmcrtm_5ruchy7backend10transpiler14type_inference5testss_37test_string_concatenation_not_numeric
FNDA:0,_RNCNvNtNtNtCskTACvQmcrtm_5ruchy7backend10transpiler14type_inference14contains_param0B9_
FNDA:5,_RNCNvNtNtNtCskTACvQmcrtm_5ruchy7backend10transpiler14type_inference14contains_params_0B9_
FNDA:1,_RNCNvNtNtNtCskTACvQmcrtm_5ruchy7backend10transpiler14type_inference18check_if_for_param0B9_
FNDA:2,_RNCNvNtNtNtCskTACvQmcrtm_5ruchy7backend10transpiler14type_inference22check_if_numeric_usage0B9_
FNDA:3,_RNCNvNtNtNtCskTACvQmcrtm_5ruchy7backend10transpiler14type_inference24check_call_numeric_usage0B9_
FNDA:18,_RNCNvNtNtNtCskTACvQmcrtm_5ruchy7backend10transpiler14type_inference25check_block_numeric_usage0B9_
FNDA:6,_RNCNvNtNtNtCskTACvQmcrtm_5ruchy7backend10transpiler14type_inference25is_param_used_as_function0B9_
FNDA:2,_RNCNvNtNtNtCskTACvQmcrtm_5ruchy7backend10transpiler14type_inference25is_param_used_as_functions0_0B9_
FNDA:20,_RNCNvNtNtNtCskTACvQmcrtm_5ruchy7backend10transpiler14type_inference25is_param_used_as_functions_0B9_
FNDA:8,_RNCNvNtNtNtCskTACvQmcrtm_5ruchy7backend10transpiler14type_inference27check_expressions_for_param0B9_
FNDA:2,_RNCNvNtNtNtCskTACvQmcrtm_5ruchy7backend10transpiler14type_inference29check_call_for_param_argument0B9_
FNDA:29,_RNvNtNtNtCskTACvQmcrtm_5ruchy7backend10transpiler14type_inference14contains_param
FNDA:5,_RNvNtNtNtCskTACvQmcrtm_5ruchy7backend10transpiler14type_inference17is_string_literal
FNDA:1,_RNvNtNtNtCskTACvQmcrtm_5ruchy7backend10transpiler14type_inference18check_if_for_param
FNDA:3,_RNvNtNtNtCskTACvQmcrtm_5ruchy7backend10transpiler14type_inference19check_let_for_param
FNDA:12,_RNvNtNtNtCskTACvQmcrtm_5ruchy7backend10transpiler14type_inference19is_numeric_operator
FNDA:4,_RNvNtNtNtCskTACvQmcrtm_5ruchy7backend10transpiler14type_inference22check_binary_for_param
FNDA:2,_RNvNtNtNtCskTACvQmcrtm_5ruchy7backend10transpiler14type_inference22check_if_numeric_usage
FNDA:10,_RNvNtNtNtCskTACvQmcrtm_5ruchy7backend10transpiler14type_inference22has_param_in_operation
FNDA:3,_RNvNtNtNtCskTACvQmcrtm_5ruchy7backend10transpiler14type_inference23check_let_numeric_usage
FNDA:8,_RNvNtNtNtCskTACvQmcrtm_5ruchy7backend10transpiler14type_inference23is_string_concatenation
FNDA:3,_RNvNtNtNtCskTACvQmcrtm_5ruchy7backend10transpiler14type_inference24check_call_numeric_usage
FNDA:16,_RNvNtNtNtCskTACvQmcrtm_5ruchy7backend10transpiler14type_inference25check_block_numeric_usage
FNDA:83,_RNvNtNtNtCskTACvQmcrtm_5ruchy7backend10transpiler14type_inference25is_param_used_as_function
FNDA:53,_RNvNtNtNtCskTACvQmcrtm_5ruchy7backend10transpiler14type_inference25is_param_used_numerically
FNDA:12,_RNvNtNtNtCskTACvQmcrtm_5ruchy7backend10transpiler14type_inference26check_binary_numeric_usage
FNDA:6,_RNvNtNtNtCskTACvQmcrtm_5ruchy7backend10transpiler14type_inference27check_expressions_for_param
FNDA:3,_RNvNtNtNtCskTACvQmcrtm_5ruchy7backend10transpiler14type_inference29check_call_for_param_argument
FNDA:31,_RNvNtNtNtCskTACvQmcrtm_5ruchy7backend10transpiler14type_inference34is_param_used_as_function_argument
FNF:48
FNH:45
DA:9,31
DA:10,31
DA:11,3
DA:12,3
DA:14,6
DA:15,6
DA:17,1
DA:18,1
DA:20,3
DA:21,0
DA:22,3
DA:24,4
DA:25,4
DA:27,0
DA:28,0
DA:30,14
DA:32,31
DA:36,3
DA:38,3
DA:39,5
DA:40,3
DA:41,3
DA:42,1
DA:43,2
DA:44,0
DA:46,0
DA:48,2
DA:49,3
DA:52,6
DA:53,8
DA:54,6
DA:57,1
DA:58,1
DA:59,1
DA:60,1
DA:61,1
DA:64,3
DA:65,3
DA:66,3
DA:67,3
DA:70,4
DA:71,4
DA:72,4
DA:73,4
DA:76,83
DA:77,83
DA:78,8
DA:80,8
DA:81,8
DA:82,2
DA:83,6
DA:84,0
DA:86,6
DA:88,18
DA:89,20
DA:91,2
DA:92,2
DA:93,2
DA:94,2
DA:96,3
DA:97,3
DA:98,3
DA:100,16
DA:101,16
DA:102,15
DA:104,0
DA:105,0
DA:107,36
DA:109,83
DA:113,53
DA:114,53
DA:115,12
DA:116,12
DA:118,16
DA:119,16
DA:121,2
DA:122,2
DA:124,3
DA:125,3
DA:127,3
DA:128,3
DA:130,17
DA:132,53
DA:135,12
DA:136,12
DA:138,8
DA:139,1
DA:140,7
DA:141,7
DA:142,4
DA:145,4
DA:146,4
DA:147,12
DA:150,12
DA:151,12
DA:155,12
DA:158,10
DA:159,10
DA:160,10
DA:163,8
DA:164,8
DA:165,3
DA:166,8
DA:169,16
DA:170,18
DA:171,16
DA:174,2
DA:175,2
DA:176,2
DA:177,2
DA:178,2
DA:181,3
DA:182,3
DA:183,3
DA:184,3
DA:187,3
DA:188,3
DA:189,3
DA:192,29
DA:193,29
DA:194,18
DA:195,3
DA:196,3
DA:198,0
DA:199,0
DA:201,5
DA:202,5
DA:203,5
DA:205,3
DA:207,29
DA:210,5
DA:211,4
DA:212,5
DA:220,0
DA:221,0
DA:222,0
DA:224,0
DA:228,0
DA:230,0
DA:231,0
DA:233,0
DA:234,0
DA:235,0
DA:237,0
DA:238,0
DA:240,0
DA:241,0
DA:243,0
DA:244,0
DA:246,0
DA:248,0
DA:251,1
DA:252,1
DA:253,1
DA:254,1
DA:257,1
DA:258,0
DA:259,0
DA:260,0
DA:261,0
DA:262,0
DA:264,1
DA:265,1
DA:268,1
DA:269,1
DA:270,1
DA:271,1
DA:273,1
DA:274,0
DA:275,0
DA:276,0
DA:277,0
DA:278,0
DA:280,1
DA:281,1
DA:284,1
DA:285,1
DA:286,1
DA:287,1
DA:289,1
DA:290,0
DA:291,0
DA:292,0
DA:293,0
DA:294,0
DA:295,0
DA:297,1
DA:298,1
DA:301,1
DA:302,1
DA:303,1
DA:304,1
DA:306,1
DA:307,0
DA:308,0
DA:309,0
DA:310,0
DA:312,1
DA:313,1
DA:316,1
DA:317,1
DA:318,1
DA:319,1
DA:321,1
DA:322,0
DA:323,0
DA:324,0
DA:325,0
DA:327,1
DA:328,1
DA:331,1
DA:332,1
DA:333,1
DA:334,1
DA:336,1
DA:337,0
DA:338,0
DA:339,0
DA:340,0
DA:342,1
DA:343,1
DA:346,1
DA:347,1
DA:348,1
DA:349,1
DA:351,1
DA:352,0
DA:353,0
DA:354,0
DA:355,0
DA:356,0
DA:358,1
DA:359,1
DA:362,1
DA:363,1
DA:364,1
DA:365,1
DA:367,1
DA:368,0
DA:369,0
DA:370,0
DA:371,0
DA:372,0
DA:374,1
DA:375,1
DA:378,1
DA:379,1
DA:380,1
DA:381,1
DA:383,1
DA:384,0
DA:385,0
DA:386,0
DA:387,0
DA:388,0
DA:390,1
DA:391,1
DA:394,1
DA:395,1
DA:396,1
DA:397,1
DA:399,1
DA:400,0
DA:401,0
DA:402,0
DA:403,0
DA:404,0
DA:406,1
DA:407,1
DA:410,1
DA:411,1
DA:412,1
DA:413,1
DA:415,1
DA:416,0
DA:417,0
DA:418,0
DA:419,0
DA:420,0
DA:422,1
DA:423,1
DA:426,1
DA:427,1
DA:428,1
DA:429,1
DA:431,1
DA:432,0
DA:433,0
DA:434,0
DA:435,0
DA:436,0
DA:438,1
DA:439,1
DA:442,1
DA:443,1
DA:444,1
DA:445,1
DA:447,1
DA:448,0
DA:449,0
DA:450,0
DA:451,0
DA:452,0
DA:454,1
DA:455,1
DA:458,1
DA:459,1
DA:460,1
DA:461,1
DA:463,1
DA:464,0
DA:465,0
DA:466,0
DA:467,0
DA:468,0
DA:469,0
DA:471,1
DA:472,1
DA:475,1
DA:476,1
DA:477,1
DA:478,1
DA:480,1
DA:481,0
DA:482,0
DA:483,0
DA:484,0
DA:485,0
DA:486,0
DA:487,0
DA:489,1
DA:490,1
DA:493,1
DA:494,1
DA:495,1
DA:496,1
DA:498,1
DA:499,0
DA:500,0
DA:502,0
DA:503,0
DA:504,0
DA:506,1
DA:507,1
DA:510,1
DA:511,1
DA:512,1
DA:513,1
DA:515,1
DA:516,0
DA:517,0
DA:518,0
DA:519,0
DA:521,1
DA:522,1
BRF:0
BRH:0
LF:367
LH:252
end_of_record
SF:/home/noah/src/ruchy/src/backend/transpiler/types.rs
FN:237,_RNCNCNCNvMNtNtNtCskTACvQmcrtm_5ruchy7backend10transpiler5typesNtBa_10Transpiler14transpile_enums0_000Be_
FN:397,_RNCNCNCNvMNtNtNtCskTACvQmcrtm_5ruchy7backend10transpiler5typesNtBa_10Transpiler14transpile_impl000Be_
FN:309,_RNCNCNCNvMNtNtNtCskTACvQmcrtm_5ruchy7backend10transpiler5typesNtBa_10Transpiler15transpile_trait000Be_
FN:546,_RNCNCNCNvMNtNtNtCskTACvQmcrtm_5ruchy7backend10transpiler5typesNtBa_10Transpiler16transpile_extend000Be_
FN:591,_RNCNCNCNvMNtNtNtCskTACvQmcrtm_5ruchy7backend10transpiler5typesNtBa_10Transpiler16transpile_extends_000Be_
FN:237,_RNCNCNvMNtNtNtCskTACvQmcrtm_5ruchy7backend10transpiler5typesNtB8_10Transpiler14transpile_enums0_00Bc_
FN:385,_RNCNCNvMNtNtNtCskTACvQmcrtm_5ruchy7backend10transpiler5typesNtB8_10Transpiler14transpile_impl00Bc_
FN:297,_RNCNCNvMNtNtNtCskTACvQmcrtm_5ruchy7backend10transpiler5typesNtB8_10Transpiler15transpile_trait00Bc_
FN:534,_RNCNCNvMNtNtNtCskTACvQmcrtm_5ruchy7backend10transpiler5typesNtB8_10Transpiler16transpile_extend00Bc_
FN:580,_RNCNCNvMNtNtNtCskTACvQmcrtm_5ruchy7backend10transpiler5typesNtB8_10Transpiler16transpile_extends_00Bc_
FN:185,_RNCNCNvMNtNtNtCskTACvQmcrtm_5ruchy7backend10transpiler5typesNtB8_10Transpiler16transpile_structs_00Bc_
FN:223,_RNCNvMNtNtNtCskTACvQmcrtm_5ruchy7backend10transpiler5typesNtB6_10Transpiler14transpile_enum0Ba_
FN:230,_RNCNvMNtNtNtCskTACvQmcrtm_5ruchy7backend10transpiler5typesNtB6_10Transpiler14transpile_enums0_0Ba_
FN:377,_RNCNvMNtNtNtCskTACvQmcrtm_5ruchy7backend10transpiler5typesNtB6_10Transpiler14transpile_impl0Ba_
FN:428,_RNCNvMNtNtNtCskTACvQmcrtm_5ruchy7backend10transpiler5typesNtB6_10Transpiler14transpile_impls_0Ba_
FN:289,_RNCNvMNtNtNtCskTACvQmcrtm_5ruchy7backend10transpiler5typesNtB6_10Transpiler15transpile_trait0Ba_
FN:345,_RNCNvMNtNtNtCskTACvQmcrtm_5ruchy7backend10transpiler5typesNtB6_10Transpiler15transpile_traits_0Ba_
FN:526,_RNCNvMNtNtNtCskTACvQmcrtm_5ruchy7backend10transpiler5typesNtB6_10Transpiler16transpile_extend0Ba_
FN:572,_RNCNvMNtNtNtCskTACvQmcrtm_5ruchy7backend10transpiler5typesNtB6_10Transpiler16transpile_extends_0Ba_
FN:177,_RNCNvMNtNtNtCskTACvQmcrtm_5ruchy7backend10transpiler5typesNtB6_10Transpiler16transpile_struct0Ba_
FN:181,_RNCNvMNtNtNtCskTACvQmcrtm_5ruchy7backend10transpiler5typesNtB6_10Transpiler16transpile_structs_0Ba_
FN:127,_RNCNvMNtNtNtCskTACvQmcrtm_5ruchy7backend10transpiler5typesNtB6_10Transpiler20transpile_tuple_type0Ba_
FN:99,_RNCNvMNtNtNtCskTACvQmcrtm_5ruchy7backend10transpiler5typesNtB6_10Transpiler22transpile_generic_type0Ba_
FN:136,_RNCNvMNtNtNtCskTACvQmcrtm_5ruchy7backend10transpiler5typesNtB6_10Transpiler23transpile_function_type0Ba_
FN:480,_RNCNCNvMNtNtNtCskTACvQmcrtm_5ruchy7backend10transpiler5typesNtB8_10Transpiler23transpile_property_test00Bc_
FN:476,_RNCNvMNtNtNtCskTACvQmcrtm_5ruchy7backend10transpiler5typesNtB6_10Transpiler23transpile_property_test0Ba_
FN:463,_RNvMNtNtNtCskTACvQmcrtm_5ruchy7backend10transpiler5typesNtB4_10Transpiler23transpile_property_test
FN:636,_RNvNtNtNtNtCskTACvQmcrtm_5ruchy7backend10transpiler5types5testss_29test_transpile_result_helpers
FN:226,_RNCNvMNtNtNtCskTACvQmcrtm_5ruchy7backend10transpiler5typesNtB6_10Transpiler14transpile_enums_0Ba_
FN:213,_RNvMNtNtNtCskTACvQmcrtm_5ruchy7backend10transpiler5typesNtB4_10Transpiler14transpile_enum
FN:365,_RNvMNtNtNtCskTACvQmcrtm_5ruchy7backend10transpiler5typesNtB4_10Transpiler14transpile_impl
FN:60,_RNvMNtNtNtCskTACvQmcrtm_5ruchy7backend10transpiler5typesNtB4_10Transpiler14transpile_type
FN:278,_RNvMNtNtNtCskTACvQmcrtm_5ruchy7backend10transpiler5typesNtB4_10Transpiler15transpile_trait
FN:515,_RNvMNtNtNtCskTACvQmcrtm_5ruchy7backend10transpiler5typesNtB4_10Transpiler16transpile_extend
FN:167,_RNvMNtNtNtCskTACvQmcrtm_5ruchy7backend10transpiler5typesNtB4_10Transpiler16transpile_struct
FN:112,_RNvMNtNtNtCskTACvQmcrtm_5ruchy7backend10transpiler5typesNtB4_10Transpiler19transpile_list_type
FN:118,_RNvMNtNtNtCskTACvQmcrtm_5ruchy7backend10transpiler5typesNtB4_10Transpiler20transpile_array_type
FN:78,_RNvMNtNtNtCskTACvQmcrtm_5ruchy7backend10transpiler5typesNtB4_10Transpiler20transpile_named_type
FN:125,_RNvMNtNtNtCskTACvQmcrtm_5ruchy7backend10transpiler5typesNtB4_10Transpiler20transpile_tuple_type
FN:96,_RNvMNtNtNtCskTACvQmcrtm_5ruchy7backend10transpiler5typesNtB4_10Transpiler22transpile_generic_type
FN:134,_RNvMNtNtNtCskTACvQmcrtm_5ruchy7backend10transpiler5typesNtB4_10Transpiler23transpile_function_type
FN:106,_RNvMNtNtNtCskTACvQmcrtm_5ruchy7backend10transpiler5typesNtB4_10Transpiler23transpile_optional_type
FN:144,_RNvMNtNtNtCskTACvQmcrtm_5ruchy7backend10transpiler5typesNtB4_10Transpiler24transpile_reference_type
FNDA:0,_RNCNCNCNvMNtNtNtCskTACvQmcrtm_5ruchy7backend10transpiler5typesNtBa_10Transpiler14transpile_enums0_000Be_
FNDA:0,_RNCNCNCNvMNtNtNtCskTACvQmcrtm_5ruchy7backend10transpiler5typesNtBa_10Transpiler14transpile_impl000Be_
FNDA:0,_RNCNCNCNvMNtNtNtCskTACvQmcrtm_5ruchy7backend10transpiler5typesNtBa_10Transpiler15transpile_trait000Be_
FNDA:0,_RNCNCNCNvMNtNtNtCskTACvQmcrtm_5ruchy7backend10transpiler5typesNtBa_10Transpiler16transpile_extend000Be_
FNDA:0,_RNCNCNCNvMNtNtNtCskTACvQmcrtm_5ruchy7backend10transpiler5typesNtBa_10Transpiler16transpile_extends_000Be_
FNDA:2,_RNCNCNvMNtNtNtCskTACvQmcrtm_5ruchy7backend10transpiler5typesNtB8_10Transpiler14transpile_enums0_00Bc_
FNDA:0,_RNCNCNvMNtNtNtCskTACvQmcrtm_5ruchy7backend10transpiler5typesNtB8_10Transpiler14transpile_impl00Bc_
FNDA:0,_RNCNCNvMNtNtNtCskTACvQmcrtm_5ruchy7backend10transpiler5typesNtB8_10Transpiler15transpile_trait00Bc_
FNDA:0,_RNCNCNvMNtNtNtCskTACvQmcrtm_5ruchy7backend10transpiler5typesNtB8_10Transpiler16transpile_extend00Bc_
FNDA:0,_RNCNCNvMNtNtNtCskTACvQmcrtm_5ruchy7backend10transpiler5typesNtB8_10Transpiler16transpile_extends_00Bc_
FNDA:0,_RNCNCNvMNtNtNtCskTACvQmcrtm_5ruchy7backend10transpiler5typesNtB8_10Transpiler16transpile_structs_00Bc_
FNDA:2,_RNCNvMNtNtNtCskTACvQmcrtm_5ruchy7backend10transpiler5typesNtB6_10Transpiler14transpile_enum0Ba_
FNDA:2,_RNCNvMNtNtNtCskTACvQmcrtm_5ruchy7backend10transpiler5typesNtB6_10Transpiler14transpile_enums0_0Ba_
FNDA:0,_RNCNvMNtNtNtCskTACvQmcrtm_5ruchy7backend10transpiler5typesNtB6_10Transpiler14transpile_impl0Ba_
FNDA:0,_RNCNvMNtNtNtCskTACvQmcrtm_5ruchy7backend10transpiler5typesNtB6_10Transpiler14transpile_impls_0Ba_
FNDA:1,_RNCNvMNtNtNtCskTACvQmcrtm_5ruchy7backend10transpiler5typesNtB6_10Transpiler15transpile_trait0Ba_
FNDA:0,_RNCNvMNtNtNtCskTACvQmcrtm_5ruchy7backend10transpiler5typesNtB6_10Transpiler15transpile_traits_0Ba_
FNDA:0,_RNCNvMNtNtNtCskTACvQmcrtm_5ruchy7backend10transpiler5typesNtB6_10Transpiler16transpile_extend0Ba_
FNDA:0,_RNCNvMNtNtNtCskTACvQmcrtm_5ruchy7backend10transpiler5typesNtB6_10Transpiler16transpile_extends_0Ba_
FNDA:3,_RNCNvMNtNtNtCskTACvQmcrtm_5ruchy7backend10transpiler5typesNtB6_10Transpiler16transpile_struct0Ba_
FNDA:5,_RNCNvMNtNtNtCskTACvQmcrtm_5ruchy7backend10transpiler5typesNtB6_10Transpiler16transpile_structs_0Ba_
FNDA:0,_RNCNvMNtNtNtCskTACvQmcrtm_5ruchy7backend10transpiler5typesNtB6_10Transpiler20transpile_tuple_type0Ba_
FNDA:0,_RNCNvMNtNtNtCskTACvQmcrtm_5ruchy7backend10transpiler5typesNtB6_10Transpiler22transpile_generic_type0Ba_
FNDA:0,_RNCNvMNtNtNtCskTACvQmcrtm_5ruchy7backend10transpiler5typesNtB6_10Transpiler23transpile_function_type0Ba_
FNDA:0,_RNCNCNvMNtNtNtCskTACvQmcrtm_5ruchy7backend10transpiler5typesNtB8_10Transpiler23transpile_property_test00Bc_
FNDA:0,_RNCNvMNtNtNtCskTACvQmcrtm_5ruchy7backend10transpiler5typesNtB6_10Transpiler23transpile_property_test0Ba_
FNDA:0,_RNvMNtNtNtCskTACvQmcrtm_5ruchy7backend10transpiler5typesNtB4_10Transpiler23transpile_property_test
FNDA:1,_RNvNtNtNtNtCskTACvQmcrtm_5ruchy7backend10transpiler5types5testss_29test_transpile_result_helpers
FNDA:2,_RNCNvMNtNtNtCskTACvQmcrtm_5ruchy7backend10transpiler5typesNtB6_10Transpiler14transpile_enums_0Ba_
FNDA:1,_RNvMNtNtNtCskTACvQmcrtm_5ruchy7backend10transpiler5typesNtB4_10Transpiler14transpile_enum
FNDA:1,_RNvMNtNtNtCskTACvQmcrtm_5ruchy7backend10transpiler5typesNtB4_10Transpiler14transpile_impl
FNDA:31,_RNvMNtNtNtCskTACvQmcrtm_5ruchy7backend10transpiler5typesNtB4_10Transpiler14transpile_type
FNDA:1,_RNvMNtNtNtCskTACvQmcrtm_5ruchy7backend10transpiler5typesNtB4_10Transpiler15transpile_trait
FNDA:0,_RNvMNtNtNtCskTACvQmcrtm_5ruchy7backend10transpiler5typesNtB4_10Transpiler16transpile_extend
FNDA:5,_RNvMNtNtNtCskTACvQmcrtm_5ruchy7backend10transpiler5typesNtB4_10Transpiler16transpile_struct
FNDA:0,_RNvMNtNtNtCskTACvQmcrtm_5ruchy7backend10transpiler5typesNtB4_10Transpiler19transpile_list_type
FNDA:0,_RNvMNtNtNtCskTACvQmcrtm_5ruchy7backend10transpiler5typesNtB4_10Transpiler20transpile_array_type
FNDA:31,_RNvMNtNtNtCskTACvQmcrtm_5ruchy7backend10transpiler5typesNtB4_10Transpiler20transpile_named_type
FNDA:0,_RNvMNtNtNtCskTACvQmcrtm_5ruchy7backend10transpiler5typesNtB4_10Transpiler20transpile_tuple_type
FNDA:0,_RNvMNtNtNtCskTACvQmcrtm_5ruchy7backend10transpiler5typesNtB4_10Transpiler22transpile_generic_type
FNDA:0,_RNvMNtNtNtCskTACvQmcrtm_5ruchy7backend10transpiler5typesNtB4_10Transpiler23transpile_function_type
FNDA:0,_RNvMNtNtNtCskTACvQmcrtm_5ruchy7backend10transpiler5typesNtB4_10Transpiler23transpile_optional_type
FNDA:0,_RNvMNtNtNtCskTACvQmcrtm_5ruchy7backend10transpiler5typesNtB4_10Transpiler24transpile_reference_type
FNF:43
FNH:14
DA:60,31
DA:63,31
DA:64,31
DA:65,0
DA:66,0
DA:67,0
DA:68,0
DA:69,0
DA:70,0
DA:71,0
DA:72,0
DA:73,0
DA:75,31
DA:78,31
DA:79,31
DA:80,31
DA:81,31
DA:82,31
DA:83,31
DA:84,31
DA:85,31
DA:86,31
DA:88,17
DA:89,17
DA:92,31
DA:93,31
DA:96,0
DA:97,0
DA:98,0
DA:99,0
DA:100,0
DA:101,0
DA:102,0
DA:103,0
DA:106,0
DA:107,0
DA:108,0
DA:109,0
DA:112,0
DA:113,0
DA:114,0
DA:115,0
DA:118,0
DA:119,0
DA:120,0
DA:121,0
DA:122,0
DA:125,0
DA:126,0
DA:127,0
DA:128,0
DA:129,0
DA:130,0
DA:131,0
DA:134,0
DA:135,0
DA:136,0
DA:137,0
DA:138,0
DA:139,0
DA:140,0
DA:141,0
DA:144,0
DA:148,0
DA:149,0
DA:150,0
DA:151,0
DA:153,0
DA:155,0
DA:156,0
DA:158,0
DA:159,0
DA:160,0
DA:162,0
DA:164,0
DA:167,5
DA:168,5
DA:169,5
DA:170,5
DA:171,5
DA:172,5
DA:173,5
DA:174,5
DA:176,5
DA:177,5
DA:179,5
DA:180,5
DA:181,5
DA:182,5
DA:183,5
DA:184,5
DA:185,5
DA:187,5
DA:188,0
DA:190,5
DA:192,5
DA:193,5
DA:195,5
DA:197,5
DA:198,3
DA:204,2
DA:210,5
DA:213,1
DA:214,1
DA:215,1
DA:216,1
DA:217,1
DA:218,1
DA:219,1
DA:220,1
DA:222,1
DA:223,2
DA:226,2
DA:228,1
DA:229,1
DA:230,2
DA:231,2
DA:233,2
DA:235,2
DA:236,2
DA:237,2
DA:238,2
DA:239,2
DA:240,0
DA:243,0
DA:244,0
DA:247,0
DA:249,2
DA:250,1
DA:252,1
DA:255,1
DA:256,0
DA:258,1
DA:261,1
DA:262,0
DA:269,1
DA:276,1
DA:278,1
DA:279,1
DA:280,1
DA:281,1
DA:282,1
DA:283,1
DA:284,1
DA:285,1
DA:287,1
DA:288,1
DA:289,1
DA:290,1
DA:293,1
DA:294,1
DA:295,1
DA:296,1
DA:297,1
DA:298,0
DA:300,0
DA:301,0
DA:303,0
DA:306,0
DA:307,0
DA:308,0
DA:309,0
DA:310,0
DA:312,0
DA:313,1
DA:316,1
DA:317,0
DA:318,0
DA:320,1
DA:324,1
DA:327,1
DA:328,0
DA:329,0
DA:335,1
DA:339,1
DA:340,1
DA:342,1
DA:344,1
DA:345,1
DA:347,1
DA:349,1
DA:350,1
DA:356,0
DA:362,1
DA:365,1
DA:366,1
DA:367,1
DA:368,1
DA:369,1
DA:370,1
DA:371,1
DA:372,1
DA:373,1
DA:375,1
DA:376,1
DA:377,1
DA:378,0
DA:381,0
DA:382,0
DA:383,0
DA:384,0
DA:385,0
DA:386,0
DA:388,0
DA:389,0
DA:391,0
DA:394,0
DA:395,0
DA:396,0
DA:397,0
DA:398,0
DA:400,0
DA:401,0
DA:404,0
DA:405,0
DA:406,0
DA:408,0
DA:412,0
DA:415,0
DA:417,0
DA:422,0
DA:423,1
DA:425,1
DA:427,1
DA:428,1
DA:430,1
DA:431,0
DA:432,0
DA:433,0
DA:439,0
DA:446,1
DA:447,1
DA:453,0
DA:460,1
DA:463,0
DA:468,0
DA:469,0
DA:471,0
DA:474,0
DA:475,0
DA:476,0
DA:477,0
DA:478,0
DA:479,0
DA:480,0
DA:481,0
DA:482,0
DA:483,0
DA:485,0
DA:488,0
DA:503,0
DA:505,0
DA:515,0
DA:516,0
DA:517,0
DA:518,0
DA:519,0
DA:520,0
DA:521,0
DA:524,0
DA:525,0
DA:526,0
DA:527,0
DA:530,0
DA:531,0
DA:532,0
DA:533,0
DA:534,0
DA:535,0
DA:537,0
DA:538,0
DA:540,0
DA:543,0
DA:544,0
DA:545,0
DA:546,0
DA:547,0
DA:549,0
DA:550,0
DA:553,0
DA:554,0
DA:555,0
DA:557,0
DA:561,0
DA:564,0
DA:565,0
DA:567,0
DA:570,0
DA:571,0
DA:572,0
DA:573,0
DA:576,0
DA:577,0
DA:578,0
DA:579,0
DA:580,0
DA:581,0
DA:582,0
DA:583,0
DA:585,0
DA:588,0
DA:589,0
DA:590,0
DA:591,0
DA:592,0
DA:594,0
DA:595,0
DA:598,0
DA:599,0
DA:600,0
DA:602,0
DA:606,0
DA:608,0
DA:613,0
DA:614,0
DA:616,0
DA:619,0
DA:628,0
DA:636,1
DA:637,1
DA:638,1
DA:641,1
DA:642,1
DA:643,1
DA:644,1
DA:645,1
DA:646,1
BRF:0
BRH:0
LF:354
LH:140
end_of_record
SF:/home/noah/src/ruchy/src/backend/wasm/debug.rs
FN:7,_RNvNtNtNtNtCskTACvQmcrtm_5ruchy7backend4wasm5debug11debug_testss_18debug_empty_module
FNDA:1,_RNvNtNtNtNtCskTACvQmcrtm_5ruchy7backend4wasm5debug11debug_testss_18debug_empty_module
FNF:1
FNH:1
DA:7,1
DA:8,1
DA:9,1
DA:11,1
DA:13,1
DA:16,1
DA:17,4
DA:18,3
DA:19,3
DA:20,3
DA:23,3
DA:24,3
DA:26,3
DA:27,3
DA:28,3
DA:29,3
DA:30,3
DA:31,0
DA:32,0
DA:34,3
DA:35,3
DA:39,1
DA:40,1
DA:41,0
DA:43,1
BRF:0
BRH:0
LF:25
LH:22
end_of_record
SF:/home/noah/src/ruchy/src/backend/wasm/mod.rs
FN:555,_RNvMs0_NtNtCskTACvQmcrtm_5ruchy7backend4wasmNtB5_10WasmModule3new
FN:559,_RNvMs0_NtNtCskTACvQmcrtm_5ruchy7backend4wasmNtB5_10WasmModule5bytes
FN:544,_RNvXs_NtNtCskTACvQmcrtm_5ruchy7backend4wasmNtB4_11WasmEmitterNtNtCs66KPHxksi63_4core7default7Default7default
FN:484,_RNCNvMNtNtCskTACvQmcrtm_5ruchy7backend4wasmNtB4_11WasmEmitter12needs_locals0B8_
FN:488,_RNCNvMNtNtCskTACvQmcrtm_5ruchy7backend4wasmNtB4_11WasmEmitter12needs_localss_0B8_
FN:429,_RNCNvMNtNtCskTACvQmcrtm_5ruchy7backend4wasmNtB4_11WasmEmitter12needs_memory0B8_
FN:439,_RNCNvMNtNtCskTACvQmcrtm_5ruchy7backend4wasmNtB4_11WasmEmitter12needs_memorys_0B8_
FN:449,_RNCNvMNtNtCskTACvQmcrtm_5ruchy7backend4wasmNtB4_11WasmEmitter17has_main_function0B8_
FN:458,_RNCNvMNtNtCskTACvQmcrtm_5ruchy7backend4wasmNtB4_11WasmEmitter21has_return_with_value0B8_
FN:462,_RNCNvMNtNtCskTACvQmcrtm_5ruchy7backend4wasmNtB4_11WasmEmitter21has_return_with_values_0B8_
FN:511,_RNCNvMNtNtCskTACvQmcrtm_5ruchy7backend4wasmNtB4_11WasmEmitter25expression_produces_value0B8_
FN:479,_RNvMNtNtCskTACvQmcrtm_5ruchy7backend4wasmNtB2_11WasmEmitter12needs_locals
FN:424,_RNvMNtNtCskTACvQmcrtm_5ruchy7backend4wasmNtB2_11WasmEmitter12needs_memory
FN:528,_RNvMNtNtCskTACvQmcrtm_5ruchy7backend4wasmNtB2_11WasmEmitter13lower_literal
FN:176,_RNvMNtNtCskTACvQmcrtm_5ruchy7backend4wasmNtB2_11WasmEmitter16lower_expression
FN:381,_RNvMNtNtCskTACvQmcrtm_5ruchy7backend4wasmNtB2_11WasmEmitter17collect_functions
FN:446,_RNvMNtNtCskTACvQmcrtm_5ruchy7backend4wasmNtB2_11WasmEmitter17has_main_function
FN:387,_RNvMNtNtCskTACvQmcrtm_5ruchy7backend4wasmNtB2_11WasmEmitter21collect_functions_rec
FN:402,_RNvMNtNtCskTACvQmcrtm_5ruchy7backend4wasmNtB2_11WasmEmitter21get_non_function_code
FN:455,_RNvMNtNtCskTACvQmcrtm_5ruchy7backend4wasmNtB2_11WasmEmitter21has_return_with_value
FN:501,_RNvMNtNtCskTACvQmcrtm_5ruchy7backend4wasmNtB2_11WasmEmitter25expression_produces_value
FN:18,_RNvMNtNtCskTACvQmcrtm_5ruchy7backend4wasmNtB2_11WasmEmitter3new
FN:25,_RNvMNtNtCskTACvQmcrtm_5ruchy7backend4wasmNtB2_11WasmEmitter4emit
FN:406,_RNCNvMNtNtCskTACvQmcrtm_5ruchy7backend4wasmNtB4_11WasmEmitter21get_non_function_code0B8_
FN:610,_RNCNvNtNtNtCskTACvQmcrtm_5ruchy7backend4wasm5testss_20test_integer_literal0B9_
FN:577,_RNCNvNtNtNtCskTACvQmcrtm_5ruchy7backend4wasm5testss_24test_empty_program_emits0B9_
FN:570,_RNvNtNtNtCskTACvQmcrtm_5ruchy7backend4wasm5testss_20test_emitter_creates
FN:599,_RNvNtNtNtCskTACvQmcrtm_5ruchy7backend4wasm5testss_20test_integer_literal
FN:575,_RNvNtNtNtCskTACvQmcrtm_5ruchy7backend4wasm5testss_24test_empty_program_emits
FNDA:0,_RNvMs0_NtNtCskTACvQmcrtm_5ruchy7backend4wasmNtB5_10WasmModule3new
FNDA:0,_RNvMs0_NtNtCskTACvQmcrtm_5ruchy7backend4wasmNtB5_10WasmModule5bytes
FNDA:0,_RNvXs_NtNtCskTACvQmcrtm_5ruchy7backend4wasmNtB4_11WasmEmitterNtNtCs66KPHxksi63_4core7default7Default7default
FNDA:0,_RNCNvMNtNtCskTACvQmcrtm_5ruchy7backend4wasmNtB4_11WasmEmitter12needs_locals0B8_
FNDA:0,_RNCNvMNtNtCskTACvQmcrtm_5ruchy7backend4wasmNtB4_11WasmEmitter12needs_localss_0B8_
FNDA:0,_RNCNvMNtNtCskTACvQmcrtm_5ruchy7backend4wasmNtB4_11WasmEmitter12needs_memory0B8_
FNDA:0,_RNCNvMNtNtCskTACvQmcrtm_5ruchy7backend4wasmNtB4_11WasmEmitter12needs_memorys_0B8_
FNDA:0,_RNCNvMNtNtCskTACvQmcrtm_5ruchy7backend4wasmNtB4_11WasmEmitter17has_main_function0B8_
FNDA:0,_RNCNvMNtNtCskTACvQmcrtm_5ruchy7backend4wasmNtB4_11WasmEmitter21has_return_with_value0B8_
FNDA:0,_RNCNvMNtNtCskTACvQmcrtm_5ruchy7backend4wasmNtB4_11WasmEmitter21has_return_with_values_0B8_
FNDA:0,_RNCNvMNtNtCskTACvQmcrtm_5ruchy7backend4wasmNtB4_11WasmEmitter25expression_produces_value0B8_
FNDA:3,_RNvMNtNtCskTACvQmcrtm_5ruchy7backend4wasmNtB2_11WasmEmitter12needs_locals
FNDA:3,_RNvMNtNtCskTACvQmcrtm_5ruchy7backend4wasmNtB2_11WasmEmitter12needs_memory
FNDA:1,_RNvMNtNtCskTACvQmcrtm_5ruchy7backend4wasmNtB2_11WasmEmitter13lower_literal
FNDA:3,_RNvMNtNtCskTACvQmcrtm_5ruchy7backend4wasmNtB2_11WasmEmitter16lower_expression
FNDA:3,_RNvMNtNtCskTACvQmcrtm_5ruchy7backend4wasmNtB2_11WasmEmitter17collect_functions
FNDA:3,_RNvMNtNtCskTACvQmcrtm_5ruchy7backend4wasmNtB2_11WasmEmitter17has_main_function
FNDA:3,_RNvMNtNtCskTACvQmcrtm_5ruchy7backend4wasmNtB2_11WasmEmitter21collect_functions_rec
FNDA:0,_RNvMNtNtCskTACvQmcrtm_5ruchy7backend4wasmNtB2_11WasmEmitter21get_non_function_code
FNDA:6,_RNvMNtNtCskTACvQmcrtm_5ruchy7backend4wasmNtB2_11WasmEmitter21has_return_with_value
FNDA:1,_RNvMNtNtCskTACvQmcrtm_5ruchy7backend4wasmNtB2_11WasmEmitter25expression_produces_value
FNDA:4,_RNvMNtNtCskTACvQmcrtm_5ruchy7backend4wasmNtB2_11WasmEmitter3new
FNDA:3,_RNvMNtNtCskTACvQmcrtm_5ruchy7backend4wasmNtB2_11WasmEmitter4emit
FNDA:0,_RNCNvMNtNtCskTACvQmcrtm_5ruchy7backend4wasmNtB4_11WasmEmitter21get_non_function_code0B8_
FNDA:24,_RNCNvNtNtNtCskTACvQmcrtm_5ruchy7backend4wasm5testss_20test_integer_literal0B9_
FNDA:1,_RNCNvNtNtNtCskTACvQmcrtm_5ruchy7backend4wasm5testss_24test_empty_program_emits0B9_
FNDA:1,_RNvNtNtNtCskTACvQmcrtm_5ruchy7backend4wasm5testss_20test_emitter_creates
FNDA:1,_RNvNtNtNtCskTACvQmcrtm_5ruchy7backend4wasm5testss_20test_integer_literal
FNDA:1,_RNvNtNtNtCskTACvQmcrtm_5ruchy7backend4wasm5testss_24test_empty_program_emits
FNF:29
FNH:16
DA:18,4
DA:19,4
DA:20,4
DA:21,4
DA:22,4
DA:25,3
DA:26,3
DA:29,3
DA:30,3
DA:33,3
DA:35,3
DA:37,0
DA:38,0
DA:39,0
DA:40,0
DA:41,0
DA:44,0
DA:45,0
DA:46,0
DA:47,0
DA:50,3
DA:51,3
DA:52,0
DA:53,3
DA:54,3
DA:55,3
DA:57,3
DA:60,3
DA:61,3
DA:62,0
DA:63,0
DA:64,0
DA:67,0
DA:68,0
DA:69,0
DA:70,0
DA:71,3
DA:72,3
DA:73,3
DA:74,3
DA:77,3
DA:78,0
DA:79,0
DA:80,0
DA:81,0
DA:82,0
DA:83,0
DA:84,0
DA:85,0
DA:86,0
DA:87,3
DA:90,3
DA:91,0
DA:92,0
DA:93,0
DA:94,3
DA:97,3
DA:99,3
DA:101,0
DA:102,0
DA:103,0
DA:105,0
DA:107,0
DA:110,0
DA:111,0
DA:112,0
DA:113,0
DA:118,0
DA:119,0
DA:123,0
DA:124,0
DA:125,0
DA:126,0
DA:128,0
DA:130,0
DA:132,0
DA:133,0
DA:135,0
DA:136,0
DA:137,0
DA:139,0
DA:140,0
DA:141,0
DA:143,0
DA:144,0
DA:145,0
DA:148,3
DA:149,0
DA:151,3
DA:153,3
DA:155,3
DA:156,3
DA:157,3
DA:159,4
DA:160,1
DA:161,1
DA:163,3
DA:164,1
DA:165,2
DA:167,3
DA:168,3
DA:170,3
DA:172,3
DA:173,3
DA:176,3
DA:177,3
DA:178,1
DA:179,0
DA:180,0
DA:183,0
DA:186,0
DA:189,0
DA:190,0
DA:191,0
DA:192,0
DA:193,0
DA:194,0
DA:195,0
DA:196,0
DA:197,0
DA:198,0
DA:199,0
DA:200,0
DA:201,0
DA:203,0
DA:205,0
DA:207,2
DA:209,2
DA:210,2
DA:211,0
DA:214,0
DA:215,0
DA:216,0
DA:217,0
DA:219,2
DA:221,0
DA:222,0
DA:225,0
DA:228,0
DA:229,0
DA:231,0
DA:235,0
DA:238,0
DA:241,0
DA:242,0
DA:243,0
DA:244,0
DA:245,0
DA:246,0
DA:247,0
DA:248,0
DA:251,0
DA:253,0
DA:255,0
DA:256,0
DA:259,0
DA:262,0
DA:265,0
DA:266,0
DA:269,0
DA:272,0
DA:275,0
DA:277,0
DA:282,0
DA:284,0
DA:285,0
DA:288,0
DA:289,0
DA:294,0
DA:296,0
DA:298,0
DA:299,0
DA:302,0
DA:305,0
DA:308,0
DA:309,0
DA:310,0
DA:311,0
DA:314,0
DA:318,0
DA:320,0
DA:322,0
DA:324,0
DA:325,0
DA:328,0
DA:331,0
DA:332,0
DA:333,0
DA:334,0
DA:335,0
DA:336,0
DA:337,0
DA:338,0
DA:339,0
DA:340,0
DA:341,0
DA:342,0
DA:343,0
DA:344,0
DA:345,0
DA:348,0
DA:352,0
DA:354,0
DA:359,0
DA:361,0
DA:363,0
DA:364,0
DA:367,0
DA:368,0
DA:369,0
DA:372,0
DA:374,0
DA:376,0
DA:378,3
DA:381,3
DA:382,3
DA:383,3
DA:384,3
DA:385,3
DA:387,3
DA:388,3
DA:389,0
DA:390,0
DA:391,0
DA:392,2
DA:393,2
DA:394,0
DA:395,0
DA:397,1
DA:399,3
DA:402,0
DA:403,0
DA:404,0
DA:405,0
DA:406,0
DA:407,0
DA:408,0
DA:410,0
DA:411,0
DA:412,0
DA:413,0
DA:415,0
DA:418,0
DA:419,0
DA:421,0
DA:424,3
DA:425,1
DA:426,0
DA:427,0
DA:428,0
DA:429,2
DA:430,0
DA:431,0
DA:433,0
DA:434,0
DA:436,0
DA:437,0
DA:438,0
DA:439,0
DA:441,1
DA:443,3
DA:446,3
DA:447,3
DA:448,0
DA:449,2
DA:450,1
DA:452,3
DA:455,6
DA:456,6
DA:457,0
DA:458,4
DA:459,0
DA:460,0
DA:461,0
DA:462,0
DA:464,0
DA:465,0
DA:467,0
DA:468,0
DA:469,0
DA:471,0
DA:472,0
DA:474,2
DA:476,6
DA:479,3
DA:480,3
DA:481,0
DA:482,0
DA:483,0
DA:484,2
DA:485,0
DA:486,0
DA:487,0
DA:488,0
DA:490,0
DA:491,0
DA:493,0
DA:494,0
DA:496,1
DA:498,3
DA:501,1
DA:502,1
DA:503,1
DA:504,0
DA:505,0
DA:506,0
DA:507,0
DA:508,0
DA:509,0
DA:511,0
DA:513,0
DA:514,0
DA:516,0
DA:517,0
DA:518,0
DA:521,0
DA:522,0
DA:523,0
DA:524,0
DA:526,1
DA:528,1
DA:529,1
DA:530,1
DA:531,0
DA:532,0
DA:536,0
DA:538,0
DA:540,1
DA:544,0
DA:545,0
DA:546,0
DA:555,0
DA:556,0
DA:557,0
DA:559,0
DA:560,0
DA:561,0
DA:570,1
DA:571,1
DA:572,1
DA:575,1
DA:576,1
DA:577,1
DA:579,1
DA:580,1
DA:581,1
DA:583,1
DA:585,1
DA:586,1
DA:588,1
DA:589,1
DA:590,1
DA:593,1
DA:595,1
DA:596,1
DA:599,1
DA:600,1
DA:601,1
DA:603,1
DA:604,1
DA:606,1
DA:607,1
DA:610,24
DA:611,1
BRF:0
BRH:0
LF:375
LH:122
end_of_record
SF:/home/noah/src/ruchy/src/cli/mod.rs
FN:258,_RNCNCNvNtCskTACvQmcrtm_5ruchy3cli16execute_notebooks_00B7_
FN:201,_RNCNvNtCskTACvQmcrtm_5ruchy3cli11execute_run0B5_
FN:209,_RNCNvNtCskTACvQmcrtm_5ruchy3cli11execute_runs0_0B5_
FN:205,_RNCNvNtCskTACvQmcrtm_5ruchy3cli11execute_runs_0B5_
FN:192,_RNCNvNtCskTACvQmcrtm_5ruchy3cli12execute_repl0B5_
FN:219,_RNCNvNtCskTACvQmcrtm_5ruchy3cli14execute_format0B5_
FN:231,_RNCNvNtCskTACvQmcrtm_5ruchy3cli14execute_formats0_0B5_
FN:235,_RNCNvNtCskTACvQmcrtm_5ruchy3cli14execute_formats1_0B5_
FN:223,_RNCNvNtCskTACvQmcrtm_5ruchy3cli14execute_formats_0B5_
FN:254,_RNCNvNtCskTACvQmcrtm_5ruchy3cli16execute_notebook0B5_
FN:256,_RNCNvNtCskTACvQmcrtm_5ruchy3cli16execute_notebooks_0B5_
FN:350,_RNCNvNtCskTACvQmcrtm_5ruchy3cli19compile_wasm_source0B5_
FN:360,_RNCNvNtCskTACvQmcrtm_5ruchy3cli19compile_wasm_sources0_0B5_
FN:369,_RNCNvNtCskTACvQmcrtm_5ruchy3cli19compile_wasm_sources1_0B5_
FN:354,_RNCNvNtCskTACvQmcrtm_5ruchy3cli19compile_wasm_sources_0B5_
FN:330,_RNCNvNtCskTACvQmcrtm_5ruchy3cli20execute_wasm_compile0B5_
FN:332,_RNCNvNtCskTACvQmcrtm_5ruchy3cli20execute_wasm_compiles_0B5_
FN:406,_RNCNvNtCskTACvQmcrtm_5ruchy3cli21execute_wasm_validate0B5_
FN:411,_RNCNvNtCskTACvQmcrtm_5ruchy3cli21execute_wasm_validates_0B5_
FN:173,_RNvMNtCskTACvQmcrtm_5ruchy3cliNtB2_3Cli7execute
FN:195,_RNvNtCskTACvQmcrtm_5ruchy3cli11execute_run
FN:185,_RNvNtCskTACvQmcrtm_5ruchy3cli12execute_repl
FN:423,_RNvNtCskTACvQmcrtm_5ruchy3cli12execute_test
FN:305,_RNvNtCskTACvQmcrtm_5ruchy3cli12execute_wasm
FN:214,_RNvNtCskTACvQmcrtm_5ruchy3cli14execute_format
FN:243,_RNvNtCskTACvQmcrtm_5ruchy3cli16execute_notebook
FN:388,_RNvNtCskTACvQmcrtm_5ruchy3cli16execute_wasm_run
FN:446,_RNvNtCskTACvQmcrtm_5ruchy3cli16run_test_command
FN:342,_RNvNtCskTACvQmcrtm_5ruchy3cli19compile_wasm_source
FN:319,_RNvNtCskTACvQmcrtm_5ruchy3cli20execute_wasm_compile
FN:400,_RNvNtCskTACvQmcrtm_5ruchy3cli21execute_wasm_validate
FNDA:0,_RNCNCNvNtCskTACvQmcrtm_5ruchy3cli16execute_notebooks_00B7_
FNDA:0,_RNCNvNtCskTACvQmcrtm_5ruchy3cli11execute_run0B5_
FNDA:0,_RNCNvNtCskTACvQmcrtm_5ruchy3cli11execute_runs0_0B5_
FNDA:0,_RNCNvNtCskTACvQmcrtm_5ruchy3cli11execute_runs_0B5_
FNDA:0,_RNCNvNtCskTACvQmcrtm_5ruchy3cli12execute_repl0B5_
FNDA:0,_RNCNvNtCskTACvQmcrtm_5ruchy3cli14execute_format0B5_
FNDA:0,_RNCNvNtCskTACvQmcrtm_5ruchy3cli14execute_formats0_0B5_
FNDA:0,_RNCNvNtCskTACvQmcrtm_5ruchy3cli14execute_formats1_0B5_
FNDA:0,_RNCNvNtCskTACvQmcrtm_5ruchy3cli14execute_formats_0B5_
FNDA:0,_RNCNvNtCskTACvQmcrtm_5ruchy3cli16execute_notebook0B5_
FNDA:0,_RNCNvNtCskTACvQmcrtm_5ruchy3cli16execute_notebooks_0B5_
FNDA:0,_RNCNvNtCskTACvQmcrtm_5ruchy3cli19compile_wasm_source0B5_
FNDA:0,_RNCNvNtCskTACvQmcrtm_5ruchy3cli19compile_wasm_sources0_0B5_
FNDA:0,_RNCNvNtCskTACvQmcrtm_5ruchy3cli19compile_wasm_sources1_0B5_
FNDA:0,_RNCNvNtCskTACvQmcrtm_5ruchy3cli19compile_wasm_sources_0B5_
FNDA:0,_RNCNvNtCskTACvQmcrtm_5ruchy3cli20execute_wasm_compile0B5_
FNDA:0,_RNCNvNtCskTACvQmcrtm_5ruchy3cli20execute_wasm_compiles_0B5_
FNDA:0,_RNCNvNtCskTACvQmcrtm_5ruchy3cli21execute_wasm_validate0B5_
FNDA:0,_RNCNvNtCskTACvQmcrtm_5ruchy3cli21execute_wasm_validates_0B5_
FNDA:0,_RNvMNtCskTACvQmcrtm_5ruchy3cliNtB2_3Cli7execute
FNDA:0,_RNvNtCskTACvQmcrtm_5ruchy3cli11execute_run
FNDA:0,_RNvNtCskTACvQmcrtm_5ruchy3cli12execute_repl
FNDA:0,_RNvNtCskTACvQmcrtm_5ruchy3cli12execute_test
FNDA:0,_RNvNtCskTACvQmcrtm_5ruchy3cli12execute_wasm
FNDA:0,_RNvNtCskTACvQmcrtm_5ruchy3cli14execute_format
FNDA:0,_RNvNtCskTACvQmcrtm_5ruchy3cli16execute_notebook
FNDA:0,_RNvNtCskTACvQmcrtm_5ruchy3cli16execute_wasm_run
FNDA:0,_RNvNtCskTACvQmcrtm_5ruchy3cli16run_test_command
FNDA:0,_RNvNtCskTACvQmcrtm_5ruchy3cli19compile_wasm_source
FNDA:0,_RNvNtCskTACvQmcrtm_5ruchy3cli20execute_wasm_compile
FNDA:0,_RNvNtCskTACvQmcrtm_5ruchy3cli21execute_wasm_validate
FNF:31
FNH:0
DA:173,0
DA:174,0
DA:175,0
DA:176,0
DA:177,0
DA:178,0
DA:179,0
DA:180,0
DA:182,0
DA:185,0
DA:186,0
DA:187,0
DA:188,0
DA:191,0
DA:192,0
DA:193,0
DA:195,0
DA:196,0
DA:197,0
DA:198,0
DA:200,0
DA:201,0
DA:203,0
DA:204,0
DA:205,0
DA:207,0
DA:208,0
DA:209,0
DA:211,0
DA:212,0
DA:214,0
DA:215,0
DA:216,0
DA:218,0
DA:219,0
DA:221,0
DA:222,0
DA:223,0
DA:225,0
DA:226,0
DA:228,0
DA:230,0
DA:231,0
DA:233,0
DA:234,0
DA:235,0
DA:238,0
DA:239,0
DA:241,0
DA:243,0
DA:244,0
DA:245,0
DA:246,0
DA:247,0
DA:248,0
DA:253,0
DA:254,0
DA:256,0
DA:257,0
DA:258,0
DA:259,0
DA:267,0
DA:269,0
DA:270,0
DA:271,0
DA:272,0
DA:276,0
DA:277,0
DA:279,0
DA:280,0
DA:281,0
DA:282,0
DA:292,0
DA:294,0
DA:295,0
DA:296,0
DA:297,0
DA:299,0
DA:302,0
DA:305,0
DA:306,0
DA:307,0
DA:308,0
DA:310,0
DA:311,0
DA:313,0
DA:314,0
DA:317,0
DA:319,0
DA:320,0
DA:321,0
DA:322,0
DA:323,0
DA:324,0
DA:325,0
DA:326,0
DA:327,0
DA:329,0
DA:330,0
DA:332,0
DA:333,0
DA:334,0
DA:335,0
DA:336,0
DA:338,0
DA:339,0
DA:342,0
DA:343,0
DA:344,0
DA:345,0
DA:346,0
DA:347,0
DA:348,0
DA:349,0
DA:350,0
DA:352,0
DA:353,0
DA:354,0
DA:356,0
DA:359,0
DA:360,0
DA:366,0
DA:368,0
DA:369,0
DA:371,0
DA:372,0
DA:373,0
DA:375,0
DA:376,0
DA:388,0
DA:389,0
DA:390,0
DA:391,0
DA:392,0
DA:393,0
DA:394,0
DA:395,0
DA:397,0
DA:398,0
DA:400,0
DA:401,0
DA:402,0
DA:403,0
DA:405,0
DA:406,0
DA:410,0
DA:411,0
DA:419,0
DA:420,0
DA:421,0
DA:423,0
DA:424,0
DA:425,0
DA:426,0
DA:427,0
DA:428,0
DA:431,0
DA:432,0
DA:434,0
DA:435,0
DA:436,0
DA:437,0
DA:439,0
DA:442,0
DA:446,0
DA:448,0
DA:449,0
DA:450,0
DA:451,0
DA:452,0
DA:453,0
DA:454,0
DA:455,0
DA:456,0
DA:457,0
DA:458,0
BRF:0
BRH:0
LF:196
LH:0
end_of_record
SF:/home/noah/src/ruchy/src/frontend/arena.rs
FN:41,_RNvMNtNtCskTACvQmcrtm_5ruchy8frontend5arenaNtB2_5Arena15total_allocated
FN:23,_RNvMNtNtCskTACvQmcrtm_5ruchy8frontend5arenaNtB2_5Arena3new
FN:51,_RNvMNtNtCskTACvQmcrtm_5ruchy8frontend5arenaNtB2_5Arena5clear
FN:46,_RNvMNtNtCskTACvQmcrtm_5ruchy8frontend5arenaNtB2_5Arena9num_items
FN:70,_RNvMs0_NtNtCskTACvQmcrtm_5ruchy8frontend5arenaNtB5_14StringInterner3new
FN:90,_RNvMs0_NtNtCskTACvQmcrtm_5ruchy8frontend5arenaNtB5_14StringInterner5stats
FN:77,_RNvMs0_NtNtCskTACvQmcrtm_5ruchy8frontend5arenaNtB5_14StringInterner6intern
FN:92,_RNCNvMs0_NtNtCskTACvQmcrtm_5ruchy8frontend5arenaNtB7_14StringInterner5stats0Bb_
FN:170,_RNvNtNtNtCskTACvQmcrtm_5ruchy8frontend5arena5testss_16test_arena_basic
FN:203,_RNvNtNtNtCskTACvQmcrtm_5ruchy8frontend5arena5testss_19test_bump_allocator
FN:183,_RNvNtNtNtCskTACvQmcrtm_5ruchy8frontend5arena5testss_20test_string_interner
FN:217,_RNvNtNtNtCskTACvQmcrtm_5ruchy8frontend5arena5testss_27test_arena_many_allocations
FN:97,_RNvMs0_NtNtCskTACvQmcrtm_5ruchy8frontend5arenaNtB5_14StringInterner5clear
FN:153,_RNvMs2_NtNtCskTACvQmcrtm_5ruchy8frontend5arenaINtB5_13BumpAllocatorpE5clearB9_
FN:148,_RNvMs2_NtNtCskTACvQmcrtm_5ruchy8frontend5arenaINtB5_13BumpAllocatorpE8is_emptyB9_
FN:160,_RNvXININtNtCskTACvQmcrtm_5ruchy8frontend5arenas3_0pEINtB5_13BumpAllocatorpENtNtCs66KPHxksi63_4core7default7Default7defaultB9_
FN:103,_RNvXs1_NtNtCskTACvQmcrtm_5ruchy8frontend5arenaNtB5_14StringInternerNtNtCs66KPHxksi63_4core7default7Default7default
FN:58,_RNvXs_NtNtCskTACvQmcrtm_5ruchy8frontend5arenaNtB4_5ArenaNtNtCs66KPHxksi63_4core7default7Default7default
FN:31,_RINvMNtNtCskTACvQmcrtm_5ruchy8frontend5arenaNtB3_5Arena5allocNtNtCs8Ty2CzGA6U3_5alloc6string6StringEB7_
FN:31,_RINvMNtNtCskTACvQmcrtm_5ruchy8frontend5arenaNtB3_5Arena5alloclEB7_
FN:118,_RNvMs2_NtNtCskTACvQmcrtm_5ruchy8frontend5arenaINtB5_13BumpAllocatorlE13with_capacityB9_
FN:135,_RNvMs2_NtNtCskTACvQmcrtm_5ruchy8frontend5arenaINtB5_13BumpAllocatorlE3getB9_
FN:143,_RNvMs2_NtNtCskTACvQmcrtm_5ruchy8frontend5arenaINtB5_13BumpAllocatorlE3lenB9_
FN:126,_RNvMs2_NtNtCskTACvQmcrtm_5ruchy8frontend5arenaINtB5_13BumpAllocatorlE5allocB9_
FNDA:3,_RNvMNtNtCskTACvQmcrtm_5ruchy8frontend5arenaNtB2_5Arena15total_allocated
FNDA:448,_RNvMNtNtCskTACvQmcrtm_5ruchy8frontend5arenaNtB2_5Arena3new
FNDA:1,_RNvMNtNtCskTACvQmcrtm_5ruchy8frontend5arenaNtB2_5Arena5clear
FNDA:2,_RNvMNtNtCskTACvQmcrtm_5ruchy8frontend5arenaNtB2_5Arena9num_items
FNDA:447,_RNvMs0_NtNtCskTACvQmcrtm_5ruchy8frontend5arenaNtB5_14StringInterner3new
FNDA:1,_RNvMs0_NtNtCskTACvQmcrtm_5ruchy8frontend5arenaNtB5_14StringInterner5stats
FNDA:3,_RNvMs0_NtNtCskTACvQmcrtm_5ruchy8frontend5arenaNtB5_14StringInterner6intern
FNDA:2,_RNCNvMs0_NtNtCskTACvQmcrtm_5ruchy8frontend5arenaNtB7_14StringInterner5stats0Bb_
FNDA:1,_RNvNtNtNtCskTACvQmcrtm_5ruchy8frontend5arena5testss_16test_arena_basic
FNDA:1,_RNvNtNtNtCskTACvQmcrtm_5ruchy8frontend5arena5testss_19test_bump_allocator
FNDA:1,_RNvNtNtNtCskTACvQmcrtm_5ruchy8frontend5arena5testss_20test_string_interner
FNDA:1,_RNvNtNtNtCskTACvQmcrtm_5ruchy8frontend5arena5testss_27test_arena_many_allocations
FNDA:0,_RNvMs0_NtNtCskTACvQmcrtm_5ruchy8frontend5arenaNtB5_14StringInterner5clear
FNDA:0,_RNvMs2_NtNtCskTACvQmcrtm_5ruchy8frontend5arenaINtB5_13BumpAllocatorpE5clearB9_
FNDA:0,_RNvMs2_NtNtCskTACvQmcrtm_5ruchy8frontend5arenaINtB5_13BumpAllocatorpE8is_emptyB9_
FNDA:0,_RNvXININtNtCskTACvQmcrtm_5ruchy8frontend5arenas3_0pEINtB5_13BumpAllocatorpENtNtCs66KPHxksi63_4core7default7Default7defaultB9_
FNDA:0,_RNvXs1_NtNtCskTACvQmcrtm_5ruchy8frontend5arenaNtB5_14StringInternerNtNtCs66KPHxksi63_4core7default7Default7default
FNDA:0,_RNvXs_NtNtCskTACvQmcrtm_5ruchy8frontend5arenaNtB4_5ArenaNtNtCs66KPHxksi63_4core7default7Default7default
FNDA:1,_RINvMNtNtCskTACvQmcrtm_5ruchy8frontend5arenaNtB3_5Arena5allocNtNtCs8Ty2CzGA6U3_5alloc6string6StringEB7_
FNDA:1001,_RINvMNtNtCskTACvQmcrtm_5ruchy8frontend5arenaNtB3_5Arena5alloclEB7_
FNDA:1,_RNvMs2_NtNtCskTACvQmcrtm_5ruchy8frontend5arenaINtB5_13BumpAllocatorlE13with_capacityB9_
FNDA:2,_RNvMs2_NtNtCskTACvQmcrtm_5ruchy8frontend5arenaINtB5_13BumpAllocatorlE3getB9_
FNDA:1,_RNvMs2_NtNtCskTACvQmcrtm_5ruchy8frontend5arenaINtB5_13BumpAllocatorlE3lenB9_
FNDA:2,_RNvMs2_NtNtCskTACvQmcrtm_5ruchy8frontend5arenaINtB5_13BumpAllocatorlE5allocB9_
FNF:23
FNH:17
DA:23,448
DA:24,448
DA:25,448
DA:26,448
DA:27,448
DA:28,448
DA:31,1002
DA:32,1002
DA:33,1002
DA:34,1002
DA:35,1002
DA:36,1002
DA:37,1002
DA:38,1002
DA:41,3
DA:42,3
DA:43,3
DA:46,2
DA:47,2
DA:48,2
DA:51,1
DA:52,1
DA:53,1
DA:54,1
DA:58,0
DA:59,0
DA:60,0
DA:70,447
DA:71,447
DA:72,447
DA:73,447
DA:74,447
DA:77,3
DA:78,3
DA:80,3
DA:81,1
DA:83,2
DA:84,2
DA:85,2
DA:87,3
DA:90,1
DA:91,1
DA:92,2
DA:93,1
DA:94,1
DA:97,0
DA:98,0
DA:99,0
DA:103,0
DA:104,0
DA:105,0
DA:118,1
DA:119,1
DA:120,1
DA:121,1
DA:122,1
DA:123,1
DA:126,2
DA:127,2
DA:128,2
DA:129,2
DA:130,2
DA:131,2
DA:132,2
DA:135,2
DA:136,2
DA:137,2
DA:139,2
DA:140,2
DA:143,1
DA:144,1
DA:145,1
DA:148,0
DA:149,0
DA:150,0
DA:153,0
DA:154,0
DA:155,0
DA:156,0
DA:160,0
DA:161,0
DA:162,0
DA:170,1
DA:171,1
DA:173,1
DA:174,1
DA:176,1
DA:177,1
DA:179,1
DA:180,1
DA:183,1
DA:184,1
DA:186,1
DA:187,1
DA:188,1
DA:190,1
DA:191,1
DA:192,1
DA:195,1
DA:196,1
DA:198,1
DA:199,1
DA:200,1
DA:203,1
DA:204,1
DA:206,1
DA:207,1
DA:209,1
DA:210,1
DA:211,1
DA:212,1
DA:213,1
DA:214,1
DA:217,1
DA:218,1
DA:220,1001
DA:221,1000
DA:222,1000
DA:224,1
DA:225,1
DA:227,1
DA:228,1
DA:229,1
DA:230,1
BRF:0
BRH:0
LF:125
LH:106
end_of_record
SF:/home/noah/src/ruchy/src/frontend/ast.rs
FN:569,_RNCNvMs2_NtNtCskTACvQmcrtm_5ruchy8frontend3astNtB7_7Pattern12primary_name0Bb_
FN:580,_RNCNvMs2_NtNtCskTACvQmcrtm_5ruchy8frontend3astNtB7_7Pattern12primary_names0_0Bb_
FN:580,_RNCNvMs2_NtNtCskTACvQmcrtm_5ruchy8frontend3astNtB7_7Pattern12primary_names1_0Bb_
FN:591,_RNCNvMs2_NtNtCskTACvQmcrtm_5ruchy8frontend3astNtB7_7Pattern12primary_names2_0Bb_
FN:575,_RNCNvMs2_NtNtCskTACvQmcrtm_5ruchy8frontend3astNtB7_7Pattern12primary_names_0Bb_
FN:15,_RNvMNtNtCskTACvQmcrtm_5ruchy8frontend3astNtB2_4Span3new
FN:20,_RNvMNtNtCskTACvQmcrtm_5ruchy8frontend3astNtB2_4Span5merge
FN:362,_RNvMs0_NtNtCskTACvQmcrtm_5ruchy8frontend3astNtB5_7Literal10from_value
FN:442,_RNvMs1_NtNtCskTACvQmcrtm_5ruchy8frontend3astNtB5_5Param4name
FN:561,_RNvMs2_NtNtCskTACvQmcrtm_5ruchy8frontend3astNtB5_7Pattern12primary_name
FN:45,_RNvMs_NtNtCskTACvQmcrtm_5ruchy8frontend3astNtB4_4Expr3new
FN:686,_RNvXs4_NtNtCskTACvQmcrtm_5ruchy8frontend3astNtB5_8BinaryOpNtNtCs66KPHxksi63_4core3fmt7Display3fmt
FN:712,_RNvXs5_NtNtCskTACvQmcrtm_5ruchy8frontend3astNtB5_7UnaryOpNtNtCs66KPHxksi63_4core3fmt7Display3fmt
FN:669,_RNvMs3_NtNtCskTACvQmcrtm_5ruchy8frontend3astNtB5_10ImportItem13is_url_import
FN:54,_RNvMs_NtNtCskTACvQmcrtm_5ruchy8frontend3astNtB4_4Expr15with_attributes
FN:746,_RNvNtNtNtCskTACvQmcrtm_5ruchy8frontend3ast5testss_13test_ast_size
FN:1371,_RNvNtNtNtCskTACvQmcrtm_5ruchy8frontend3ast5testss_15test_type_kinds
FN:782,_RNvNtNtNtCskTACvQmcrtm_5ruchy8frontend3ast5testss_18test_expr_creation
FN:909,_RNvNtNtNtCskTACvQmcrtm_5ruchy8frontend3ast5testss_18test_if_expression
FN:757,_RNvNtNtNtCskTACvQmcrtm_5ruchy8frontend3ast5testss_18test_span_creation
FN:1116,_RNvNtNtNtCskTACvQmcrtm_5ruchy8frontend3ast5testss_19test_for_expression
FN:959,_RNvNtNtNtCskTACvQmcrtm_5ruchy8frontend3ast5testss_19test_let_expression
FN:1432,_RNvNtNtNtCskTACvQmcrtm_5ruchy8frontend3ast5testss_19test_param_creation
FN:1056,_RNvNtNtNtCskTACvQmcrtm_5ruchy8frontend3ast5testss_20test_call_expression
FN:1098,_RNvNtNtNtCskTACvQmcrtm_5ruchy8frontend3ast5testss_20test_list_expression
FN:1081,_RNvNtNtNtCskTACvQmcrtm_5ruchy8frontend3ast5testss_21test_block_expression
FN:794,_RNvNtNtNtCskTACvQmcrtm_5ruchy8frontend3ast5testss_21test_literal_variants
FN:1269,_RNvNtNtNtCskTACvQmcrtm_5ruchy8frontend3ast5testss_21test_match_expression
FN:1316,_RNvNtNtNtCskTACvQmcrtm_5ruchy8frontend3ast5testss_21test_pattern_variants
FN:1168,_RNvNtNtNtCskTACvQmcrtm_5ruchy8frontend3ast5testss_21test_range_expression
FN:883,_RNvNtNtNtCskTACvQmcrtm_5ruchy8frontend3ast5testss_21test_unary_expression
FN:836,_RNvNtNtNtCskTACvQmcrtm_5ruchy8frontend3ast5testss_21test_unary_op_display
FN:844,_RNvNtNtNtCskTACvQmcrtm_5ruchy8frontend3ast5testss_22test_binary_expression
FN:814,_RNvNtNtNtCskTACvQmcrtm_5ruchy8frontend3ast5testss_22test_binary_op_display
FN:1208,_RNvNtNtNtCskTACvQmcrtm_5ruchy8frontend3ast5testss_22test_import_expression
FN:764,_RNvNtNtNtCskTACvQmcrtm_5ruchy8frontend3ast5testss_22test_span_merge_simple
FN:1002,_RNvNtNtNtCskTACvQmcrtm_5ruchy8frontend3ast5testss_24test_function_expression
FN:1232,_RNvNtNtNtCskTACvQmcrtm_5ruchy8frontend3ast5testss_24test_pipeline_expression
FN:773,_RNvNtNtNtCskTACvQmcrtm_5ruchy8frontend3ast5testss_24test_span_merge_disjoint
FNDA:0,_RNCNvMs2_NtNtCskTACvQmcrtm_5ruchy8frontend3astNtB7_7Pattern12primary_name0Bb_
FNDA:0,_RNCNvMs2_NtNtCskTACvQmcrtm_5ruchy8frontend3astNtB7_7Pattern12primary_names0_0Bb_
FNDA:0,_RNCNvMs2_NtNtCskTACvQmcrtm_5ruchy8frontend3astNtB7_7Pattern12primary_names1_0Bb_
FNDA:0,_RNCNvMs2_NtNtCskTACvQmcrtm_5ruchy8frontend3astNtB7_7Pattern12primary_names2_0Bb_
FNDA:0,_RNCNvMs2_NtNtCskTACvQmcrtm_5ruchy8frontend3astNtB7_7Pattern12primary_names_0Bb_
FNDA:6685,_RNvMNtNtCskTACvQmcrtm_5ruchy8frontend3astNtB2_4Span3new
FNDA:400,_RNvMNtNtCskTACvQmcrtm_5ruchy8frontend3astNtB2_4Span5merge
FNDA:0,_RNvMs0_NtNtCskTACvQmcrtm_5ruchy8frontend3astNtB5_7Literal10from_value
FNDA:100,_RNvMs1_NtNtCskTACvQmcrtm_5ruchy8frontend3astNtB5_5Param4name
FNDA:102,_RNvMs2_NtNtCskTACvQmcrtm_5ruchy8frontend3astNtB5_7Pattern12primary_name
FNDA:3088,_RNvMs_NtNtCskTACvQmcrtm_5ruchy8frontend3astNtB4_4Expr3new
FNDA:18,_RNvXs4_NtNtCskTACvQmcrtm_5ruchy8frontend3astNtB5_8BinaryOpNtNtCs66KPHxksi63_4core3fmt7Display3fmt
FNDA:4,_RNvXs5_NtNtCskTACvQmcrtm_5ruchy8frontend3astNtB5_7UnaryOpNtNtCs66KPHxksi63_4core3fmt7Display3fmt
FNDA:0,_RNvMs3_NtNtCskTACvQmcrtm_5ruchy8frontend3astNtB5_10ImportItem13is_url_import
FNDA:0,_RNvMs_NtNtCskTACvQmcrtm_5ruchy8frontend3astNtB4_4Expr15with_attributes
FNDA:1,_RNvNtNtNtCskTACvQmcrtm_5ruchy8frontend3ast5testss_13test_ast_size
FNDA:1,_RNvNtNtNtCskTACvQmcrtm_5ruchy8frontend3ast5testss_15test_type_kinds
FNDA:1,_RNvNtNtNtCskTACvQmcrtm_5ruchy8frontend3ast5testss_18test_expr_creation
FNDA:1,_RNvNtNtNtCskTACvQmcrtm_5ruchy8frontend3ast5testss_18test_if_expression
FNDA:1,_RNvNtNtNtCskTACvQmcrtm_5ruchy8frontend3ast5testss_18test_span_creation
FNDA:1,_RNvNtNtNtCskTACvQmcrtm_5ruchy8frontend3ast5testss_19test_for_expression
FNDA:1,_RNvNtNtNtCskTACvQmcrtm_5ruchy8frontend3ast5testss_19test_let_expression
FNDA:1,_RNvNtNtNtCskTACvQmcrtm_5ruchy8frontend3ast5testss_19test_param_creation
FNDA:1,_RNvNtNtNtCskTACvQmcrtm_5ruchy8frontend3ast5testss_20test_call_expression
FNDA:1,_RNvNtNtNtCskTACvQmcrtm_5ruchy8frontend3ast5testss_20test_list_expression
FNDA:1,_RNvNtNtNtCskTACvQmcrtm_5ruchy8frontend3ast5testss_21test_block_expression
FNDA:1,_RNvNtNtNtCskTACvQmcrtm_5ruchy8frontend3ast5testss_21test_literal_variants
FNDA:1,_RNvNtNtNtCskTACvQmcrtm_5ruchy8frontend3ast5testss_21test_match_expression
FNDA:1,_RNvNtNtNtCskTACvQmcrtm_5ruchy8frontend3ast5testss_21test_pattern_variants
FNDA:1,_RNvNtNtNtCskTACvQmcrtm_5ruchy8frontend3ast5testss_21test_range_expression
FNDA:1,_RNvNtNtNtCskTACvQmcrtm_5ruchy8frontend3ast5testss_21test_unary_expression
FNDA:1,_RNvNtNtNtCskTACvQmcrtm_5ruchy8frontend3ast5testss_21test_unary_op_display
FNDA:1,_RNvNtNtNtCskTACvQmcrtm_5ruchy8frontend3ast5testss_22test_binary_expression
FNDA:1,_RNvNtNtNtCskTACvQmcrtm_5ruchy8frontend3ast5testss_22test_binary_op_display
FNDA:1,_RNvNtNtNtCskTACvQmcrtm_5ruchy8frontend3ast5testss_22test_import_expression
FNDA:1,_RNvNtNtNtCskTACvQmcrtm_5ruchy8frontend3ast5testss_22test_span_merge_simple
FNDA:1,_RNvNtNtNtCskTACvQmcrtm_5ruchy8frontend3ast5testss_24test_function_expression
FNDA:1,_RNvNtNtNtCskTACvQmcrtm_5ruchy8frontend3ast5testss_24test_pipeline_expression
FNDA:1,_RNvNtNtNtCskTACvQmcrtm_5ruchy8frontend3ast5testss_24test_span_merge_disjoint
FNF:39
FNH:31
DA:15,6685
DA:16,6685
DA:17,6685
DA:20,400
DA:21,400
DA:22,400
DA:23,400
DA:24,400
DA:25,400
DA:45,3088
DA:46,3088
DA:47,3088
DA:48,3088
DA:49,3088
DA:50,3088
DA:51,3088
DA:54,0
DA:55,0
DA:56,0
DA:57,0
DA:58,0
DA:59,0
DA:60,0
DA:362,0
DA:364,0
DA:365,0
DA:366,0
DA:367,0
DA:368,0
DA:369,0
DA:370,0
DA:371,0
DA:373,0
DA:442,100
DA:443,100
DA:444,100
DA:561,102
DA:562,102
DA:563,102
DA:564,0
DA:565,0
DA:567,0
DA:568,0
DA:569,0
DA:571,0
DA:573,0
DA:574,0
DA:575,0
DA:577,0
DA:579,0
DA:580,0
DA:582,0
DA:585,0
DA:586,0
DA:587,0
DA:589,0
DA:590,0
DA:591,0
DA:593,0
DA:594,0
DA:595,0
DA:596,0
DA:597,0
DA:598,0
DA:600,102
DA:669,0
DA:670,0
DA:671,0
DA:686,18
DA:687,18
DA:688,1
DA:689,1
DA:690,1
DA:691,1
DA:692,1
DA:693,1
DA:694,1
DA:695,1
DA:696,1
DA:697,1
DA:698,1
DA:699,1
DA:700,1
DA:701,1
DA:702,0
DA:703,1
DA:704,1
DA:705,1
DA:706,1
DA:708,18
DA:712,4
DA:713,4
DA:714,1
DA:715,1
DA:716,1
DA:717,1
DA:719,4
DA:746,1
DA:748,1
DA:749,1
DA:752,1
DA:753,1
DA:754,1
DA:757,1
DA:758,1
DA:759,1
DA:760,1
DA:761,1
DA:764,1
DA:765,1
DA:766,1
DA:767,1
DA:768,1
DA:769,1
DA:770,1
DA:773,1
DA:774,1
DA:775,1
DA:776,1
DA:777,1
DA:778,1
DA:779,1
DA:782,1
DA:783,1
DA:784,1
DA:785,1
DA:786,1
DA:787,1
DA:788,1
DA:789,0
DA:791,1
DA:794,1
DA:795,1
DA:796,1
DA:798,1
DA:799,1
DA:800,1
DA:801,1
DA:804,6
DA:805,5
DA:806,5
DA:807,5
DA:808,0
DA:811,1
DA:814,1
DA:815,1
DA:816,1
DA:817,1
DA:818,1
DA:819,1
DA:820,1
DA:821,1
DA:822,1
DA:823,1
DA:824,1
DA:825,1
DA:826,1
DA:827,1
DA:828,1
DA:829,1
DA:830,1
DA:831,1
DA:832,1
DA:833,1
DA:836,1
DA:837,1
DA:838,1
DA:839,1
DA:840,1
DA:841,1
DA:844,1
DA:845,1
DA:846,1
DA:847,1
DA:849,1
DA:850,1
DA:851,1
DA:853,1
DA:854,1
DA:855,1
DA:856,1
DA:857,1
DA:858,1
DA:859,1
DA:862,1
DA:864,1
DA:865,1
DA:866,1
DA:868,1
DA:869,1
DA:870,1
DA:871,0
DA:873,1
DA:874,1
DA:875,0
DA:878,0
DA:880,1
DA:883,1
DA:884,1
DA:885,1
DA:886,1
DA:888,1
DA:889,1
DA:890,1
DA:891,1
DA:892,1
DA:893,1
DA:896,1
DA:897,1
DA:898,1
DA:899,1
DA:900,1
DA:901,0
DA:904,0
DA:906,1
DA:909,1
DA:910,1
DA:911,1
DA:912,1
DA:914,1
DA:915,1
DA:916,1
DA:918,1
DA:919,1
DA:920,1
DA:921,1
DA:923,1
DA:924,1
DA:925,1
DA:926,1
DA:927,1
DA:928,1
DA:929,1
DA:932,1
DA:934,1
DA:935,1
DA:936,1
DA:938,1
DA:939,1
DA:940,0
DA:942,1
DA:943,1
DA:944,0
DA:946,1
DA:947,1
DA:948,1
DA:949,1
DA:950,0
DA:952,0
DA:954,0
DA:956,1
DA:959,1
DA:960,1
DA:961,1
DA:962,1
DA:964,1
DA:965,1
DA:966,1
DA:969,1
DA:970,1
DA:971,1
DA:972,1
DA:973,1
DA:974,1
DA:975,1
DA:976,1
DA:977,1
DA:980,1
DA:982,1
DA:983,1
DA:984,1
DA:987,1
DA:988,1
DA:989,1
DA:990,0
DA:992,1
DA:993,1
DA:994,0
DA:997,0
DA:999,1
DA:1002,1
DA:1003,1
DA:1004,1
DA:1005,1
DA:1006,1
DA:1007,1
DA:1008,1
DA:1009,1
DA:1010,1
DA:1011,1
DA:1012,1
DA:1013,1
DA:1014,1
DA:1015,1
DA:1018,1
DA:1019,1
DA:1020,1
DA:1021,1
DA:1022,1
DA:1023,1
DA:1024,1
DA:1025,1
DA:1026,1
DA:1027,1
DA:1028,1
DA:1029,1
DA:1030,1
DA:1031,1
DA:1034,1
DA:1036,1
DA:1037,1
DA:1038,1
DA:1039,1
DA:1042,1
DA:1043,1
DA:1044,1
DA:1045,1
DA:1046,1
DA:1047,1
DA:1048,0
DA:1051,0
DA:1053,1
DA:1056,1
DA:1057,1
DA:1058,1
DA:1059,1
DA:1061,1
DA:1062,1
DA:1063,1
DA:1066,1
DA:1068,1
DA:1069,1
DA:1070,1
DA:1071,1
DA:1072,0
DA:1074,1
DA:1076,0
DA:1078,1
DA:1081,1
DA:1082,1
DA:1083,1
DA:1084,1
DA:1087,1
DA:1089,1
DA:1090,1
DA:1091,1
DA:1093,0
DA:1095,1
DA:1098,1
DA:1099,1
DA:1100,1
DA:1101,1
DA:1102,1
DA:1105,1
DA:1107,1
DA:1108,1
DA:1109,1
DA:1111,0
DA:1113,1
DA:1116,1
DA:1117,1
DA:1118,1
DA:1119,1
DA:1120,1
DA:1121,1
DA:1122,1
DA:1123,1
DA:1124,1
DA:1125,1
DA:1126,1
DA:1127,1
DA:1128,1
DA:1129,1
DA:1131,1
DA:1132,1
DA:1133,1
DA:1136,1
DA:1137,1
DA:1138,1
DA:1139,1
DA:1140,1
DA:1141,1
DA:1142,1
DA:1143,1
DA:1146,1
DA:1148,1
DA:1149,1
DA:1150,1
DA:1153,1
DA:1154,1
DA:1155,1
DA:1156,0
DA:1158,1
DA:1159,1
DA:1160,0
DA:1163,0
DA:1165,1
DA:1168,1
DA:1169,1
DA:1170,1
DA:1171,1
DA:1173,1
DA:1174,1
DA:1175,1
DA:1178,1
DA:1179,1
DA:1180,1
DA:1181,1
DA:1182,1
DA:1183,1
DA:1184,1
DA:1187,1
DA:1189,1
DA:1190,1
DA:1191,1
DA:1193,1
DA:1194,1
DA:1195,1
DA:1196,0
DA:1198,1
DA:1199,1
DA:1200,0
DA:1203,0
DA:1205,1
DA:1208,1
DA:1209,1
DA:1210,1
DA:1211,1
DA:1212,1
DA:1213,1
DA:1214,1
DA:1215,1
DA:1216,1
DA:1217,1
DA:1220,1
DA:1221,1
DA:1222,1
DA:1223,1
DA:1224,1
DA:1225,1
DA:1227,0
DA:1229,1
DA:1232,1
DA:1233,1
DA:1234,1
DA:1235,1
DA:1236,1
DA:1237,1
DA:1238,1
DA:1240,1
DA:1241,1
DA:1242,1
DA:1243,1
DA:1244,1
DA:1245,1
DA:1246,1
DA:1248,1
DA:1249,1
DA:1250,1
DA:1251,1
DA:1252,1
DA:1253,1
DA:1256,1
DA:1257,1
DA:1258,1
DA:1259,1
DA:1260,1
DA:1261,0
DA:1264,0
DA:1266,1
DA:1269,1
DA:1270,1
DA:1271,1
DA:1272,1
DA:1274,1
DA:1275,1
DA:1276,1
DA:1277,1
DA:1278,1
DA:1279,1
DA:1280,1
DA:1281,1
DA:1282,1
DA:1283,1
DA:1284,1
DA:1285,1
DA:1286,1
DA:1287,1
DA:1288,1
DA:1289,1
DA:1290,1
DA:1291,1
DA:1292,1
DA:1295,1
DA:1296,1
DA:1297,1
DA:1298,1
DA:1299,1
DA:1300,1
DA:1303,1
DA:1304,1
DA:1305,1
DA:1306,1
DA:1307,1
DA:1308,0
DA:1311,0
DA:1313,1
DA:1316,1
DA:1317,1
DA:1318,1
DA:1319,1
DA:1320,1
DA:1321,1
DA:1322,1
DA:1323,1
DA:1324,1
DA:1325,1
DA:1326,1
DA:1327,1
DA:1328,1
DA:1329,1
DA:1330,1
DA:1331,1
DA:1332,1
DA:1333,1
DA:1334,1
DA:1335,1
DA:1336,1
DA:1337,1
DA:1338,1
DA:1339,1
DA:1340,1
DA:1341,1
DA:1342,1
DA:1343,1
DA:1344,1
DA:1345,1
DA:1346,1
DA:1349,10
DA:1350,9
DA:1351,2
DA:1352,1
DA:1353,1
DA:1365,5
DA:1368,1
DA:1371,1
DA:1372,1
DA:1373,1
DA:1374,1
DA:1375,1
DA:1376,1
DA:1377,1
DA:1378,1
DA:1379,1
DA:1380,1
DA:1381,1
DA:1382,1
DA:1383,1
DA:1384,1
DA:1385,1
DA:1386,1
DA:1387,1
DA:1388,1
DA:1389,1
DA:1390,1
DA:1391,1
DA:1392,1
DA:1393,1
DA:1394,1
DA:1395,1
DA:1396,1
DA:1397,1
DA:1398,1
DA:1399,1
DA:1400,1
DA:1401,1
DA:1402,1
DA:1403,1
DA:1406,5
DA:1407,4
DA:1408,1
DA:1409,0
DA:1410,0
DA:1411,0
DA:1413,2
DA:1414,1
DA:1415,0
DA:1416,0
DA:1417,0
DA:1419,0
DA:1420,0
DA:1421,0
DA:1423,0
DA:1425,0
DA:1429,1
DA:1432,1
DA:1433,1
DA:1434,1
DA:1435,1
DA:1436,1
DA:1437,1
DA:1438,1
DA:1439,1
DA:1440,1
DA:1441,1
DA:1442,1
DA:1444,1
DA:1445,1
DA:1446,1
DA:1447,0
DA:1449,1
BRF:0
BRH:0
LF:616
LH:521
end_of_record
SF:/home/noah/src/ruchy/src/frontend/diagnostics.rs
FN:101,_RNvMNtNtCskTACvQmcrtm_5ruchy8frontend11diagnosticsNtB2_10Diagnostic13format_header
FN:74,_RNvMNtNtCskTACvQmcrtm_5ruchy8frontend11diagnosticsNtB2_10Diagnostic14format_colored
FN:88,_RNvMNtNtCskTACvQmcrtm_5ruchy8frontend11diagnosticsNtB2_10Diagnostic15get_color_codes
FN:144,_RNvMNtNtCskTACvQmcrtm_5ruchy8frontend11diagnosticsNtB2_10Diagnostic17format_error_line
FN:171,_RNvMNtNtCskTACvQmcrtm_5ruchy8frontend11diagnosticsNtB2_10Diagnostic18format_suggestions
FN:44,_RNvMNtNtCskTACvQmcrtm_5ruchy8frontend11diagnosticsNtB2_10Diagnostic18get_source_context
FN:124,_RNvMNtNtCskTACvQmcrtm_5ruchy8frontend11diagnosticsNtB2_10Diagnostic21format_source_context
FN:25,_RNvMNtNtCskTACvQmcrtm_5ruchy8frontend11diagnosticsNtB2_10Diagnostic3new
FN:195,_RNvNtNtCskTACvQmcrtm_5ruchy8frontend11diagnostics17suggest_for_error
FN:189,_RNvXs_NtNtCskTACvQmcrtm_5ruchy8frontend11diagnosticsNtB4_10DiagnosticNtNtCs66KPHxksi63_4core3fmt7Display3fmt
FN:34,_RNvMNtNtCskTACvQmcrtm_5ruchy8frontend11diagnosticsNtB2_10Diagnostic13with_filename
FN:39,_RNvMNtNtCskTACvQmcrtm_5ruchy8frontend11diagnosticsNtB2_10Diagnostic14add_suggestion
FN:276,_RNvNtNtNtCskTACvQmcrtm_5ruchy8frontend11diagnostics5testss_16test_suggestions
FN:262,_RNvNtNtNtCskTACvQmcrtm_5ruchy8frontend11diagnostics5testss_23test_diagnostic_display
FNDA:1,_RNvMNtNtCskTACvQmcrtm_5ruchy8frontend11diagnosticsNtB2_10Diagnostic13format_header
FNDA:1,_RNvMNtNtCskTACvQmcrtm_5ruchy8frontend11diagnosticsNtB2_10Diagnostic14format_colored
FNDA:1,_RNvMNtNtCskTACvQmcrtm_5ruchy8frontend11diagnosticsNtB2_10Diagnostic15get_color_codes
FNDA:1,_RNvMNtNtCskTACvQmcrtm_5ruchy8frontend11diagnosticsNtB2_10Diagnostic17format_error_line
FNDA:1,_RNvMNtNtCskTACvQmcrtm_5ruchy8frontend11diagnosticsNtB2_10Diagnostic18format_suggestions
FNDA:1,_RNvMNtNtCskTACvQmcrtm_5ruchy8frontend11diagnosticsNtB2_10Diagnostic18get_source_context
FNDA:1,_RNvMNtNtCskTACvQmcrtm_5ruchy8frontend11diagnosticsNtB2_10Diagnostic21format_source_context
FNDA:1,_RNvMNtNtCskTACvQmcrtm_5ruchy8frontend11diagnosticsNtB2_10Diagnostic3new
FNDA:1,_RNvNtNtCskTACvQmcrtm_5ruchy8frontend11diagnostics17suggest_for_error
FNDA:1,_RNvXs_NtNtCskTACvQmcrtm_5ruchy8frontend11diagnosticsNtB4_10DiagnosticNtNtCs66KPHxksi63_4core3fmt7Display3fmt
FNDA:0,_RNvMNtNtCskTACvQmcrtm_5ruchy8frontend11diagnosticsNtB2_10Diagnostic13with_filename
FNDA:0,_RNvMNtNtCskTACvQmcrtm_5ruchy8frontend11diagnosticsNtB2_10Diagnostic14add_suggestion
FNDA:1,_RNvNtNtNtCskTACvQmcrtm_5ruchy8frontend11diagnostics5testss_16test_suggestions
FNDA:1,_RNvNtNtNtCskTACvQmcrtm_5ruchy8frontend11diagnostics5testss_23test_diagnostic_display
FNF:14
FNH:12
DA:25,1
DA:26,1
DA:27,1
DA:28,1
DA:29,1
DA:30,1
DA:31,1
DA:32,1
DA:34,0
DA:35,0
DA:36,0
DA:37,0
DA:39,0
DA:40,0
DA:41,0
DA:44,1
DA:45,1
DA:48,1
DA:49,1
DA:50,1
DA:52,1
DA:53,1
DA:54,1
DA:55,1
DA:56,1
DA:57,1
DA:58,0
DA:59,0
DA:63,1
DA:66,1
DA:67,1
DA:68,1
DA:70,1
DA:71,1
DA:74,1
DA:75,1
DA:76,1
DA:79,1
DA:80,1
DA:81,1
DA:83,1
DA:84,1
DA:85,1
DA:88,1
DA:89,1
DA:90,1
DA:91,0
DA:92,0
DA:93,0
DA:95,1
DA:96,1
DA:97,1
DA:98,1
DA:101,1
DA:102,1
DA:104,1
DA:105,1
DA:109,1
DA:111,1
DA:112,0
DA:113,0
DA:114,0
DA:115,0
DA:116,0
DA:117,0
DA:118,1
DA:120,1
DA:121,1
DA:124,1
DA:125,1
DA:126,1
DA:127,1
DA:129,3
DA:130,3
DA:131,3
DA:133,3
DA:134,1
DA:135,2
DA:136,2
DA:137,2
DA:140,1
DA:141,1
DA:144,1
DA:145,1
DA:146,1
DA:149,1
DA:152,1
DA:153,1
DA:154,1
DA:157,1
DA:158,0
DA:159,0
DA:160,0
DA:161,0
DA:162,0
DA:163,0
DA:164,0
DA:165,1
DA:167,1
DA:168,1
DA:171,1
DA:172,1
DA:174,1
DA:175,0
DA:176,0
DA:177,0
DA:178,0
DA:179,0
DA:180,0
DA:182,1
DA:184,1
DA:185,1
DA:189,1
DA:190,1
DA:191,1
DA:195,1
DA:196,1
DA:199,1
DA:200,1
DA:201,1
DA:202,1
DA:203,1
DA:204,1
DA:205,1
DA:206,1
DA:207,1
DA:208,0
DA:211,1
DA:212,0
DA:213,0
DA:214,0
DA:215,0
DA:216,0
DA:217,0
DA:218,0
DA:219,0
DA:220,1
DA:223,1
DA:224,0
DA:225,0
DA:226,0
DA:227,0
DA:228,0
DA:229,0
DA:230,0
DA:231,0
DA:232,0
DA:233,0
DA:234,0
DA:235,0
DA:236,0
DA:237,0
DA:238,0
DA:239,0
DA:240,0
DA:241,0
DA:242,0
DA:243,0
DA:244,0
DA:245,0
DA:246,0
DA:247,0
DA:248,0
DA:249,0
DA:250,0
DA:251,0
DA:252,1
DA:254,1
DA:255,1
DA:262,1
DA:263,1
DA:264,1
DA:265,1
DA:268,1
DA:269,1
DA:271,1
DA:272,1
DA:273,1
DA:276,1
DA:277,1
DA:278,1
DA:279,1
DA:281,1
DA:283,1
DA:284,1
DA:285,1
BRF:0
BRH:0
LF:186
LH:118
end_of_record
SF:/home/noah/src/ruchy/src/frontend/error_recovery.rs
FN:151,_RNvMs0_NtNtCskTACvQmcrtm_5ruchy8frontend14error_recoveryNtB5_10ParseError12with_context
FN:135,_RNvMs0_NtNtCskTACvQmcrtm_5ruchy8frontend14error_recoveryNtB5_10ParseError13missing_token
FN:165,_RNvMs0_NtNtCskTACvQmcrtm_5ruchy8frontend14error_recoveryNtB5_10ParseError13with_severity
FN:118,_RNvMs0_NtNtCskTACvQmcrtm_5ruchy8frontend14error_recoveryNtB5_10ParseError16unexpected_token
FN:62,_RNvXNtNtCskTACvQmcrtm_5ruchy8frontend14error_recoveryNtB2_10ParseErrorNtNtCs66KPHxksi63_4core3fmt7Display3fmt
FN:741,_RNCNvMs1_NtNtCskTACvQmcrtm_5ruchy8frontend14error_recoveryNtB7_14RecoveryParser11synchronize0Bb_
FN:765,_RNCNvMs1_NtNtCskTACvQmcrtm_5ruchy8frontend14error_recoveryNtB7_14RecoveryParser14synchronize_to0Bb_
FN:104,_RNvMs0_NtNtCskTACvQmcrtm_5ruchy8frontend14error_recoveryNtB5_10ParseError3new
FN:172,_RNvMs0_NtNtCskTACvQmcrtm_5ruchy8frontend14error_recoveryNtB5_10ParseError9with_code
FN:158,_RNvMs0_NtNtCskTACvQmcrtm_5ruchy8frontend14error_recoveryNtB5_10ParseError9with_hint
FN:773,_RNvMs1_NtNtCskTACvQmcrtm_5ruchy8frontend14error_recoveryNtB5_14RecoveryParser10precedence
FN:718,_RNvMs1_NtNtCskTACvQmcrtm_5ruchy8frontend14error_recoveryNtB5_14RecoveryParser11synchronize
FN:685,_RNvMs1_NtNtCskTACvQmcrtm_5ruchy8frontend14error_recoveryNtB5_14RecoveryParser12record_error
FN:755,_RNvMs1_NtNtCskTACvQmcrtm_5ruchy8frontend14error_recoveryNtB5_14RecoveryParser14synchronize_to
FN:672,_RNvMs1_NtNtCskTACvQmcrtm_5ruchy8frontend14error_recoveryNtB5_14RecoveryParser17create_ghost_node
FN:699,_RNvMs1_NtNtCskTACvQmcrtm_5ruchy8frontend14error_recoveryNtB5_14RecoveryParser17expect_or_recover
FN:398,_RNvMs1_NtNtCskTACvQmcrtm_5ruchy8frontend14error_recoveryNtB5_14RecoveryParser17parse_if_recovery
FN:438,_RNvMs1_NtNtCskTACvQmcrtm_5ruchy8frontend14error_recoveryNtB5_14RecoveryParser18parse_let_recovery
FN:790,_RNvMs1_NtNtCskTACvQmcrtm_5ruchy8frontend14error_recoveryNtB5_14RecoveryParser18token_to_binary_op
FN:239,_RNvMs1_NtNtCskTACvQmcrtm_5ruchy8frontend14error_recoveryNtB5_14RecoveryParser19parse_expr_recovery
FN:563,_RNvMs1_NtNtCskTACvQmcrtm_5ruchy8frontend14error_recoveryNtB5_14RecoveryParser19parse_list_recovery
FN:646,_RNvMs1_NtNtCskTACvQmcrtm_5ruchy8frontend14error_recoveryNtB5_14RecoveryParser19parse_type_recovery
FN:208,_RNvMs1_NtNtCskTACvQmcrtm_5ruchy8frontend14error_recoveryNtB5_14RecoveryParser19parse_with_recovery
FN:528,_RNvMs1_NtNtCskTACvQmcrtm_5ruchy8frontend14error_recoveryNtB5_14RecoveryParser20parse_block_recovery
FN:588,_RNvMs1_NtNtCskTACvQmcrtm_5ruchy8frontend14error_recoveryNtB5_14RecoveryParser20parse_paren_recovery
FN:595,_RNvMs1_NtNtCskTACvQmcrtm_5ruchy8frontend14error_recoveryNtB5_14RecoveryParser21parse_params_recovery
FN:313,_RNvMs1_NtNtCskTACvQmcrtm_5ruchy8frontend14error_recoveryNtB5_14RecoveryParser21parse_prefix_recovery
FN:486,_RNvMs1_NtNtCskTACvQmcrtm_5ruchy8frontend14error_recoveryNtB5_14RecoveryParser23parse_function_recovery
FN:243,_RNvMs1_NtNtCskTACvQmcrtm_5ruchy8frontend14error_recoveryNtB5_14RecoveryParser35parse_expr_with_precedence_recovery
FN:197,_RNvMs1_NtNtCskTACvQmcrtm_5ruchy8frontend14error_recoveryNtB5_14RecoveryParser3new
FN:849,_RNvNtNtNtCskTACvQmcrtm_5ruchy8frontend14error_recovery5testss_27test_recovery_incomplete_if
FN:840,_RNvNtNtNtCskTACvQmcrtm_5ruchy8frontend14error_recovery5testss_27test_recovery_invalid_token
FN:831,_RNvNtNtNtCskTACvQmcrtm_5ruchy8frontend14error_recovery5testss_27test_recovery_missing_paren
FN:868,_RNvNtNtNtCskTACvQmcrtm_5ruchy8frontend14error_recovery5testss_28test_no_errors_on_valid_code
FN:821,_RNvNtNtNtCskTACvQmcrtm_5ruchy8frontend14error_recovery5testss_29test_recovery_missing_operand
FN:859,_RNvNtNtNtCskTACvQmcrtm_5ruchy8frontend14error_recovery5testss_35test_recovery_missing_function_body
FNDA:0,_RNvMs0_NtNtCskTACvQmcrtm_5ruchy8frontend14error_recoveryNtB5_10ParseError12with_context
FNDA:0,_RNvMs0_NtNtCskTACvQmcrtm_5ruchy8frontend14error_recoveryNtB5_10ParseError13missing_token
FNDA:0,_RNvMs0_NtNtCskTACvQmcrtm_5ruchy8frontend14error_recoveryNtB5_10ParseError13with_severity
FNDA:0,_RNvMs0_NtNtCskTACvQmcrtm_5ruchy8frontend14error_recoveryNtB5_10ParseError16unexpected_token
FNDA:0,_RNvXNtNtCskTACvQmcrtm_5ruchy8frontend14error_recoveryNtB2_10ParseErrorNtNtCs66KPHxksi63_4core3fmt7Display3fmt
FNDA:6314,_RNCNvMs1_NtNtCskTACvQmcrtm_5ruchy8frontend14error_recoveryNtB7_14RecoveryParser11synchronize0Bb_
FNDA:0,_RNCNvMs1_NtNtCskTACvQmcrtm_5ruchy8frontend14error_recoveryNtB7_14RecoveryParser14synchronize_to0Bb_
FNDA:380,_RNvMs0_NtNtCskTACvQmcrtm_5ruchy8frontend14error_recoveryNtB5_10ParseError3new
FNDA:0,_RNvMs0_NtNtCskTACvQmcrtm_5ruchy8frontend14error_recoveryNtB5_10ParseError9with_code
FNDA:378,_RNvMs0_NtNtCskTACvQmcrtm_5ruchy8frontend14error_recoveryNtB5_10ParseError9with_hint
FNDA:376,_RNvMs1_NtNtCskTACvQmcrtm_5ruchy8frontend14error_recoveryNtB5_14RecoveryParser10precedence
FNDA:114,_RNvMs1_NtNtCskTACvQmcrtm_5ruchy8frontend14error_recoveryNtB5_14RecoveryParser11synchronize
FNDA:378,_RNvMs1_NtNtCskTACvQmcrtm_5ruchy8frontend14error_recoveryNtB5_14RecoveryParser12record_error
FNDA:0,_RNvMs1_NtNtCskTACvQmcrtm_5ruchy8frontend14error_recoveryNtB5_14RecoveryParser14synchronize_to
FNDA:190,_RNvMs1_NtNtCskTACvQmcrtm_5ruchy8frontend14error_recoveryNtB5_14RecoveryParser17create_ghost_node
FNDA:34,_RNvMs1_NtNtCskTACvQmcrtm_5ruchy8frontend14error_recoveryNtB5_14RecoveryParser17expect_or_recover
FNDA:1,_RNvMs1_NtNtCskTACvQmcrtm_5ruchy8frontend14error_recoveryNtB5_14RecoveryParser17parse_if_recovery
FNDA:1,_RNvMs1_NtNtCskTACvQmcrtm_5ruchy8frontend14error_recoveryNtB5_14RecoveryParser18parse_let_recovery
FNDA:292,_RNvMs1_NtNtCskTACvQmcrtm_5ruchy8frontend14error_recoveryNtB5_14RecoveryParser18token_to_binary_op
FNDA:622,_RNvMs1_NtNtCskTACvQmcrtm_5ruchy8frontend14error_recoveryNtB5_14RecoveryParser19parse_expr_recovery
FNDA:0,_RNvMs1_NtNtCskTACvQmcrtm_5ruchy8frontend14error_recoveryNtB5_14RecoveryParser19parse_list_recovery
FNDA:1,_RNvMs1_NtNtCskTACvQmcrtm_5ruchy8frontend14error_recoveryNtB5_14RecoveryParser19parse_type_recovery
FNDA:594,_RNvMs1_NtNtCskTACvQmcrtm_5ruchy8frontend14error_recoveryNtB5_14RecoveryParser19parse_with_recovery
FNDA:2,_RNvMs1_NtNtCskTACvQmcrtm_5ruchy8frontend14error_recoveryNtB5_14RecoveryParser20parse_block_recovery
FNDA:24,_RNvMs1_NtNtCskTACvQmcrtm_5ruchy8frontend14error_recoveryNtB5_14RecoveryParser20parse_paren_recovery
FNDA:1,_RNvMs1_NtNtCskTACvQmcrtm_5ruchy8frontend14error_recoveryNtB5_14RecoveryParser21parse_params_recovery
FNDA:1076,_RNvMs1_NtNtCskTACvQmcrtm_5ruchy8frontend14error_recoveryNtB5_14RecoveryParser21parse_prefix_recovery
FNDA:1,_RNvMs1_NtNtCskTACvQmcrtm_5ruchy8frontend14error_recoveryNtB5_14RecoveryParser23parse_function_recovery
FNDA:914,_RNvMs1_NtNtCskTACvQmcrtm_5ruchy8frontend14error_recoveryNtB5_14RecoveryParser35parse_expr_with_precedence_recovery
FNDA:594,_RNvMs1_NtNtCskTACvQmcrtm_5ruchy8frontend14error_recoveryNtB5_14RecoveryParser3new
FNDA:1,_RNvNtNtNtCskTACvQmcrtm_5ruchy8frontend14error_recovery5testss_27test_recovery_incomplete_if
FNDA:1,_RNvNtNtNtCskTACvQmcrtm_5ruchy8frontend14error_recovery5testss_27test_recovery_invalid_token
FNDA:1,_RNvNtNtNtCskTACvQmcrtm_5ruchy8frontend14error_recovery5testss_27test_recovery_missing_paren
FNDA:1,_RNvNtNtNtCskTACvQmcrtm_5ruchy8frontend14error_recovery5testss_28test_no_errors_on_valid_code
FNDA:1,_RNvNtNtNtCskTACvQmcrtm_5ruchy8frontend14error_recovery5testss_29test_recovery_missing_operand
FNDA:1,_RNvNtNtNtCskTACvQmcrtm_5ruchy8frontend14error_recovery5testss_35test_recovery_missing_function_body
FNF:36
FNH:27
DA:62,0
DA:64,0
DA:67,0
DA:68,0
DA:69,0
DA:72,0
DA:75,0
DA:76,0
DA:77,0
DA:78,0
DA:79,0
DA:80,0
DA:83,0
DA:84,0
DA:85,0
DA:86,0
DA:87,0
DA:88,0
DA:89,0
DA:92,0
DA:93,0
DA:94,0
DA:96,0
DA:97,0
DA:104,380
DA:105,380
DA:106,380
DA:107,380
DA:108,380
DA:109,380
DA:110,380
DA:111,380
DA:112,380
DA:113,380
DA:114,380
DA:115,380
DA:118,0
DA:119,0
DA:120,0
DA:121,0
DA:122,0
DA:123,0
DA:124,0
DA:125,0
DA:126,0
DA:127,0
DA:128,0
DA:129,0
DA:130,0
DA:131,0
DA:132,0
DA:135,0
DA:136,0
DA:137,0
DA:138,0
DA:139,0
DA:140,0
DA:141,0
DA:142,0
DA:143,0
DA:144,0
DA:145,0
DA:146,0
DA:147,0
DA:151,0
DA:152,0
DA:153,0
DA:154,0
DA:158,378
DA:159,378
DA:160,378
DA:161,378
DA:165,0
DA:166,0
DA:167,0
DA:168,0
DA:172,0
DA:173,0
DA:174,0
DA:175,0
DA:197,594
DA:198,594
DA:199,594
DA:200,594
DA:201,594
DA:202,594
DA:203,594
DA:204,594
DA:205,594
DA:208,594
DA:209,594
DA:210,594
DA:211,594
DA:212,594
DA:213,594
DA:214,594
DA:215,0
DA:217,0
DA:218,0
DA:219,0
DA:220,0
DA:221,0
DA:222,0
DA:224,0
DA:226,0
DA:227,0
DA:228,0
DA:230,0
DA:231,0
DA:232,0
DA:233,0
DA:234,0
DA:237,594
DA:239,622
DA:240,622
DA:241,622
DA:243,914
DA:244,914
DA:246,914
DA:249,1206
DA:250,1206
DA:251,0
DA:252,0
DA:253,0
DA:255,0
DA:256,1206
DA:258,1206
DA:259,428
DA:262,778
DA:263,402
DA:264,376
DA:266,376
DA:267,376
DA:268,376
DA:269,84
DA:270,292
DA:272,292
DA:273,292
DA:274,292
DA:275,292
DA:276,0
DA:277,0
DA:279,0
DA:283,292
DA:285,292
DA:288,0
DA:289,0
DA:290,0
DA:291,0
DA:293,0
DA:296,292
DA:297,292
DA:298,292
DA:299,292
DA:300,292
DA:301,292
DA:302,292
DA:303,292
DA:306,0
DA:310,914
DA:311,914
DA:313,1076
DA:316,1076
DA:317,1076
DA:318,0
DA:319,0
DA:320,0
DA:321,0
DA:323,0
DA:324,1076
DA:326,1076
DA:327,205
DA:328,205
DA:329,205
DA:330,205
DA:331,205
DA:333,0
DA:334,0
DA:335,0
DA:336,0
DA:337,0
DA:339,0
DA:340,0
DA:341,0
DA:342,0
DA:343,0
DA:345,0
DA:346,0
DA:347,0
DA:348,0
DA:349,0
DA:351,492
DA:352,492
DA:353,492
DA:354,492
DA:355,492
DA:357,1
DA:358,1
DA:359,1
DA:360,0
DA:361,24
DA:362,276
DA:363,276
DA:366,276
DA:367,162
DA:368,162
DA:369,162
DA:370,162
DA:373,162
DA:374,114
DA:376,114
DA:377,114
DA:378,114
DA:379,114
DA:382,114
DA:383,114
DA:386,76
DA:387,76
DA:388,76
DA:390,76
DA:394,914
DA:395,914
DA:396,1076
DA:398,1
DA:399,1
DA:401,1
DA:402,1
DA:404,0
DA:405,0
DA:406,0
DA:408,0
DA:411,1
DA:412,1
DA:414,1
DA:415,0
DA:416,0
DA:417,0
DA:419,1
DA:422,1
DA:423,0
DA:425,1
DA:428,1
DA:429,1
DA:430,1
DA:431,1
DA:432,1
DA:433,1
DA:434,1
DA:436,1
DA:438,1
DA:439,1
DA:441,1
DA:442,1
DA:444,0
DA:445,0
DA:446,0
DA:448,0
DA:451,1
DA:453,1
DA:454,1
DA:456,0
DA:457,0
DA:458,0
DA:460,0
DA:463,1
DA:464,0
DA:465,0
DA:466,0
DA:467,0
DA:470,1
DA:473,1
DA:474,1
DA:475,1
DA:476,1
DA:477,1
DA:478,1
DA:479,1
DA:480,1
DA:481,1
DA:482,1
DA:484,1
DA:486,1
DA:487,1
DA:489,1
DA:490,1
DA:492,0
DA:493,0
DA:494,0
DA:496,0
DA:499,1
DA:500,1
DA:501,1
DA:503,1
DA:504,0
DA:505,0
DA:507,1
DA:510,1
DA:511,1
DA:513,1
DA:514,1
DA:515,1
DA:516,1
DA:517,1
DA:518,1
DA:519,1
DA:520,1
DA:521,1
DA:522,1
DA:523,1
DA:524,1
DA:526,1
DA:528,2
DA:529,2
DA:530,2
DA:531,2
DA:532,2
DA:533,2
DA:535,4
DA:536,2
DA:537,2
DA:538,2
DA:540,0
DA:541,0
DA:542,0
DA:543,0
DA:547,2
DA:548,0
DA:549,2
DA:552,2
DA:554,2
DA:555,1
DA:557,1
DA:560,2
DA:561,2
DA:563,0
DA:564,0
DA:565,0
DA:567,0
DA:568,0
DA:569,0
DA:570,0
DA:571,0
DA:572,0
DA:575,0
DA:576,0
DA:577,0
DA:578,0
DA:582,0
DA:583,0
DA:585,0
DA:586,0
DA:588,24
DA:589,24
DA:590,24
DA:591,24
DA:592,24
DA:593,24
DA:595,1
DA:596,1
DA:598,1
DA:599,0
DA:600,1
DA:603,1
DA:604,0
DA:605,0
DA:606,0
DA:608,0
DA:609,0
DA:612,1
DA:613,1
DA:614,1
DA:617,0
DA:618,0
DA:619,0
DA:620,0
DA:623,1
DA:624,1
DA:625,1
DA:626,1
DA:627,1
DA:628,1
DA:629,1
DA:631,1
DA:632,0
DA:633,0
DA:634,0
DA:635,1
DA:637,0
DA:638,0
DA:643,1
DA:644,1
DA:646,1
DA:647,1
DA:649,1
DA:651,0
DA:652,0
DA:653,0
DA:655,0
DA:658,1
DA:659,0
DA:660,0
DA:661,0
DA:662,0
DA:663,0
DA:665,1
DA:668,1
DA:669,1
DA:672,190
DA:673,190
DA:674,190
DA:675,190
DA:676,190
DA:677,190
DA:678,190
DA:679,190
DA:680,190
DA:682,190
DA:685,378
DA:686,378
DA:688,378
DA:689,378
DA:690,378
DA:691,378
DA:692,378
DA:693,265
DA:694,265
DA:695,378
DA:696,378
DA:699,34
DA:700,34
DA:701,24
DA:702,8
DA:703,8
DA:704,8
DA:707,26
DA:708,26
DA:709,26
DA:711,26
DA:712,26
DA:715,34
DA:718,114
DA:719,114
DA:722,114
DA:723,114
DA:724,114
DA:725,114
DA:726,114
DA:727,114
DA:728,114
DA:729,114
DA:730,114
DA:732,114
DA:735,1015
DA:736,906
DA:738,0
DA:739,906
DA:741,6314
DA:742,5
DA:743,3
DA:744,3
DA:745,5
DA:746,901
DA:747,901
DA:748,901
DA:751,114
DA:752,114
DA:755,0
DA:756,0
DA:759,0
DA:760,0
DA:762,0
DA:763,0
DA:765,0
DA:766,0
DA:767,0
DA:768,0
DA:769,0
DA:771,0
DA:773,376
DA:774,376
DA:775,0
DA:776,0
DA:777,0
DA:778,0
DA:779,0
DA:780,0
DA:781,1
DA:782,0
DA:783,259
DA:784,116
DA:785,0
DA:786,0
DA:788,376
DA:790,292
DA:791,292
DA:792,27
DA:793,148
DA:794,86
DA:795,30
DA:796,0
DA:797,0
DA:798,0
DA:799,0
DA:800,0
DA:801,0
DA:802,1
DA:803,0
DA:804,0
DA:805,0
DA:806,0
DA:807,0
DA:808,0
DA:809,0
DA:810,0
DA:812,292
DA:821,1
DA:822,1
DA:823,1
DA:825,1
DA:826,1
DA:827,1
DA:828,1
DA:831,1
DA:832,1
DA:833,1
DA:835,1
DA:836,1
DA:837,1
DA:840,1
DA:841,1
DA:842,1
DA:844,1
DA:845,1
DA:846,1
DA:849,1
DA:850,1
DA:851,1
DA:853,1
DA:854,1
DA:855,1
DA:856,1
DA:859,1
DA:860,1
DA:861,1
DA:863,1
DA:864,1
DA:865,1
DA:868,1
DA:869,1
DA:870,1
DA:872,1
DA:873,1
DA:874,1
DA:875,1
BRF:0
BRH:0
LF:556
LH:333
end_of_record
SF:/home/noah/src/ruchy/src/frontend/lexer.rs
FN:474,_RNCNvMs_NtNtCskTACvQmcrtm_5ruchy8frontend5lexerNtB6_11TokenStream4next0Ba_
FN:81,_RNCNvNvNvXs0_NtNtCskTACvQmcrtm_5ruchy8frontend5lexerNtBb_5TokenNtCs4DiXyqJ1BjN_5logos5Logos3lex14goto21_ctx21_x8callback0Bf_
FN:81,_RNCNvNvNvXs0_NtNtCskTACvQmcrtm_5ruchy8frontend5lexerNtBb_5TokenNtCs4DiXyqJ1BjN_5logos5Logos3lex8goto21_x8callback0Bf_
FN:381,_RNvMNtNtCskTACvQmcrtm_5ruchy8frontend5lexerNtB2_5Token12is_binary_op
FN:414,_RNvMNtNtCskTACvQmcrtm_5ruchy8frontend5lexerNtB2_5Token16is_assignment_op
FN:463,_RNvMs_NtNtCskTACvQmcrtm_5ruchy8frontend5lexerNtB4_11TokenStream12set_position
FN:446,_RNvMs_NtNtCskTACvQmcrtm_5ruchy8frontend5lexerNtB4_11TokenStream3new
FN:469,_RNvMs_NtNtCskTACvQmcrtm_5ruchy8frontend5lexerNtB4_11TokenStream4next
FN:481,_RNvMs_NtNtCskTACvQmcrtm_5ruchy8frontend5lexerNtB4_11TokenStream4peek
FN:525,_RNvMs_NtNtCskTACvQmcrtm_5ruchy8frontend5lexerNtB4_11TokenStream6expect
FN:534,_RNvMs_NtNtCskTACvQmcrtm_5ruchy8frontend5lexerNtB4_11TokenStream7advance
FN:455,_RNvMs_NtNtCskTACvQmcrtm_5ruchy8frontend5lexerNtB4_11TokenStream8position
FN:43,_RNvNtNtCskTACvQmcrtm_5ruchy8frontend5lexer15process_escapes
FN:7,_RNvNtNtCskTACvQmcrtm_5ruchy8frontend5lexer20process_basic_escape
FN:21,_RNvNtNtCskTACvQmcrtm_5ruchy8frontend5lexer22process_unicode_escape
FN:72,_RNvNvXs0_NtNtCskTACvQmcrtm_5ruchy8frontend5lexerNtB7_5TokenNtCs4DiXyqJ1BjN_5logos5Logos3lex12goto9_ctx8_x
FN:72,_RNvNvXs0_NtNtCskTACvQmcrtm_5ruchy8frontend5lexerNtB7_5TokenNtCs4DiXyqJ1BjN_5logos5Logos3lex14goto65_ctx64_x
FN:72,_RNvNvXs0_NtNtCskTACvQmcrtm_5ruchy8frontend5lexerNtB7_5TokenNtCs4DiXyqJ1BjN_5logos5Logos3lex14goto79_ctx78_x
FN:72,_RNvNvXs0_NtNtCskTACvQmcrtm_5ruchy8frontend5lexerNtB7_5TokenNtCs4DiXyqJ1BjN_5logos5Logos3lex16goto287_ctx162_x
FN:72,_RNvNvXs0_NtNtCskTACvQmcrtm_5ruchy8frontend5lexerNtB7_5TokenNtCs4DiXyqJ1BjN_5logos5Logos3lex16goto299_ctx162_x
FN:72,_RNvNvXs0_NtNtCskTACvQmcrtm_5ruchy8frontend5lexerNtB7_5TokenNtCs4DiXyqJ1BjN_5logos5Logos3lex16goto301_ctx162_x
FN:72,_RNvNvXs0_NtNtCskTACvQmcrtm_5ruchy8frontend5lexerNtB7_5TokenNtCs4DiXyqJ1BjN_5logos5Logos3lex16goto312_ctx162_x
FN:72,_RNvNvXs0_NtNtCskTACvQmcrtm_5ruchy8frontend5lexerNtB7_5TokenNtCs4DiXyqJ1BjN_5logos5Logos3lex16goto335_ctx162_x
FN:72,_RNvNvXs0_NtNtCskTACvQmcrtm_5ruchy8frontend5lexerNtB7_5TokenNtCs4DiXyqJ1BjN_5logos5Logos3lex16goto337_ctx162_x
FN:72,_RNvNvXs0_NtNtCskTACvQmcrtm_5ruchy8frontend5lexerNtB7_5TokenNtCs4DiXyqJ1BjN_5logos5Logos3lex16goto339_ctx162_x
FN:72,_RNvNvXs0_NtNtCskTACvQmcrtm_5ruchy8frontend5lexerNtB7_5TokenNtCs4DiXyqJ1BjN_5logos5Logos3lex16goto374_ctx162_x
FN:72,_RNvNvXs0_NtNtCskTACvQmcrtm_5ruchy8frontend5lexerNtB7_5TokenNtCs4DiXyqJ1BjN_5logos5Logos3lex16goto376_ctx162_x
FN:72,_RNvNvXs0_NtNtCskTACvQmcrtm_5ruchy8frontend5lexerNtB7_5TokenNtCs4DiXyqJ1BjN_5logos5Logos3lex16goto378_ctx162_x
FN:72,_RNvNvXs0_NtNtCskTACvQmcrtm_5ruchy8frontend5lexerNtB7_5TokenNtCs4DiXyqJ1BjN_5logos5Logos3lex16goto380_ctx162_x
FN:72,_RNvNvXs0_NtNtCskTACvQmcrtm_5ruchy8frontend5lexerNtB7_5TokenNtCs4DiXyqJ1BjN_5logos5Logos3lex16goto390_ctx162_x
FN:72,_RNvNvXs0_NtNtCskTACvQmcrtm_5ruchy8frontend5lexerNtB7_5TokenNtCs4DiXyqJ1BjN_5logos5Logos3lex16goto392_ctx162_x
FN:72,_RNvNvXs0_NtNtCskTACvQmcrtm_5ruchy8frontend5lexerNtB7_5TokenNtCs4DiXyqJ1BjN_5logos5Logos3lex16goto426_ctx162_x
FN:72,_RNvNvXs0_NtNtCskTACvQmcrtm_5ruchy8frontend5lexerNtB7_5TokenNtCs4DiXyqJ1BjN_5logos5Logos3lex16goto428_ctx162_x
FN:72,_RNvNvXs0_NtNtCskTACvQmcrtm_5ruchy8frontend5lexerNtB7_5TokenNtCs4DiXyqJ1BjN_5logos5Logos3lex16goto430_ctx162_x
FN:72,_RNvNvXs0_NtNtCskTACvQmcrtm_5ruchy8frontend5lexerNtB7_5TokenNtCs4DiXyqJ1BjN_5logos5Logos3lex16goto439_ctx162_x
FN:72,_RNvNvXs0_NtNtCskTACvQmcrtm_5ruchy8frontend5lexerNtB7_5TokenNtCs4DiXyqJ1BjN_5logos5Logos3lex16goto441_ctx162_x
FN:72,_RNvNvXs0_NtNtCskTACvQmcrtm_5ruchy8frontend5lexerNtB7_5TokenNtCs4DiXyqJ1BjN_5logos5Logos3lex16goto443_ctx162_x
FN:72,_RNvNvXs0_NtNtCskTACvQmcrtm_5ruchy8frontend5lexerNtB7_5TokenNtCs4DiXyqJ1BjN_5logos5Logos3lex16goto469_ctx163_x
FN:72,_RNvNvXs0_NtNtCskTACvQmcrtm_5ruchy8frontend5lexerNtB7_5TokenNtCs4DiXyqJ1BjN_5logos5Logos3lex16goto471_ctx163_x
FN:72,_RNvNvXs0_NtNtCskTACvQmcrtm_5ruchy8frontend5lexerNtB7_5TokenNtCs4DiXyqJ1BjN_5logos5Logos3lex16goto482_ctx162_x
FN:72,_RNvNvXs0_NtNtCskTACvQmcrtm_5ruchy8frontend5lexerNtB7_5TokenNtCs4DiXyqJ1BjN_5logos5Logos3lex16goto484_ctx162_x
FN:72,_RNvNvXs0_NtNtCskTACvQmcrtm_5ruchy8frontend5lexerNtB7_5TokenNtCs4DiXyqJ1BjN_5logos5Logos3lex16goto486_ctx162_x
FN:72,_RNvNvXs0_NtNtCskTACvQmcrtm_5ruchy8frontend5lexerNtB7_5TokenNtCs4DiXyqJ1BjN_5logos5Logos3lex16goto488_ctx162_x
FN:72,_RNvNvXs0_NtNtCskTACvQmcrtm_5ruchy8frontend5lexerNtB7_5TokenNtCs4DiXyqJ1BjN_5logos5Logos3lex16goto528_ctx162_x
FN:72,_RNvNvXs0_NtNtCskTACvQmcrtm_5ruchy8frontend5lexerNtB7_5TokenNtCs4DiXyqJ1BjN_5logos5Logos3lex16goto530_ctx162_x
FN:72,_RNvNvXs0_NtNtCskTACvQmcrtm_5ruchy8frontend5lexerNtB7_5TokenNtCs4DiXyqJ1BjN_5logos5Logos3lex16goto542_ctx162_x
FN:72,_RNvNvXs0_NtNtCskTACvQmcrtm_5ruchy8frontend5lexerNtB7_5TokenNtCs4DiXyqJ1BjN_5logos5Logos3lex16goto544_ctx162_x
FN:72,_RNvNvXs0_NtNtCskTACvQmcrtm_5ruchy8frontend5lexerNtB7_5TokenNtCs4DiXyqJ1BjN_5logos5Logos3lex16goto546_ctx162_x
FN:513,_RNCNvMs_NtNtCskTACvQmcrtm_5ruchy8frontend5lexerNtB6_11TokenStream17peek_nth_is_colon0Ba_
FN:516,_RNCNvMs_NtNtCskTACvQmcrtm_5ruchy8frontend5lexerNtB6_11TokenStream17peek_nth_is_colons_0Ba_
FN:406,_RNvMNtNtCskTACvQmcrtm_5ruchy8frontend5lexerNtB2_5Token11is_unary_op
FN:511,_RNvMs_NtNtCskTACvQmcrtm_5ruchy8frontend5lexerNtB4_11TokenStream17peek_nth_is_colon
FN:488,_RNvMs_NtNtCskTACvQmcrtm_5ruchy8frontend5lexerNtB4_11TokenStream8peek_nth
FN:548,_RNvNtNtNtCskTACvQmcrtm_5ruchy8frontend5lexer5testss_19test_tokenize_basic
FN:573,_RNvNtNtNtCskTACvQmcrtm_5ruchy8frontend5lexer5testss_22test_tokenize_comments
FN:564,_RNvNtNtNtCskTACvQmcrtm_5ruchy8frontend5lexer5testss_22test_tokenize_pipeline
FNDA:5496,_RNCNvMs_NtNtCskTACvQmcrtm_5ruchy8frontend5lexerNtB6_11TokenStream4next0Ba_
FNDA:926,_RNCNvNvNvXs0_NtNtCskTACvQmcrtm_5ruchy8frontend5lexerNtBb_5TokenNtCs4DiXyqJ1BjN_5logos5Logos3lex14goto21_ctx21_x8callback0Bf_
FNDA:6,_RNCNvNvNvXs0_NtNtCskTACvQmcrtm_5ruchy8frontend5lexerNtBb_5TokenNtCs4DiXyqJ1BjN_5logos5Logos3lex8goto21_x8callback0Bf_
FNDA:1054,_RNvMNtNtCskTACvQmcrtm_5ruchy8frontend5lexerNtB2_5Token12is_binary_op
FNDA:624,_RNvMNtNtCskTACvQmcrtm_5ruchy8frontend5lexerNtB2_5Token16is_assignment_op
FNDA:49,_RNvMs_NtNtCskTACvQmcrtm_5ruchy8frontend5lexerNtB4_11TokenStream12set_position
FNDA:1110,_RNvMs_NtNtCskTACvQmcrtm_5ruchy8frontend5lexerNtB4_11TokenStream3new
FNDA:13408,_RNvMs_NtNtCskTACvQmcrtm_5ruchy8frontend5lexerNtB4_11TokenStream4next
FNDA:13777,_RNvMs_NtNtCskTACvQmcrtm_5ruchy8frontend5lexerNtB4_11TokenStream4peek
FNDA:741,_RNvMs_NtNtCskTACvQmcrtm_5ruchy8frontend5lexerNtB4_11TokenStream6expect
FNDA:4402,_RNvMs_NtNtCskTACvQmcrtm_5ruchy8frontend5lexerNtB4_11TokenStream7advance
FNDA:54,_RNvMs_NtNtCskTACvQmcrtm_5ruchy8frontend5lexerNtB4_11TokenStream8position
FNDA:101,_RNvNtNtCskTACvQmcrtm_5ruchy8frontend5lexer15process_escapes
FNDA:1,_RNvNtNtCskTACvQmcrtm_5ruchy8frontend5lexer20process_basic_escape
FNDA:0,_RNvNtNtCskTACvQmcrtm_5ruchy8frontend5lexer22process_unicode_escape
FNDA:139,_RNvNvXs0_NtNtCskTACvQmcrtm_5ruchy8frontend5lexerNtB7_5TokenNtCs4DiXyqJ1BjN_5logos5Logos3lex12goto9_ctx8_x
FNDA:1521,_RNvNvXs0_NtNtCskTACvQmcrtm_5ruchy8frontend5lexerNtB7_5TokenNtCs4DiXyqJ1BjN_5logos5Logos3lex14goto65_ctx64_x
FNDA:61,_RNvNvXs0_NtNtCskTACvQmcrtm_5ruchy8frontend5lexerNtB7_5TokenNtCs4DiXyqJ1BjN_5logos5Logos3lex14goto79_ctx78_x
FNDA:8,_RNvNvXs0_NtNtCskTACvQmcrtm_5ruchy8frontend5lexerNtB7_5TokenNtCs4DiXyqJ1BjN_5logos5Logos3lex16goto287_ctx162_x
FNDA:0,_RNvNvXs0_NtNtCskTACvQmcrtm_5ruchy8frontend5lexerNtB7_5TokenNtCs4DiXyqJ1BjN_5logos5Logos3lex16goto299_ctx162_x
FNDA:0,_RNvNvXs0_NtNtCskTACvQmcrtm_5ruchy8frontend5lexerNtB7_5TokenNtCs4DiXyqJ1BjN_5logos5Logos3lex16goto301_ctx162_x
FNDA:0,_RNvNvXs0_NtNtCskTACvQmcrtm_5ruchy8frontend5lexerNtB7_5TokenNtCs4DiXyqJ1BjN_5logos5Logos3lex16goto312_ctx162_x
FNDA:1,_RNvNvXs0_NtNtCskTACvQmcrtm_5ruchy8frontend5lexerNtB7_5TokenNtCs4DiXyqJ1BjN_5logos5Logos3lex16goto335_ctx162_x
FNDA:0,_RNvNvXs0_NtNtCskTACvQmcrtm_5ruchy8frontend5lexerNtB7_5TokenNtCs4DiXyqJ1BjN_5logos5Logos3lex16goto337_ctx162_x
FNDA:0,_RNvNvXs0_NtNtCskTACvQmcrtm_5ruchy8frontend5lexerNtB7_5TokenNtCs4DiXyqJ1BjN_5logos5Logos3lex16goto339_ctx162_x
FNDA:2,_RNvNvXs0_NtNtCskTACvQmcrtm_5ruchy8frontend5lexerNtB7_5TokenNtCs4DiXyqJ1BjN_5logos5Logos3lex16goto374_ctx162_x
FNDA:0,_RNvNvXs0_NtNtCskTACvQmcrtm_5ruchy8frontend5lexerNtB7_5TokenNtCs4DiXyqJ1BjN_5logos5Logos3lex16goto376_ctx162_x
FNDA:0,_RNvNvXs0_NtNtCskTACvQmcrtm_5ruchy8frontend5lexerNtB7_5TokenNtCs4DiXyqJ1BjN_5logos5Logos3lex16goto378_ctx162_x
FNDA:0,_RNvNvXs0_NtNtCskTACvQmcrtm_5ruchy8frontend5lexerNtB7_5TokenNtCs4DiXyqJ1BjN_5logos5Logos3lex16goto380_ctx162_x
FNDA:0,_RNvNvXs0_NtNtCskTACvQmcrtm_5ruchy8frontend5lexerNtB7_5TokenNtCs4DiXyqJ1BjN_5logos5Logos3lex16goto390_ctx162_x
FNDA:0,_RNvNvXs0_NtNtCskTACvQmcrtm_5ruchy8frontend5lexerNtB7_5TokenNtCs4DiXyqJ1BjN_5logos5Logos3lex16goto392_ctx162_x
FNDA:1,_RNvNvXs0_NtNtCskTACvQmcrtm_5ruchy8frontend5lexerNtB7_5TokenNtCs4DiXyqJ1BjN_5logos5Logos3lex16goto426_ctx162_x
FNDA:0,_RNvNvXs0_NtNtCskTACvQmcrtm_5ruchy8frontend5lexerNtB7_5TokenNtCs4DiXyqJ1BjN_5logos5Logos3lex16goto428_ctx162_x
FNDA:0,_RNvNvXs0_NtNtCskTACvQmcrtm_5ruchy8frontend5lexerNtB7_5TokenNtCs4DiXyqJ1BjN_5logos5Logos3lex16goto430_ctx162_x
FNDA:0,_RNvNvXs0_NtNtCskTACvQmcrtm_5ruchy8frontend5lexerNtB7_5TokenNtCs4DiXyqJ1BjN_5logos5Logos3lex16goto439_ctx162_x
FNDA:0,_RNvNvXs0_NtNtCskTACvQmcrtm_5ruchy8frontend5lexerNtB7_5TokenNtCs4DiXyqJ1BjN_5logos5Logos3lex16goto441_ctx162_x
FNDA:0,_RNvNvXs0_NtNtCskTACvQmcrtm_5ruchy8frontend5lexerNtB7_5TokenNtCs4DiXyqJ1BjN_5logos5Logos3lex16goto443_ctx162_x
FNDA:0,_RNvNvXs0_NtNtCskTACvQmcrtm_5ruchy8frontend5lexerNtB7_5TokenNtCs4DiXyqJ1BjN_5logos5Logos3lex16goto469_ctx163_x
FNDA:0,_RNvNvXs0_NtNtCskTACvQmcrtm_5ruchy8frontend5lexerNtB7_5TokenNtCs4DiXyqJ1BjN_5logos5Logos3lex16goto471_ctx163_x
FNDA:2,_RNvNvXs0_NtNtCskTACvQmcrtm_5ruchy8frontend5lexerNtB7_5TokenNtCs4DiXyqJ1BjN_5logos5Logos3lex16goto482_ctx162_x
FNDA:0,_RNvNvXs0_NtNtCskTACvQmcrtm_5ruchy8frontend5lexerNtB7_5TokenNtCs4DiXyqJ1BjN_5logos5Logos3lex16goto484_ctx162_x
FNDA:0,_RNvNvXs0_NtNtCskTACvQmcrtm_5ruchy8frontend5lexerNtB7_5TokenNtCs4DiXyqJ1BjN_5logos5Logos3lex16goto486_ctx162_x
FNDA:0,_RNvNvXs0_NtNtCskTACvQmcrtm_5ruchy8frontend5lexerNtB7_5TokenNtCs4DiXyqJ1BjN_5logos5Logos3lex16goto488_ctx162_x
FNDA:0,_RNvNvXs0_NtNtCskTACvQmcrtm_5ruchy8frontend5lexerNtB7_5TokenNtCs4DiXyqJ1BjN_5logos5Logos3lex16goto528_ctx162_x
FNDA:0,_RNvNvXs0_NtNtCskTACvQmcrtm_5ruchy8frontend5lexerNtB7_5TokenNtCs4DiXyqJ1BjN_5logos5Logos3lex16goto530_ctx162_x
FNDA:0,_RNvNvXs0_NtNtCskTACvQmcrtm_5ruchy8frontend5lexerNtB7_5TokenNtCs4DiXyqJ1BjN_5logos5Logos3lex16goto542_ctx162_x
FNDA:0,_RNvNvXs0_NtNtCskTACvQmcrtm_5ruchy8frontend5lexerNtB7_5TokenNtCs4DiXyqJ1BjN_5logos5Logos3lex16goto544_ctx162_x
FNDA:0,_RNvNvXs0_NtNtCskTACvQmcrtm_5ruchy8frontend5lexerNtB7_5TokenNtCs4DiXyqJ1BjN_5logos5Logos3lex16goto546_ctx162_x
FNDA:0,_RNCNvMs_NtNtCskTACvQmcrtm_5ruchy8frontend5lexerNtB6_11TokenStream17peek_nth_is_colon0Ba_
FNDA:0,_RNCNvMs_NtNtCskTACvQmcrtm_5ruchy8frontend5lexerNtB6_11TokenStream17peek_nth_is_colons_0Ba_
FNDA:0,_RNvMNtNtCskTACvQmcrtm_5ruchy8frontend5lexerNtB2_5Token11is_unary_op
FNDA:0,_RNvMs_NtNtCskTACvQmcrtm_5ruchy8frontend5lexerNtB4_11TokenStream17peek_nth_is_colon
FNDA:0,_RNvMs_NtNtCskTACvQmcrtm_5ruchy8frontend5lexerNtB4_11TokenStream8peek_nth
FNDA:1,_RNvNtNtNtCskTACvQmcrtm_5ruchy8frontend5lexer5testss_19test_tokenize_basic
FNDA:1,_RNvNtNtNtCskTACvQmcrtm_5ruchy8frontend5lexer5testss_22test_tokenize_comments
FNDA:1,_RNvNtNtNtCskTACvQmcrtm_5ruchy8frontend5lexer5testss_22test_tokenize_pipeline
FNF:23
FNH:17
DA:7,1
DA:8,1
DA:9,1
DA:10,0
DA:11,0
DA:12,0
DA:13,0
DA:14,0
DA:15,0
DA:16,0
DA:18,1
DA:21,0
DA:22,0
DA:24,0
DA:25,0
DA:26,0
DA:27,0
DA:28,0
DA:29,0
DA:32,0
DA:33,0
DA:34,0
DA:35,0
DA:36,0
DA:39,0
DA:40,0
DA:43,101
DA:44,101
DA:45,101
DA:47,1602
DA:48,1501
DA:49,1
DA:50,0
DA:51,0
DA:52,0
DA:53,0
DA:54,1
DA:55,1
DA:56,1
DA:57,1
DA:58,0
DA:59,0
DA:60,0
DA:61,0
DA:64,1500
DA:65,1500
DA:66,1500
DA:69,101
DA:70,101
DA:72,1735
DA:81,932
DA:381,1054
DA:382,516
DA:383,1054
DA:403,1054
DA:406,0
DA:407,0
DA:408,0
DA:411,0
DA:414,624
DA:415,624
DA:416,624
DA:429,624
DA:446,1110
DA:447,1110
DA:448,1110
DA:449,1110
DA:450,1110
DA:451,1110
DA:455,54
DA:456,54
DA:457,54
DA:458,54
DA:459,54
DA:460,54
DA:463,49
DA:464,49
DA:465,49
DA:466,49
DA:469,13408
DA:470,13408
DA:471,5047
DA:472,8361
DA:474,8361
DA:475,5496
DA:476,5496
DA:477,5496
DA:478,5496
DA:479,13408
DA:481,13777
DA:482,13777
DA:483,8253
DA:484,8253
DA:485,13777
DA:486,13777
DA:488,0
DA:490,0
DA:491,0
DA:492,0
DA:495,0
DA:496,0
DA:499,0
DA:502,0
DA:503,0
DA:505,0
DA:507,0
DA:509,0
DA:511,0
DA:512,0
DA:513,0
DA:515,0
DA:516,0
DA:518,0
DA:525,741
DA:526,741
DA:527,741
DA:528,0
DA:529,0
DA:531,741
DA:534,4402
DA:535,4402
DA:536,4402
DA:548,1
DA:549,1
DA:551,1
DA:552,1
DA:553,1
DA:554,1
DA:556,1
DA:557,1
DA:558,1
DA:559,1
DA:560,1
DA:561,1
DA:564,1
DA:565,1
DA:567,1
DA:568,1
DA:570,1
DA:573,1
DA:574,1
DA:576,1
DA:577,1
DA:578,1
DA:580,1
DA:581,1
DA:582,1
DA:583,1
DA:585,1
BRF:0
BRH:0
LF:152
LH:96
end_of_record
SF:/home/noah/src/ruchy/src/frontend/parser/actors.rs
FN:12,_RNvNtNtNtCskTACvQmcrtm_5ruchy8frontend6parser6actors11parse_actor
FN:42,_RNvNtNtNtCskTACvQmcrtm_5ruchy8frontend6parser6actors16parse_actor_body
FN:31,_RNvNtNtNtCskTACvQmcrtm_5ruchy8frontend6parser6actors16parse_actor_name
FN:163,_RNvNtNtNtCskTACvQmcrtm_5ruchy8frontend6parser6actors16parse_field_name
FN:60,_RNvNtNtNtCskTACvQmcrtm_5ruchy8frontend6parser6actors17parse_state_block
FN:183,_RNvNtNtNtCskTACvQmcrtm_5ruchy8frontend6parser6actors18parse_handler_body
FN:94,_RNvNtNtNtCskTACvQmcrtm_5ruchy8frontend6parser6actors19parse_receive_block
FN:174,_RNvNtNtNtCskTACvQmcrtm_5ruchy8frontend6parser6actors21parse_optional_params
FN:83,_RNvNtNtNtCskTACvQmcrtm_5ruchy8frontend6parser6actors21parse_receive_handler
FN:119,_RNvNtNtNtCskTACvQmcrtm_5ruchy8frontend6parser6actors24parse_individual_handler
FN:141,_RNvNtNtNtCskTACvQmcrtm_5ruchy8frontend6parser6actors24parse_inline_state_field
FN:192,_RNvNtNtNtCskTACvQmcrtm_5ruchy8frontend6parser6actors26consume_optional_separator
FN:206,_RNvNtNtNtNtCskTACvQmcrtm_5ruchy8frontend6parser6actors5testss_35test_parse_actor_function_signature
FNDA:0,_RNvNtNtNtCskTACvQmcrtm_5ruchy8frontend6parser6actors11parse_actor
FNDA:0,_RNvNtNtNtCskTACvQmcrtm_5ruchy8frontend6parser6actors16parse_actor_body
FNDA:0,_RNvNtNtNtCskTACvQmcrtm_5ruchy8frontend6parser6actors16parse_actor_name
FNDA:0,_RNvNtNtNtCskTACvQmcrtm_5ruchy8frontend6parser6actors16parse_field_name
FNDA:0,_RNvNtNtNtCskTACvQmcrtm_5ruchy8frontend6parser6actors17parse_state_block
FNDA:0,_RNvNtNtNtCskTACvQmcrtm_5ruchy8frontend6parser6actors18parse_handler_body
FNDA:0,_RNvNtNtNtCskTACvQmcrtm_5ruchy8frontend6parser6actors19parse_receive_block
FNDA:0,_RNvNtNtNtCskTACvQmcrtm_5ruchy8frontend6parser6actors21parse_optional_params
FNDA:0,_RNvNtNtNtCskTACvQmcrtm_5ruchy8frontend6parser6actors21parse_receive_handler
FNDA:0,_RNvNtNtNtCskTACvQmcrtm_5ruchy8frontend6parser6actors24parse_individual_handler
FNDA:0,_RNvNtNtNtCskTACvQmcrtm_5ruchy8frontend6parser6actors24parse_inline_state_field
FNDA:0,_RNvNtNtNtCskTACvQmcrtm_5ruchy8frontend6parser6actors26consume_optional_separator
FNDA:1,_RNvNtNtNtNtCskTACvQmcrtm_5ruchy8frontend6parser6actors5testss_35test_parse_actor_function_signature
FNF:13
FNH:1
DA:12,0
DA:13,0
DA:14,0
DA:15,0
DA:17,0
DA:18,0
DA:20,0
DA:21,0
DA:22,0
DA:23,0
DA:24,0
DA:25,0
DA:26,0
DA:27,0
DA:28,0
DA:31,0
DA:32,0
DA:33,0
DA:34,0
DA:35,0
DA:37,0
DA:39,0
DA:42,0
DA:43,0
DA:44,0
DA:46,0
DA:47,0
DA:48,0
DA:49,0
DA:50,0
DA:52,0
DA:56,0
DA:57,0
DA:60,0
DA:61,0
DA:62,0
DA:64,0
DA:65,0
DA:66,0
DA:67,0
DA:69,0
DA:70,0
DA:71,0
DA:72,0
DA:73,0
DA:75,0
DA:78,0
DA:79,0
DA:80,0
DA:83,0
DA:84,0
DA:86,0
DA:87,0
DA:89,0
DA:91,0
DA:94,0
DA:95,0
DA:97,0
DA:98,0
DA:99,0
DA:100,0
DA:101,0
DA:103,0
DA:104,0
DA:105,0
DA:106,0
DA:107,0
DA:109,0
DA:110,0
DA:111,0
DA:114,0
DA:115,0
DA:116,0
DA:119,0
DA:120,0
DA:121,0
DA:124,0
DA:125,0
DA:126,0
DA:127,0
DA:129,0
DA:131,0
DA:132,0
DA:133,0
DA:134,0
DA:135,0
DA:137,0
DA:138,0
DA:141,0
DA:142,0
DA:143,0
DA:144,0
DA:147,0
DA:148,0
DA:149,0
DA:150,0
DA:152,0
DA:153,0
DA:154,0
DA:155,0
DA:156,0
DA:158,0
DA:159,0
DA:160,0
DA:163,0
DA:164,0
DA:165,0
DA:166,0
DA:167,0
DA:169,0
DA:171,0
DA:174,0
DA:175,0
DA:176,0
DA:178,0
DA:180,0
DA:183,0
DA:184,0
DA:185,0
DA:187,0
DA:189,0
DA:192,0
DA:193,0
DA:194,0
DA:196,0
DA:197,0
DA:198,0
DA:199,0
DA:206,1
DA:213,1
DA:216,1
DA:217,1
BRF:0
BRH:0
LF:132
LH:4
end_of_record
SF:/home/noah/src/ruchy/src/frontend/parser/collections.rs
FN:409,_RNvNtNtNtCskTACvQmcrtm_5ruchy8frontend6parser11collections10parse_list
FN:850,_RNvNtNtNtCskTACvQmcrtm_5ruchy8frontend6parser11collections14is_end_bracket
FN:874,_RNvNtNtNtCskTACvQmcrtm_5ruchy8frontend6parser11collections15is_row_boundary
FN:802,_RNvNtNtNtCskTACvQmcrtm_5ruchy8frontend6parser11collections15parse_dataframe
FN:900,_RNvNtNtNtCskTACvQmcrtm_5ruchy8frontend6parser11collections17add_non_empty_row
FN:563,_RNvNtNtNtCskTACvQmcrtm_5ruchy8frontend6parser11collections17parse_method_call
FN:445,_RNvNtNtNtCskTACvQmcrtm_5ruchy8frontend6parser11collections18parse_list_element
FN:598,_RNvNtNtNtCskTACvQmcrtm_5ruchy8frontend6parser11collections19create_field_access
FN:544,_RNvNtNtNtCskTACvQmcrtm_5ruchy8frontend6parser11collections19parse_dot_operation
FN:488,_RNvNtNtNtCskTACvQmcrtm_5ruchy8frontend6parser11collections20parse_condition_expr
FN:527,_RNvNtNtNtCskTACvQmcrtm_5ruchy8frontend6parser11collections20parse_condition_term
FN:890,_RNvNtNtNtCskTACvQmcrtm_5ruchy8frontend6parser11collections21consume_row_separator
FN:685,_RNvNtNtNtCskTACvQmcrtm_5ruchy8frontend6parser11collections22parse_dataframe_header
FN:581,_RNvNtNtNtCskTACvQmcrtm_5ruchy8frontend6parser11collections22parse_method_arguments
FN:880,_RNvNtNtNtCskTACvQmcrtm_5ruchy8frontend6parser11collections23consume_value_separator
FN:797,_RNvNtNtNtCskTACvQmcrtm_5ruchy8frontend6parser11collections23create_dataframe_result
FN:830,_RNvNtNtNtCskTACvQmcrtm_5ruchy8frontend6parser11collections24parse_all_dataframe_rows
FN:608,_RNvNtNtNtCskTACvQmcrtm_5ruchy8frontend6parser11collections24parse_list_comprehension
FN:855,_RNvNtNtNtCskTACvQmcrtm_5ruchy8frontend6parser11collections26parse_single_dataframe_row
FN:907,_RNvNtNtNtCskTACvQmcrtm_5ruchy8frontend6parser11collections26populate_dataframe_columns
FN:693,_RNvNtNtNtCskTACvQmcrtm_5ruchy8frontend6parser11collections27parse_dataframe_column_name
FN:820,_RNvNtNtNtCskTACvQmcrtm_5ruchy8frontend6parser11collections27parse_legacy_dataframe_rows
FN:704,_RNvNtNtNtCskTACvQmcrtm_5ruchy8frontend6parser11collections29parse_dataframe_column_values
FN:751,_RNvNtNtNtCskTACvQmcrtm_5ruchy8frontend6parser11collections29parse_single_dataframe_column
FN:772,_RNvNtNtNtCskTACvQmcrtm_5ruchy8frontend6parser11collections32is_dataframe_legacy_syntax_token
FN:735,_RNvNtNtNtCskTACvQmcrtm_5ruchy8frontend6parser11collections34parse_dataframe_column_definitions
FN:779,_RNvNtNtNtCskTACvQmcrtm_5ruchy8frontend6parser11collections36handle_dataframe_column_continuation
FN:725,_RNvNtNtNtCskTACvQmcrtm_5ruchy8frontend6parser11collections37handle_dataframe_legacy_syntax_column
FN:36,_RNvNtNtNtCskTACvQmcrtm_5ruchy8frontend6parser11collections11parse_block
FN:244,_RNvNtNtNtCskTACvQmcrtm_5ruchy8frontend6parser11collections16parse_object_key
FN:114,_RNvNtNtNtCskTACvQmcrtm_5ruchy8frontend6parser11collections17is_let_expression
FN:208,_RNvNtNtNtCskTACvQmcrtm_5ruchy8frontend6parser11collections17is_object_literal
FN:165,_RNvNtNtNtCskTACvQmcrtm_5ruchy8frontend6parser11collections19create_block_result
FN:256,_RNvNtNtNtCskTACvQmcrtm_5ruchy8frontend6parser11collections19token_to_object_key
FN:99,_RNvNtNtNtCskTACvQmcrtm_5ruchy8frontend6parser11collections21try_parse_let_binding
FN:154,_RNvNtNtNtCskTACvQmcrtm_5ruchy8frontend6parser11collections22create_body_expression
FN:51,_RNvNtNtNtCskTACvQmcrtm_5ruchy8frontend6parser11collections23parse_block_expressions
FN:325,_RNvNtNtNtCskTACvQmcrtm_5ruchy8frontend6parser11collections25parse_object_literal_body
FN:347,_RNvNtNtNtCskTACvQmcrtm_5ruchy8frontend6parser11collections25parse_object_spread_field
FN:338,_RNvNtNtNtCskTACvQmcrtm_5ruchy8frontend6parser11collections25parse_single_object_field
FN:174,_RNvNtNtNtCskTACvQmcrtm_5ruchy8frontend6parser11collections26consume_optional_semicolon
FN:137,_RNvNtNtNtCskTACvQmcrtm_5ruchy8frontend6parser11collections26parse_remaining_block_body
FN:69,_RNvNtNtNtCskTACvQmcrtm_5ruchy8frontend6parser11collections27parse_next_block_expression
FN:355,_RNvNtNtNtCskTACvQmcrtm_5ruchy8frontend6parser11collections28parse_object_key_value_field
FN:371,_RNvNtNtNtCskTACvQmcrtm_5ruchy8frontend6parser11collections29handle_object_field_separator
FN:78,_RNvNtNtNtCskTACvQmcrtm_5ruchy8frontend6parser11collections29parse_potential_let_statement
FN:119,_RNvNtNtNtCskTACvQmcrtm_5ruchy8frontend6parser11collections31create_let_statement_expression
FNDA:0,_RNvNtNtNtCskTACvQmcrtm_5ruchy8frontend6parser11collections10parse_list
FNDA:0,_RNvNtNtNtCskTACvQmcrtm_5ruchy8frontend6parser11collections14is_end_bracket
FNDA:0,_RNvNtNtNtCskTACvQmcrtm_5ruchy8frontend6parser11collections15is_row_boundary
FNDA:0,_RNvNtNtNtCskTACvQmcrtm_5ruchy8frontend6parser11collections15parse_dataframe
FNDA:0,_RNvNtNtNtCskTACvQmcrtm_5ruchy8frontend6parser11collections17add_non_empty_row
FNDA:0,_RNvNtNtNtCskTACvQmcrtm_5ruchy8frontend6parser11collections17parse_method_call
FNDA:0,_RNvNtNtNtCskTACvQmcrtm_5ruchy8frontend6parser11collections18parse_list_element
FNDA:0,_RNvNtNtNtCskTACvQmcrtm_5ruchy8frontend6parser11collections19create_field_access
FNDA:0,_RNvNtNtNtCskTACvQmcrtm_5ruchy8frontend6parser11collections19parse_dot_operation
FNDA:0,_RNvNtNtNtCskTACvQmcrtm_5ruchy8frontend6parser11collections20parse_condition_expr
FNDA:0,_RNvNtNtNtCskTACvQmcrtm_5ruchy8frontend6parser11collections20parse_condition_term
FNDA:0,_RNvNtNtNtCskTACvQmcrtm_5ruchy8frontend6parser11collections21consume_row_separator
FNDA:0,_RNvNtNtNtCskTACvQmcrtm_5ruchy8frontend6parser11collections22parse_dataframe_header
FNDA:0,_RNvNtNtNtCskTACvQmcrtm_5ruchy8frontend6parser11collections22parse_method_arguments
FNDA:0,_RNvNtNtNtCskTACvQmcrtm_5ruchy8frontend6parser11collections23consume_value_separator
FNDA:0,_RNvNtNtNtCskTACvQmcrtm_5ruchy8frontend6parser11collections23create_dataframe_result
FNDA:0,_RNvNtNtNtCskTACvQmcrtm_5ruchy8frontend6parser11collections24parse_all_dataframe_rows
FNDA:0,_RNvNtNtNtCskTACvQmcrtm_5ruchy8frontend6parser11collections24parse_list_comprehension
FNDA:0,_RNvNtNtNtCskTACvQmcrtm_5ruchy8frontend6parser11collections26parse_single_dataframe_row
FNDA:0,_RNvNtNtNtCskTACvQmcrtm_5ruchy8frontend6parser11collections26populate_dataframe_columns
FNDA:0,_RNvNtNtNtCskTACvQmcrtm_5ruchy8frontend6parser11collections27parse_dataframe_column_name
FNDA:0,_RNvNtNtNtCskTACvQmcrtm_5ruchy8frontend6parser11collections27parse_legacy_dataframe_rows
FNDA:0,_RNvNtNtNtCskTACvQmcrtm_5ruchy8frontend6parser11collections29parse_dataframe_column_values
FNDA:0,_RNvNtNtNtCskTACvQmcrtm_5ruchy8frontend6parser11collections29parse_single_dataframe_column
FNDA:0,_RNvNtNtNtCskTACvQmcrtm_5ruchy8frontend6parser11collections32is_dataframe_legacy_syntax_token
FNDA:0,_RNvNtNtNtCskTACvQmcrtm_5ruchy8frontend6parser11collections34parse_dataframe_column_definitions
FNDA:0,_RNvNtNtNtCskTACvQmcrtm_5ruchy8frontend6parser11collections36handle_dataframe_column_continuation
FNDA:0,_RNvNtNtNtCskTACvQmcrtm_5ruchy8frontend6parser11collections37handle_dataframe_legacy_syntax_column
FNDA:89,_RNvNtNtNtCskTACvQmcrtm_5ruchy8frontend6parser11collections11parse_block
FNDA:4,_RNvNtNtNtCskTACvQmcrtm_5ruchy8frontend6parser11collections16parse_object_key
FNDA:5,_RNvNtNtNtCskTACvQmcrtm_5ruchy8frontend6parser11collections17is_let_expression
FNDA:89,_RNvNtNtNtCskTACvQmcrtm_5ruchy8frontend6parser11collections17is_object_literal
FNDA:81,_RNvNtNtNtCskTACvQmcrtm_5ruchy8frontend6parser11collections19create_block_result
FNDA:4,_RNvNtNtNtCskTACvQmcrtm_5ruchy8frontend6parser11collections19token_to_object_key
FNDA:5,_RNvNtNtNtCskTACvQmcrtm_5ruchy8frontend6parser11collections21try_parse_let_binding
FNDA:5,_RNvNtNtNtCskTACvQmcrtm_5ruchy8frontend6parser11collections22create_body_expression
FNDA:85,_RNvNtNtNtCskTACvQmcrtm_5ruchy8frontend6parser11collections23parse_block_expressions
FNDA:4,_RNvNtNtNtCskTACvQmcrtm_5ruchy8frontend6parser11collections25parse_object_literal_body
FNDA:0,_RNvNtNtNtCskTACvQmcrtm_5ruchy8frontend6parser11collections25parse_object_spread_field
FNDA:4,_RNvNtNtNtCskTACvQmcrtm_5ruchy8frontend6parser11collections25parse_single_object_field
FNDA:91,_RNvNtNtNtCskTACvQmcrtm_5ruchy8frontend6parser11collections26consume_optional_semicolon
FNDA:5,_RNvNtNtNtCskTACvQmcrtm_5ruchy8frontend6parser11collections26parse_remaining_block_body
FNDA:83,_RNvNtNtNtCskTACvQmcrtm_5ruchy8frontend6parser11collections27parse_next_block_expression
FNDA:4,_RNvNtNtNtCskTACvQmcrtm_5ruchy8frontend6parser11collections28parse_object_key_value_field
FNDA:4,_RNvNtNtNtCskTACvQmcrtm_5ruchy8frontend6parser11collections29handle_object_field_separator
FNDA:5,_RNvNtNtNtCskTACvQmcrtm_5ruchy8frontend6parser11collections29parse_potential_let_statement
FNDA:5,_RNvNtNtNtCskTACvQmcrtm_5ruchy8frontend6parser11collections31create_let_statement_expression
FNF:47
FNH:18
DA:36,89
DA:37,89
DA:40,89
DA:41,4
DA:42,85
DA:44,85
DA:45,81
DA:47,81
DA:48,89
DA:51,85
DA:52,85
DA:54,87
DA:55,83
DA:56,79
DA:58,79
DA:60,79
DA:61,77
DA:62,2
DA:65,81
DA:66,85
DA:69,83
DA:70,83
DA:71,5
DA:73,78
DA:75,83
DA:78,5
DA:79,5
DA:80,5
DA:82,5
DA:83,5
DA:85,0
DA:86,0
DA:89,5
DA:93,0
DA:94,0
DA:96,5
DA:99,5
DA:100,5
DA:101,5
DA:102,5
DA:104,5
DA:105,5
DA:106,5
DA:107,5
DA:108,0
DA:109,0
DA:110,0
DA:111,5
DA:114,5
DA:115,5
DA:116,5
DA:119,5
DA:120,5
DA:122,5
DA:124,5
DA:125,5
DA:126,5
DA:127,5
DA:128,5
DA:129,5
DA:130,5
DA:131,5
DA:132,5
DA:133,5
DA:134,5
DA:137,5
DA:138,5
DA:140,7
DA:141,7
DA:143,7
DA:145,7
DA:146,5
DA:147,2
DA:150,5
DA:151,5
DA:154,5
DA:155,5
DA:156,0
DA:157,5
DA:158,4
DA:160,1
DA:162,5
DA:165,81
DA:166,81
DA:167,4
DA:169,77
DA:171,81
DA:174,91
DA:175,91
DA:176,5
DA:177,86
DA:178,91
DA:208,89
DA:216,89
DA:217,4
DA:218,85
DA:221,85
DA:222,0
DA:223,85
DA:226,85
DA:229,49
DA:230,49
DA:231,49
DA:232,49
DA:235,49
DA:236,49
DA:238,36
DA:240,89
DA:244,4
DA:245,4
DA:246,4
DA:247,4
DA:248,4
DA:250,0
DA:252,4
DA:256,4
DA:257,4
DA:258,0
DA:259,4
DA:261,0
DA:262,0
DA:263,0
DA:264,0
DA:265,0
DA:266,0
DA:267,0
DA:268,0
DA:269,0
DA:270,0
DA:271,0
DA:272,0
DA:273,0
DA:274,0
DA:275,0
DA:276,0
DA:277,0
DA:278,0
DA:279,0
DA:280,0
DA:281,0
DA:282,0
DA:283,0
DA:284,0
DA:285,0
DA:286,0
DA:287,0
DA:288,0
DA:289,0
DA:290,0
DA:291,0
DA:292,0
DA:293,0
DA:294,0
DA:295,0
DA:296,0
DA:297,0
DA:299,4
DA:325,4
DA:326,4
DA:328,8
DA:329,4
DA:330,4
DA:333,4
DA:334,4
DA:335,4
DA:338,4
DA:339,4
DA:340,0
DA:342,4
DA:344,4
DA:347,0
DA:348,0
DA:349,0
DA:350,0
DA:351,0
DA:352,0
DA:355,4
DA:356,4
DA:359,4
DA:360,0
DA:361,0
DA:362,4
DA:365,4
DA:366,4
DA:367,4
DA:368,4
DA:371,4
DA:372,4
DA:373,0
DA:374,0
DA:375,4
DA:376,0
DA:378,4
DA:380,4
DA:409,0
DA:410,0
DA:413,0
DA:414,0
DA:415,0
DA:416,0
DA:419,0
DA:422,0
DA:423,0
DA:424,0
DA:427,0
DA:429,0
DA:430,0
DA:432,0
DA:433,0
DA:434,0
DA:436,0
DA:439,0
DA:441,0
DA:442,0
DA:445,0
DA:447,0
DA:448,0
DA:449,0
DA:450,0
DA:451,0
DA:452,0
DA:453,0
DA:454,0
DA:457,0
DA:459,0
DA:488,0
DA:490,0
DA:494,0
DA:497,0
DA:498,0
DA:507,0
DA:508,0
DA:509,0
DA:510,0
DA:511,0
DA:512,0
DA:513,0
DA:514,0
DA:515,0
DA:516,0
DA:519,0
DA:523,0
DA:524,0
DA:527,0
DA:529,0
DA:532,0
DA:533,0
DA:534,0
DA:535,0
DA:536,0
DA:540,0
DA:541,0
DA:544,0
DA:545,0
DA:547,0
DA:548,0
DA:551,0
DA:552,0
DA:555,0
DA:556,0
DA:558,0
DA:560,0
DA:563,0
DA:564,0
DA:566,0
DA:568,0
DA:570,0
DA:571,0
DA:572,0
DA:573,0
DA:574,0
DA:575,0
DA:576,0
DA:577,0
DA:578,0
DA:581,0
DA:582,0
DA:584,0
DA:585,0
DA:587,0
DA:588,0
DA:589,0
DA:590,0
DA:594,0
DA:595,0
DA:598,0
DA:599,0
DA:600,0
DA:601,0
DA:602,0
DA:603,0
DA:604,0
DA:606,0
DA:608,0
DA:609,0
DA:610,0
DA:611,0
DA:612,0
DA:616,0
DA:619,0
DA:620,0
DA:621,0
DA:622,0
DA:624,0
DA:627,0
DA:630,0
DA:633,0
DA:634,0
DA:637,0
DA:638,0
DA:640,0
DA:643,0
DA:645,0
DA:646,0
DA:647,0
DA:648,0
DA:649,0
DA:650,0
DA:651,0
DA:652,0
DA:653,0
DA:654,0
DA:685,0
DA:686,0
DA:687,0
DA:688,0
DA:689,0
DA:690,0
DA:693,0
DA:694,0
DA:695,0
DA:696,0
DA:697,0
DA:699,0
DA:701,0
DA:704,0
DA:705,0
DA:707,0
DA:709,0
DA:712,0
DA:716,0
DA:717,0
DA:718,0
DA:721,0
DA:722,0
DA:725,0
DA:728,0
DA:729,0
DA:730,0
DA:731,0
DA:732,0
DA:735,0
DA:736,0
DA:739,0
DA:740,0
DA:742,0
DA:743,0
DA:744,0
DA:747,0
DA:748,0
DA:751,0
DA:752,0
DA:753,0
DA:754,0
DA:755,0
DA:756,0
DA:758,0
DA:759,0
DA:760,0
DA:761,0
DA:762,0
DA:763,0
DA:764,0
DA:765,0
DA:766,0
DA:768,0
DA:769,0
DA:772,0
DA:773,0
DA:774,0
DA:775,0
DA:776,0
DA:779,0
DA:780,0
DA:781,0
DA:782,0
DA:783,0
DA:784,0
DA:785,0
DA:786,0
DA:788,0
DA:789,0
DA:790,0
DA:792,0
DA:794,0
DA:797,0
DA:798,0
DA:799,0
DA:802,0
DA:803,0
DA:806,0
DA:807,0
DA:808,0
DA:809,0
DA:812,0
DA:814,0
DA:815,0
DA:816,0
DA:820,0
DA:821,0
DA:822,0
DA:823,0
DA:824,0
DA:825,0
DA:826,0
DA:827,0
DA:830,0
DA:831,0
DA:834,0
DA:835,0
DA:836,0
DA:838,0
DA:839,0
DA:841,0
DA:842,0
DA:843,0
DA:846,0
DA:847,0
DA:850,0
DA:851,0
DA:852,0
DA:855,0
DA:856,0
DA:859,0
DA:860,0
DA:861,0
DA:863,0
DA:865,0
DA:866,0
DA:867,0
DA:870,0
DA:871,0
DA:874,0
DA:875,0
DA:876,0
DA:877,0
DA:880,0
DA:881,0
DA:882,0
DA:883,0
DA:885,0
DA:887,0
DA:890,0
DA:891,0
DA:892,0
DA:893,0
DA:895,0
DA:897,0
DA:900,0
DA:901,0
DA:902,0
DA:903,0
DA:904,0
DA:907,0
DA:908,0
DA:909,0
DA:910,0
DA:911,0
DA:912,0
DA:915,0
BRF:0
BRH:0
LF:470
LH:134
end_of_record
SF:/home/noah/src/ruchy/src/frontend/parser/core.rs
FN:19,_RNvMNtNtNtCskTACvQmcrtm_5ruchy8frontend6parser4coreNtB2_6Parser10get_errors
FN:124,_RNvMNtNtNtCskTACvQmcrtm_5ruchy8frontend6parser4coreNtB2_6Parser26parse_expr_with_precedence
FN:102,_RNvMNtNtNtCskTACvQmcrtm_5ruchy8frontend6parser4coreNtB2_6Parser10parse_expr
FN:11,_RNvMNtNtNtCskTACvQmcrtm_5ruchy8frontend6parser4coreNtB2_6Parser3new
FN:56,_RNvMNtNtNtCskTACvQmcrtm_5ruchy8frontend6parser4coreNtB2_6Parser5parse
FNDA:0,_RNvMNtNtNtCskTACvQmcrtm_5ruchy8frontend6parser4coreNtB2_6Parser10get_errors
FNDA:0,_RNvMNtNtNtCskTACvQmcrtm_5ruchy8frontend6parser4coreNtB2_6Parser26parse_expr_with_precedence
FNDA:55,_RNvMNtNtNtCskTACvQmcrtm_5ruchy8frontend6parser4coreNtB2_6Parser10parse_expr
FNDA:446,_RNvMNtNtNtCskTACvQmcrtm_5ruchy8frontend6parser4coreNtB2_6Parser3new
FNDA:391,_RNvMNtNtNtCskTACvQmcrtm_5ruchy8frontend6parser4coreNtB2_6Parser5parse
FNF:5
FNH:3
DA:11,446
DA:12,446
DA:13,446
DA:14,446
DA:15,446
DA:19,0
DA:20,0
DA:21,0
DA:56,391
DA:58,391
DA:60,749
DA:61,402
DA:62,402
DA:63,358
DA:64,358
DA:67,358
DA:68,5
DA:69,353
DA:72,347
DA:73,8
DA:74,339
DA:75,331
DA:77,8
DA:78,8
DA:79,8
DA:80,8
DA:81,8
DA:83,391
DA:102,55
DA:103,55
DA:104,55
DA:124,0
DA:125,0
DA:126,0
BRF:0
BRH:0
LF:34
LH:28
end_of_record
SF:/home/noah/src/ruchy/src/frontend/parser/expressions.rs
FN:1553,_RNCNvNtNtNtCskTACvQmcrtm_5ruchy8frontend6parser11expressions14parse_for_loop0B9_
FN:1561,_RNCNvNtNtNtCskTACvQmcrtm_5ruchy8frontend6parser11expressions14parse_for_loops0_0B9_
FN:1557,_RNCNvNtNtNtCskTACvQmcrtm_5ruchy8frontend6parser11expressions14parse_for_loops_0B9_
FN:1645,_RNCNvNtNtNtCskTACvQmcrtm_5ruchy8frontend6parser11expressions16parse_array_init0B9_
FN:1504,_RNCNvNtNtNtCskTACvQmcrtm_5ruchy8frontend6parser11expressions16parse_while_loop0B9_
FN:1512,_RNCNvNtNtNtCskTACvQmcrtm_5ruchy8frontend6parser11expressions16parse_while_loops0_0B9_
FN:1516,_RNCNvNtNtNtCskTACvQmcrtm_5ruchy8frontend6parser11expressions16parse_while_loops1_0B9_
FN:1530,_RNCNvNtNtNtCskTACvQmcrtm_5ruchy8frontend6parser11expressions16parse_while_loops2_0B9_
FN:1534,_RNCNvNtNtNtCskTACvQmcrtm_5ruchy8frontend6parser11expressions16parse_while_loops3_0B9_
FN:1508,_RNCNvNtNtNtCskTACvQmcrtm_5ruchy8frontend6parser11expressions16parse_while_loops_0B9_
FN:1039,_RNCNvNtNtNtCskTACvQmcrtm_5ruchy8frontend6parser11expressions17parse_else_branch0B9_
FN:1674,_RNCNvNtNtNtCskTACvQmcrtm_5ruchy8frontend6parser11expressions18parse_regular_list0B9_
FN:2542,_RNCNvNtNtNtCskTACvQmcrtm_5ruchy8frontend6parser11expressions18token_to_binary_op0B9_
FN:2544,_RNCNvNtNtNtCskTACvQmcrtm_5ruchy8frontend6parser11expressions18token_to_binary_ops0_0B9_
FN:2543,_RNCNvNtNtNtCskTACvQmcrtm_5ruchy8frontend6parser11expressions18token_to_binary_ops_0B9_
FN:1053,_RNCNvNtNtNtCskTACvQmcrtm_5ruchy8frontend6parser11expressions22parse_match_expression0B9_
FN:1064,_RNCNvNtNtNtCskTACvQmcrtm_5ruchy8frontend6parser11expressions22parse_match_expressions0_0B9_
FN:1057,_RNCNvNtNtNtCskTACvQmcrtm_5ruchy8frontend6parser11expressions22parse_match_expressions_0B9_
FN:1118,_RNCNvNtNtNtCskTACvQmcrtm_5ruchy8frontend6parser11expressions22parse_single_match_arms_0B9_
FN:975,_RNCNvNtNtNtCskTACvQmcrtm_5ruchy8frontend6parser11expressions23parse_if_let_expression0B9_
FN:983,_RNCNvNtNtNtCskTACvQmcrtm_5ruchy8frontend6parser11expressions23parse_if_let_expressions0_0B9_
FN:987,_RNCNvNtNtNtCskTACvQmcrtm_5ruchy8frontend6parser11expressions23parse_if_let_expressions1_0B9_
FN:979,_RNCNvNtNtNtCskTACvQmcrtm_5ruchy8frontend6parser11expressions23parse_if_let_expressions_0B9_
FN:1785,_RNCNvNtNtNtCskTACvQmcrtm_5ruchy8frontend6parser11expressions23parse_lambda_expression0B9_
FN:1008,_RNCNvNtNtNtCskTACvQmcrtm_5ruchy8frontend6parser11expressions27parse_regular_if_expression0B9_
FN:1012,_RNCNvNtNtNtCskTACvQmcrtm_5ruchy8frontend6parser11expressions27parse_regular_if_expressions_0B9_
FN:5,_RNvNtNtNtCskTACvQmcrtm_5ruchy8frontend6parser11expressions12parse_prefix
FN:2598,_RNvNtNtNtCskTACvQmcrtm_5ruchy8frontend6parser11expressions14get_precedence
FN:1545,_RNvNtNtNtCskTACvQmcrtm_5ruchy8frontend6parser11expressions14parse_for_loop
FN:1994,_RNvNtNtNtCskTACvQmcrtm_5ruchy8frontend6parser11expressions14skip_impl_body
FN:2208,_RNvNtNtNtCskTACvQmcrtm_5ruchy8frontend6parser11expressions15parse_enum_name
FN:244,_RNvNtNtNtCskTACvQmcrtm_5ruchy8frontend6parser11expressions15parse_pub_token
FN:2687,_RNvNtNtNtCskTACvQmcrtm_5ruchy8frontend6parser11expressions15parse_try_block
FN:367,_RNvNtNtNtCskTACvQmcrtm_5ruchy8frontend6parser11expressions15parse_try_catch
FN:2403,_RNvNtNtNtCskTACvQmcrtm_5ruchy8frontend6parser11expressions16parse_actor_body
FN:2391,_RNvNtNtNtCskTACvQmcrtm_5ruchy8frontend6parser11expressions16parse_actor_name
FN:1639,_RNvNtNtNtCskTACvQmcrtm_5ruchy8frontend6parser11expressions16parse_array_init
FN:2724,_RNvNtNtNtCskTACvQmcrtm_5ruchy8frontend6parser11expressions16parse_catch_body
FN:1933,_RNvNtNtNtCskTACvQmcrtm_5ruchy8frontend6parser11expressions16parse_impl_block
FN:1073,_RNvNtNtNtCskTACvQmcrtm_5ruchy8frontend6parser11expressions16parse_match_arms
FN:1471,_RNvNtNtNtCskTACvQmcrtm_5ruchy8frontend6parser11expressions16parse_or_pattern
FN:1495,_RNvNtNtNtCskTACvQmcrtm_5ruchy8frontend6parser11expressions16parse_while_loop
FN:261,_RNvNtNtNtCskTACvQmcrtm_5ruchy8frontend6parser11expressions17parse_break_token
FN:1029,_RNvNtNtNtCskTACvQmcrtm_5ruchy8frontend6parser11expressions17parse_else_branch
FN:1579,_RNvNtNtNtCskTACvQmcrtm_5ruchy8frontend6parser11expressions17parse_for_pattern
FN:1954,_RNvNtNtNtCskTACvQmcrtm_5ruchy8frontend6parser11expressions17parse_impl_header
FN:583,_RNvNtNtNtCskTACvQmcrtm_5ruchy8frontend6parser11expressions17parse_let_pattern
FN:411,_RNvNtNtNtCskTACvQmcrtm_5ruchy8frontend6parser11expressions17parse_module_body
FN:1821,_RNvNtNtNtCskTACvQmcrtm_5ruchy8frontend6parser11expressions17parse_struct_name
FN:306,_RNvNtNtNtCskTACvQmcrtm_5ruchy8frontend6parser11expressions17parse_throw_token
FN:460,_RNvNtNtNtCskTACvQmcrtm_5ruchy8frontend6parser11expressions18parse_import_token
FN:470,_RNvNtNtNtCskTACvQmcrtm_5ruchy8frontend6parser11expressions18parse_lambda_token
FN:1617,_RNvNtNtNtCskTACvQmcrtm_5ruchy8frontend6parser11expressions18parse_list_literal
FN:855,_RNvNtNtNtCskTACvQmcrtm_5ruchy8frontend6parser11expressions18parse_list_pattern
FN:1658,_RNvNtNtNtCskTACvQmcrtm_5ruchy8frontend6parser11expressions18parse_regular_list
FN:912,_RNvNtNtNtCskTACvQmcrtm_5ruchy8frontend6parser11expressions18parse_rest_pattern
FN:291,_RNvNtNtNtCskTACvQmcrtm_5ruchy8frontend6parser11expressions18parse_return_token
FN:2300,_RNvNtNtNtCskTACvQmcrtm_5ruchy8frontend6parser11expressions18parse_variant_name
FN:2539,_RNvNtNtNtCskTACvQmcrtm_5ruchy8frontend6parser11expressions18token_to_binary_op
FN:1607,_RNvNtNtNtCskTACvQmcrtm_5ruchy8frontend6parser11expressions19parse_array_element
FN:2693,_RNvNtNtNtCskTACvQmcrtm_5ruchy8frontend6parser11expressions19parse_catch_clauses
FN:2710,_RNvNtNtNtCskTACvQmcrtm_5ruchy8frontend6parser11expressions19parse_catch_pattern
FN:2235,_RNvNtNtNtCskTACvQmcrtm_5ruchy8frontend6parser11expressions19parse_enum_variants
FN:2730,_RNvNtNtNtCskTACvQmcrtm_5ruchy8frontend6parser11expressions19parse_finally_block
FN:957,_RNvNtNtNtCskTACvQmcrtm_5ruchy8frontend6parser11expressions19parse_if_expression
FN:625,_RNvNtNtNtCskTACvQmcrtm_5ruchy8frontend6parser11expressions19parse_let_in_clause
FN:545,_RNvNtNtNtCskTACvQmcrtm_5ruchy8frontend6parser11expressions19parse_let_statement
FN:81,_RNvNtNtNtCskTACvQmcrtm_5ruchy8frontend6parser11expressions19parse_literal_token
FN:1135,_RNvNtNtNtCskTACvQmcrtm_5ruchy8frontend6parser11expressions19parse_match_pattern
FN:1832,_RNvNtNtNtCskTACvQmcrtm_5ruchy8frontend6parser11expressions19parse_struct_fields
FN:772,_RNvNtNtNtCskTACvQmcrtm_5ruchy8frontend6parser11expressions19parse_tuple_pattern
FN:2043,_RNvNtNtNtCskTACvQmcrtm_5ruchy8frontend6parser11expressions19parse_use_statement
FN:693,_RNvNtNtNtCskTACvQmcrtm_5ruchy8frontend6parser11expressions19parse_var_statement
FN:2664,_RNvNtNtNtCskTACvQmcrtm_5ruchy8frontend6parser11expressions20extract_fstring_expr
FN:2588,_RNvNtNtNtCskTACvQmcrtm_5ruchy8frontend6parser11expressions20map_bitwise_operator
FN:2577,_RNvNtNtNtCskTACvQmcrtm_5ruchy8frontend6parser11expressions20map_logical_operator
FN:276,_RNvNtNtNtCskTACvQmcrtm_5ruchy8frontend6parser11expressions20parse_continue_token
FN:2347,_RNvNtNtNtCskTACvQmcrtm_5ruchy8frontend6parser11expressions20parse_generic_params
FN:572,_RNvNtNtNtCskTACvQmcrtm_5ruchy8frontend6parser11expressions20parse_let_mutability
FN:1259,_RNvNtNtNtCskTACvQmcrtm_5ruchy8frontend6parser11expressions20parse_option_pattern
FN:1287,_RNvNtNtNtCskTACvQmcrtm_5ruchy8frontend6parser11expressions20parse_result_pattern
FN:1153,_RNvNtNtNtCskTACvQmcrtm_5ruchy8frontend6parser11expressions20parse_single_pattern
FN:2251,_RNvNtNtNtCskTACvQmcrtm_5ruchy8frontend6parser11expressions20parse_single_variant
FN:810,_RNvNtNtNtCskTACvQmcrtm_5ruchy8frontend6parser11expressions20parse_struct_pattern
FN:2327,_RNvNtNtNtCskTACvQmcrtm_5ruchy8frontend6parser11expressions20parse_variant_fields
FN:637,_RNvNtNtNtCskTACvQmcrtm_5ruchy8frontend6parser11expressions21create_let_expression
FN:2194,_RNvNtNtNtCskTACvQmcrtm_5ruchy8frontend6parser11expressions21parse_enum_definition
FN:1180,_RNvNtNtNtCskTACvQmcrtm_5ruchy8frontend6parser11expressions21parse_literal_pattern
FN:2490,_RNvNtNtNtCskTACvQmcrtm_5ruchy8frontend6parser11expressions22parse_actor_bare_field
FN:2370,_RNvNtNtNtCskTACvQmcrtm_5ruchy8frontend6parser11expressions22parse_actor_definition
FN:2117,_RNvNtNtNtCskTACvQmcrtm_5ruchy8frontend6parser11expressions22parse_dataframe_header
FN:115,_RNvNtNtNtCskTACvQmcrtm_5ruchy8frontend6parser11expressions22parse_identifier_token
FN:2009,_RNvNtNtNtCskTACvQmcrtm_5ruchy8frontend6parser11expressions22parse_import_statement
FN:1735,_RNvNtNtNtCskTACvQmcrtm_5ruchy8frontend6parser11expressions22parse_lambda_from_expr
FN:1722,_RNvNtNtNtCskTACvQmcrtm_5ruchy8frontend6parser11expressions22parse_lambda_no_params
FN:1048,_RNvNtNtNtCskTACvQmcrtm_5ruchy8frontend6parser11expressions22parse_match_expression
FN:1101,_RNvNtNtNtCskTACvQmcrtm_5ruchy8frontend6parser11expressions22parse_single_match_arm
FN:1871,_RNvNtNtNtCskTACvQmcrtm_5ruchy8frontend6parser11expressions22parse_trait_definition
FN:1173,_RNvNtNtNtCskTACvQmcrtm_5ruchy8frontend6parser11expressions22parse_wildcard_pattern
FN:2512,_RNvNtNtNtCskTACvQmcrtm_5ruchy8frontend6parser11expressions23create_actor_expression
FN:2549,_RNvNtNtNtCskTACvQmcrtm_5ruchy8frontend6parser11expressions23map_arithmetic_operator
FN:2563,_RNvNtNtNtCskTACvQmcrtm_5ruchy8frontend6parser11expressions23map_comparison_operator
FN:2433,_RNvNtNtNtCskTACvQmcrtm_5ruchy8frontend6parser11expressions23parse_actor_state_field
FN:315,_RNvNtNtNtCskTACvQmcrtm_5ruchy8frontend6parser11expressions23parse_constructor_token
FN:2126,_RNvNtNtNtCskTACvQmcrtm_5ruchy8frontend6parser11expressions23parse_dataframe_columns
FN:2104,_RNvNtNtNtCskTACvQmcrtm_5ruchy8frontend6parser11expressions23parse_dataframe_literal
FN:970,_RNvNtNtNtCskTACvQmcrtm_5ruchy8frontend6parser11expressions23parse_if_let_expression
FN:1763,_RNvNtNtNtCskTACvQmcrtm_5ruchy8frontend6parser11expressions23parse_lambda_expression
FN:2227,_RNvNtNtNtCskTACvQmcrtm_5ruchy8frontend6parser11expressions23parse_optional_generics
FN:200,_RNvNtNtNtCskTACvQmcrtm_5ruchy8frontend6parser11expressions23parse_parentheses_token
FN:1805,_RNvNtNtNtCskTACvQmcrtm_5ruchy8frontend6parser11expressions23parse_struct_definition
FN:2181,_RNvNtNtNtCskTACvQmcrtm_5ruchy8frontend6parser11expressions24create_dataframe_columns
FN:928,_RNvNtNtNtCskTACvQmcrtm_5ruchy8frontend6parser11expressions24handle_pattern_separator
FN:354,_RNvNtNtNtCskTACvQmcrtm_5ruchy8frontend6parser11expressions24parse_control_flow_token
FN:2616,_RNvNtNtNtCskTACvQmcrtm_5ruchy8frontend6parser11expressions24parse_fstring_into_parts
FN:1359,_RNvNtNtNtCskTACvQmcrtm_5ruchy8frontend6parser11expressions24parse_match_list_pattern
FN:388,_RNvNtNtNtCskTACvQmcrtm_5ruchy8frontend6parser11expressions24parse_module_declaration
FN:2460,_RNvNtNtNtCskTACvQmcrtm_5ruchy8frontend6parser11expressions25parse_actor_receive_block
FN:1402,_RNvNtNtNtCskTACvQmcrtm_5ruchy8frontend6parser11expressions25parse_constructor_pattern
FN:614,_RNvNtNtNtCskTACvQmcrtm_5ruchy8frontend6parser11expressions25parse_let_type_annotation
FN:1333,_RNvNtNtNtCskTACvQmcrtm_5ruchy8frontend6parser11expressions25parse_match_tuple_pattern
FN:1972,_RNvNtNtNtCskTACvQmcrtm_5ruchy8frontend6parser11expressions25parse_optional_identifier
FN:1983,_RNvNtNtNtCskTACvQmcrtm_5ruchy8frontend6parser11expressions25parse_required_identifier
FN:1856,_RNvNtNtNtCskTACvQmcrtm_5ruchy8frontend6parser11expressions25parse_single_struct_field
FN:1436,_RNvNtNtNtCskTACvQmcrtm_5ruchy8frontend6parser11expressions26create_constructor_pattern
FN:449,_RNvNtNtNtCskTACvQmcrtm_5ruchy8frontend6parser11expressions26parse_data_structure_token
FN:480,_RNvNtNtNtCskTACvQmcrtm_5ruchy8frontend6parser11expressions26parse_function_block_token
FN:176,_RNvNtNtNtCskTACvQmcrtm_5ruchy8frontend6parser11expressions26parse_unary_operator_token
FN:2278,_RNvNtNtNtCskTACvQmcrtm_5ruchy8frontend6parser11expressions26parse_variant_discriminant
FN:536,_RNvNtNtNtCskTACvQmcrtm_5ruchy8frontend6parser11expressions27parse_collection_enum_token
FN:1415,_RNvNtNtNtCskTACvQmcrtm_5ruchy8frontend6parser11expressions27parse_constructor_arguments
FN:2153,_RNvNtNtNtCskTACvQmcrtm_5ruchy8frontend6parser11expressions27parse_dataframe_column_name
FN:1005,_RNvNtNtNtCskTACvQmcrtm_5ruchy8frontend6parser11expressions27parse_regular_if_expression
FN:2741,_RNvNtNtNtCskTACvQmcrtm_5ruchy8frontend6parser11expressions28validate_try_catch_structure
FN:523,_RNvNtNtNtCskTACvQmcrtm_5ruchy8frontend6parser11expressions29parse_control_statement_token
FN:2171,_RNvNtNtNtCskTACvQmcrtm_5ruchy8frontend6parser11expressions29parse_dataframe_column_values
FN:1679,_RNvNtNtNtCskTACvQmcrtm_5ruchy8frontend6parser11expressions29parse_list_comprehension_body
FN:2144,_RNvNtNtNtCskTACvQmcrtm_5ruchy8frontend6parser11expressions29parse_single_dataframe_column
FN:500,_RNvNtNtNtCskTACvQmcrtm_5ruchy8frontend6parser11expressions30parse_special_definition_token
FN:490,_RNvNtNtNtCskTACvQmcrtm_5ruchy8frontend6parser11expressions32parse_variable_declaration_token
FN:875,_RNvNtNtNtCskTACvQmcrtm_5ruchy8frontend6parser11expressions33parse_single_list_pattern_element
FN:792,_RNvNtNtNtCskTACvQmcrtm_5ruchy8frontend6parser11expressions34parse_single_tuple_pattern_element
FN:894,_RNvNtNtNtCskTACvQmcrtm_5ruchy8frontend6parser11expressions37parse_identifier_pattern_with_default
FN:1315,_RNvNtNtNtCskTACvQmcrtm_5ruchy8frontend6parser11expressions39parse_identifier_or_constructor_pattern
FN:1849,_RNCNvNtNtNtCskTACvQmcrtm_5ruchy8frontend6parser11expressions19parse_struct_fields0B9_
FN:1918,_RNCNvNtNtNtCskTACvQmcrtm_5ruchy8frontend6parser11expressions22parse_trait_definition0B9_
FN:2520,_RNCNvNtNtNtCskTACvQmcrtm_5ruchy8frontend6parser11expressions23create_actor_expression0B9_
FN:2527,_RNCNvNtNtNtCskTACvQmcrtm_5ruchy8frontend6parser11expressions23create_actor_expressions_0B9_
FN:1792,_RNCNvNtNtNtCskTACvQmcrtm_5ruchy8frontend6parser11expressions23parse_lambda_expressions_0B9_
FN:2182,_RNCNvNtNtNtCskTACvQmcrtm_5ruchy8frontend6parser11expressions24create_dataframe_columns0B9_
FNDA:0,_RNCNvNtNtNtCskTACvQmcrtm_5ruchy8frontend6parser11expressions14parse_for_loop0B9_
FNDA:0,_RNCNvNtNtNtCskTACvQmcrtm_5ruchy8frontend6parser11expressions14parse_for_loops0_0B9_
FNDA:0,_RNCNvNtNtNtCskTACvQmcrtm_5ruchy8frontend6parser11expressions14parse_for_loops_0B9_
FNDA:0,_RNCNvNtNtNtCskTACvQmcrtm_5ruchy8frontend6parser11expressions16parse_array_init0B9_
FNDA:0,_RNCNvNtNtNtCskTACvQmcrtm_5ruchy8frontend6parser11expressions16parse_while_loop0B9_
FNDA:0,_RNCNvNtNtNtCskTACvQmcrtm_5ruchy8frontend6parser11expressions16parse_while_loops0_0B9_
FNDA:0,_RNCNvNtNtNtCskTACvQmcrtm_5ruchy8frontend6parser11expressions16parse_while_loops1_0B9_
FNDA:0,_RNCNvNtNtNtCskTACvQmcrtm_5ruchy8frontend6parser11expressions16parse_while_loops2_0B9_
FNDA:0,_RNCNvNtNtNtCskTACvQmcrtm_5ruchy8frontend6parser11expressions16parse_while_loops3_0B9_
FNDA:0,_RNCNvNtNtNtCskTACvQmcrtm_5ruchy8frontend6parser11expressions16parse_while_loops_0B9_
FNDA:0,_RNCNvNtNtNtCskTACvQmcrtm_5ruchy8frontend6parser11expressions17parse_else_branch0B9_
FNDA:0,_RNCNvNtNtNtCskTACvQmcrtm_5ruchy8frontend6parser11expressions18parse_regular_list0B9_
FNDA:662,_RNCNvNtNtNtCskTACvQmcrtm_5ruchy8frontend6parser11expressions18token_to_binary_op0B9_
FNDA:617,_RNCNvNtNtNtCskTACvQmcrtm_5ruchy8frontend6parser11expressions18token_to_binary_ops0_0B9_
FNDA:628,_RNCNvNtNtNtCskTACvQmcrtm_5ruchy8frontend6parser11expressions18token_to_binary_ops_0B9_
FNDA:3,_RNCNvNtNtNtCskTACvQmcrtm_5ruchy8frontend6parser11expressions22parse_match_expression0B9_
FNDA:0,_RNCNvNtNtNtCskTACvQmcrtm_5ruchy8frontend6parser11expressions22parse_match_expressions0_0B9_
FNDA:0,_RNCNvNtNtNtCskTACvQmcrtm_5ruchy8frontend6parser11expressions22parse_match_expressions_0B9_
FNDA:0,_RNCNvNtNtNtCskTACvQmcrtm_5ruchy8frontend6parser11expressions22parse_single_match_arms_0B9_
FNDA:0,_RNCNvNtNtNtCskTACvQmcrtm_5ruchy8frontend6parser11expressions23parse_if_let_expression0B9_
FNDA:0,_RNCNvNtNtNtCskTACvQmcrtm_5ruchy8frontend6parser11expressions23parse_if_let_expressions0_0B9_
FNDA:0,_RNCNvNtNtNtCskTACvQmcrtm_5ruchy8frontend6parser11expressions23parse_if_let_expressions1_0B9_
FNDA:0,_RNCNvNtNtNtCskTACvQmcrtm_5ruchy8frontend6parser11expressions23parse_if_let_expressions_0B9_
FNDA:0,_RNCNvNtNtNtCskTACvQmcrtm_5ruchy8frontend6parser11expressions23parse_lambda_expression0B9_
FNDA:2,_RNCNvNtNtNtCskTACvQmcrtm_5ruchy8frontend6parser11expressions27parse_regular_if_expression0B9_
FNDA:1,_RNCNvNtNtNtCskTACvQmcrtm_5ruchy8frontend6parser11expressions27parse_regular_if_expressions_0B9_
FNDA:1333,_RNvNtNtNtCskTACvQmcrtm_5ruchy8frontend6parser11expressions12parse_prefix
FNDA:158,_RNvNtNtNtCskTACvQmcrtm_5ruchy8frontend6parser11expressions14get_precedence
FNDA:2,_RNvNtNtNtCskTACvQmcrtm_5ruchy8frontend6parser11expressions14parse_for_loop
FNDA:1,_RNvNtNtNtCskTACvQmcrtm_5ruchy8frontend6parser11expressions14skip_impl_body
FNDA:2,_RNvNtNtNtCskTACvQmcrtm_5ruchy8frontend6parser11expressions15parse_enum_name
FNDA:1,_RNvNtNtNtCskTACvQmcrtm_5ruchy8frontend6parser11expressions15parse_pub_token
FNDA:0,_RNvNtNtNtCskTACvQmcrtm_5ruchy8frontend6parser11expressions15parse_try_block
FNDA:0,_RNvNtNtNtCskTACvQmcrtm_5ruchy8frontend6parser11expressions15parse_try_catch
FNDA:1,_RNvNtNtNtCskTACvQmcrtm_5ruchy8frontend6parser11expressions16parse_actor_body
FNDA:1,_RNvNtNtNtCskTACvQmcrtm_5ruchy8frontend6parser11expressions16parse_actor_name
FNDA:0,_RNvNtNtNtCskTACvQmcrtm_5ruchy8frontend6parser11expressions16parse_array_init
FNDA:0,_RNvNtNtNtCskTACvQmcrtm_5ruchy8frontend6parser11expressions16parse_catch_body
FNDA:1,_RNvNtNtNtCskTACvQmcrtm_5ruchy8frontend6parser11expressions16parse_impl_block
FNDA:4,_RNvNtNtNtCskTACvQmcrtm_5ruchy8frontend6parser11expressions16parse_match_arms
FNDA:0,_RNvNtNtNtCskTACvQmcrtm_5ruchy8frontend6parser11expressions16parse_or_pattern
FNDA:2,_RNvNtNtNtCskTACvQmcrtm_5ruchy8frontend6parser11expressions16parse_while_loop
FNDA:0,_RNvNtNtNtCskTACvQmcrtm_5ruchy8frontend6parser11expressions17parse_break_token
FNDA:16,_RNvNtNtNtCskTACvQmcrtm_5ruchy8frontend6parser11expressions17parse_else_branch
FNDA:2,_RNvNtNtNtCskTACvQmcrtm_5ruchy8frontend6parser11expressions17parse_for_pattern
FNDA:1,_RNvNtNtNtCskTACvQmcrtm_5ruchy8frontend6parser11expressions17parse_impl_header
FNDA:64,_RNvNtNtNtCskTACvQmcrtm_5ruchy8frontend6parser11expressions17parse_let_pattern
FNDA:0,_RNvNtNtNtCskTACvQmcrtm_5ruchy8frontend6parser11expressions17parse_module_body
FNDA:6,_RNvNtNtNtCskTACvQmcrtm_5ruchy8frontend6parser11expressions17parse_struct_name
FNDA:0,_RNvNtNtNtCskTACvQmcrtm_5ruchy8frontend6parser11expressions17parse_throw_token
FNDA:3,_RNvNtNtNtCskTACvQmcrtm_5ruchy8frontend6parser11expressions18parse_import_token
FNDA:20,_RNvNtNtNtCskTACvQmcrtm_5ruchy8frontend6parser11expressions18parse_lambda_token
FNDA:45,_RNvNtNtNtCskTACvQmcrtm_5ruchy8frontend6parser11expressions18parse_list_literal
FNDA:0,_RNvNtNtNtCskTACvQmcrtm_5ruchy8frontend6parser11expressions18parse_list_pattern
FNDA:39,_RNvNtNtNtCskTACvQmcrtm_5ruchy8frontend6parser11expressions18parse_regular_list
FNDA:0,_RNvNtNtNtCskTACvQmcrtm_5ruchy8frontend6parser11expressions18parse_rest_pattern
FNDA:0,_RNvNtNtNtCskTACvQmcrtm_5ruchy8frontend6parser11expressions18parse_return_token
FNDA:5,_RNvNtNtNtCskTACvQmcrtm_5ruchy8frontend6parser11expressions18parse_variant_name
FNDA:770,_RNvNtNtNtCskTACvQmcrtm_5ruchy8frontend6parser11expressions18token_to_binary_op
FNDA:103,_RNvNtNtNtCskTACvQmcrtm_5ruchy8frontend6parser11expressions19parse_array_element
FNDA:0,_RNvNtNtNtCskTACvQmcrtm_5ruchy8frontend6parser11expressions19parse_catch_clauses
FNDA:0,_RNvNtNtNtCskTACvQmcrtm_5ruchy8frontend6parser11expressions19parse_catch_pattern
FNDA:2,_RNvNtNtNtCskTACvQmcrtm_5ruchy8frontend6parser11expressions19parse_enum_variants
FNDA:0,_RNvNtNtNtCskTACvQmcrtm_5ruchy8frontend6parser11expressions19parse_finally_block
FNDA:19,_RNvNtNtNtCskTACvQmcrtm_5ruchy8frontend6parser11expressions19parse_if_expression
FNDA:61,_RNvNtNtNtCskTACvQmcrtm_5ruchy8frontend6parser11expressions19parse_let_in_clause
FNDA:64,_RNvNtNtNtCskTACvQmcrtm_5ruchy8frontend6parser11expressions19parse_let_statement
FNDA:515,_RNvNtNtNtCskTACvQmcrtm_5ruchy8frontend6parser11expressions19parse_literal_token
FNDA:9,_RNvNtNtNtCskTACvQmcrtm_5ruchy8frontend6parser11expressions19parse_match_pattern
FNDA:5,_RNvNtNtNtCskTACvQmcrtm_5ruchy8frontend6parser11expressions19parse_struct_fields
FNDA:0,_RNvNtNtNtCskTACvQmcrtm_5ruchy8frontend6parser11expressions19parse_tuple_pattern
FNDA:2,_RNvNtNtNtCskTACvQmcrtm_5ruchy8frontend6parser11expressions19parse_use_statement
FNDA:0,_RNvNtNtNtCskTACvQmcrtm_5ruchy8frontend6parser11expressions19parse_var_statement
FNDA:5,_RNvNtNtNtCskTACvQmcrtm_5ruchy8frontend6parser11expressions20extract_fstring_expr
FNDA:617,_RNvNtNtNtCskTACvQmcrtm_5ruchy8frontend6parser11expressions20map_bitwise_operator
FNDA:628,_RNvNtNtNtCskTACvQmcrtm_5ruchy8frontend6parser11expressions20map_logical_operator
FNDA:0,_RNvNtNtNtCskTACvQmcrtm_5ruchy8frontend6parser11expressions20parse_continue_token
FNDA:3,_RNvNtNtNtCskTACvQmcrtm_5ruchy8frontend6parser11expressions20parse_generic_params
FNDA:64,_RNvNtNtNtCskTACvQmcrtm_5ruchy8frontend6parser11expressions20parse_let_mutability
FNDA:0,_RNvNtNtNtCskTACvQmcrtm_5ruchy8frontend6parser11expressions20parse_option_pattern
FNDA:0,_RNvNtNtNtCskTACvQmcrtm_5ruchy8frontend6parser11expressions20parse_result_pattern
FNDA:9,_RNvNtNtNtCskTACvQmcrtm_5ruchy8frontend6parser11expressions20parse_single_pattern
FNDA:5,_RNvNtNtNtCskTACvQmcrtm_5ruchy8frontend6parser11expressions20parse_single_variant
FNDA:0,_RNvNtNtNtCskTACvQmcrtm_5ruchy8frontend6parser11expressions20parse_struct_pattern
FNDA:5,_RNvNtNtNtCskTACvQmcrtm_5ruchy8frontend6parser11expressions20parse_variant_fields
FNDA:61,_RNvNtNtNtCskTACvQmcrtm_5ruchy8frontend6parser11expressions21create_let_expression
FNDA:2,_RNvNtNtNtCskTACvQmcrtm_5ruchy8frontend6parser11expressions21parse_enum_definition
FNDA:5,_RNvNtNtNtCskTACvQmcrtm_5ruchy8frontend6parser11expressions21parse_literal_pattern
FNDA:1,_RNvNtNtNtCskTACvQmcrtm_5ruchy8frontend6parser11expressions22parse_actor_bare_field
FNDA:1,_RNvNtNtNtCskTACvQmcrtm_5ruchy8frontend6parser11expressions22parse_actor_definition
FNDA:0,_RNvNtNtNtCskTACvQmcrtm_5ruchy8frontend6parser11expressions22parse_dataframe_header
FNDA:354,_RNvNtNtNtCskTACvQmcrtm_5ruchy8frontend6parser11expressions22parse_identifier_token
FNDA:1,_RNvNtNtNtCskTACvQmcrtm_5ruchy8frontend6parser11expressions22parse_import_statement
FNDA:2,_RNvNtNtNtCskTACvQmcrtm_5ruchy8frontend6parser11expressions22parse_lambda_from_expr
FNDA:1,_RNvNtNtNtCskTACvQmcrtm_5ruchy8frontend6parser11expressions22parse_lambda_no_params
FNDA:7,_RNvNtNtNtCskTACvQmcrtm_5ruchy8frontend6parser11expressions22parse_match_expression
FNDA:9,_RNvNtNtNtCskTACvQmcrtm_5ruchy8frontend6parser11expressions22parse_single_match_arm
FNDA:1,_RNvNtNtNtCskTACvQmcrtm_5ruchy8frontend6parser11expressions22parse_trait_definition
FNDA:4,_RNvNtNtNtCskTACvQmcrtm_5ruchy8frontend6parser11expressions22parse_wildcard_pattern
FNDA:1,_RNvNtNtNtCskTACvQmcrtm_5ruchy8frontend6parser11expressions23create_actor_expression
FNDA:770,_RNvNtNtNtCskTACvQmcrtm_5ruchy8frontend6parser11expressions23map_arithmetic_operator
FNDA:662,_RNvNtNtNtCskTACvQmcrtm_5ruchy8frontend6parser11expressions23map_comparison_operator
FNDA:0,_RNvNtNtNtCskTACvQmcrtm_5ruchy8frontend6parser11expressions23parse_actor_state_field
FNDA:0,_RNvNtNtNtCskTACvQmcrtm_5ruchy8frontend6parser11expressions23parse_constructor_token
FNDA:0,_RNvNtNtNtCskTACvQmcrtm_5ruchy8frontend6parser11expressions23parse_dataframe_columns
FNDA:0,_RNvNtNtNtCskTACvQmcrtm_5ruchy8frontend6parser11expressions23parse_dataframe_literal
FNDA:0,_RNvNtNtNtCskTACvQmcrtm_5ruchy8frontend6parser11expressions23parse_if_let_expression
FNDA:19,_RNvNtNtNtCskTACvQmcrtm_5ruchy8frontend6parser11expressions23parse_lambda_expression
FNDA:7,_RNvNtNtNtCskTACvQmcrtm_5ruchy8frontend6parser11expressions23parse_optional_generics
FNDA:22,_RNvNtNtNtCskTACvQmcrtm_5ruchy8frontend6parser11expressions23parse_parentheses_token
FNDA:6,_RNvNtNtNtCskTACvQmcrtm_5ruchy8frontend6parser11expressions23parse_struct_definition
FNDA:0,_RNvNtNtNtCskTACvQmcrtm_5ruchy8frontend6parser11expressions24create_dataframe_columns
FNDA:0,_RNvNtNtNtCskTACvQmcrtm_5ruchy8frontend6parser11expressions24handle_pattern_separator
FNDA:30,_RNvNtNtNtCskTACvQmcrtm_5ruchy8frontend6parser11expressions24parse_control_flow_token
FNDA:4,_RNvNtNtNtCskTACvQmcrtm_5ruchy8frontend6parser11expressions24parse_fstring_into_parts
FNDA:0,_RNvNtNtNtCskTACvQmcrtm_5ruchy8frontend6parser11expressions24parse_match_list_pattern
FNDA:0,_RNvNtNtNtCskTACvQmcrtm_5ruchy8frontend6parser11expressions24parse_module_declaration
FNDA:1,_RNvNtNtNtCskTACvQmcrtm_5ruchy8frontend6parser11expressions25parse_actor_receive_block
FNDA:0,_RNvNtNtNtCskTACvQmcrtm_5ruchy8frontend6parser11expressions25parse_constructor_pattern
FNDA:63,_RNvNtNtNtCskTACvQmcrtm_5ruchy8frontend6parser11expressions25parse_let_type_annotation
FNDA:0,_RNvNtNtNtCskTACvQmcrtm_5ruchy8frontend6parser11expressions25parse_match_tuple_pattern
FNDA:1,_RNvNtNtNtCskTACvQmcrtm_5ruchy8frontend6parser11expressions25parse_optional_identifier
FNDA:0,_RNvNtNtNtCskTACvQmcrtm_5ruchy8frontend6parser11expressions25parse_required_identifier
FNDA:7,_RNvNtNtNtCskTACvQmcrtm_5ruchy8frontend6parser11expressions25parse_single_struct_field
FNDA:0,_RNvNtNtNtCskTACvQmcrtm_5ruchy8frontend6parser11expressions26create_constructor_pattern
FNDA:8,_RNvNtNtNtCskTACvQmcrtm_5ruchy8frontend6parser11expressions26parse_data_structure_token
FNDA:132,_RNvNtNtNtCskTACvQmcrtm_5ruchy8frontend6parser11expressions26parse_function_block_token
FNDA:96,_RNvNtNtNtCskTACvQmcrtm_5ruchy8frontend6parser11expressions26parse_unary_operator_token
FNDA:0,_RNvNtNtNtCskTACvQmcrtm_5ruchy8frontend6parser11expressions26parse_variant_discriminant
FNDA:47,_RNvNtNtNtCskTACvQmcrtm_5ruchy8frontend6parser11expressions27parse_collection_enum_token
FNDA:0,_RNvNtNtNtCskTACvQmcrtm_5ruchy8frontend6parser11expressions27parse_constructor_arguments
FNDA:0,_RNvNtNtNtCskTACvQmcrtm_5ruchy8frontend6parser11expressions27parse_dataframe_column_name
FNDA:19,_RNvNtNtNtCskTACvQmcrtm_5ruchy8frontend6parser11expressions27parse_regular_if_expression
FNDA:0,_RNvNtNtNtCskTACvQmcrtm_5ruchy8frontend6parser11expressions28validate_try_catch_structure
FNDA:1,_RNvNtNtNtCskTACvQmcrtm_5ruchy8frontend6parser11expressions29parse_control_statement_token
FNDA:0,_RNvNtNtNtCskTACvQmcrtm_5ruchy8frontend6parser11expressions29parse_dataframe_column_values
FNDA:3,_RNvNtNtNtCskTACvQmcrtm_5ruchy8frontend6parser11expressions29parse_list_comprehension_body
FNDA:0,_RNvNtNtNtCskTACvQmcrtm_5ruchy8frontend6parser11expressions29parse_single_dataframe_column
FNDA:1,_RNvNtNtNtCskTACvQmcrtm_5ruchy8frontend6parser11expressions30parse_special_definition_token
FNDA:64,_RNvNtNtNtCskTACvQmcrtm_5ruchy8frontend6parser11expressions32parse_variable_declaration_token
FNDA:0,_RNvNtNtNtCskTACvQmcrtm_5ruchy8frontend6parser11expressions33parse_single_list_pattern_element
FNDA:0,_RNvNtNtNtCskTACvQmcrtm_5ruchy8frontend6parser11expressions34parse_single_tuple_pattern_element
FNDA:0,_RNvNtNtNtCskTACvQmcrtm_5ruchy8frontend6parser11expressions37parse_identifier_pattern_with_default
FNDA:0,_RNvNtNtNtCskTACvQmcrtm_5ruchy8frontend6parser11expressions39parse_identifier_or_constructor_pattern
FNDA:7,_RNCNvNtNtNtCskTACvQmcrtm_5ruchy8frontend6parser11expressions19parse_struct_fields0B9_
FNDA:1,_RNCNvNtNtNtCskTACvQmcrtm_5ruchy8frontend6parser11expressions22parse_trait_definition0B9_
FNDA:1,_RNCNvNtNtNtCskTACvQmcrtm_5ruchy8frontend6parser11expressions23create_actor_expression0B9_
FNDA:2,_RNCNvNtNtNtCskTACvQmcrtm_5ruchy8frontend6parser11expressions23create_actor_expressions_0B9_
FNDA:25,_RNCNvNtNtNtCskTACvQmcrtm_5ruchy8frontend6parser11expressions23parse_lambda_expressions_0B9_
FNDA:0,_RNCNvNtNtNtCskTACvQmcrtm_5ruchy8frontend6parser11expressions24create_dataframe_columns0B9_
FNF:150
FNH:85
DA:5,1333
DA:6,1333
DA:7,13
DA:10,1320
DA:11,1320
DA:13,1320
DA:17,515
DA:21,354
DA:25,96
DA:29,132
DA:33,64
DA:37,30
DA:41,0
DA:45,20
DA:49,22
DA:53,8
DA:57,3
DA:61,1
DA:65,1
DA:69,47
DA:73,0
DA:75,27
DA:77,1333
DA:81,515
DA:82,515
DA:83,365
DA:84,365
DA:85,365
DA:87,14
DA:88,14
DA:89,14
DA:91,91
DA:92,91
DA:93,91
DA:95,4
DA:96,4
DA:98,4
DA:99,4
DA:101,0
DA:102,0
DA:103,0
DA:105,41
DA:106,41
DA:107,41
DA:109,0
DA:111,515
DA:115,354
DA:116,354
DA:117,354
DA:118,354
DA:121,354
DA:122,0
DA:124,0
DA:125,0
DA:127,0
DA:128,0
DA:129,0
DA:130,0
DA:131,0
DA:136,0
DA:137,0
DA:140,354
DA:141,1
DA:142,1
DA:143,1
DA:144,1
DA:145,1
DA:146,1
DA:147,1
DA:148,1
DA:149,1
DA:150,1
DA:151,1
DA:152,1
DA:153,1
DA:155,353
DA:157,11
DA:161,11
DA:163,342
DA:167,0
DA:168,0
DA:170,0
DA:172,354
DA:176,96
DA:177,96
DA:179,4
DA:180,4
DA:181,4
DA:182,4
DA:183,4
DA:184,4
DA:187,92
DA:188,92
DA:189,23
DA:190,23
DA:191,23
DA:192,23
DA:194,0
DA:196,96
DA:200,22
DA:201,22
DA:203,22
DA:204,3
DA:205,3
DA:208,19
DA:211,19
DA:213,1
DA:215,2
DA:216,1
DA:219,1
DA:220,0
DA:221,1
DA:223,1
DA:226,1
DA:227,1
DA:230,18
DA:233,18
DA:234,2
DA:236,16
DA:240,22
DA:244,1
DA:245,1
DA:247,1
DA:249,1
DA:250,1
DA:251,0
DA:252,0
DA:253,0
DA:254,0
DA:256,1
DA:257,1
DA:261,0
DA:262,0
DA:264,0
DA:265,0
DA:266,0
DA:267,0
DA:269,0
DA:271,0
DA:272,0
DA:276,0
DA:277,0
DA:279,0
DA:280,0
DA:281,0
DA:282,0
DA:284,0
DA:286,0
DA:287,0
DA:291,0
DA:292,0
DA:294,0
DA:295,0
DA:297,0
DA:300,0
DA:302,0
DA:303,0
DA:306,0
DA:307,0
DA:309,0
DA:310,0
DA:311,0
DA:315,0
DA:316,0
DA:317,0
DA:318,0
DA:319,0
DA:320,0
DA:321,0
DA:322,0
DA:323,0
DA:326,0
DA:329,0
DA:330,0
DA:332,0
DA:333,0
DA:334,0
DA:335,0
DA:336,0
DA:337,0
DA:338,0
DA:339,0
DA:342,0
DA:343,0
DA:344,0
DA:345,0
DA:346,0
DA:347,0
DA:349,0
DA:350,0
DA:354,30
DA:355,30
DA:356,19
DA:357,7
DA:358,2
DA:359,2
DA:360,0
DA:361,0
DA:363,30
DA:367,0
DA:368,0
DA:370,0
DA:371,0
DA:372,0
DA:374,0
DA:376,0
DA:377,0
DA:378,0
DA:379,0
DA:380,0
DA:381,0
DA:382,0
DA:383,0
DA:384,0
DA:388,0
DA:389,0
DA:392,0
DA:393,0
DA:394,0
DA:395,0
DA:397,0
DA:401,0
DA:402,0
DA:404,0
DA:405,0
DA:406,0
DA:407,0
DA:408,0
DA:411,0
DA:412,0
DA:413,0
DA:415,0
DA:417,0
DA:418,0
DA:419,0
DA:421,0
DA:425,0
DA:426,0
DA:427,0
DA:428,0
DA:431,0
DA:434,0
DA:437,0
DA:438,0
DA:439,0
DA:442,0
DA:444,0
DA:445,0
DA:449,8
DA:450,8
DA:451,6
DA:452,1
DA:453,1
DA:454,0
DA:456,8
DA:460,3
DA:461,3
DA:462,1
DA:463,2
DA:464,0
DA:466,3
DA:470,20
DA:471,20
DA:472,19
DA:473,1
DA:474,0
DA:476,20
DA:480,132
DA:481,132
DA:482,43
DA:483,89
DA:484,0
DA:486,132
DA:490,64
DA:491,64
DA:492,64
DA:493,0
DA:494,0
DA:496,64
DA:500,1
DA:501,1
DA:504,0
DA:505,0
DA:509,0
DA:510,0
DA:511,0
DA:512,0
DA:513,0
DA:516,1
DA:517,0
DA:519,1
DA:523,1
DA:524,1
DA:525,1
DA:526,0
DA:527,0
DA:528,0
DA:529,0
DA:530,0
DA:532,1
DA:536,47
DA:537,47
DA:538,45
DA:539,2
DA:540,0
DA:542,47
DA:545,64
DA:546,64
DA:549,64
DA:552,64
DA:555,63
DA:558,63
DA:561,63
DA:564,61
DA:567,61
DA:568,64
DA:572,64
DA:573,64
DA:574,1
DA:575,1
DA:577,63
DA:579,64
DA:583,64
DA:584,64
DA:585,63
DA:586,63
DA:587,63
DA:588,63
DA:592,0
DA:593,0
DA:597,0
DA:601,0
DA:605,0
DA:607,1
DA:608,1
DA:610,64
DA:614,63
DA:615,63
DA:616,0
DA:617,0
DA:619,63
DA:621,63
DA:625,61
DA:626,61
DA:627,19
DA:628,19
DA:631,42
DA:633,61
DA:637,61
DA:638,61
DA:639,61
DA:640,61
DA:641,61
DA:642,61
DA:643,61
DA:644,61
DA:645,61
DA:647,61
DA:648,61
DA:649,61
DA:650,61
DA:651,61
DA:652,61
DA:653,61
DA:654,61
DA:655,61
DA:656,61
DA:657,61
DA:658,61
DA:662,0
DA:663,0
DA:664,0
DA:665,0
DA:666,0
DA:667,0
DA:668,0
DA:669,0
DA:670,0
DA:671,0
DA:677,0
DA:678,0
DA:679,0
DA:680,0
DA:681,0
DA:682,0
DA:683,0
DA:684,0
DA:685,0
DA:686,0
DA:689,61
DA:693,0
DA:694,0
DA:697,0
DA:700,0
DA:701,0
DA:702,0
DA:703,0
DA:704,0
DA:708,0
DA:709,0
DA:713,0
DA:717,0
DA:719,0
DA:723,0
DA:724,0
DA:725,0
DA:727,0
DA:731,0
DA:734,0
DA:737,0
DA:739,0
DA:742,0
DA:743,0
DA:745,0
DA:746,0
DA:747,0
DA:748,0
DA:749,0
DA:750,0
DA:751,0
DA:752,0
DA:753,0
DA:754,0
DA:758,0
DA:759,0
DA:760,0
DA:761,0
DA:762,0
DA:763,0
DA:764,0
DA:765,0
DA:766,0
DA:767,0
DA:770,0
DA:772,0
DA:773,0
DA:774,0
DA:776,0
DA:777,0
DA:778,0
DA:781,0
DA:782,0
DA:783,0
DA:786,0
DA:787,0
DA:788,0
DA:792,0
DA:793,0
DA:794,0
DA:795,0
DA:796,0
DA:797,0
DA:799,0
DA:800,0
DA:801,0
DA:803,0
DA:804,0
DA:806,0
DA:808,0
DA:810,0
DA:811,0
DA:813,0
DA:814,0
DA:816,0
DA:817,0
DA:818,0
DA:819,0
DA:820,0
DA:822,0
DA:823,0
DA:824,0
DA:825,0
DA:826,0
DA:828,0
DA:829,0
DA:832,0
DA:833,0
DA:834,0
DA:835,0
DA:836,0
DA:837,0
DA:838,0
DA:839,0
DA:840,0
DA:841,0
DA:842,0
DA:843,0
DA:844,0
DA:848,0
DA:849,0
DA:850,0
DA:851,0
DA:852,0
DA:853,0
DA:855,0
DA:856,0
DA:857,0
DA:859,0
DA:860,0
DA:861,0
DA:864,0
DA:865,0
DA:866,0
DA:869,0
DA:870,0
DA:871,0
DA:875,0
DA:876,0
DA:877,0
DA:878,0
DA:879,0
DA:881,0
DA:882,0
DA:883,0
DA:885,0
DA:886,0
DA:888,0
DA:890,0
DA:894,0
DA:895,0
DA:898,0
DA:899,0
DA:900,0
DA:901,0
DA:902,0
DA:903,0
DA:904,0
DA:906,0
DA:908,0
DA:912,0
DA:913,0
DA:916,0
DA:917,0
DA:918,0
DA:919,0
DA:921,0
DA:923,0
DA:928,0
DA:929,0
DA:930,0
DA:932,0
DA:933,0
DA:934,0
DA:935,0
DA:936,0
DA:937,0
DA:938,0
DA:939,0
DA:940,0
DA:941,0
DA:942,0
DA:943,0
DA:945,0
DA:947,0
DA:950,0
DA:952,0
DA:957,19
DA:958,19
DA:961,19
DA:962,0
DA:964,19
DA:966,19
DA:970,0
DA:971,0
DA:974,0
DA:975,0
DA:978,0
DA:979,0
DA:982,0
DA:983,0
DA:986,0
DA:987,0
DA:990,0
DA:992,0
DA:993,0
DA:994,0
DA:995,0
DA:996,0
DA:997,0
DA:998,0
DA:999,0
DA:1000,0
DA:1001,0
DA:1005,19
DA:1007,19
DA:1008,19
DA:1011,17
DA:1012,17
DA:1015,16
DA:1017,16
DA:1018,16
DA:1019,16
DA:1020,16
DA:1021,16
DA:1022,16
DA:1023,16
DA:1024,16
DA:1025,19
DA:1029,16
DA:1030,16
DA:1031,15
DA:1034,15
DA:1036,0
DA:1038,15
DA:1039,15
DA:1042,1
DA:1044,16
DA:1048,7
DA:1049,7
DA:1052,7
DA:1053,7
DA:1056,4
DA:1057,4
DA:1060,4
DA:1063,4
DA:1064,4
DA:1066,4
DA:1067,4
DA:1068,4
DA:1069,4
DA:1070,7
DA:1073,4
DA:1074,4
DA:1076,9
DA:1078,9
DA:1079,9
DA:1082,9
DA:1083,5
DA:1084,5
DA:1087,9
DA:1088,4
DA:1089,5
DA:1092,4
DA:1093,0
DA:1094,4
DA:1096,4
DA:1097,4
DA:1101,9
DA:1102,9
DA:1103,9
DA:1106,9
DA:1109,9
DA:1110,0
DA:1111,0
DA:1113,9
DA:1117,9
DA:1118,9
DA:1121,9
DA:1123,9
DA:1125,9
DA:1126,9
DA:1127,9
DA:1128,9
DA:1129,9
DA:1130,9
DA:1131,9
DA:1135,9
DA:1136,9
DA:1137,0
DA:1138,9
DA:1141,9
DA:1144,9
DA:1145,0
DA:1147,9
DA:1149,9
DA:1153,9
DA:1154,9
DA:1155,0
DA:1158,9
DA:1159,4
DA:1161,5
DA:1162,0
DA:1163,0
DA:1164,0
DA:1165,0
DA:1166,0
DA:1167,0
DA:1169,9
DA:1173,4
DA:1174,4
DA:1175,4
DA:1176,4
DA:1180,5
DA:1181,5
DA:1182,0
DA:1185,5
DA:1186,5
DA:1187,5
DA:1188,5
DA:1191,5
DA:1193,0
DA:1196,0
DA:1197,0
DA:1198,0
DA:1200,0
DA:1201,0
DA:1202,0
DA:1203,0
DA:1204,0
DA:1206,0
DA:1210,0
DA:1213,0
DA:1214,0
DA:1215,0
DA:1217,0
DA:1218,0
DA:1219,0
DA:1220,0
DA:1221,0
DA:1223,0
DA:1227,5
DA:1231,0
DA:1232,0
DA:1233,0
DA:1234,0
DA:1236,0
DA:1237,0
DA:1238,0
DA:1239,0
DA:1241,0
DA:1242,0
DA:1243,0
DA:1244,0
DA:1246,0
DA:1247,0
DA:1248,0
DA:1249,0
DA:1251,0
DA:1254,5
DA:1255,5
DA:1259,0
DA:1260,0
DA:1261,0
DA:1264,0
DA:1266,0
DA:1267,0
DA:1268,0
DA:1270,0
DA:1274,0
DA:1275,0
DA:1276,0
DA:1278,0
DA:1281,0
DA:1283,0
DA:1287,0
DA:1288,0
DA:1289,0
DA:1292,0
DA:1294,0
DA:1295,0
DA:1296,0
DA:1298,0
DA:1302,0
DA:1303,0
DA:1304,0
DA:1306,0
DA:1309,0
DA:1311,0
DA:1315,0
DA:1316,0
DA:1317,0
DA:1320,0
DA:1321,0
DA:1324,0
DA:1325,0
DA:1327,0
DA:1329,0
DA:1333,0
DA:1334,0
DA:1337,0
DA:1338,0
DA:1339,0
DA:1340,0
DA:1343,0
DA:1345,0
DA:1346,0
DA:1347,0
DA:1348,0
DA:1349,0
DA:1350,0
DA:1353,0
DA:1354,0
DA:1355,0
DA:1359,0
DA:1360,0
DA:1363,0
DA:1364,0
DA:1365,0
DA:1366,0
DA:1369,0
DA:1373,0
DA:1374,0
DA:1375,0
DA:1376,0
DA:1377,0
DA:1378,0
DA:1379,0
DA:1380,0
DA:1381,0
DA:1382,0
DA:1384,0
DA:1386,0
DA:1387,0
DA:1388,0
DA:1389,0
DA:1390,0
DA:1392,0
DA:1396,0
DA:1397,0
DA:1398,0
DA:1402,0
DA:1403,0
DA:1406,0
DA:1408,0
DA:1411,0
DA:1412,0
DA:1415,0
DA:1417,0
DA:1418,0
DA:1419,0
DA:1421,0
DA:1424,0
DA:1425,0
DA:1426,0
DA:1427,0
DA:1428,0
DA:1429,0
DA:1432,0
DA:1433,0
DA:1436,0
DA:1437,0
DA:1438,0
DA:1440,0
DA:1442,0
DA:1444,0
DA:1446,0
DA:1448,0
DA:1450,0
DA:1452,0
DA:1456,0
DA:1458,0
DA:1460,0
DA:1464,0
DA:1467,0
DA:1471,0
DA:1472,0
DA:1474,0
DA:1475,0
DA:1478,0
DA:1479,0
DA:1483,0
DA:1484,0
DA:1486,0
DA:1488,0
DA:1495,2
DA:1496,2
DA:1499,2
DA:1500,0
DA:1503,0
DA:1504,0
DA:1507,0
DA:1508,0
DA:1511,0
DA:1512,0
DA:1515,0
DA:1516,0
DA:1518,0
DA:1519,0
DA:1520,0
DA:1521,0
DA:1522,0
DA:1523,0
DA:1524,0
DA:1525,0
DA:1529,2
DA:1530,2
DA:1533,2
DA:1534,2
DA:1536,2
DA:1537,2
DA:1538,2
DA:1539,2
DA:1541,2
DA:1545,2
DA:1546,2
DA:1549,2
DA:1552,2
DA:1553,2
DA:1556,2
DA:1557,2
DA:1560,2
DA:1561,2
DA:1564,2
DA:1566,2
DA:1567,2
DA:1568,2
DA:1569,2
DA:1570,2
DA:1571,2
DA:1572,2
DA:1573,2
DA:1574,2
DA:1575,2
DA:1579,2
DA:1580,2
DA:1581,0
DA:1584,2
DA:1585,2
DA:1586,2
DA:1587,2
DA:1588,2
DA:1591,0
DA:1592,0
DA:1596,0
DA:1600,0
DA:1602,0
DA:1604,2
DA:1607,103
DA:1608,103
DA:1609,0
DA:1610,0
DA:1611,0
DA:1613,103
DA:1615,103
DA:1617,45
DA:1618,45
DA:1621,45
DA:1622,3
DA:1623,3
DA:1624,42
DA:1627,42
DA:1630,42
DA:1631,0
DA:1632,3
DA:1633,39
DA:1635,45
DA:1639,0
DA:1640,0
DA:1642,0
DA:1644,0
DA:1645,0
DA:1647,0
DA:1648,0
DA:1649,0
DA:1650,0
DA:1651,0
DA:1652,0
DA:1653,0
DA:1654,0
DA:1658,39
DA:1659,39
DA:1662,98
DA:1663,61
DA:1666,61
DA:1667,0
DA:1668,61
DA:1670,61
DA:1673,37
DA:1674,37
DA:1676,37
DA:1677,39
DA:1679,3
DA:1680,3
DA:1681,3
DA:1682,3
DA:1683,3
DA:1685,3
DA:1688,3
DA:1689,3
DA:1690,3
DA:1691,3
DA:1693,0
DA:1696,3
DA:1699,3
DA:1702,3
DA:1703,2
DA:1704,2
DA:1706,1
DA:1709,3
DA:1711,3
DA:1712,3
DA:1713,3
DA:1714,3
DA:1715,3
DA:1716,3
DA:1717,3
DA:1718,3
DA:1719,3
DA:1720,3
DA:1722,1
DA:1724,1
DA:1727,1
DA:1729,1
DA:1730,1
DA:1731,1
DA:1732,1
DA:1733,1
DA:1735,2
DA:1737,2
DA:1740,2
DA:1741,2
DA:1742,2
DA:1743,2
DA:1744,2
DA:1745,2
DA:1746,2
DA:1747,2
DA:1748,2
DA:1749,2
DA:1750,2
DA:1751,0
DA:1755,2
DA:1757,2
DA:1758,2
DA:1759,2
DA:1760,2
DA:1761,2
DA:1763,19
DA:1765,19
DA:1767,19
DA:1770,44
DA:1771,25
DA:1772,25
DA:1773,25
DA:1776,25
DA:1777,6
DA:1778,19
DA:1780,0
DA:1784,19
DA:1785,19
DA:1788,19
DA:1791,19
DA:1792,25
DA:1793,25
DA:1794,25
DA:1795,25
DA:1796,25
DA:1797,25
DA:1799,25
DA:1800,25
DA:1802,19
DA:1803,19
DA:1805,6
DA:1807,6
DA:1808,6
DA:1809,5
DA:1810,5
DA:1812,5
DA:1813,5
DA:1814,5
DA:1815,5
DA:1816,5
DA:1817,5
DA:1818,6
DA:1821,6
DA:1822,6
DA:1823,5
DA:1824,5
DA:1825,5
DA:1827,1
DA:1829,6
DA:1832,5
DA:1833,5
DA:1834,5
DA:1836,12
DA:1837,7
DA:1838,7
DA:1840,7
DA:1841,3
DA:1842,4
DA:1845,5
DA:1848,5
DA:1849,7
DA:1850,7
DA:1852,7
DA:1853,5
DA:1856,7
DA:1857,7
DA:1858,7
DA:1859,7
DA:1860,7
DA:1862,0
DA:1865,7
DA:1866,7
DA:1868,7
DA:1869,7
DA:1871,1
DA:1873,1
DA:1876,1
DA:1877,1
DA:1878,1
DA:1879,1
DA:1881,0
DA:1885,1
DA:1887,1
DA:1890,2
DA:1892,1
DA:1895,1
DA:1896,1
DA:1897,1
DA:1898,1
DA:1900,0
DA:1905,1
DA:1908,7
DA:1909,6
DA:1910,6
DA:1911,6
DA:1914,1
DA:1917,1
DA:1918,1
DA:1919,1
DA:1920,1
DA:1921,1
DA:1923,1
DA:1925,1
DA:1926,1
DA:1927,1
DA:1928,1
DA:1929,1
DA:1930,1
DA:1931,1
DA:1933,1
DA:1934,1
DA:1937,1
DA:1940,1
DA:1941,1
DA:1942,1
DA:1944,1
DA:1945,1
DA:1946,1
DA:1947,1
DA:1948,1
DA:1949,1
DA:1950,1
DA:1951,1
DA:1954,1
DA:1956,1
DA:1959,1
DA:1960,0
DA:1961,0
DA:1962,0
DA:1963,1
DA:1965,1
DA:1967,0
DA:1969,1
DA:1972,1
DA:1973,1
DA:1974,1
DA:1975,1
DA:1976,1
DA:1978,0
DA:1980,1
DA:1983,0
DA:1984,0
DA:1985,0
DA:1986,0
DA:1987,0
DA:1989,0
DA:1991,0
DA:1994,1
DA:1995,1
DA:1996,20
DA:1997,19
DA:1998,2
DA:1999,3
DA:2000,14
DA:2002,19
DA:2003,18
DA:2004,18
DA:2006,1
DA:2007,1
DA:2009,1
DA:2011,1
DA:2014,1
DA:2017,1
DA:2018,1
DA:2019,1
DA:2020,1
DA:2021,0
DA:2025,1
DA:2026,0
DA:2027,0
DA:2028,0
DA:2029,0
DA:2030,0
DA:2031,0
DA:2035,1
DA:2037,1
DA:2038,1
DA:2039,1
DA:2040,1
DA:2041,1
DA:2043,2
DA:2045,2
DA:2048,2
DA:2051,2
DA:2052,2
DA:2053,2
DA:2054,2
DA:2055,0
DA:2059,2
DA:2060,0
DA:2063,0
DA:2064,0
DA:2065,0
DA:2068,0
DA:2069,0
DA:2070,0
DA:2071,0
DA:2074,0
DA:2075,0
DA:2076,0
DA:2078,0
DA:2082,0
DA:2084,0
DA:2085,0
DA:2086,0
DA:2087,0
DA:2088,0
DA:2089,0
DA:2090,0
DA:2095,2
DA:2096,2
DA:2098,2
DA:2099,2
DA:2100,2
DA:2101,2
DA:2102,2
DA:2104,0
DA:2106,0
DA:2107,0
DA:2108,0
DA:2111,0
DA:2112,0
DA:2113,0
DA:2117,0
DA:2118,0
DA:2119,0
DA:2120,0
DA:2121,0
DA:2122,0
DA:2126,0
DA:2127,0
DA:2129,0
DA:2130,0
DA:2131,0
DA:2134,0
DA:2135,0
DA:2136,0
DA:2139,0
DA:2140,0
DA:2144,0
DA:2145,0
DA:2146,0
DA:2147,0
DA:2148,0
DA:2149,0
DA:2153,0
DA:2154,0
DA:2155,0
DA:2156,0
DA:2157,0
DA:2158,0
DA:2160,0
DA:2161,0
DA:2162,0
DA:2163,0
DA:2165,0
DA:2167,0
DA:2171,0
DA:2172,0
DA:2173,0
DA:2175,0
DA:2177,0
DA:2181,0
DA:2182,0
DA:2183,0
DA:2184,0
DA:2185,0
DA:2187,0
DA:2188,0
DA:2189,0
DA:2190,0
DA:2191,0
DA:2192,0
DA:2194,2
DA:2195,2
DA:2196,2
DA:2197,2
DA:2198,2
DA:2200,2
DA:2201,2
DA:2202,2
DA:2203,2
DA:2204,2
DA:2205,2
DA:2206,2
DA:2208,2
DA:2209,2
DA:2210,1
DA:2211,1
DA:2212,1
DA:2213,1
DA:2216,0
DA:2217,0
DA:2220,1
DA:2221,1
DA:2223,0
DA:2225,2
DA:2227,7
DA:2228,7
DA:2229,3
DA:2231,4
DA:2233,7
DA:2235,2
DA:2236,2
DA:2237,2
DA:2239,7
DA:2240,5
DA:2242,5
DA:2243,3
DA:2244,3
DA:2247,2
DA:2248,2
DA:2249,2
DA:2251,5
DA:2252,5
DA:2255,5
DA:2256,0
DA:2257,0
DA:2259,5
DA:2263,5
DA:2264,5
DA:2266,0
DA:2269,5
DA:2270,5
DA:2271,5
DA:2272,5
DA:2273,5
DA:2274,5
DA:2278,0
DA:2279,0
DA:2280,0
DA:2281,0
DA:2282,0
DA:2283,0
DA:2286,0
DA:2287,0
DA:2288,0
DA:2289,0
DA:2290,0
DA:2291,0
DA:2293,0
DA:2296,0
DA:2298,0
DA:2300,5
DA:2301,5
DA:2302,3
DA:2303,3
DA:2304,3
DA:2305,3
DA:2308,0
DA:2309,0
DA:2312,0
DA:2313,0
DA:2316,1
DA:2317,1
DA:2320,1
DA:2321,1
DA:2323,0
DA:2325,5
DA:2327,5
DA:2328,5
DA:2329,3
DA:2330,2
DA:2332,2
DA:2333,2
DA:2335,4
DA:2336,2
DA:2338,2
DA:2339,0
DA:2340,2
DA:2343,2
DA:2344,2
DA:2345,5
DA:2347,3
DA:2349,3
DA:2350,3
DA:2352,8
DA:2353,5
DA:2354,5
DA:2355,5
DA:2358,5
DA:2359,2
DA:2360,3
DA:2362,0
DA:2366,3
DA:2367,3
DA:2368,3
DA:2370,1
DA:2372,1
DA:2375,1
DA:2378,1
DA:2381,1
DA:2383,1
DA:2386,1
DA:2387,1
DA:2391,1
DA:2392,1
DA:2393,1
DA:2394,1
DA:2395,1
DA:2397,0
DA:2399,1
DA:2403,1
DA:2404,1
DA:2405,1
DA:2407,3
DA:2408,2
DA:2410,0
DA:2411,0
DA:2414,1
DA:2415,1
DA:2418,1
DA:2419,1
DA:2421,0
DA:2422,0
DA:2423,0
DA:2424,0
DA:2428,1
DA:2429,1
DA:2433,0
DA:2434,0
DA:2436,0
DA:2437,0
DA:2438,0
DA:2441,0
DA:2442,0
DA:2445,0
DA:2446,0
DA:2447,0
DA:2449,0
DA:2452,0
DA:2454,0
DA:2456,0
DA:2460,1
DA:2461,1
DA:2462,1
DA:2464,1
DA:2466,3
DA:2467,2
DA:2468,2
DA:2469,2
DA:2472,2
DA:2473,2
DA:2476,2
DA:2477,1
DA:2478,1
DA:2480,0
DA:2484,1
DA:2485,1
DA:2486,1
DA:2490,1
DA:2491,1
DA:2492,1
DA:2493,1
DA:2496,1
DA:2497,1
DA:2500,1
DA:2501,1
DA:2502,1
DA:2504,1
DA:2506,0
DA:2508,1
DA:2512,1
DA:2513,1
DA:2514,1
DA:2515,1
DA:2516,1
DA:2517,1
DA:2519,1
DA:2520,1
DA:2521,1
DA:2523,1
DA:2526,1
DA:2527,2
DA:2528,2
DA:2529,2
DA:2530,2
DA:2532,1
DA:2533,1
DA:2534,1
DA:2535,1
DA:2536,1
DA:2537,1
DA:2539,770
DA:2541,770
DA:2542,770
DA:2543,770
DA:2544,770
DA:2545,770
DA:2549,770
DA:2550,770
DA:2551,55
DA:2552,13
DA:2553,29
DA:2554,5
DA:2555,5
DA:2556,1
DA:2557,662
DA:2559,770
DA:2563,662
DA:2564,662
DA:2565,5
DA:2566,3
DA:2567,9
DA:2568,5
DA:2569,9
DA:2570,3
DA:2571,628
DA:2573,662
DA:2577,628
DA:2578,628
DA:2579,9
DA:2580,2
DA:2581,0
DA:2582,617
DA:2584,628
DA:2588,617
DA:2589,617
DA:2590,1
DA:2591,2
DA:2592,1
DA:2593,1
DA:2594,612
DA:2596,617
DA:2598,158
DA:2599,158
DA:2600,2
DA:2601,0
DA:2602,9
DA:2603,2
DA:2604,1
DA:2605,1
DA:2606,8
DA:2607,26
DA:2608,1
DA:2609,68
DA:2610,39
DA:2611,1
DA:2613,158
DA:2616,4
DA:2619,4
DA:2620,4
DA:2621,4
DA:2623,39
DA:2624,35
DA:2625,5
DA:2626,0
DA:2627,0
DA:2628,0
DA:2629,0
DA:2631,5
DA:2632,5
DA:2633,5
DA:2634,5
DA:2637,5
DA:2638,5
DA:2639,5
DA:2640,5
DA:2642,30
DA:2643,0
DA:2644,0
DA:2645,0
DA:2646,0
DA:2647,0
DA:2648,0
DA:2650,30
DA:2651,30
DA:2652,30
DA:2656,4
DA:2657,0
DA:2658,4
DA:2660,4
DA:2661,4
DA:2664,5
DA:2665,5
DA:2666,5
DA:2668,26
DA:2669,26
DA:2670,0
DA:2671,0
DA:2672,26
DA:2673,5
DA:2674,5
DA:2675,5
DA:2676,0
DA:2677,0
DA:2678,21
DA:2679,21
DA:2680,21
DA:2683,0
DA:2684,5
DA:2687,0
DA:2689,0
DA:2690,0
DA:2693,0
DA:2695,0
DA:2697,0
DA:2698,0
DA:2700,0
DA:2701,0
DA:2703,0
DA:2706,0
DA:2707,0
DA:2710,0
DA:2711,0
DA:2712,0
DA:2713,0
DA:2714,0
DA:2715,0
DA:2717,0
DA:2719,0
DA:2720,0
DA:2721,0
DA:2724,0
DA:2726,0
DA:2727,0
DA:2730,0
DA:2731,0
DA:2732,0
DA:2734,0
DA:2736,0
DA:2738,0
DA:2741,0
DA:2742,0
DA:2743,0
DA:2744,0
DA:2745,0
DA:2746,0
DA:2747,0
DA:2748,0
DA:2749,0
BRF:0
BRH:0
LF:1676
LH:856
end_of_record
SF:/home/noah/src/ruchy/src/frontend/parser/functions.rs
FN:444,_RNCNvNtNtNtCskTACvQmcrtm_5ruchy8frontend6parser9functions23extract_groupby_columns0B9_
FN:147,_RNvNtNtNtCskTACvQmcrtm_5ruchy8frontend6parser9functions12parse_lambda
FN:185,_RNvNtNtNtCskTACvQmcrtm_5ruchy8frontend6parser9functions17parse_pipe_lambda
FN:124,_RNvNtNtNtCskTACvQmcrtm_5ruchy8frontend6parser9functions18parse_empty_lambda
FN:229,_RNvNtNtNtCskTACvQmcrtm_5ruchy8frontend6parser9functions19create_simple_param
FN:68,_RNvNtNtNtCskTACvQmcrtm_5ruchy8frontend6parser9functions19parse_lambda_params
FN:207,_RNvNtNtNtCskTACvQmcrtm_5ruchy8frontend6parser9functions19parse_simple_params
FN:173,_RNvNtNtNtCskTACvQmcrtm_5ruchy8frontend6parser9functions22parse_backslash_lambda
FN:249,_RNvNtNtNtCskTACvQmcrtm_5ruchy8frontend6parser9functions10parse_call
FN:12,_RNvNtNtNtCskTACvQmcrtm_5ruchy8frontend6parser9functions14parse_function
FN:282,_RNvNtNtNtCskTACvQmcrtm_5ruchy8frontend6parser9functions17parse_method_call
FN:455,_RNvNtNtNtCskTACvQmcrtm_5ruchy8frontend6parser9functions18create_method_call
FN:468,_RNvNtNtNtCskTACvQmcrtm_5ruchy8frontend6parser9functions19create_field_access
FN:388,_RNvNtNtNtCskTACvQmcrtm_5ruchy8frontend6parser9functions19is_dataframe_method
FN:415,_RNvNtNtNtCskTACvQmcrtm_5ruchy8frontend6parser9functions22extract_select_columns
FN:373,_RNvNtNtNtCskTACvQmcrtm_5ruchy8frontend6parser9functions22parse_method_arguments
FN:442,_RNvNtNtNtCskTACvQmcrtm_5ruchy8frontend6parser9functions23extract_groupby_columns
FN:397,_RNvNtNtNtCskTACvQmcrtm_5ruchy8frontend6parser9functions23handle_dataframe_method
FN:359,_RNvNtNtNtCskTACvQmcrtm_5ruchy8frontend6parser9functions24parse_method_call_access
FN:321,_RNvNtNtNtCskTACvQmcrtm_5ruchy8frontend6parser9functions26parse_optional_method_call
FN:348,_RNvNtNtNtCskTACvQmcrtm_5ruchy8frontend6parser9functions28parse_method_or_field_access
FN:16,_RNvNtNtNtCskTACvQmcrtm_5ruchy8frontend6parser9functions30parse_function_with_visibility
FN:479,_RNvNtNtNtCskTACvQmcrtm_5ruchy8frontend6parser9functions37parse_optional_method_or_field_access
FNDA:0,_RNCNvNtNtNtCskTACvQmcrtm_5ruchy8frontend6parser9functions23extract_groupby_columns0B9_
FNDA:0,_RNvNtNtNtCskTACvQmcrtm_5ruchy8frontend6parser9functions12parse_lambda
FNDA:0,_RNvNtNtNtCskTACvQmcrtm_5ruchy8frontend6parser9functions17parse_pipe_lambda
FNDA:0,_RNvNtNtNtCskTACvQmcrtm_5ruchy8frontend6parser9functions18parse_empty_lambda
FNDA:0,_RNvNtNtNtCskTACvQmcrtm_5ruchy8frontend6parser9functions19create_simple_param
FNDA:0,_RNvNtNtNtCskTACvQmcrtm_5ruchy8frontend6parser9functions19parse_lambda_params
FNDA:0,_RNvNtNtNtCskTACvQmcrtm_5ruchy8frontend6parser9functions19parse_simple_params
FNDA:0,_RNvNtNtNtCskTACvQmcrtm_5ruchy8frontend6parser9functions22parse_backslash_lambda
FNDA:130,_RNvNtNtNtCskTACvQmcrtm_5ruchy8frontend6parser9functions10parse_call
FNDA:43,_RNvNtNtNtCskTACvQmcrtm_5ruchy8frontend6parser9functions14parse_function
FNDA:48,_RNvNtNtNtCskTACvQmcrtm_5ruchy8frontend6parser9functions17parse_method_call
FNDA:44,_RNvNtNtNtCskTACvQmcrtm_5ruchy8frontend6parser9functions18create_method_call
FNDA:2,_RNvNtNtNtCskTACvQmcrtm_5ruchy8frontend6parser9functions19create_field_access
FNDA:44,_RNvNtNtNtCskTACvQmcrtm_5ruchy8frontend6parser9functions19is_dataframe_method
FNDA:0,_RNvNtNtNtCskTACvQmcrtm_5ruchy8frontend6parser9functions22extract_select_columns
FNDA:44,_RNvNtNtNtCskTACvQmcrtm_5ruchy8frontend6parser9functions22parse_method_arguments
FNDA:0,_RNvNtNtNtCskTACvQmcrtm_5ruchy8frontend6parser9functions23extract_groupby_columns
FNDA:0,_RNvNtNtNtCskTACvQmcrtm_5ruchy8frontend6parser9functions23handle_dataframe_method
FNDA:44,_RNvNtNtNtCskTACvQmcrtm_5ruchy8frontend6parser9functions24parse_method_call_access
FNDA:0,_RNvNtNtNtCskTACvQmcrtm_5ruchy8frontend6parser9functions26parse_optional_method_call
FNDA:46,_RNvNtNtNtCskTACvQmcrtm_5ruchy8frontend6parser9functions28parse_method_or_field_access
FNDA:43,_RNvNtNtNtCskTACvQmcrtm_5ruchy8frontend6parser9functions30parse_function_with_visibility
FNDA:0,_RNvNtNtNtCskTACvQmcrtm_5ruchy8frontend6parser9functions37parse_optional_method_or_field_access
FNF:23
FNH:10
DA:12,43
DA:13,43
DA:14,43
DA:16,43
DA:17,43
DA:22,43
DA:25,43
DA:26,42
DA:27,42
DA:28,42
DA:30,1
DA:34,43
DA:35,3
DA:37,40
DA:41,43
DA:44,42
DA:45,9
DA:46,9
DA:48,33
DA:52,42
DA:54,42
DA:55,42
DA:56,42
DA:57,42
DA:58,42
DA:59,42
DA:60,42
DA:61,42
DA:62,42
DA:63,42
DA:64,42
DA:65,42
DA:66,43
DA:68,0
DA:69,0
DA:74,0
DA:75,0
DA:76,0
DA:79,0
DA:80,0
DA:81,0
DA:82,0
DA:84,0
DA:88,0
DA:89,0
DA:90,0
DA:93,0
DA:94,0
DA:95,0
DA:96,0
DA:99,0
DA:100,0
DA:101,0
DA:102,0
DA:103,0
DA:104,0
DA:105,0
DA:108,0
DA:109,0
DA:110,0
DA:111,0
DA:115,0
DA:116,0
DA:124,0
DA:125,0
DA:130,0
DA:132,0
DA:133,0
DA:134,0
DA:135,0
DA:136,0
DA:137,0
DA:138,0
DA:139,0
DA:147,0
DA:148,0
DA:149,0
DA:150,0
DA:151,0
DA:154,0
DA:155,0
DA:157,0
DA:161,0
DA:163,0
DA:164,0
DA:165,0
DA:166,0
DA:167,0
DA:168,0
DA:169,0
DA:170,0
DA:173,0
DA:174,0
DA:176,0
DA:179,0
DA:181,0
DA:182,0
DA:185,0
DA:186,0
DA:189,0
DA:190,0
DA:191,0
DA:192,0
DA:195,0
DA:198,0
DA:199,0
DA:200,0
DA:201,0
DA:203,0
DA:204,0
DA:207,0
DA:208,0
DA:211,0
DA:212,0
DA:213,0
DA:216,0
DA:217,0
DA:218,0
DA:219,0
DA:220,0
DA:221,0
DA:223,0
DA:225,0
DA:226,0
DA:229,0
DA:230,0
DA:231,0
DA:232,0
DA:233,0
DA:234,0
DA:235,0
DA:236,0
DA:237,0
DA:238,0
DA:239,0
DA:240,0
DA:249,130
DA:250,130
DA:252,130
DA:253,157
DA:254,151
DA:256,151
DA:257,27
DA:258,27
DA:259,124
DA:263,130
DA:265,130
DA:266,130
DA:267,130
DA:268,130
DA:269,130
DA:270,130
DA:271,130
DA:272,130
DA:273,130
DA:282,48
DA:284,48
DA:285,1
DA:286,1
DA:287,1
DA:288,1
DA:289,1
DA:290,1
DA:291,1
DA:292,1
DA:293,47
DA:296,47
DA:297,46
DA:298,46
DA:299,46
DA:300,46
DA:302,0
DA:304,0
DA:305,0
DA:306,0
DA:307,0
DA:308,0
DA:309,0
DA:310,0
DA:311,0
DA:312,0
DA:313,0
DA:316,1
DA:319,48
DA:321,0
DA:323,0
DA:324,0
DA:325,0
DA:326,0
DA:327,0
DA:329,0
DA:331,0
DA:332,0
DA:333,0
DA:334,0
DA:335,0
DA:336,0
DA:337,0
DA:338,0
DA:339,0
DA:340,0
DA:343,0
DA:346,0
DA:348,46
DA:350,46
DA:351,44
DA:354,2
DA:356,46
DA:359,44
DA:360,44
DA:361,44
DA:362,44
DA:365,44
DA:366,0
DA:368,44
DA:370,44
DA:373,44
DA:374,44
DA:375,46
DA:376,23
DA:378,23
DA:379,2
DA:380,2
DA:381,21
DA:384,44
DA:385,44
DA:388,44
DA:389,0
DA:390,44
DA:391,44
DA:392,44
DA:394,44
DA:397,0
DA:398,0
DA:399,0
DA:400,0
DA:401,0
DA:404,0
DA:405,0
DA:406,0
DA:407,0
DA:408,0
DA:409,0
DA:410,0
DA:411,0
DA:412,0
DA:415,0
DA:416,0
DA:417,0
DA:418,0
DA:420,0
DA:421,0
DA:422,0
DA:424,0
DA:425,0
DA:426,0
DA:427,0
DA:428,0
DA:432,0
DA:433,0
DA:434,0
DA:435,0
DA:438,0
DA:439,0
DA:442,0
DA:443,0
DA:444,0
DA:445,0
DA:446,0
DA:448,0
DA:450,0
DA:451,0
DA:452,0
DA:455,44
DA:456,44
DA:457,44
DA:458,44
DA:459,44
DA:460,44
DA:461,44
DA:462,44
DA:463,44
DA:464,44
DA:465,44
DA:468,2
DA:469,2
DA:470,2
DA:471,2
DA:472,2
DA:473,2
DA:474,2
DA:475,2
DA:476,2
DA:477,2
DA:479,0
DA:481,0
DA:484,0
DA:486,0
DA:487,0
DA:488,0
DA:490,0
DA:491,0
DA:492,0
DA:493,0
DA:497,0
DA:500,0
DA:501,0
DA:502,0
DA:503,0
DA:504,0
DA:505,0
DA:506,0
DA:507,0
DA:508,0
DA:511,0
DA:512,0
DA:513,0
DA:514,0
DA:515,0
DA:516,0
DA:517,0
DA:518,0
DA:520,0
BRF:0
BRH:0
LF:324
LH:118
end_of_record
SF:/home/noah/src/ruchy/src/frontend/parser/mod.rs
FN:52,_RNvMNtNtCskTACvQmcrtm_5ruchy8frontend6parserNtB2_11ParserState3new
FN:217,_RNvNtNtCskTACvQmcrtm_5ruchy8frontend6parser13is_colon_next
FN:263,_RNvNtNtCskTACvQmcrtm_5ruchy8frontend6parser17create_slice_expr
FN:249,_RNvNtNtCskTACvQmcrtm_5ruchy8frontend6parser18parse_index_access
FN:163,_RNvNtNtCskTACvQmcrtm_5ruchy8frontend6parser19handle_dot_operator
FN:187,_RNvNtNtCskTACvQmcrtm_5ruchy8frontend6parser19handle_try_operator
FN:523,_RNvNtNtCskTACvQmcrtm_5ruchy8frontend6parser19try_range_operators
FN:81,_RNvNtNtCskTACvQmcrtm_5ruchy8frontend6parser20parse_expr_recursive
FN:312,_RNvNtNtCskTACvQmcrtm_5ruchy8frontend6parser20try_binary_operators
FN:553,_RNvNtNtCskTACvQmcrtm_5ruchy8frontend6parser20try_parse_macro_call
FN:300,_RNvNtNtCskTACvQmcrtm_5ruchy8frontend6parser21create_post_decrement
FN:289,_RNvNtNtCskTACvQmcrtm_5ruchy8frontend6parser21create_post_increment
FN:198,_RNvNtNtCskTACvQmcrtm_5ruchy8frontend6parser21handle_array_indexing
FN:231,_RNvNtNtCskTACvQmcrtm_5ruchy8frontend6parser22parse_slice_with_start
FN:478,_RNvNtNtCskTACvQmcrtm_5ruchy8frontend6parser22try_pipeline_operators
FN:341,_RNvNtNtCskTACvQmcrtm_5ruchy8frontend6parser22try_type_cast_operator
FN:222,_RNvNtNtCskTACvQmcrtm_5ruchy8frontend6parser23parse_empty_start_slice
FN:374,_RNvNtNtCskTACvQmcrtm_5ruchy8frontend6parser23try_new_actor_operators
FN:138,_RNvNtNtCskTACvQmcrtm_5ruchy8frontend6parser24handle_postfix_operators
FN:169,_RNvNtNtCskTACvQmcrtm_5ruchy8frontend6parser24handle_safe_nav_operator
FN:240,_RNvNtNtCskTACvQmcrtm_5ruchy8frontend6parser24parse_optional_slice_end
FN:418,_RNvNtNtCskTACvQmcrtm_5ruchy8frontend6parser24try_assignment_operators
FN:277,_RNvNtNtCskTACvQmcrtm_5ruchy8frontend6parser24try_parse_struct_literal
FN:181,_RNvNtNtCskTACvQmcrtm_5ruchy8frontend6parser25handle_decrement_operator
FN:175,_RNvNtNtCskTACvQmcrtm_5ruchy8frontend6parser25handle_increment_operator
FN:147,_RNvNtNtCskTACvQmcrtm_5ruchy8frontend6parser25try_handle_single_postfix
FN:461,_RNvNtNtCskTACvQmcrtm_5ruchy8frontend6parser26get_compound_assignment_op
FN:107,_RNvNtNtCskTACvQmcrtm_5ruchy8frontend6parser26try_handle_infix_operators
FN:85,_RNvNtNtCskTACvQmcrtm_5ruchy8frontend6parser36parse_expr_with_precedence_recursive
FN:63,_RNvMNtNtCskTACvQmcrtm_5ruchy8frontend6parserNtB2_11ParserState10get_errors
FN:69,_RNvMNtNtCskTACvQmcrtm_5ruchy8frontend6parserNtB2_11ParserState11arena_stats
FN:75,_RNvMNtNtCskTACvQmcrtm_5ruchy8frontend6parserNtB2_11ParserState14interner_stats
FNDA:446,_RNvMNtNtCskTACvQmcrtm_5ruchy8frontend6parserNtB2_11ParserState3new
FNDA:6,_RNvNtNtCskTACvQmcrtm_5ruchy8frontend6parser13is_colon_next
FNDA:2,_RNvNtNtCskTACvQmcrtm_5ruchy8frontend6parser17create_slice_expr
FNDA:1,_RNvNtNtCskTACvQmcrtm_5ruchy8frontend6parser18parse_index_access
FNDA:48,_RNvNtNtCskTACvQmcrtm_5ruchy8frontend6parser19handle_dot_operator
FNDA:1,_RNvNtNtCskTACvQmcrtm_5ruchy8frontend6parser19handle_try_operator
FNDA:622,_RNvNtNtCskTACvQmcrtm_5ruchy8frontend6parser19try_range_operators
FNDA:1082,_RNvNtNtCskTACvQmcrtm_5ruchy8frontend6parser20parse_expr_recursive
FNDA:770,_RNvNtNtCskTACvQmcrtm_5ruchy8frontend6parser20try_binary_operators
FNDA:11,_RNvNtNtCskTACvQmcrtm_5ruchy8frontend6parser20try_parse_macro_call
FNDA:0,_RNvNtNtCskTACvQmcrtm_5ruchy8frontend6parser21create_post_decrement
FNDA:0,_RNvNtNtCskTACvQmcrtm_5ruchy8frontend6parser21create_post_increment
FNDA:3,_RNvNtNtCskTACvQmcrtm_5ruchy8frontend6parser21handle_array_indexing
FNDA:2,_RNvNtNtCskTACvQmcrtm_5ruchy8frontend6parser22parse_slice_with_start
FNDA:624,_RNvNtNtCskTACvQmcrtm_5ruchy8frontend6parser22try_pipeline_operators
FNDA:770,_RNvNtNtCskTACvQmcrtm_5ruchy8frontend6parser22try_type_cast_operator
FNDA:0,_RNvNtNtCskTACvQmcrtm_5ruchy8frontend6parser23parse_empty_start_slice
FNDA:772,_RNvNtNtCskTACvQmcrtm_5ruchy8frontend6parser23try_new_actor_operators
FNDA:1358,_RNvNtNtCskTACvQmcrtm_5ruchy8frontend6parser24handle_postfix_operators
FNDA:0,_RNvNtNtCskTACvQmcrtm_5ruchy8frontend6parser24handle_safe_nav_operator
FNDA:2,_RNvNtNtCskTACvQmcrtm_5ruchy8frontend6parser24parse_optional_slice_end
FNDA:624,_RNvNtNtCskTACvQmcrtm_5ruchy8frontend6parser24try_assignment_operators
FNDA:29,_RNvNtNtCskTACvQmcrtm_5ruchy8frontend6parser24try_parse_struct_literal
FNDA:0,_RNvNtNtCskTACvQmcrtm_5ruchy8frontend6parser25handle_decrement_operator
FNDA:0,_RNvNtNtCskTACvQmcrtm_5ruchy8frontend6parser25handle_increment_operator
FNDA:1540,_RNvNtNtCskTACvQmcrtm_5ruchy8frontend6parser25try_handle_single_postfix
FNDA:0,_RNvNtNtCskTACvQmcrtm_5ruchy8frontend6parser26get_compound_assignment_op
FNDA:1357,_RNvNtNtCskTACvQmcrtm_5ruchy8frontend6parser26try_handle_infix_operators
FNDA:1332,_RNvNtNtCskTACvQmcrtm_5ruchy8frontend6parser36parse_expr_with_precedence_recursive
FNDA:0,_RNvMNtNtCskTACvQmcrtm_5ruchy8frontend6parserNtB2_11ParserState10get_errors
FNDA:0,_RNvMNtNtCskTACvQmcrtm_5ruchy8frontend6parserNtB2_11ParserState11arena_stats
FNDA:0,_RNvMNtNtCskTACvQmcrtm_5ruchy8frontend6parserNtB2_11ParserState14interner_stats
FNF:32
FNH:22
DA:52,446
DA:53,446
DA:54,446
DA:55,446
DA:56,446
DA:57,446
DA:58,446
DA:59,446
DA:60,446
DA:63,0
DA:64,0
DA:65,0
DA:69,0
DA:70,0
DA:71,0
DA:75,0
DA:76,0
DA:77,0
DA:81,1082
DA:82,1082
DA:83,1082
DA:85,1332
DA:86,1332
DA:87,1332
DA:88,1332
DA:89,1332
DA:93,1358
DA:96,1357
DA:97,152
DA:98,152
DA:99,1203
DA:103,1203
DA:104,1332
DA:107,1357
DA:108,1357
DA:109,1357
DA:110,1357
DA:111,1357
DA:113,1357
DA:114,585
DA:116,772
DA:119,772
DA:120,772
DA:121,772
DA:122,772
DA:123,772
DA:124,772
DA:125,772
DA:126,772
DA:128,4800
DA:129,4182
DA:130,152
DA:131,4028
DA:134,618
DA:135,1357
DA:138,1358
DA:139,1540
DA:140,182
DA:141,182
DA:142,1357
DA:143,1358
DA:147,1540
DA:148,1540
DA:149,48
DA:150,0
DA:151,130
DA:152,3
DA:153,29
DA:154,0
DA:155,0
DA:156,1
DA:157,11
DA:158,1318
DA:160,1540
DA:163,48
DA:164,48
DA:165,48
DA:166,48
DA:169,0
DA:170,0
DA:171,0
DA:172,0
DA:175,0
DA:176,0
DA:177,0
DA:178,0
DA:181,0
DA:182,0
DA:183,0
DA:184,0
DA:187,1
DA:188,1
DA:189,1
DA:190,1
DA:191,1
DA:192,1
DA:193,1
DA:194,1
DA:195,1
DA:198,3
DA:199,3
DA:202,3
DA:203,0
DA:204,3
DA:206,3
DA:209,3
DA:210,2
DA:212,1
DA:214,3
DA:217,6
DA:218,6
DA:219,6
DA:222,0
DA:223,0
DA:224,0
DA:225,0
DA:227,0
DA:228,0
DA:231,2
DA:232,2
DA:233,2
DA:234,2
DA:236,2
DA:237,2
DA:240,2
DA:241,2
DA:242,2
DA:244,0
DA:246,2
DA:249,1
DA:250,1
DA:252,1
DA:253,1
DA:254,1
DA:255,1
DA:256,1
DA:257,1
DA:258,1
DA:259,1
DA:260,1
DA:263,2
DA:264,2
DA:265,2
DA:266,2
DA:267,2
DA:268,2
DA:269,2
DA:270,2
DA:271,2
DA:272,2
DA:273,2
DA:277,29
DA:278,29
DA:279,7
DA:280,1
DA:281,1
DA:282,1
DA:283,6
DA:284,22
DA:285,28
DA:286,29
DA:289,0
DA:290,0
DA:291,0
DA:292,0
DA:293,0
DA:294,0
DA:295,0
DA:296,0
DA:297,0
DA:300,0
DA:301,0
DA:302,0
DA:303,0
DA:304,0
DA:305,0
DA:306,0
DA:307,0
DA:308,0
DA:312,770
DA:313,770
DA:314,770
DA:315,770
DA:316,770
DA:317,770
DA:318,770
DA:319,158
DA:320,158
DA:321,12
DA:322,146
DA:324,146
DA:325,146
DA:326,144
DA:327,144
DA:328,144
DA:329,144
DA:330,144
DA:331,144
DA:332,144
DA:333,144
DA:334,144
DA:336,612
DA:338,770
DA:341,770
DA:342,770
DA:343,770
DA:344,770
DA:345,770
DA:346,770
DA:347,770
DA:348,770
DA:349,0
DA:351,0
DA:354,0
DA:355,0
DA:356,0
DA:357,0
DA:358,0
DA:360,0
DA:363,0
DA:364,0
DA:365,0
DA:366,0
DA:367,0
DA:368,0
DA:369,0
DA:370,0
DA:371,770
DA:374,772
DA:375,772
DA:376,772
DA:377,772
DA:378,772
DA:379,772
DA:380,772
DA:383,1
DA:384,1
DA:385,0
DA:386,1
DA:387,1
DA:388,1
DA:389,1
DA:390,1
DA:391,1
DA:392,1
DA:396,1
DA:397,1
DA:398,0
DA:399,1
DA:400,1
DA:401,1
DA:402,1
DA:403,1
DA:404,1
DA:405,1
DA:407,770
DA:410,2
DA:411,2
DA:412,2
DA:413,2
DA:414,2
DA:415,772
DA:418,624
DA:419,624
DA:420,624
DA:421,624
DA:422,624
DA:423,624
DA:424,624
DA:425,624
DA:426,0
DA:428,0
DA:429,0
DA:430,0
DA:431,0
DA:433,0
DA:434,0
DA:436,0
DA:437,0
DA:438,0
DA:439,0
DA:440,0
DA:441,0
DA:442,0
DA:443,0
DA:444,0
DA:446,0
DA:447,0
DA:448,0
DA:449,0
DA:450,0
DA:451,0
DA:452,0
DA:453,0
DA:454,0
DA:455,0
DA:457,0
DA:458,624
DA:461,0
DA:462,0
DA:463,0
DA:464,0
DA:465,0
DA:466,0
DA:467,0
DA:468,0
DA:469,0
DA:470,0
DA:471,0
DA:472,0
DA:473,0
DA:475,0
DA:478,624
DA:479,624
DA:480,624
DA:481,624
DA:482,624
DA:483,624
DA:484,624
DA:485,621
DA:486,3
DA:488,3
DA:489,3
DA:490,1
DA:491,2
DA:493,2
DA:494,2
DA:496,2
DA:497,1
DA:498,1
DA:499,1
DA:500,1
DA:501,1
DA:502,1
DA:503,1
DA:504,1
DA:505,1
DA:507,1
DA:508,1
DA:509,1
DA:510,1
DA:511,1
DA:512,1
DA:513,1
DA:514,1
DA:515,1
DA:516,1
DA:517,1
DA:519,2
DA:520,624
DA:523,622
DA:524,622
DA:525,622
DA:526,622
DA:527,622
DA:528,622
DA:529,622
DA:530,618
DA:531,4
DA:533,4
DA:534,4
DA:535,0
DA:536,4
DA:538,4
DA:539,4
DA:540,4
DA:541,4
DA:542,4
DA:543,4
DA:544,4
DA:545,4
DA:546,4
DA:547,4
DA:548,4
DA:549,4
DA:550,622
DA:553,11
DA:554,11
DA:555,5
DA:556,5
DA:557,0
DA:559,0
DA:560,0
DA:561,0
DA:563,0
DA:564,0
DA:565,0
DA:566,0
DA:570,0
DA:572,0
DA:573,0
DA:574,0
DA:575,0
DA:576,0
DA:577,0
DA:578,0
DA:579,5
DA:580,6
DA:581,11
DA:582,11
BRF:0
BRH:0
LF:400
LH:274
end_of_record
SF:/home/noah/src/ruchy/src/frontend/parser/operator_precedence.rs
FN:44,_RNvNtNtNtCskTACvQmcrtm_5ruchy8frontend6parser19operator_precedence17get_operator_info
FN:98,_RNvNtNtNtCskTACvQmcrtm_5ruchy8frontend6parser19operator_precedence19is_postfix_operator
FN:161,_RNvNtNtNtNtCskTACvQmcrtm_5ruchy8frontend6parser19operator_precedence5testss_22test_postfix_operators
FN:169,_RNvNtNtNtNtCskTACvQmcrtm_5ruchy8frontend6parser19operator_precedence5testss_27test_operator_associativity
FN:149,_RNvNtNtNtNtCskTACvQmcrtm_5ruchy8frontend6parser19operator_precedence5testss_33test_operator_precedence_ordering
FN:112,_RNvNtNtNtCskTACvQmcrtm_5ruchy8frontend6parser19operator_precedence18is_prefix_operator
FN:126,_RNvNtNtNtCskTACvQmcrtm_5ruchy8frontend6parser19operator_precedence22get_postfix_precedence
FN:136,_RNvNtNtNtCskTACvQmcrtm_5ruchy8frontend6parser19operator_precedence23should_continue_parsing
FNDA:3,_RNvNtNtNtCskTACvQmcrtm_5ruchy8frontend6parser19operator_precedence17get_operator_info
FNDA:4,_RNvNtNtNtCskTACvQmcrtm_5ruchy8frontend6parser19operator_precedence19is_postfix_operator
FNDA:1,_RNvNtNtNtNtCskTACvQmcrtm_5ruchy8frontend6parser19operator_precedence5testss_22test_postfix_operators
FNDA:1,_RNvNtNtNtNtCskTACvQmcrtm_5ruchy8frontend6parser19operator_precedence5testss_27test_operator_associativity
FNDA:1,_RNvNtNtNtNtCskTACvQmcrtm_5ruchy8frontend6parser19operator_precedence5testss_33test_operator_precedence_ordering
FNDA:0,_RNvNtNtNtCskTACvQmcrtm_5ruchy8frontend6parser19operator_precedence18is_prefix_operator
FNDA:0,_RNvNtNtNtCskTACvQmcrtm_5ruchy8frontend6parser19operator_precedence22get_postfix_precedence
FNDA:0,_RNvNtNtNtCskTACvQmcrtm_5ruchy8frontend6parser19operator_precedence23should_continue_parsing
FNF:8
FNH:5
DA:44,3
DA:47,3
DA:60,1
DA:63,0
DA:66,0
DA:67,0
DA:70,0
DA:74,0
DA:78,0
DA:79,0
DA:80,0
DA:81,0
DA:84,0
DA:87,1
DA:89,0
DA:91,1
DA:93,0
DA:95,3
DA:98,4
DA:99,1
DA:100,4
DA:109,4
DA:112,0
DA:113,0
DA:114,0
DA:123,0
DA:126,0
DA:127,0
DA:128,0
DA:129,0
DA:130,0
DA:131,0
DA:133,0
DA:136,0
DA:137,0
DA:138,0
DA:140,0
DA:142,0
DA:149,1
DA:151,1
DA:152,1
DA:153,1
DA:154,1
DA:155,1
DA:156,1
DA:157,1
DA:158,1
DA:161,1
DA:162,1
DA:163,1
DA:164,1
DA:165,1
DA:166,1
DA:169,1
DA:171,1
DA:172,1
DA:175,1
DA:176,1
DA:179,1
DA:180,1
DA:181,1
BRF:0
BRH:0
LF:61
LH:33
end_of_record
SF:/home/noah/src/ruchy/src/frontend/parser/types.rs
FN:5,_RNvNtNtNtCskTACvQmcrtm_5ruchy8frontend6parser5types20parse_struct_literal
FNDA:1,_RNvNtNtNtCskTACvQmcrtm_5ruchy8frontend6parser5types20parse_struct_literal
FNF:1
FNH:1
DA:5,1
DA:6,1
DA:7,1
DA:8,1
DA:9,1
DA:10,1
DA:12,1
DA:13,2
DA:15,2
DA:16,2
DA:17,2
DA:18,2
DA:20,0
DA:24,2
DA:25,2
DA:27,2
DA:30,2
DA:31,1
DA:32,1
DA:33,1
DA:37,1
DA:39,1
DA:40,1
DA:41,1
DA:42,1
DA:43,1
BRF:0
BRH:0
LF:26
LH:25
end_of_record
SF:/home/noah/src/ruchy/src/frontend/parser/utils.rs
FN:838,_RINvNtNtNtCskTACvQmcrtm_5ruchy8frontend6parser5utils20handle_escaped_bracepEB8_
FN:848,_RINvNtNtNtCskTACvQmcrtm_5ruchy8frontend6parser5utils20handle_interpolationpEB8_
FN:864,_RINvNtNtNtCskTACvQmcrtm_5ruchy8frontend6parser5utils23extract_expression_textpEB8_
FN:1030,_RNvMNtNtNtCskTACvQmcrtm_5ruchy8frontend6parser5utilsNtB2_11ExprContext7default
FN:1191,_RNvNtNtNtCskTACvQmcrtm_5ruchy8frontend6parser5utils12parse_export
FN:540,_RNvNtNtNtCskTACvQmcrtm_5ruchy8frontend6parser5utils12parse_import
FN:1092,_RNvNtNtNtCskTACvQmcrtm_5ruchy8frontend6parser5utils12parse_module
FN:955,_RNvNtNtNtCskTACvQmcrtm_5ruchy8frontend6parser5utils13handle_escape
FN:930,_RNvNtNtNtCskTACvQmcrtm_5ruchy8frontend6parser5utils13should_escape
FN:557,_RNvNtNtNtCskTACvQmcrtm_5ruchy8frontend6parser5utils16parse_url_import
FN:972,_RNvNtNtNtCskTACvQmcrtm_5ruchy8frontend6parser5utils16should_terminate
FN:945,_RNvNtNtNtCskTACvQmcrtm_5ruchy8frontend6parser5utils17handle_open_brace
FN:578,_RNvNtNtNtCskTACvQmcrtm_5ruchy8frontend6parser5utils17parse_module_path
FN:878,_RNvNtNtNtCskTACvQmcrtm_5ruchy8frontend6parser5utils17process_character
FN:965,_RNvNtNtNtCskTACvQmcrtm_5ruchy8frontend6parser5utils17reset_escape_flag
FN:1014,_RNvNtNtNtCskTACvQmcrtm_5ruchy8frontend6parser5utils18finalize_text_part
FN:950,_RNvNtNtNtCskTACvQmcrtm_5ruchy8frontend6parser5utils18handle_close_brace
FN:622,_RNvNtNtNtCskTACvQmcrtm_5ruchy8frontend6parser5utils18parse_import_items
FN:611,_RNvNtNtNtCskTACvQmcrtm_5ruchy8frontend6parser5utils18parse_path_segment
FN:960,_RNvNtNtNtCskTACvQmcrtm_5ruchy8frontend6parser5utils19handle_regular_char
FN:26,_RNvNtNtNtCskTACvQmcrtm_5ruchy8frontend6parser5utils19is_valid_url_scheme
FN:700,_RNvNtNtNtCskTACvQmcrtm_5ruchy8frontend6parser5utils19parse_simple_import
FN:7,_RNvNtNtNtCskTACvQmcrtm_5ruchy8frontend6parser5utils19validate_url_import
FN:17,_RNvNtNtNtCskTACvQmcrtm_5ruchy8frontend6parser5utils19validate_url_scheme
FN:925,_RNvNtNtNtCskTACvQmcrtm_5ruchy8frontend6parser5utils20should_process_brace
FN:940,_RNvNtNtNtCskTACvQmcrtm_5ruchy8frontend6parser5utils21handle_char_delimiter
FN:680,_RNvNtNtNtCskTACvQmcrtm_5ruchy8frontend6parser5utils21handle_item_separator
FN:603,_RNvNtNtNtCskTACvQmcrtm_5ruchy8frontend6parser5utils21is_import_items_start
FN:633,_RNvNtNtNtCskTACvQmcrtm_5ruchy8frontend6parser5utils21parse_wildcard_import
FN:1000,_RNvNtNtNtCskTACvQmcrtm_5ruchy8frontend6parser5utils22split_format_specifier
FN:33,_RNvNtNtNtCskTACvQmcrtm_5ruchy8frontend6parser5utils22validate_url_extension
FN:935,_RNvNtNtNtCskTACvQmcrtm_5ruchy8frontend6parser5utils23handle_string_delimiter
FN:977,_RNvNtNtNtCskTACvQmcrtm_5ruchy8frontend6parser5utils23parse_interpolated_expr
FN:742,_RNvNtNtNtCskTACvQmcrtm_5ruchy8frontend6parser5utils24create_import_expression
FN:639,_RNvNtNtNtCskTACvQmcrtm_5ruchy8frontend6parser5utils24parse_braced_import_list
FN:42,_RNvNtNtNtCskTACvQmcrtm_5ruchy8frontend6parser5utils24validate_url_path_safety
FN:920,_RNvNtNtNtCskTACvQmcrtm_5ruchy8frontend6parser5utils25should_process_char_quote
FN:813,_RNvNtNtNtCskTACvQmcrtm_5ruchy8frontend6parser5utils26parse_string_interpolation
FN:692,_RNvNtNtNtCskTACvQmcrtm_5ruchy8frontend6parser5utils26validate_braced_list_token
FN:915,_RNvNtNtNtCskTACvQmcrtm_5ruchy8frontend6parser5utils27should_process_string_quote
FN:664,_RNvNtNtNtCskTACvQmcrtm_5ruchy8frontend6parser5utils28parse_import_item_with_alias
FN:709,_RNvNtNtNtCskTACvQmcrtm_5ruchy8frontend6parser5utils30parse_simple_import_with_alias
FN:724,_RNvNtNtNtCskTACvQmcrtm_5ruchy8frontend6parser5utils33parse_simple_import_without_alias
FN:51,_RNvNtNtNtCskTACvQmcrtm_5ruchy8frontend6parser5utils35validate_url_no_suspicious_patterns
FN:239,_RNvNtNtNtCskTACvQmcrtm_5ruchy8frontend6parser5utils10parse_type
FN:74,_RNvNtNtNtCskTACvQmcrtm_5ruchy8frontend6parser5utils12parse_params
FN:276,_RNvNtNtNtCskTACvQmcrtm_5ruchy8frontend6parser5utils13parse_fn_type
FN:295,_RNvNtNtNtCskTACvQmcrtm_5ruchy8frontend6parser5utils15parse_list_type
FN:469,_RNvNtNtNtCskTACvQmcrtm_5ruchy8frontend6parser5utils15parse_type_list
FN:759,_RNvNtNtNtCskTACvQmcrtm_5ruchy8frontend6parser5utils16parse_attributes
FN:377,_RNvNtNtNtCskTACvQmcrtm_5ruchy8frontend6parser5utils16parse_named_type
FN:340,_RNvNtNtNtCskTACvQmcrtm_5ruchy8frontend6parser5utils16parse_paren_type
FN:454,_RNvNtNtNtCskTACvQmcrtm_5ruchy8frontend6parser5utils18parse_generic_type
FN:92,_RNvNtNtNtCskTACvQmcrtm_5ruchy8frontend6parser5utils18parse_single_param
FN:118,_RNvNtNtNtCskTACvQmcrtm_5ruchy8frontend6parser5utils19parse_param_pattern
FN:391,_RNvNtNtNtCskTACvQmcrtm_5ruchy8frontend6parser5utils20parse_qualified_name
FN:254,_RNvNtNtNtCskTACvQmcrtm_5ruchy8frontend6parser5utils20parse_reference_type
FN:108,_RNvNtNtNtCskTACvQmcrtm_5ruchy8frontend6parser5utils21check_and_consume_mut
FN:212,_RNvNtNtNtCskTACvQmcrtm_5ruchy8frontend6parser5utils21parse_type_parameters
FN:148,_RNvNtNtNtCskTACvQmcrtm_5ruchy8frontend6parser5utils23parse_reference_pattern
FN:197,_RNvNtNtNtCskTACvQmcrtm_5ruchy8frontend6parser5utils26should_continue_param_list
FN:187,_RNvNtNtNtCskTACvQmcrtm_5ruchy8frontend6parser5utils28parse_optional_default_value
FN:173,_RNvNtNtNtCskTACvQmcrtm_5ruchy8frontend6parser5utils30parse_optional_type_annotation
FNDA:0,_RINvNtNtNtCskTACvQmcrtm_5ruchy8frontend6parser5utils20handle_escaped_bracepEB8_
FNDA:0,_RINvNtNtNtCskTACvQmcrtm_5ruchy8frontend6parser5utils20handle_interpolationpEB8_
FNDA:0,_RINvNtNtNtCskTACvQmcrtm_5ruchy8frontend6parser5utils23extract_expression_textpEB8_
FNDA:0,_RNvMNtNtNtCskTACvQmcrtm_5ruchy8frontend6parser5utilsNtB2_11ExprContext7default
FNDA:0,_RNvNtNtNtCskTACvQmcrtm_5ruchy8frontend6parser5utils12parse_export
FNDA:0,_RNvNtNtNtCskTACvQmcrtm_5ruchy8frontend6parser5utils12parse_import
FNDA:0,_RNvNtNtNtCskTACvQmcrtm_5ruchy8frontend6parser5utils12parse_module
FNDA:0,_RNvNtNtNtCskTACvQmcrtm_5ruchy8frontend6parser5utils13handle_escape
FNDA:0,_RNvNtNtNtCskTACvQmcrtm_5ruchy8frontend6parser5utils13should_escape
FNDA:0,_RNvNtNtNtCskTACvQmcrtm_5ruchy8frontend6parser5utils16parse_url_import
FNDA:0,_RNvNtNtNtCskTACvQmcrtm_5ruchy8frontend6parser5utils16should_terminate
FNDA:0,_RNvNtNtNtCskTACvQmcrtm_5ruchy8frontend6parser5utils17handle_open_brace
FNDA:0,_RNvNtNtNtCskTACvQmcrtm_5ruchy8frontend6parser5utils17parse_module_path
FNDA:0,_RNvNtNtNtCskTACvQmcrtm_5ruchy8frontend6parser5utils17process_character
FNDA:0,_RNvNtNtNtCskTACvQmcrtm_5ruchy8frontend6parser5utils17reset_escape_flag
FNDA:0,_RNvNtNtNtCskTACvQmcrtm_5ruchy8frontend6parser5utils18finalize_text_part
FNDA:0,_RNvNtNtNtCskTACvQmcrtm_5ruchy8frontend6parser5utils18handle_close_brace
FNDA:0,_RNvNtNtNtCskTACvQmcrtm_5ruchy8frontend6parser5utils18parse_import_items
FNDA:0,_RNvNtNtNtCskTACvQmcrtm_5ruchy8frontend6parser5utils18parse_path_segment
FNDA:0,_RNvNtNtNtCskTACvQmcrtm_5ruchy8frontend6parser5utils19handle_regular_char
FNDA:0,_RNvNtNtNtCskTACvQmcrtm_5ruchy8frontend6parser5utils19is_valid_url_scheme
FNDA:0,_RNvNtNtNtCskTACvQmcrtm_5ruchy8frontend6parser5utils19parse_simple_import
FNDA:0,_RNvNtNtNtCskTACvQmcrtm_5ruchy8frontend6parser5utils19validate_url_import
FNDA:0,_RNvNtNtNtCskTACvQmcrtm_5ruchy8frontend6parser5utils19validate_url_scheme
FNDA:0,_RNvNtNtNtCskTACvQmcrtm_5ruchy8frontend6parser5utils20should_process_brace
FNDA:0,_RNvNtNtNtCskTACvQmcrtm_5ruchy8frontend6parser5utils21handle_char_delimiter
FNDA:0,_RNvNtNtNtCskTACvQmcrtm_5ruchy8frontend6parser5utils21handle_item_separator
FNDA:0,_RNvNtNtNtCskTACvQmcrtm_5ruchy8frontend6parser5utils21is_import_items_start
FNDA:0,_RNvNtNtNtCskTACvQmcrtm_5ruchy8frontend6parser5utils21parse_wildcard_import
FNDA:0,_RNvNtNtNtCskTACvQmcrtm_5ruchy8frontend6parser5utils22split_format_specifier
FNDA:0,_RNvNtNtNtCskTACvQmcrtm_5ruchy8frontend6parser5utils22validate_url_extension
FNDA:0,_RNvNtNtNtCskTACvQmcrtm_5ruchy8frontend6parser5utils23handle_string_delimiter
FNDA:0,_RNvNtNtNtCskTACvQmcrtm_5ruchy8frontend6parser5utils23parse_interpolated_expr
FNDA:0,_RNvNtNtNtCskTACvQmcrtm_5ruchy8frontend6parser5utils24create_import_expression
FNDA:0,_RNvNtNtNtCskTACvQmcrtm_5ruchy8frontend6parser5utils24parse_braced_import_list
FNDA:0,_RNvNtNtNtCskTACvQmcrtm_5ruchy8frontend6parser5utils24validate_url_path_safety
FNDA:0,_RNvNtNtNtCskTACvQmcrtm_5ruchy8frontend6parser5utils25should_process_char_quote
FNDA:0,_RNvNtNtNtCskTACvQmcrtm_5ruchy8frontend6parser5utils26parse_string_interpolation
FNDA:0,_RNvNtNtNtCskTACvQmcrtm_5ruchy8frontend6parser5utils26validate_braced_list_token
FNDA:0,_RNvNtNtNtCskTACvQmcrtm_5ruchy8frontend6parser5utils27should_process_string_quote
FNDA:0,_RNvNtNtNtCskTACvQmcrtm_5ruchy8frontend6parser5utils28parse_import_item_with_alias
FNDA:0,_RNvNtNtNtCskTACvQmcrtm_5ruchy8frontend6parser5utils30parse_simple_import_with_alias
FNDA:0,_RNvNtNtNtCskTACvQmcrtm_5ruchy8frontend6parser5utils33parse_simple_import_without_alias
FNDA:0,_RNvNtNtNtCskTACvQmcrtm_5ruchy8frontend6parser5utils35validate_url_no_suspicious_patterns
FNDA:33,_RNvNtNtNtCskTACvQmcrtm_5ruchy8frontend6parser5utils10parse_type
FNDA:43,_RNvNtNtNtCskTACvQmcrtm_5ruchy8frontend6parser5utils12parse_params
FNDA:0,_RNvNtNtNtCskTACvQmcrtm_5ruchy8frontend6parser5utils13parse_fn_type
FNDA:0,_RNvNtNtNtCskTACvQmcrtm_5ruchy8frontend6parser5utils15parse_list_type
FNDA:0,_RNvNtNtNtCskTACvQmcrtm_5ruchy8frontend6parser5utils15parse_type_list
FNDA:402,_RNvNtNtNtCskTACvQmcrtm_5ruchy8frontend6parser5utils16parse_attributes
FNDA:33,_RNvNtNtNtCskTACvQmcrtm_5ruchy8frontend6parser5utils16parse_named_type
FNDA:0,_RNvNtNtNtCskTACvQmcrtm_5ruchy8frontend6parser5utils16parse_paren_type
FNDA:0,_RNvNtNtNtCskTACvQmcrtm_5ruchy8frontend6parser5utils18parse_generic_type
FNDA:49,_RNvNtNtNtCskTACvQmcrtm_5ruchy8frontend6parser5utils18parse_single_param
FNDA:49,_RNvNtNtNtCskTACvQmcrtm_5ruchy8frontend6parser5utils19parse_param_pattern
FNDA:33,_RNvNtNtNtCskTACvQmcrtm_5ruchy8frontend6parser5utils20parse_qualified_name
FNDA:0,_RNvNtNtNtCskTACvQmcrtm_5ruchy8frontend6parser5utils20parse_reference_type
FNDA:49,_RNvNtNtNtCskTACvQmcrtm_5ruchy8frontend6parser5utils21check_and_consume_mut
FNDA:3,_RNvNtNtNtCskTACvQmcrtm_5ruchy8frontend6parser5utils21parse_type_parameters
FNDA:0,_RNvNtNtNtCskTACvQmcrtm_5ruchy8frontend6parser5utils23parse_reference_pattern
FNDA:48,_RNvNtNtNtCskTACvQmcrtm_5ruchy8frontend6parser5utils26should_continue_param_list
FNDA:48,_RNvNtNtNtCskTACvQmcrtm_5ruchy8frontend6parser5utils28parse_optional_default_value
FNDA:48,_RNvNtNtNtCskTACvQmcrtm_5ruchy8frontend6parser5utils30parse_optional_type_annotation
FNF:63
FNH:12
DA:7,0
DA:8,0
DA:9,0
DA:10,0
DA:11,0
DA:12,0
DA:13,0
DA:17,0
DA:18,0
DA:19,0
DA:21,0
DA:23,0
DA:26,0
DA:27,0
DA:28,0
DA:29,0
DA:30,0
DA:33,0
DA:34,0
DA:35,0
DA:37,0
DA:39,0
DA:42,0
DA:43,0
DA:44,0
DA:46,0
DA:48,0
DA:51,0
DA:54,0
DA:55,0
DA:56,0
DA:57,0
DA:59,0
DA:60,0
DA:74,43
DA:75,43
DA:77,43
DA:78,56
DA:79,49
DA:80,48
DA:82,48
DA:83,35
DA:84,13
DA:87,42
DA:88,42
DA:89,43
DA:92,49
DA:93,49
DA:94,49
DA:95,48
DA:96,48
DA:98,48
DA:99,48
DA:100,48
DA:101,48
DA:102,48
DA:103,48
DA:104,48
DA:105,49
DA:108,49
DA:109,49
DA:110,0
DA:111,0
DA:113,49
DA:115,49
DA:118,49
DA:119,49
DA:120,0
DA:121,48
DA:122,48
DA:123,48
DA:124,48
DA:128,0
DA:129,0
DA:133,0
DA:137,0
DA:141,0
DA:143,1
DA:145,49
DA:148,0
DA:149,0
DA:151,0
DA:152,0
DA:153,0
DA:154,0
DA:156,0
DA:157,0
DA:158,0
DA:159,0
DA:160,0
DA:162,0
DA:166,0
DA:167,0
DA:170,0
DA:173,48
DA:174,48
DA:175,14
DA:176,14
DA:179,34
DA:180,34
DA:181,34
DA:182,34
DA:184,48
DA:187,48
DA:188,48
DA:189,0
DA:190,0
DA:192,48
DA:194,48
DA:197,48
DA:198,48
DA:199,13
DA:200,13
DA:202,35
DA:204,48
DA:212,3
DA:213,3
DA:215,3
DA:218,3
DA:219,3
DA:220,3
DA:221,3
DA:224,3
DA:225,0
DA:226,0
DA:227,0
DA:228,0
DA:229,0
DA:232,3
DA:233,3
DA:234,3
DA:239,33
DA:240,33
DA:242,33
DA:243,0
DA:244,0
DA:245,0
DA:246,0
DA:248,33
DA:249,0
DA:251,33
DA:254,0
DA:255,0
DA:257,0
DA:258,0
DA:259,0
DA:261,0
DA:264,0
DA:266,0
DA:267,0
DA:268,0
DA:269,0
DA:270,0
DA:271,0
DA:272,0
DA:273,0
DA:276,0
DA:277,0
DA:278,0
DA:280,0
DA:281,0
DA:282,0
DA:283,0
DA:285,0
DA:286,0
DA:287,0
DA:288,0
DA:289,0
DA:290,0
DA:291,0
DA:292,0
DA:295,0
DA:296,0
DA:297,0
DA:300,0
DA:301,0
DA:304,0
DA:305,0
DA:306,0
DA:307,0
DA:308,0
DA:311,0
DA:312,0
DA:314,0
DA:315,0
DA:317,0
DA:320,0
DA:323,0
DA:325,0
DA:326,0
DA:327,0
DA:328,0
DA:330,0
DA:332,0
DA:333,0
DA:334,0
DA:335,0
DA:337,0
DA:340,0
DA:341,0
DA:343,0
DA:345,0
DA:346,0
DA:347,0
DA:348,0
DA:349,0
DA:351,0
DA:352,0
DA:354,0
DA:356,0
DA:357,0
DA:359,0
DA:360,0
DA:361,0
DA:362,0
DA:363,0
DA:364,0
DA:365,0
DA:368,0
DA:369,0
DA:370,0
DA:371,0
DA:374,0
DA:377,33
DA:378,33
DA:380,33
DA:381,0
DA:383,33
DA:384,33
DA:385,33
DA:386,33
DA:388,33
DA:391,33
DA:392,33
DA:393,33
DA:394,33
DA:395,33
DA:396,33
DA:400,0
DA:401,0
DA:404,0
DA:405,0
DA:408,0
DA:409,0
DA:412,0
DA:413,0
DA:416,0
DA:417,0
DA:420,0
DA:421,0
DA:424,0
DA:425,0
DA:427,0
DA:430,33
DA:431,0
DA:433,0
DA:434,0
DA:436,0
DA:437,0
DA:438,0
DA:439,0
DA:440,0
DA:441,0
DA:442,0
DA:445,0
DA:446,0
DA:447,0
DA:450,33
DA:451,33
DA:454,0
DA:455,0
DA:456,0
DA:457,0
DA:459,0
DA:460,0
DA:461,0
DA:462,0
DA:463,0
DA:464,0
DA:465,0
DA:466,0
DA:469,0
DA:470,0
DA:472,0
DA:473,0
DA:475,0
DA:476,0
DA:477,0
DA:479,0
DA:481,0
DA:482,0
DA:540,0
DA:541,0
DA:544,0
DA:545,0
DA:546,0
DA:547,0
DA:550,0
DA:551,0
DA:553,0
DA:554,0
DA:557,0
DA:559,0
DA:560,0
DA:561,0
DA:564,0
DA:566,0
DA:568,0
DA:569,0
DA:570,0
DA:571,0
DA:572,0
DA:573,0
DA:574,0
DA:575,0
DA:578,0
DA:579,0
DA:582,0
DA:583,0
DA:584,0
DA:587,0
DA:588,0
DA:591,0
DA:592,0
DA:593,0
DA:595,0
DA:597,0
DA:599,0
DA:600,0
DA:603,0
DA:604,0
DA:605,0
DA:608,0
DA:611,0
DA:612,0
DA:613,0
DA:614,0
DA:615,0
DA:617,0
DA:619,0
DA:622,0
DA:623,0
DA:624,0
DA:625,0
DA:626,0
DA:628,0
DA:630,0
DA:633,0
DA:634,0
DA:635,0
DA:636,0
DA:639,0
DA:640,0
DA:642,0
DA:643,0
DA:644,0
DA:645,0
DA:646,0
DA:648,0
DA:649,0
DA:651,0
DA:652,0
DA:653,0
DA:655,0
DA:659,0
DA:660,0
DA:661,0
DA:664,0
DA:665,0
DA:666,0
DA:667,0
DA:668,0
DA:669,0
DA:670,0
DA:672,0
DA:675,0
DA:677,0
DA:680,0
DA:681,0
DA:682,0
DA:683,0
DA:684,0
DA:685,0
DA:687,0
DA:689,0
DA:692,0
DA:693,0
DA:694,0
DA:695,0
DA:696,0
DA:697,0
DA:700,0
DA:701,0
DA:702,0
DA:704,0
DA:706,0
DA:709,0
DA:710,0
DA:711,0
DA:712,0
DA:713,0
DA:714,0
DA:715,0
DA:716,0
DA:717,0
DA:719,0
DA:721,0
DA:724,0
DA:725,0
DA:726,0
DA:727,0
DA:729,0
DA:732,0
DA:733,0
DA:734,0
DA:735,0
DA:736,0
DA:737,0
DA:739,0
DA:742,0
DA:743,0
DA:746,0
DA:747,0
DA:748,0
DA:750,0
DA:751,0
DA:759,402
DA:760,402
DA:762,402
DA:763,0
DA:765,0
DA:766,0
DA:767,0
DA:768,0
DA:770,0
DA:771,0
DA:772,0
DA:773,0
DA:775,0
DA:778,0
DA:779,0
DA:780,0
DA:782,0
DA:783,0
DA:784,0
DA:785,0
DA:787,0
DA:788,0
DA:789,0
DA:790,0
DA:793,0
DA:797,0
DA:798,0
DA:800,0
DA:802,0
DA:803,0
DA:804,0
DA:805,0
DA:806,0
DA:809,402
DA:810,402
DA:813,0
DA:814,0
DA:815,0
DA:816,0
DA:818,0
DA:819,0
DA:820,0
DA:821,0
DA:822,0
DA:823,0
DA:824,0
DA:825,0
DA:826,0
DA:827,0
DA:828,0
DA:829,0
DA:833,0
DA:834,0
DA:835,0
DA:838,0
DA:839,0
DA:840,0
DA:841,0
DA:842,0
DA:843,0
DA:844,0
DA:845,0
DA:848,0
DA:849,0
DA:850,0
DA:851,0
DA:852,0
DA:853,0
DA:854,0
DA:855,0
DA:856,0
DA:858,0
DA:859,0
DA:860,0
DA:861,0
DA:864,0
DA:865,0
DA:866,0
DA:868,0
DA:869,0
DA:870,0
DA:871,0
DA:874,0
DA:875,0
DA:878,0
DA:879,0
DA:880,0
DA:881,0
DA:882,0
DA:883,0
DA:884,0
DA:885,0
DA:886,0
DA:887,0
DA:888,0
DA:889,0
DA:890,0
DA:891,0
DA:892,0
DA:893,0
DA:894,0
DA:895,0
DA:896,0
DA:897,0
DA:899,0
DA:900,0
DA:901,0
DA:902,0
DA:903,0
DA:904,0
DA:905,0
DA:906,0
DA:910,0
DA:911,0
DA:912,0
DA:915,0
DA:916,0
DA:917,0
DA:920,0
DA:921,0
DA:922,0
DA:925,0
DA:926,0
DA:927,0
DA:930,0
DA:931,0
DA:932,0
DA:935,0
DA:936,0
DA:937,0
DA:940,0
DA:941,0
DA:942,0
DA:945,0
DA:946,0
DA:947,0
DA:950,0
DA:951,0
DA:952,0
DA:955,0
DA:956,0
DA:957,0
DA:960,0
DA:961,0
DA:962,0
DA:965,0
DA:966,0
DA:967,0
DA:968,0
DA:969,0
DA:972,0
DA:973,0
DA:974,0
DA:977,0
DA:978,0
DA:980,0
DA:981,0
DA:982,0
DA:983,0
DA:984,0
DA:985,0
DA:986,0
DA:987,0
DA:989,0
DA:994,0
DA:997,0
DA:1000,0
DA:1001,0
DA:1002,0
DA:1003,0
DA:1004,0
DA:1006,0
DA:1009,0
DA:1011,0
DA:1014,0
DA:1015,0
DA:1016,0
DA:1017,0
DA:1018,0
DA:1030,0
DA:1031,0
DA:1032,0
DA:1033,0
DA:1034,0
DA:1035,0
DA:1036,0
DA:1037,0
DA:1092,0
DA:1093,0
DA:1096,0
DA:1097,0
DA:1098,0
DA:1099,0
DA:1101,0
DA:1105,0
DA:1108,0
DA:1110,0
DA:1111,0
DA:1112,0
DA:1116,0
DA:1117,0
DA:1118,0
DA:1120,0
DA:1121,0
DA:1123,0
DA:1124,0
DA:1125,0
DA:1128,0
DA:1129,0
DA:1131,0
DA:1136,0
DA:1138,0
DA:1139,0
DA:1191,0
DA:1192,0
DA:1194,0
DA:1197,0
DA:1199,0
DA:1201,0
DA:1202,0
DA:1203,0
DA:1204,0
DA:1206,0
DA:1207,0
DA:1208,0
DA:1209,0
DA:1212,0
DA:1216,0
DA:1217,0
DA:1218,0
DA:1219,0
DA:1220,0
DA:1221,0
DA:1222,0
DA:1225,0
DA:1226,0
BRF:0
BRH:0
LF:662
LH:94
end_of_record
SF:/home/noah/src/ruchy/src/lib.rs
FN:165,_RNCNvNtCskTACvQmcrtm_5ruchy11test_config4init0B5_
FN:164,_RNvNtCskTACvQmcrtm_5ruchy11test_config4init
FN:134,_RNCNvCskTACvQmcrtm_5ruchy15get_parse_error0B3_
FN:132,_RNvCskTACvQmcrtm_5ruchy15get_parse_error
FN:125,_RNvCskTACvQmcrtm_5ruchy15is_valid_syntax
FN:114,_RNvCskTACvQmcrtm_5ruchy7compile
FN:825,_RNvNtCskTACvQmcrtm_5ruchy5testss_12test_imports
FN:839,_RNvNtCskTACvQmcrtm_5ruchy5testss_13test_generics
FN:647,_RNvNtCskTACvQmcrtm_5ruchy5testss_13test_patterns
FN:209,_RNvNtCskTACvQmcrtm_5ruchy5testss_15test_compile_if
FN:833,_RNvNtCskTACvQmcrtm_5ruchy5testss_15test_decorators
FN:846,_RNvNtCskTACvQmcrtm_5ruchy5testss_15test_edge_cases
FN:194,_RNvNtCskTACvQmcrtm_5ruchy5testss_16test_compile_let
FN:314,_RNvNtCskTACvQmcrtm_5ruchy5testss_17test_compile_bool
FN:286,_RNvNtCskTACvQmcrtm_5ruchy5testss_17test_compile_call
FN:241,_RNvNtCskTACvQmcrtm_5ruchy5testss_17test_compile_impl
FN:222,_RNvNtCskTACvQmcrtm_5ruchy5testss_17test_compile_list
FN:321,_RNvNtCskTACvQmcrtm_5ruchy5testss_17test_compile_unit
FN:721,_RNvNtCskTACvQmcrtm_5ruchy5testss_17test_control_flow
FN:618,_RNvNtCskTACvQmcrtm_5ruchy5testss_17test_method_calls
FN:677,_RNvNtCskTACvQmcrtm_5ruchy5testss_18test_all_operators
FN:570,_RNvNtCskTACvQmcrtm_5ruchy5testss_18test_compile_actor
FN:301,_RNvNtCskTACvQmcrtm_5ruchy5testss_18test_compile_block
FN:351,_RNvNtCskTACvQmcrtm_5ruchy5testss_18test_compile_float
FN:216,_RNvNtCskTACvQmcrtm_5ruchy5testss_18test_compile_match
FN:408,_RNvNtCskTACvQmcrtm_5ruchy5testss_18test_compile_or_op
FN:538,_RNvNtCskTACvQmcrtm_5ruchy5testss_18test_compile_range
FN:248,_RNvNtCskTACvQmcrtm_5ruchy5testss_18test_compile_trait
FN:798,_RNvNtCskTACvQmcrtm_5ruchy5testss_18test_destructuring
FN:423,_RNvNtCskTACvQmcrtm_5ruchy5testss_19test_compile_errors
FN:526,_RNvNtCskTACvQmcrtm_5ruchy5testss_19test_compile_import
FN:228,_RNvNtCskTACvQmcrtm_5ruchy5testss_19test_compile_lambda
FN:375,_RNvNtCskTACvQmcrtm_5ruchy5testss_19test_compile_modulo
FN:187,_RNvNtCskTACvQmcrtm_5ruchy5testss_19test_compile_simple
FN:308,_RNvNtCskTACvQmcrtm_5ruchy5testss_19test_compile_string
FN:234,_RNvNtCskTACvQmcrtm_5ruchy5testss_19test_compile_struct
FN:789,_RNvNtCskTACvQmcrtm_5ruchy5testss_19test_comprehensions
FN:807,_RNvNtCskTACvQmcrtm_5ruchy5testss_19test_error_handling
FN:817,_RNvNtCskTACvQmcrtm_5ruchy5testss_20test_classes_structs
FN:740,_RNvNtCskTACvQmcrtm_5ruchy5testss_20test_data_structures
FN:254,_RNvNtCskTACvQmcrtm_5ruchy5testss_21test_compile_for_loop
FN:201,_RNvNtCskTACvQmcrtm_5ruchy5testss_21test_compile_function
FN:544,_RNvNtCskTACvQmcrtm_5ruchy5testss_21test_compile_pipeline
FN:369,_RNvNtCskTACvQmcrtm_5ruchy5testss_21test_compile_power_op
FN:862,_RNvNtCskTACvQmcrtm_5ruchy5testss_21test_complex_programs
FN:591,_RNvNtCskTACvQmcrtm_5ruchy5testss_21test_type_conversions
FN:357,_RNvNtCskTACvQmcrtm_5ruchy5testss_22test_compile_large_int
FN:333,_RNvNtCskTACvQmcrtm_5ruchy5testss_22test_compile_nested_if
FN:395,_RNvNtCskTACvQmcrtm_5ruchy5testss_22test_compile_not_equal
FN:277,_RNvNtCskTACvQmcrtm_5ruchy5testss_22test_compile_unary_ops
FN:763,_RNvNtCskTACvQmcrtm_5ruchy5testss_22test_functions_lambdas
FN:260,_RNvNtCskTACvQmcrtm_5ruchy5testss_23test_compile_binary_ops
FN:339,_RNvNtCskTACvQmcrtm_5ruchy5testss_23test_compile_empty_list
FN:389,_RNvNtCskTACvQmcrtm_5ruchy5testss_23test_compile_left_shift
FN:327,_RNvNtCskTACvQmcrtm_5ruchy5testss_23test_compile_nested_let
FN:532,_RNvNtCskTACvQmcrtm_5ruchy5testss_23test_compile_while_loop
FN:381,_RNvNtCskTACvQmcrtm_5ruchy5testss_24test_compile_bitwise_ops
FN:345,_RNvNtCskTACvQmcrtm_5ruchy5testss_24test_compile_empty_block
FN:401,_RNvNtCskTACvQmcrtm_5ruchy5testss_24test_compile_greater_ops
FN:294,_RNvNtCskTACvQmcrtm_5ruchy5testss_24test_compile_method_call
FN:781,_RNvNtCskTACvQmcrtm_5ruchy5testss_25test_string_interpolation
FN:557,_RNvNtCskTACvQmcrtm_5ruchy5testss_26test_compile_ask_operation
FN:363,_RNvNtCskTACvQmcrtm_5ruchy5testss_26test_compile_string_escape
FN:269,_RNvNtCskTACvQmcrtm_5ruchy5testss_27test_compile_comparison_ops
FN:488,_RNvNtCskTACvQmcrtm_5ruchy5testss_27test_compile_generic_struct
FN:550,_RNvNtCskTACvQmcrtm_5ruchy5testss_27test_compile_send_operation
FN:507,_RNvNtCskTACvQmcrtm_5ruchy5testss_27test_compile_struct_literal
FN:520,_RNvNtCskTACvQmcrtm_5ruchy5testss_29test_compile_await_expression
FN:481,_RNvNtCskTACvQmcrtm_5ruchy5testss_29test_compile_generic_function
FN:501,_RNvNtCskTACvQmcrtm_5ruchy5testss_29test_compile_pattern_matching
FN:469,_RNvNtCskTACvQmcrtm_5ruchy5testss_29test_get_parse_error_detailed
FN:414,_RNvNtCskTACvQmcrtm_5ruchy5testss_31test_compile_complex_expression
FN:564,_RNvNtCskTACvQmcrtm_5ruchy5testss_31test_compile_list_comprehension
FN:495,_RNvNtCskTACvQmcrtm_5ruchy5testss_32test_compile_multiple_statements
FN:455,_RNvNtCskTACvQmcrtm_5ruchy5testss_32test_get_parse_error_with_errors
FN:432,_RNvNtCskTACvQmcrtm_5ruchy5testss_32test_is_valid_syntax_valid_cases
FN:444,_RNvNtCskTACvQmcrtm_5ruchy5testss_34test_is_valid_syntax_invalid_cases
FN:463,_RNvNtCskTACvQmcrtm_5ruchy5testss_35test_get_parse_error_without_errors
FN:152,_RNvCskTACvQmcrtm_5ruchy8run_repl
FNDA:1,_RNCNvNtCskTACvQmcrtm_5ruchy11test_config4init0B5_
FNDA:1,_RNvNtCskTACvQmcrtm_5ruchy11test_config4init
FNDA:4,_RNCNvCskTACvQmcrtm_5ruchy15get_parse_error0B3_
FNDA:5,_RNvCskTACvQmcrtm_5ruchy15get_parse_error
FNDA:18,_RNvCskTACvQmcrtm_5ruchy15is_valid_syntax
FNDA:101,_RNvCskTACvQmcrtm_5ruchy7compile
FNDA:0,_RNvNtCskTACvQmcrtm_5ruchy5testss_12test_imports
FNDA:1,_RNvNtCskTACvQmcrtm_5ruchy5testss_13test_generics
FNDA:0,_RNvNtCskTACvQmcrtm_5ruchy5testss_13test_patterns
FNDA:1,_RNvNtCskTACvQmcrtm_5ruchy5testss_15test_compile_if
FNDA:1,_RNvNtCskTACvQmcrtm_5ruchy5testss_15test_decorators
FNDA:1,_RNvNtCskTACvQmcrtm_5ruchy5testss_15test_edge_cases
FNDA:1,_RNvNtCskTACvQmcrtm_5ruchy5testss_16test_compile_let
FNDA:1,_RNvNtCskTACvQmcrtm_5ruchy5testss_17test_compile_bool
FNDA:1,_RNvNtCskTACvQmcrtm_5ruchy5testss_17test_compile_call
FNDA:1,_RNvNtCskTACvQmcrtm_5ruchy5testss_17test_compile_impl
FNDA:1,_RNvNtCskTACvQmcrtm_5ruchy5testss_17test_compile_list
FNDA:1,_RNvNtCskTACvQmcrtm_5ruchy5testss_17test_compile_unit
FNDA:0,_RNvNtCskTACvQmcrtm_5ruchy5testss_17test_control_flow
FNDA:1,_RNvNtCskTACvQmcrtm_5ruchy5testss_17test_method_calls
FNDA:0,_RNvNtCskTACvQmcrtm_5ruchy5testss_18test_all_operators
FNDA:1,_RNvNtCskTACvQmcrtm_5ruchy5testss_18test_compile_actor
FNDA:1,_RNvNtCskTACvQmcrtm_5ruchy5testss_18test_compile_block
FNDA:1,_RNvNtCskTACvQmcrtm_5ruchy5testss_18test_compile_float
FNDA:1,_RNvNtCskTACvQmcrtm_5ruchy5testss_18test_compile_match
FNDA:1,_RNvNtCskTACvQmcrtm_5ruchy5testss_18test_compile_or_op
FNDA:1,_RNvNtCskTACvQmcrtm_5ruchy5testss_18test_compile_range
FNDA:1,_RNvNtCskTACvQmcrtm_5ruchy5testss_18test_compile_trait
FNDA:0,_RNvNtCskTACvQmcrtm_5ruchy5testss_18test_destructuring
FNDA:1,_RNvNtCskTACvQmcrtm_5ruchy5testss_19test_compile_errors
FNDA:1,_RNvNtCskTACvQmcrtm_5ruchy5testss_19test_compile_import
FNDA:1,_RNvNtCskTACvQmcrtm_5ruchy5testss_19test_compile_lambda
FNDA:1,_RNvNtCskTACvQmcrtm_5ruchy5testss_19test_compile_modulo
FNDA:1,_RNvNtCskTACvQmcrtm_5ruchy5testss_19test_compile_simple
FNDA:1,_RNvNtCskTACvQmcrtm_5ruchy5testss_19test_compile_string
FNDA:1,_RNvNtCskTACvQmcrtm_5ruchy5testss_19test_compile_struct
FNDA:0,_RNvNtCskTACvQmcrtm_5ruchy5testss_19test_comprehensions
FNDA:0,_RNvNtCskTACvQmcrtm_5ruchy5testss_19test_error_handling
FNDA:0,_RNvNtCskTACvQmcrtm_5ruchy5testss_20test_classes_structs
FNDA:0,_RNvNtCskTACvQmcrtm_5ruchy5testss_20test_data_structures
FNDA:1,_RNvNtCskTACvQmcrtm_5ruchy5testss_21test_compile_for_loop
FNDA:1,_RNvNtCskTACvQmcrtm_5ruchy5testss_21test_compile_function
FNDA:1,_RNvNtCskTACvQmcrtm_5ruchy5testss_21test_compile_pipeline
FNDA:1,_RNvNtCskTACvQmcrtm_5ruchy5testss_21test_compile_power_op
FNDA:1,_RNvNtCskTACvQmcrtm_5ruchy5testss_21test_complex_programs
FNDA:1,_RNvNtCskTACvQmcrtm_5ruchy5testss_21test_type_conversions
FNDA:1,_RNvNtCskTACvQmcrtm_5ruchy5testss_22test_compile_large_int
FNDA:1,_RNvNtCskTACvQmcrtm_5ruchy5testss_22test_compile_nested_if
FNDA:1,_RNvNtCskTACvQmcrtm_5ruchy5testss_22test_compile_not_equal
FNDA:1,_RNvNtCskTACvQmcrtm_5ruchy5testss_22test_compile_unary_ops
FNDA:0,_RNvNtCskTACvQmcrtm_5ruchy5testss_22test_functions_lambdas
FNDA:1,_RNvNtCskTACvQmcrtm_5ruchy5testss_23test_compile_binary_ops
FNDA:1,_RNvNtCskTACvQmcrtm_5ruchy5testss_23test_compile_empty_list
FNDA:1,_RNvNtCskTACvQmcrtm_5ruchy5testss_23test_compile_left_shift
FNDA:1,_RNvNtCskTACvQmcrtm_5ruchy5testss_23test_compile_nested_let
FNDA:1,_RNvNtCskTACvQmcrtm_5ruchy5testss_23test_compile_while_loop
FNDA:1,_RNvNtCskTACvQmcrtm_5ruchy5testss_24test_compile_bitwise_ops
FNDA:1,_RNvNtCskTACvQmcrtm_5ruchy5testss_24test_compile_empty_block
FNDA:1,_RNvNtCskTACvQmcrtm_5ruchy5testss_24test_compile_greater_ops
FNDA:1,_RNvNtCskTACvQmcrtm_5ruchy5testss_24test_compile_method_call
FNDA:1,_RNvNtCskTACvQmcrtm_5ruchy5testss_25test_string_interpolation
FNDA:1,_RNvNtCskTACvQmcrtm_5ruchy5testss_26test_compile_ask_operation
FNDA:1,_RNvNtCskTACvQmcrtm_5ruchy5testss_26test_compile_string_escape
FNDA:1,_RNvNtCskTACvQmcrtm_5ruchy5testss_27test_compile_comparison_ops
FNDA:1,_RNvNtCskTACvQmcrtm_5ruchy5testss_27test_compile_generic_struct
FNDA:1,_RNvNtCskTACvQmcrtm_5ruchy5testss_27test_compile_send_operation
FNDA:1,_RNvNtCskTACvQmcrtm_5ruchy5testss_27test_compile_struct_literal
FNDA:1,_RNvNtCskTACvQmcrtm_5ruchy5testss_29test_compile_await_expression
FNDA:1,_RNvNtCskTACvQmcrtm_5ruchy5testss_29test_compile_generic_function
FNDA:1,_RNvNtCskTACvQmcrtm_5ruchy5testss_29test_compile_pattern_matching
FNDA:1,_RNvNtCskTACvQmcrtm_5ruchy5testss_29test_get_parse_error_detailed
FNDA:1,_RNvNtCskTACvQmcrtm_5ruchy5testss_31test_compile_complex_expression
FNDA:1,_RNvNtCskTACvQmcrtm_5ruchy5testss_31test_compile_list_comprehension
FNDA:1,_RNvNtCskTACvQmcrtm_5ruchy5testss_32test_compile_multiple_statements
FNDA:1,_RNvNtCskTACvQmcrtm_5ruchy5testss_32test_get_parse_error_with_errors
FNDA:1,_RNvNtCskTACvQmcrtm_5ruchy5testss_32test_is_valid_syntax_valid_cases
FNDA:1,_RNvNtCskTACvQmcrtm_5ruchy5testss_34test_is_valid_syntax_invalid_cases
FNDA:1,_RNvNtCskTACvQmcrtm_5ruchy5testss_35test_get_parse_error_without_errors
FNDA:0,_RNvCskTACvQmcrtm_5ruchy8run_repl
FNF:79
FNH:68
DA:114,101
DA:115,101
DA:116,101
DA:117,96
DA:119,96
DA:120,96
DA:121,101
DA:125,18
DA:126,18
DA:127,18
DA:128,18
DA:132,5
DA:133,5
DA:134,5
DA:135,5
DA:152,0
DA:153,0
DA:154,0
DA:155,0
DA:164,1
DA:165,1
DA:167,1
DA:168,1
DA:169,1
DA:170,1
DA:172,1
DA:173,0
DA:174,1
DA:175,1
DA:176,1
DA:187,1
DA:188,1
DA:189,1
DA:190,1
DA:191,1
DA:194,1
DA:195,1
DA:196,1
DA:197,1
DA:198,1
DA:201,1
DA:202,1
DA:203,1
DA:204,1
DA:205,1
DA:206,1
DA:209,1
DA:210,1
DA:211,1
DA:212,1
DA:213,1
DA:216,1
DA:217,1
DA:218,1
DA:219,1
DA:222,1
DA:223,1
DA:224,1
DA:225,1
DA:228,1
DA:229,1
DA:230,1
DA:231,1
DA:234,1
DA:235,1
DA:236,1
DA:237,1
DA:238,1
DA:241,1
DA:242,1
DA:243,1
DA:244,1
DA:245,1
DA:248,1
DA:249,1
DA:250,1
DA:251,1
DA:254,1
DA:255,1
DA:256,1
DA:257,1
DA:260,1
DA:261,1
DA:262,1
DA:263,1
DA:264,1
DA:265,1
DA:266,1
DA:269,1
DA:270,1
DA:271,1
DA:272,1
DA:273,1
DA:274,1
DA:277,1
DA:278,1
DA:279,1
DA:281,1
DA:282,1
DA:283,1
DA:286,1
DA:287,1
DA:288,1
DA:289,1
DA:290,1
DA:291,1
DA:294,1
DA:295,1
DA:296,1
DA:297,1
DA:298,1
DA:301,1
DA:302,1
DA:303,1
DA:304,1
DA:305,1
DA:308,1
DA:309,1
DA:310,1
DA:311,1
DA:314,1
DA:315,1
DA:316,1
DA:317,1
DA:318,1
DA:321,1
DA:322,1
DA:323,1
DA:324,1
DA:327,1
DA:328,1
DA:329,1
DA:330,1
DA:333,1
DA:334,1
DA:335,1
DA:336,1
DA:339,1
DA:340,1
DA:341,1
DA:342,1
DA:345,1
DA:346,1
DA:347,1
DA:348,1
DA:351,1
DA:352,1
DA:353,1
DA:354,1
DA:357,1
DA:358,1
DA:359,1
DA:360,1
DA:363,1
DA:364,1
DA:365,1
DA:366,1
DA:369,1
DA:370,1
DA:371,1
DA:372,1
DA:375,1
DA:376,1
DA:377,1
DA:378,1
DA:381,1
DA:382,1
DA:383,1
DA:384,1
DA:385,1
DA:386,1
DA:389,1
DA:390,1
DA:391,1
DA:392,1
DA:395,1
DA:396,1
DA:397,1
DA:398,1
DA:401,1
DA:402,1
DA:403,1
DA:404,1
DA:405,1
DA:408,1
DA:409,1
DA:410,1
DA:411,1
DA:414,1
DA:415,1
DA:416,1
DA:417,1
DA:418,1
DA:419,1
DA:420,1
DA:423,1
DA:424,1
DA:425,1
DA:426,1
DA:427,1
DA:428,1
DA:429,1
DA:432,1
DA:433,1
DA:434,1
DA:435,1
DA:436,1
DA:437,1
DA:438,1
DA:439,1
DA:440,1
DA:441,1
DA:444,1
DA:445,1
DA:446,1
DA:447,1
DA:448,1
DA:449,1
DA:450,1
DA:451,1
DA:452,1
DA:455,1
DA:456,1
DA:457,1
DA:459,1
DA:460,1
DA:463,1
DA:464,1
DA:465,1
DA:466,1
DA:469,1
DA:470,1
DA:471,1
DA:473,1
DA:474,1
DA:476,1
DA:477,1
DA:478,1
DA:481,1
DA:482,1
DA:483,1
DA:484,1
DA:485,1
DA:488,1
DA:489,1
DA:490,1
DA:491,1
DA:492,1
DA:495,1
DA:496,1
DA:497,1
DA:498,1
DA:501,1
DA:502,1
DA:503,1
DA:504,1
DA:507,1
DA:508,1
DA:509,1
DA:510,1
DA:520,1
DA:521,1
DA:522,1
DA:523,1
DA:526,1
DA:527,1
DA:528,1
DA:529,1
DA:532,1
DA:533,1
DA:534,1
DA:535,1
DA:538,1
DA:539,1
DA:540,1
DA:541,1
DA:544,1
DA:545,1
DA:546,1
DA:547,1
DA:550,1
DA:551,1
DA:552,1
DA:553,1
DA:554,1
DA:557,1
DA:558,1
DA:559,1
DA:560,1
DA:561,1
DA:564,1
DA:565,1
DA:566,1
DA:567,1
DA:570,1
DA:571,1
DA:572,1
DA:573,1
DA:574,1
DA:575,1
DA:576,1
DA:577,1
DA:578,1
DA:579,1
DA:580,1
DA:581,1
DA:583,1
DA:584,1
DA:585,1
DA:586,1
DA:591,1
DA:593,1
DA:594,1
DA:595,1
DA:598,1
DA:599,1
DA:600,1
DA:603,1
DA:604,1
DA:607,1
DA:608,1
DA:609,1
DA:612,1
DA:613,1
DA:614,1
DA:615,1
DA:618,1
DA:620,1
DA:621,1
DA:622,1
DA:623,1
DA:624,1
DA:627,1
DA:628,1
DA:629,1
DA:630,1
DA:631,1
DA:634,1
DA:635,1
DA:636,1
DA:637,1
DA:640,1
DA:641,1
DA:642,1
DA:643,1
DA:647,0
DA:649,0
DA:650,0
DA:653,0
DA:654,0
DA:657,0
DA:658,0
DA:659,0
DA:662,0
DA:665,0
DA:666,0
DA:669,0
DA:672,0
DA:673,0
DA:677,0
DA:679,0
DA:680,0
DA:681,0
DA:682,0
DA:683,0
DA:684,0
DA:687,0
DA:688,0
DA:689,0
DA:690,0
DA:691,0
DA:692,0
DA:695,0
DA:696,0
DA:697,0
DA:700,0
DA:701,0
DA:702,0
DA:703,0
DA:704,0
DA:705,0
DA:708,0
DA:709,0
DA:710,0
DA:711,0
DA:712,0
DA:715,0
DA:716,0
DA:717,0
DA:721,0
DA:723,0
DA:724,0
DA:725,0
DA:728,0
DA:729,0
DA:730,0
DA:731,0
DA:734,0
DA:735,0
DA:736,0
DA:740,0
DA:742,0
DA:743,0
DA:744,0
DA:747,0
DA:748,0
DA:749,0
DA:752,0
DA:753,0
DA:756,0
DA:757,0
DA:758,0
DA:759,0
DA:763,0
DA:765,0
DA:766,0
DA:767,0
DA:768,0
DA:771,0
DA:772,0
DA:773,0
DA:776,0
DA:777,0
DA:778,0
DA:781,1
DA:782,1
DA:783,1
DA:784,1
DA:785,1
DA:789,0
DA:790,0
DA:791,0
DA:792,0
DA:793,0
DA:794,0
DA:798,0
DA:799,0
DA:800,0
DA:801,0
DA:802,0
DA:803,0
DA:807,0
DA:808,0
DA:809,0
DA:810,0
DA:811,0
DA:812,0
DA:813,0
DA:817,0
DA:818,0
DA:819,0
DA:820,0
DA:821,0
DA:825,0
DA:826,0
DA:827,0
DA:828,0
DA:829,0
DA:830,0
DA:833,1
DA:834,1
DA:835,1
DA:836,1
DA:839,1
DA:840,1
DA:841,1
DA:842,1
DA:843,1
DA:846,1
DA:848,1
DA:849,1
DA:850,1
DA:853,1
DA:854,1
DA:857,1
DA:858,1
DA:859,1
DA:862,1
DA:863,1
DA:864,1
DA:865,1
DA:866,1
DA:867,1
DA:868,1
DA:870,1
DA:871,1
DA:872,1
DA:873,1
DA:874,1
DA:875,1
DA:876,1
DA:877,1
DA:878,1
DA:879,1
DA:881,1
DA:882,1
DA:883,1
DA:884,1
DA:885,1
DA:886,1
DA:887,1
DA:888,1
DA:889,1
DA:890,1
DA:891,1
DA:892,1
DA:893,1
DA:894,1
BRF:0
BRH:0
LF:510
LH:396
end_of_record
SF:/home/noah/src/ruchy/src/lints/mod.rs
FN:90,_RNCNvMs0_NtCskTACvQmcrtm_5ruchy5lintsNtB7_14ComplexityRule20calculate_complexitys_0B9_
FN:84,_RNCNvMs0_NtCskTACvQmcrtm_5ruchy5lintsNtB7_14ComplexityRule20calculate_complexity0B9_
FN:73,_RNvMs0_NtCskTACvQmcrtm_5ruchy5lintsNtB5_14ComplexityRule20calculate_complexity
FN:41,_RNvMs_NtCskTACvQmcrtm_5ruchy5lintsNtB4_11RuchyLinter3new
FN:54,_RNvMs_NtCskTACvQmcrtm_5ruchy5lintsNtB4_11RuchyLinter4lint
FN:50,_RNvMs_NtCskTACvQmcrtm_5ruchy5lintsNtB4_11RuchyLinter8add_rule
FN:35,_RNvXNtCskTACvQmcrtm_5ruchy5lintsNtB2_11RuchyLinterNtNtCs66KPHxksi63_4core7default7Default7default
FN:112,_RNvXs1_NtCskTACvQmcrtm_5ruchy5lintsNtB5_14ComplexityRuleNtB5_8LintRule16check_expression
FN:108,_RNvXs1_NtCskTACvQmcrtm_5ruchy5lintsNtB5_14ComplexityRuleNtB5_8LintRule4name
FN:142,_RNvXs2_NtCskTACvQmcrtm_5ruchy5lintsNtB5_16NoDebugPrintRuleNtB5_8LintRule16check_expression
FN:138,_RNvXs2_NtCskTACvQmcrtm_5ruchy5lintsNtB5_16NoDebugPrintRuleNtB5_8LintRule4name
FN:172,_RNvNtNtCskTACvQmcrtm_5ruchy5lints5tests14make_test_expr
FN:187,_RNvNtNtCskTACvQmcrtm_5ruchy5lints5testss_19test_linter_default
FN:489,_RNvNtNtCskTACvQmcrtm_5ruchy5lints5testss_19test_severity_clone
FN:193,_RNvNtNtCskTACvQmcrtm_5ruchy5lints5testss_20test_add_custom_rule
FN:181,_RNvNtNtCskTACvQmcrtm_5ruchy5lints5testss_20test_linter_creation
FN:210,_RNvNtNtCskTACvQmcrtm_5ruchy5lints5testss_21test_severity_display
FN:217,_RNvNtNtCskTACvQmcrtm_5ruchy5lints5testss_22test_severity_equality
FN:350,_RNvNtNtCskTACvQmcrtm_5ruchy5lints5testss_24test_no_debug_print_rule
FN:261,_RNvNtNtCskTACvQmcrtm_5ruchy5lints5testss_25test_complexity_rule_name
FN:399,_RNvNtNtCskTACvQmcrtm_5ruchy5lints5testss_25test_linter_no_violations
FN:385,_RNvNtNtCskTACvQmcrtm_5ruchy5lints5testss_26test_linter_runs_all_rules
FN:253,_RNvNtNtCskTACvQmcrtm_5ruchy5lints5testss_27test_complexity_rule_simple
FN:223,_RNvNtNtCskTACvQmcrtm_5ruchy5lints5testss_27test_lint_violation_display
FN:317,_RNvNtNtCskTACvQmcrtm_5ruchy5lints5testss_29test_complexity_rule_for_loop
FN:379,_RNvNtNtCskTACvQmcrtm_5ruchy5lints5testss_29test_no_debug_print_rule_name
FN:304,_RNvNtNtCskTACvQmcrtm_5ruchy5lints5testss_31test_complexity_rule_while_loop
FN:410,_RNvNtNtCskTACvQmcrtm_5ruchy5lints5testss_33test_complexity_calculation_match
FN:267,_RNvNtNtCskTACvQmcrtm_5ruchy5lints5testss_33test_complexity_rule_if_statement
FN:496,_RNvNtNtCskTACvQmcrtm_5ruchy5lints5testss_33test_complexity_rule_if_with_else
FN:441,_RNvNtNtCskTACvQmcrtm_5ruchy5lints5testss_36test_complexity_rule_with_custom_max
FN:475,_RNvNtNtCskTACvQmcrtm_5ruchy5lints5testss_36test_lint_violation_debug_formatting
FN:510,_RNvNtNtCskTACvQmcrtm_5ruchy5lints5testss_36test_multiple_violations_from_linter
FN:336,_RNvNtNtCskTACvQmcrtm_5ruchy5lints5testss_37test_complexity_rule_binary_operation
FN:238,_RNvNtNtCskTACvQmcrtm_5ruchy5lints5testss_38test_lint_violation_without_suggestion
FN:282,_RNvNtNtCskTACvQmcrtm_5ruchy5lints5testss_44test_complexity_rule_nested_if_exceeds_limit
FN:451,_RNvNtNtCskTACvQmcrtm_5ruchy5lints5testss_44test_no_debug_print_rule_non_call_expression
FN:461,_RNvNtNtCskTACvQmcrtm_5ruchy5lints5testss_48test_no_debug_print_rule_non_identifier_function
FN:199,_RNvXNvNtNtCskTACvQmcrtm_5ruchy5lints5testss_20test_add_custom_ruleNtB2_8TestRuleNtB6_8LintRule16check_expression
FN:196,_RNvXNvNtNtCskTACvQmcrtm_5ruchy5lints5testss_20test_add_custom_ruleNtB2_8TestRuleNtB6_8LintRule4name
FN:519,_RNvXNvNtNtCskTACvQmcrtm_5ruchy5lints5testss_36test_multiple_violations_from_linterNtB2_14AlwaysFailRuleNtB6_8LintRule16check_expression
FN:516,_RNvXNvNtNtCskTACvQmcrtm_5ruchy5lints5testss_36test_multiple_violations_from_linterNtB2_14AlwaysFailRuleNtB6_8LintRule4name
FNDA:2,_RNCNvMs0_NtCskTACvQmcrtm_5ruchy5lintsNtB7_14ComplexityRule20calculate_complexitys_0B9_
FNDA:2,_RNCNvMs0_NtCskTACvQmcrtm_5ruchy5lintsNtB7_14ComplexityRule20calculate_complexity0B9_
FNDA:31,_RNvMs0_NtCskTACvQmcrtm_5ruchy5lintsNtB5_14ComplexityRule20calculate_complexity
FNDA:6,_RNvMs_NtCskTACvQmcrtm_5ruchy5lintsNtB4_11RuchyLinter3new
FNDA:3,_RNvMs_NtCskTACvQmcrtm_5ruchy5lintsNtB4_11RuchyLinter4lint
FNDA:2,_RNvMs_NtCskTACvQmcrtm_5ruchy5lintsNtB4_11RuchyLinter8add_rule
FNDA:1,_RNvXNtCskTACvQmcrtm_5ruchy5lintsNtB2_11RuchyLinterNtNtCs66KPHxksi63_4core7default7Default7default
FNDA:12,_RNvXs1_NtCskTACvQmcrtm_5ruchy5lintsNtB5_14ComplexityRuleNtB5_8LintRule16check_expression
FNDA:1,_RNvXs1_NtCskTACvQmcrtm_5ruchy5lintsNtB5_14ComplexityRuleNtB5_8LintRule4name
FNDA:8,_RNvXs2_NtCskTACvQmcrtm_5ruchy5lintsNtB5_16NoDebugPrintRuleNtB5_8LintRule16check_expression
FNDA:1,_RNvXs2_NtCskTACvQmcrtm_5ruchy5lintsNtB5_16NoDebugPrintRuleNtB5_8LintRule4name
FNDA:44,_RNvNtNtCskTACvQmcrtm_5ruchy5lints5tests14make_test_expr
FNDA:1,_RNvNtNtCskTACvQmcrtm_5ruchy5lints5testss_19test_linter_default
FNDA:1,_RNvNtNtCskTACvQmcrtm_5ruchy5lints5testss_19test_severity_clone
FNDA:1,_RNvNtNtCskTACvQmcrtm_5ruchy5lints5testss_20test_add_custom_rule
FNDA:1,_RNvNtNtCskTACvQmcrtm_5ruchy5lints5testss_20test_linter_creation
FNDA:1,_RNvNtNtCskTACvQmcrtm_5ruchy5lints5testss_21test_severity_display
FNDA:1,_RNvNtNtCskTACvQmcrtm_5ruchy5lints5testss_22test_severity_equality
FNDA:1,_RNvNtNtCskTACvQmcrtm_5ruchy5lints5testss_24test_no_debug_print_rule
FNDA:1,_RNvNtNtCskTACvQmcrtm_5ruchy5lints5testss_25test_complexity_rule_name
FNDA:1,_RNvNtNtCskTACvQmcrtm_5ruchy5lints5testss_25test_linter_no_violations
FNDA:1,_RNvNtNtCskTACvQmcrtm_5ruchy5lints5testss_26test_linter_runs_all_rules
FNDA:1,_RNvNtNtCskTACvQmcrtm_5ruchy5lints5testss_27test_complexity_rule_simple
FNDA:1,_RNvNtNtCskTACvQmcrtm_5ruchy5lints5testss_27test_lint_violation_display
FNDA:1,_RNvNtNtCskTACvQmcrtm_5ruchy5lints5testss_29test_complexity_rule_for_loop
FNDA:1,_RNvNtNtCskTACvQmcrtm_5ruchy5lints5testss_29test_no_debug_print_rule_name
FNDA:1,_RNvNtNtCskTACvQmcrtm_5ruchy5lints5testss_31test_complexity_rule_while_loop
FNDA:1,_RNvNtNtCskTACvQmcrtm_5ruchy5lints5testss_33test_complexity_calculation_match
FNDA:1,_RNvNtNtCskTACvQmcrtm_5ruchy5lints5testss_33test_complexity_rule_if_statement
FNDA:1,_RNvNtNtCskTACvQmcrtm_5ruchy5lints5testss_33test_complexity_rule_if_with_else
FNDA:1,_RNvNtNtCskTACvQmcrtm_5ruchy5lints5testss_36test_complexity_rule_with_custom_max
FNDA:1,_RNvNtNtCskTACvQmcrtm_5ruchy5lints5testss_36test_lint_violation_debug_formatting
FNDA:1,_RNvNtNtCskTACvQmcrtm_5ruchy5lints5testss_36test_multiple_violations_from_linter
FNDA:1,_RNvNtNtCskTACvQmcrtm_5ruchy5lints5testss_37test_complexity_rule_binary_operation
FNDA:1,_RNvNtNtCskTACvQmcrtm_5ruchy5lints5testss_38test_lint_violation_without_suggestion
FNDA:1,_RNvNtNtCskTACvQmcrtm_5ruchy5lints5testss_44test_complexity_rule_nested_if_exceeds_limit
FNDA:1,_RNvNtNtCskTACvQmcrtm_5ruchy5lints5testss_44test_no_debug_print_rule_non_call_expression
FNDA:1,_RNvNtNtCskTACvQmcrtm_5ruchy5lints5testss_48test_no_debug_print_rule_non_identifier_function
FNDA:0,_RNvXNvNtNtCskTACvQmcrtm_5ruchy5lints5testss_20test_add_custom_ruleNtB2_8TestRuleNtB6_8LintRule16check_expression
FNDA:0,_RNvXNvNtNtCskTACvQmcrtm_5ruchy5lints5testss_20test_add_custom_ruleNtB2_8TestRuleNtB6_8LintRule4name
FNDA:1,_RNvXNvNtNtCskTACvQmcrtm_5ruchy5lints5testss_36test_multiple_violations_from_linterNtB2_14AlwaysFailRuleNtB6_8LintRule16check_expression
FNDA:0,_RNvXNvNtNtCskTACvQmcrtm_5ruchy5lints5testss_36test_multiple_violations_from_linterNtB2_14AlwaysFailRuleNtB6_8LintRule4name
FNF:42
FNH:39
DA:35,1
DA:36,1
DA:37,1
DA:41,6
DA:42,6
DA:43,6
DA:44,6
DA:47,6
DA:48,6
DA:50,2
DA:51,2
DA:52,2
DA:54,3
DA:55,3
DA:57,10
DA:58,7
DA:59,7
DA:61,3
DA:62,3
DA:73,31
DA:74,31
DA:76,4
DA:77,4
DA:78,4
DA:80,4
DA:81,4
DA:82,4
DA:83,4
DA:84,4
DA:86,1
DA:87,1
DA:88,1
DA:89,1
DA:90,2
DA:91,1
DA:93,1
DA:94,1
DA:96,1
DA:97,1
DA:99,1
DA:100,1
DA:102,23
DA:104,31
DA:108,1
DA:109,1
DA:110,1
DA:112,12
DA:113,12
DA:114,12
DA:115,5
DA:117,7
DA:120,12
DA:121,12
DA:122,1
DA:123,1
DA:124,1
DA:125,1
DA:126,1
DA:127,1
DA:128,11
DA:130,12
DA:131,12
DA:138,1
DA:139,1
DA:140,1
DA:142,8
DA:143,8
DA:144,6
DA:145,6
DA:146,5
DA:147,4
DA:148,4
DA:149,4
DA:150,4
DA:151,4
DA:152,4
DA:153,4
DA:154,4
DA:156,1
DA:159,1
DA:162,2
DA:164,8
DA:172,44
DA:173,44
DA:174,44
DA:175,44
DA:176,44
DA:177,44
DA:178,44
DA:181,1
DA:182,1
DA:183,1
DA:184,1
DA:187,1
DA:188,1
DA:189,1
DA:190,1
DA:193,1
DA:196,0
DA:197,0
DA:198,0
DA:199,0
DA:200,0
DA:201,0
DA:204,1
DA:205,1
DA:206,1
DA:207,1
DA:210,1
DA:211,1
DA:212,1
DA:213,1
DA:214,1
DA:217,1
DA:218,1
DA:219,1
DA:220,1
DA:223,1
DA:224,1
DA:225,1
DA:226,1
DA:227,1
DA:228,1
DA:229,1
DA:231,1
DA:232,1
DA:233,1
DA:234,1
DA:235,1
DA:238,1
DA:239,1
DA:240,1
DA:241,1
DA:242,1
DA:243,1
DA:244,1
DA:246,1
DA:247,1
DA:248,1
DA:249,1
DA:250,1
DA:253,1
DA:254,1
DA:255,1
DA:256,1
DA:257,1
DA:258,1
DA:261,1
DA:262,1
DA:263,1
DA:264,1
DA:267,1
DA:268,1
DA:271,1
DA:272,1
DA:273,1
DA:274,1
DA:275,1
DA:277,1
DA:278,1
DA:279,1
DA:282,1
DA:283,1
DA:286,1
DA:287,1
DA:288,1
DA:289,1
DA:290,1
DA:292,1
DA:293,1
DA:294,1
DA:295,1
DA:296,1
DA:298,1
DA:299,1
DA:300,1
DA:301,1
DA:304,1
DA:305,1
DA:307,1
DA:308,1
DA:309,1
DA:310,1
DA:312,1
DA:313,1
DA:314,1
DA:317,1
DA:318,1
DA:320,1
DA:321,1
DA:322,1
DA:323,1
DA:324,1
DA:325,1
DA:326,1
DA:327,1
DA:328,1
DA:329,1
DA:331,1
DA:332,1
DA:333,1
DA:336,1
DA:337,1
DA:339,1
DA:340,1
DA:341,1
DA:342,1
DA:343,1
DA:345,1
DA:346,1
DA:347,1
DA:350,1
DA:351,1
DA:354,1
DA:355,1
DA:356,1
DA:357,1
DA:358,1
DA:361,1
DA:362,1
DA:363,1
DA:364,1
DA:365,1
DA:366,1
DA:367,1
DA:370,1
DA:371,1
DA:372,1
DA:373,1
DA:374,1
DA:375,1
DA:376,1
DA:379,1
DA:380,1
DA:381,1
DA:382,1
DA:385,1
DA:386,1
DA:389,1
DA:390,1
DA:391,1
DA:392,1
DA:394,1
DA:395,1
DA:396,1
DA:399,1
DA:400,1
DA:403,1
DA:405,1
DA:406,1
DA:407,1
DA:410,1
DA:411,1
DA:416,1
DA:417,1
DA:418,1
DA:419,1
DA:420,1
DA:421,1
DA:422,1
DA:423,1
DA:424,1
DA:425,1
DA:426,1
DA:427,1
DA:428,1
DA:431,1
DA:432,1
DA:433,1
DA:434,1
DA:436,1
DA:437,1
DA:438,1
DA:441,1
DA:442,1
DA:445,1
DA:446,1
DA:447,1
DA:448,1
DA:451,1
DA:452,1
DA:455,1
DA:456,1
DA:457,1
DA:458,1
DA:461,1
DA:462,1
DA:465,1
DA:466,1
DA:467,1
DA:468,1
DA:470,1
DA:471,1
DA:472,1
DA:475,1
DA:476,1
DA:477,1
DA:478,1
DA:479,1
DA:480,1
DA:481,1
DA:483,1
DA:484,1
DA:485,1
DA:486,1
DA:489,1
DA:490,1
DA:491,1
DA:492,1
DA:493,1
DA:496,1
DA:497,1
DA:499,1
DA:500,1
DA:501,1
DA:502,1
DA:503,1
DA:505,1
DA:506,1
DA:507,1
DA:510,1
DA:511,1
DA:516,0
DA:517,0
DA:518,0
DA:519,1
DA:520,1
DA:521,1
DA:522,1
DA:523,1
DA:524,1
DA:525,1
DA:526,1
DA:529,1
DA:532,1
DA:533,1
DA:534,1
DA:535,1
DA:537,1
DA:538,1
DA:539,1
BRF:0
BRH:0
LF:343
LH:334
end_of_record
SF:/home/noah/src/ruchy/src/middleend/environment.rs
FN:113,_RNCNvMNtNtCskTACvQmcrtm_5ruchy9middleend11environmentNtB4_7TypeEnv10generalize0B8_
FN:70,_RINvMNtNtCskTACvQmcrtm_5ruchy9middleend11environmentNtB3_7TypeEnv4bindNtNtCs8Ty2CzGA6U3_5alloc6string6StringEB7_
FN:70,_RINvMNtNtCskTACvQmcrtm_5ruchy9middleend11environmentNtB3_7TypeEnv4bindRNtNtCs8Ty2CzGA6U3_5alloc6string6StringEB7_
FN:70,_RINvMNtNtCskTACvQmcrtm_5ruchy9middleend11environmentNtB3_7TypeEnv4bindReEB7_
FN:82,_RINvMNtNtCskTACvQmcrtm_5ruchy9middleend11environmentNtB3_7TypeEnv6extendNtNtCs8Ty2CzGA6U3_5alloc6string6StringEB7_
FN:82,_RINvMNtNtCskTACvQmcrtm_5ruchy9middleend11environmentNtB3_7TypeEnv6extendRNtNtCs8Ty2CzGA6U3_5alloc6string6StringEB7_
FN:82,_RINvMNtNtCskTACvQmcrtm_5ruchy9middleend11environmentNtB3_7TypeEnv6extendReEB7_
FN:106,_RNvMNtNtCskTACvQmcrtm_5ruchy9middleend11environmentNtB2_7TypeEnv10generalize
FN:120,_RNvMNtNtCskTACvQmcrtm_5ruchy9middleend11environmentNtB2_7TypeEnv11instantiate
FN:14,_RNvMNtNtCskTACvQmcrtm_5ruchy9middleend11environmentNtB2_7TypeEnv3new
FN:76,_RNvMNtNtCskTACvQmcrtm_5ruchy9middleend11environmentNtB2_7TypeEnv6lookup
FN:22,_RNvMNtNtCskTACvQmcrtm_5ruchy9middleend11environmentNtB2_7TypeEnv8standard
FN:90,_RNvMNtNtCskTACvQmcrtm_5ruchy9middleend11environmentNtB2_7TypeEnv9free_vars
FN:126,_RNvXs_NtNtCskTACvQmcrtm_5ruchy9middleend11environmentNtB4_7TypeEnvNtNtCs66KPHxksi63_4core7default7Default7default
FN:234,_RNvNtNtNtCskTACvQmcrtm_5ruchy9middleend11environment5testss_14test_env_clone
FN:147,_RNvNtNtNtCskTACvQmcrtm_5ruchy9middleend11environment5testss_15test_env_extend
FN:138,_RNvNtNtNtCskTACvQmcrtm_5ruchy9middleend11environment5testss_15test_env_lookup
FN:201,_RNvNtNtNtCskTACvQmcrtm_5ruchy9middleend11environment5testss_16test_default_env
FN:191,_RNvNtNtNtCskTACvQmcrtm_5ruchy9middleend11environment5testss_17test_standard_env
FN:156,_RNvNtNtNtCskTACvQmcrtm_5ruchy9middleend11environment5testss_19test_generalization
FN:221,_RNvNtNtNtCskTACvQmcrtm_5ruchy9middleend11environment5testss_20test_bind_overwrites
FN:243,_RNvNtNtNtCskTACvQmcrtm_5ruchy9middleend11environment5testss_20test_free_vars_empty
FN:208,_RNvNtNtNtCskTACvQmcrtm_5ruchy9middleend11environment5testss_22test_multiple_bindings
FN:305,_RNvNtNtNtCskTACvQmcrtm_5ruchy9middleend11environment5testss_23test_instantiate_scheme
FN:274,_RNvNtNtNtCskTACvQmcrtm_5ruchy9middleend11environment5testss_25test_generalize_empty_env
FN:249,_RNvNtNtNtCskTACvQmcrtm_5ruchy9middleend11environment5testss_27test_free_vars_with_schemes
FN:285,_RNvNtNtNtCskTACvQmcrtm_5ruchy9middleend11environment5testss_28test_generalize_complex_type
FN:337,_RNvNtNtNtCskTACvQmcrtm_5ruchy9middleend11environment5testss_32test_standard_env_function_types
FN:174,_RNvNtNtNtCskTACvQmcrtm_5ruchy9middleend11environment5testss_36test_no_generalization_with_env_vars
FNDA:11,_RNCNvMNtNtCskTACvQmcrtm_5ruchy9middleend11environmentNtB4_7TypeEnv10generalize0B8_
FNDA:16,_RINvMNtNtCskTACvQmcrtm_5ruchy9middleend11environmentNtB3_7TypeEnv4bindNtNtCs8Ty2CzGA6U3_5alloc6string6StringEB7_
FNDA:0,_RINvMNtNtCskTACvQmcrtm_5ruchy9middleend11environmentNtB3_7TypeEnv4bindRNtNtCs8Ty2CzGA6U3_5alloc6string6StringEB7_
FNDA:172,_RINvMNtNtCskTACvQmcrtm_5ruchy9middleend11environmentNtB3_7TypeEnv4bindReEB7_
FNDA:16,_RINvMNtNtCskTACvQmcrtm_5ruchy9middleend11environmentNtB3_7TypeEnv6extendNtNtCs8Ty2CzGA6U3_5alloc6string6StringEB7_
FNDA:0,_RINvMNtNtCskTACvQmcrtm_5ruchy9middleend11environmentNtB3_7TypeEnv6extendRNtNtCs8Ty2CzGA6U3_5alloc6string6StringEB7_
FNDA:14,_RINvMNtNtCskTACvQmcrtm_5ruchy9middleend11environmentNtB3_7TypeEnv6extendReEB7_
FNDA:15,_RNvMNtNtCskTACvQmcrtm_5ruchy9middleend11environmentNtB2_7TypeEnv10generalize
FNDA:29,_RNvMNtNtCskTACvQmcrtm_5ruchy9middleend11environmentNtB2_7TypeEnv11instantiate
FNDA:50,_RNvMNtNtCskTACvQmcrtm_5ruchy9middleend11environmentNtB2_7TypeEnv3new
FNDA:45,_RNvMNtNtCskTACvQmcrtm_5ruchy9middleend11environmentNtB2_7TypeEnv6lookup
FNDA:37,_RNvMNtNtCskTACvQmcrtm_5ruchy9middleend11environmentNtB2_7TypeEnv8standard
FNDA:17,_RNvMNtNtCskTACvQmcrtm_5ruchy9middleend11environmentNtB2_7TypeEnv9free_vars
FNDA:1,_RNvXs_NtNtCskTACvQmcrtm_5ruchy9middleend11environmentNtB4_7TypeEnvNtNtCs66KPHxksi63_4core7default7Default7default
FNDA:1,_RNvNtNtNtCskTACvQmcrtm_5ruchy9middleend11environment5testss_14test_env_clone
FNDA:1,_RNvNtNtNtCskTACvQmcrtm_5ruchy9middleend11environment5testss_15test_env_extend
FNDA:1,_RNvNtNtNtCskTACvQmcrtm_5ruchy9middleend11environment5testss_15test_env_lookup
FNDA:1,_RNvNtNtNtCskTACvQmcrtm_5ruchy9middleend11environment5testss_16test_default_env
FNDA:1,_RNvNtNtNtCskTACvQmcrtm_5ruchy9middleend11environment5testss_17test_standard_env
FNDA:1,_RNvNtNtNtCskTACvQmcrtm_5ruchy9middleend11environment5testss_19test_generalization
FNDA:1,_RNvNtNtNtCskTACvQmcrtm_5ruchy9middleend11environment5testss_20test_bind_overwrites
FNDA:1,_RNvNtNtNtCskTACvQmcrtm_5ruchy9middleend11environment5testss_20test_free_vars_empty
FNDA:1,_RNvNtNtNtCskTACvQmcrtm_5ruchy9middleend11environment5testss_22test_multiple_bindings
FNDA:1,_RNvNtNtNtCskTACvQmcrtm_5ruchy9middleend11environment5testss_23test_instantiate_scheme
FNDA:1,_RNvNtNtNtCskTACvQmcrtm_5ruchy9middleend11environment5testss_25test_generalize_empty_env
FNDA:1,_RNvNtNtNtCskTACvQmcrtm_5ruchy9middleend11environment5testss_27test_free_vars_with_schemes
FNDA:1,_RNvNtNtNtCskTACvQmcrtm_5ruchy9middleend11environment5testss_28test_generalize_complex_type
FNDA:1,_RNvNtNtNtCskTACvQmcrtm_5ruchy9middleend11environment5testss_32test_standard_env_function_types
FNDA:1,_RNvNtNtNtCskTACvQmcrtm_5ruchy9middleend11environment5testss_36test_no_generalization_with_env_vars
FNF:25
FNH:25
DA:14,50
DA:15,50
DA:16,50
DA:17,50
DA:18,50
DA:22,37
DA:23,37
DA:26,37
DA:28,37
DA:29,37
DA:30,37
DA:31,37
DA:32,37
DA:33,37
DA:34,37
DA:38,37
DA:40,37
DA:41,37
DA:42,37
DA:43,37
DA:46,37
DA:48,37
DA:49,37
DA:50,37
DA:51,37
DA:55,37
DA:57,37
DA:58,37
DA:59,37
DA:60,37
DA:61,37
DA:62,37
DA:63,37
DA:66,37
DA:67,37
DA:70,188
DA:71,188
DA:72,188
DA:76,45
DA:77,45
DA:78,45
DA:82,30
DA:83,30
DA:84,30
DA:85,30
DA:86,30
DA:90,17
DA:91,17
DA:92,52
DA:94,52
DA:95,59
DA:96,7
DA:97,2
DA:98,5
DA:101,17
DA:102,17
DA:106,15
DA:107,15
DA:108,15
DA:111,15
DA:112,15
DA:113,15
DA:114,15
DA:116,15
DA:117,15
DA:120,29
DA:121,29
DA:122,29
DA:126,1
DA:127,1
DA:128,1
DA:138,1
DA:139,1
DA:140,1
DA:142,1
DA:143,1
DA:144,1
DA:147,1
DA:148,1
DA:149,1
DA:151,1
DA:152,1
DA:153,1
DA:156,1
DA:157,1
DA:158,1
DA:161,1
DA:162,1
DA:163,1
DA:164,1
DA:166,1
DA:169,1
DA:170,1
DA:171,1
DA:174,1
DA:175,1
DA:176,1
DA:179,1
DA:182,1
DA:184,1
DA:187,1
DA:188,1
DA:191,1
DA:192,1
DA:194,1
DA:195,1
DA:196,1
DA:197,1
DA:198,1
DA:201,1
DA:202,1
DA:203,1
DA:204,1
DA:205,1
DA:208,1
DA:209,1
DA:210,1
DA:211,1
DA:212,1
DA:214,1
DA:215,1
DA:216,1
DA:217,1
DA:218,1
DA:221,1
DA:222,1
DA:223,1
DA:224,1
DA:226,1
DA:227,1
DA:228,1
DA:229,0
DA:231,1
DA:234,1
DA:235,1
DA:236,1
DA:238,1
DA:239,1
DA:240,1
DA:243,1
DA:244,1
DA:245,1
DA:246,1
DA:249,1
DA:250,1
DA:251,1
DA:252,1
DA:255,1
DA:256,1
DA:257,1
DA:258,1
DA:259,1
DA:262,1
DA:263,1
DA:264,1
DA:265,1
DA:266,1
DA:268,1
DA:269,1
DA:270,1
DA:271,1
DA:274,1
DA:275,1
DA:276,1
DA:277,1
DA:279,1
DA:280,1
DA:281,1
DA:282,1
DA:285,1
DA:286,1
DA:287,1
DA:288,1
DA:290,1
DA:291,1
DA:292,1
DA:293,1
DA:294,1
DA:295,1
DA:296,1
DA:298,1
DA:299,1
DA:300,1
DA:301,1
DA:302,1
DA:305,1
DA:306,1
DA:307,1
DA:310,1
DA:311,1
DA:312,1
DA:313,1
DA:314,1
DA:315,1
DA:316,1
DA:317,1
DA:319,1
DA:322,1
DA:323,1
DA:324,1
DA:325,1
DA:326,1
DA:327,1
DA:329,0
DA:332,0
DA:334,1
DA:337,1
DA:338,1
DA:341,1
DA:342,1
DA:343,1
DA:344,1
DA:345,1
DA:346,1
DA:347,1
DA:348,1
DA:350,0
DA:353,0
DA:357,1
DA:358,1
DA:359,1
DA:360,1
DA:361,1
DA:363,0
DA:365,1
BRF:0
BRH:0
LF:226
LH:220
end_of_record
SF:/home/noah/src/ruchy/src/middleend/infer.rs
FN:570,_RNCNvMNtNtCskTACvQmcrtm_5ruchy9middleend5inferNtB4_16InferenceContext21add_method_constraint0B8_
FN:1307,_RNCNvMNtNtCskTACvQmcrtm_5ruchy9middleend5inferNtB4_16InferenceContext21infer_collection_expr0B8_
FN:675,_RNCNvMNtNtCskTACvQmcrtm_5ruchy9middleend5inferNtB4_16InferenceContext22infer_column_selection0B8_
FN:1633,_RNCNvMNtNtCskTACvQmcrtm_5ruchy9middleend5inferNtB4_16InferenceContext25infer_dataframe_operation0B8_
FN:495,_RNvMNtNtCskTACvQmcrtm_5ruchy9middleend5inferNtB2_16InferenceContext10infer_call
FN:202,_RNvMNtNtCskTACvQmcrtm_5ruchy9middleend5inferNtB2_16InferenceContext10infer_expr
FN:752,_RNvMNtNtCskTACvQmcrtm_5ruchy9middleend5inferNtB2_16InferenceContext10infer_list
FN:1002,_RNvMNtNtCskTACvQmcrtm_5ruchy9middleend5inferNtB2_16InferenceContext10infer_loop
FN:1566,_RNvMNtNtCskTACvQmcrtm_5ruchy9middleend5inferNtB2_16InferenceContext10infer_send
FN:350,_RNvMNtNtCskTACvQmcrtm_5ruchy9middleend5inferNtB2_16InferenceContext11infer_await
FN:739,_RNvMNtNtCskTACvQmcrtm_5ruchy9middleend5inferNtB2_16InferenceContext11infer_block
FN:513,_RNvMNtNtCskTACvQmcrtm_5ruchy9middleend5inferNtB2_16InferenceContext11infer_macro
FN:806,_RNvMNtNtCskTACvQmcrtm_5ruchy9middleend5inferNtB2_16InferenceContext11infer_match
FN:1011,_RNvMNtNtCskTACvQmcrtm_5ruchy9middleend5inferNtB2_16InferenceContext11infer_range
FN:1559,_RNvMNtNtCskTACvQmcrtm_5ruchy9middleend5inferNtB2_16InferenceContext11infer_slice
FN:337,_RNvMNtNtCskTACvQmcrtm_5ruchy9middleend5inferNtB2_16InferenceContext11infer_throw
FN:312,_RNvMNtNtCskTACvQmcrtm_5ruchy9middleend5inferNtB2_16InferenceContext11infer_unary
FN:989,_RNvMNtNtCskTACvQmcrtm_5ruchy9middleend5inferNtB2_16InferenceContext11infer_while
FN:1046,_RNvMNtNtCskTACvQmcrtm_5ruchy9middleend5inferNtB2_16InferenceContext12infer_assign
FN:256,_RNvMNtNtCskTACvQmcrtm_5ruchy9middleend5inferNtB2_16InferenceContext12infer_binary
FN:461,_RNvMNtNtCskTACvQmcrtm_5ruchy9middleend5inferNtB2_16InferenceContext12infer_lambda
FN:238,_RNvMNtNtCskTACvQmcrtm_5ruchy9middleend5inferNtB2_16InferenceContext13infer_literal
FN:837,_RNvMNtNtCskTACvQmcrtm_5ruchy9middleend5inferNtB2_16InferenceContext13infer_pattern
FN:413,_RNvMNtNtCskTACvQmcrtm_5ruchy9middleend5inferNtB2_16InferenceContext14infer_function
FN:1023,_RNvMNtNtCskTACvQmcrtm_5ruchy9middleend5inferNtB2_16InferenceContext14infer_pipeline
FN:1587,_RNvMNtNtCskTACvQmcrtm_5ruchy9middleend5inferNtB2_16InferenceContext15infer_dataframe
FN:1497,_RNvMNtNtCskTACvQmcrtm_5ruchy9middleend5inferNtB2_16InferenceContext15infer_result_ok
FN:249,_RNvMNtNtCskTACvQmcrtm_5ruchy9middleend5inferNtB2_16InferenceContext16infer_identifier
FN:1333,_RNvMNtNtCskTACvQmcrtm_5ruchy9middleend5inferNtB2_16InferenceContext16infer_other_expr
FN:1503,_RNvMNtNtCskTACvQmcrtm_5ruchy9middleend5inferNtB2_16InferenceContext16infer_result_err
FN:725,_RNvMNtNtCskTACvQmcrtm_5ruchy9middleend5inferNtB2_16InferenceContext16validate_no_args
FN:1670,_RNvMNtNtCskTACvQmcrtm_5ruchy9middleend5inferNtB2_16InferenceContext17infer_async_block
FN:582,_RNvMNtNtCskTACvQmcrtm_5ruchy9middleend5inferNtB2_16InferenceContext17infer_list_method
FN:540,_RNvMNtNtCskTACvQmcrtm_5ruchy9middleend5inferNtB2_16InferenceContext17infer_method_call
FN:101,_RNvMNtNtCskTACvQmcrtm_5ruchy9middleend5inferNtB2_16InferenceContext17solve_constraints
FN:1526,_RNvMNtNtCskTACvQmcrtm_5ruchy9middleend5inferNtB2_16InferenceContext18infer_field_access
FN:1531,_RNvMNtNtCskTACvQmcrtm_5ruchy9middleend5inferNtB2_16InferenceContext18infer_index_access
FN:1292,_RNvMNtNtCskTACvQmcrtm_5ruchy9middleend5inferNtB2_16InferenceContext19infer_function_expr
FN:624,_RNvMNtNtCskTACvQmcrtm_5ruchy9middleend5inferNtB2_16InferenceContext19infer_string_method
FN:732,_RNvMNtNtCskTACvQmcrtm_5ruchy9middleend5inferNtB2_16InferenceContext19validate_single_arg
FN:1081,_RNvMNtNtCskTACvQmcrtm_5ruchy9middleend5inferNtB2_16InferenceContext20infer_binary_op_type
FN:687,_RNvMNtNtCskTACvQmcrtm_5ruchy9middleend5inferNtB2_16InferenceContext20infer_generic_method
FN:1509,_RNvMNtNtCskTACvQmcrtm_5ruchy9middleend5inferNtB2_16InferenceContext20infer_object_literal
FN:1318,_RNvMNtNtCskTACvQmcrtm_5ruchy9middleend5inferNtB2_16InferenceContext20infer_operation_expr
FN:1465,_RNvMNtNtCskTACvQmcrtm_5ruchy9middleend5inferNtB2_16InferenceContext20infer_remaining_expr
FN:564,_RNvMNtNtCskTACvQmcrtm_5ruchy9middleend5inferNtB2_16InferenceContext21add_method_constraint
FN:1303,_RNvMNtNtCskTACvQmcrtm_5ruchy9middleend5inferNtB2_16InferenceContext21infer_collection_expr
FN:1060,_RNvMNtNtCskTACvQmcrtm_5ruchy9middleend5inferNtB2_16InferenceContext21infer_compound_assign
FN:88,_RNvMNtNtCskTACvQmcrtm_5ruchy9middleend5inferNtB2_16InferenceContext21solve_all_constraints
FN:112,_RNvMNtNtCskTACvQmcrtm_5ruchy9middleend5inferNtB2_16InferenceContext21solve_type_constraint
FN:667,_RNvMNtNtCskTACvQmcrtm_5ruchy9middleend5inferNtB2_16InferenceContext22infer_column_selection
FN:644,_RNvMNtNtCskTACvQmcrtm_5ruchy9middleend5inferNtB2_16InferenceContext22infer_dataframe_method
FN:1436,_RNvMNtNtCskTACvQmcrtm_5ruchy9middleend5inferNtB2_16InferenceContext22infer_other_actor_expr
FN:1423,_RNvMNtNtCskTACvQmcrtm_5ruchy9middleend5inferNtB2_16InferenceContext22infer_other_async_expr
FN:1162,_RNvMNtNtCskTACvQmcrtm_5ruchy9middleend5inferNtB2_16InferenceContext23ast_type_to_mono_static
FN:1263,_RNvMNtNtCskTACvQmcrtm_5ruchy9middleend5inferNtB2_16InferenceContext23infer_control_flow_expr
FN:1408,_RNvMNtNtCskTACvQmcrtm_5ruchy9middleend5inferNtB2_16InferenceContext23infer_other_option_expr
FN:769,_RNvMNtNtCskTACvQmcrtm_5ruchy9middleend5inferNtB2_16InferenceContext24infer_list_comprehension
FN:1612,_RNvMNtNtCskTACvQmcrtm_5ruchy9middleend5inferNtB2_16InferenceContext25infer_dataframe_operation
FN:1148,_RNvMNtNtCskTACvQmcrtm_5ruchy9middleend5inferNtB2_16InferenceContext25infer_increment_decrement
FN:706,_RNvMNtNtCskTACvQmcrtm_5ruchy9middleend5inferNtB2_16InferenceContext26build_method_function_type
FN:1485,_RNvMNtNtCskTACvQmcrtm_5ruchy9middleend5inferNtB2_16InferenceContext26infer_string_interpolation
FN:1450,_RNvMNtNtCskTACvQmcrtm_5ruchy9middleend5inferNtB2_16InferenceContext27infer_other_assignment_expr
FN:1391,_RNvMNtNtCskTACvQmcrtm_5ruchy9middleend5inferNtB2_16InferenceContext27infer_other_definition_expr
FN:157,_RNvMNtNtCskTACvQmcrtm_5ruchy9middleend5inferNtB2_16InferenceContext28check_method_call_constraint
FN:1386,_RNvMNtNtCskTACvQmcrtm_5ruchy9middleend5inferNtB2_16InferenceContext29infer_other_control_flow_expr
FN:1396,_RNvMNtNtCskTACvQmcrtm_5ruchy9middleend5inferNtB2_16InferenceContext31infer_other_literal_access_expr
FN:40,_RNvMNtNtCskTACvQmcrtm_5ruchy9middleend5inferNtB2_16InferenceContext3new
FN:68,_RNvMNtNtCskTACvQmcrtm_5ruchy9middleend5inferNtB2_16InferenceContext5infer
FN:367,_RNvMNtNtCskTACvQmcrtm_5ruchy9middleend5inferNtB2_16InferenceContext8infer_if
FN:1572,_RNvMNtNtCskTACvQmcrtm_5ruchy9middleend5inferNtB2_16InferenceContext9infer_ask
FN:971,_RNvMNtNtCskTACvQmcrtm_5ruchy9middleend5inferNtB2_16InferenceContext9infer_for
FN:391,_RNvMNtNtCskTACvQmcrtm_5ruchy9middleend5inferNtB2_16InferenceContext9infer_let
FN:1692,_RNvNtNtNtCskTACvQmcrtm_5ruchy9middleend5infer5tests9infer_str
FN:1722,_RNvNtNtNtCskTACvQmcrtm_5ruchy9middleend5infer5testss_13test_infer_if
FN:1734,_RNvNtNtNtCskTACvQmcrtm_5ruchy9middleend5infer5testss_14test_infer_let
FN:1743,_RNvNtNtNtCskTACvQmcrtm_5ruchy9middleend5infer5testss_15test_infer_list
FN:1828,_RNvNtNtNtCskTACvQmcrtm_5ruchy9middleend5infer5testss_16test_type_errors
FN:1835,_RNvNtNtNtCskTACvQmcrtm_5ruchy9middleend5infer5testss_17test_infer_lambda
FN:1797,_RNvNtNtNtCskTACvQmcrtm_5ruchy9middleend5infer5testss_17test_infer_series
FN:1810,_RNvNtNtNtCskTACvQmcrtm_5ruchy9middleend5infer5testss_19test_infer_function
FN:1700,_RNvNtNtNtCskTACvQmcrtm_5ruchy9middleend5infer5testss_19test_infer_literals
FN:1756,_RNvNtNtNtCskTACvQmcrtm_5ruchy9middleend5infer5testss_20test_infer_dataframe
FN:1708,_RNvNtNtNtCskTACvQmcrtm_5ruchy9middleend5infer5testss_21test_infer_arithmetic
FN:1715,_RNvNtNtNtCskTACvQmcrtm_5ruchy9middleend5infer5testss_21test_infer_comparison
FN:1918,_RNvNtNtNtCskTACvQmcrtm_5ruchy9middleend5infer5testss_23test_constraint_solving
FN:1872,_RNvNtNtNtCskTACvQmcrtm_5ruchy9middleend5infer5testss_26test_self_hosting_patterns
FN:1899,_RNvNtNtNtCskTACvQmcrtm_5ruchy9middleend5infer5testss_29test_compiler_data_structures
FN:1777,_RNvNtNtNtCskTACvQmcrtm_5ruchy9middleend5infer5testss_31test_infer_dataframe_operations
FN:1253,_RNvMNtNtCskTACvQmcrtm_5ruchy9middleend5inferNtB2_16InferenceContext5apply
FN:1247,_RNvMNtNtCskTACvQmcrtm_5ruchy9middleend5inferNtB2_16InferenceContext5solve
FN:52,_RNvMNtNtCskTACvQmcrtm_5ruchy9middleend5inferNtB2_16InferenceContext8with_env
FN:1680,_RNvXs_NtNtCskTACvQmcrtm_5ruchy9middleend5inferNtB4_16InferenceContextNtNtCs66KPHxksi63_4core7default7Default7default
FN:488,_RNCNvMNtNtCskTACvQmcrtm_5ruchy9middleend5inferNtB4_16InferenceContext12infer_lambda0B8_
FN:443,_RNCNvMNtNtCskTACvQmcrtm_5ruchy9middleend5inferNtB4_16InferenceContext14infer_function0B8_
FN:1213,_RNCNvMNtNtCskTACvQmcrtm_5ruchy9middleend5inferNtB4_16InferenceContext23ast_type_to_mono_static0B8_
FNDA:0,_RNCNvMNtNtCskTACvQmcrtm_5ruchy9middleend5inferNtB4_16InferenceContext21add_method_constraint0B8_
FNDA:0,_RNCNvMNtNtCskTACvQmcrtm_5ruchy9middleend5inferNtB4_16InferenceContext21infer_collection_expr0B8_
FNDA:0,_RNCNvMNtNtCskTACvQmcrtm_5ruchy9middleend5inferNtB4_16InferenceContext22infer_column_selection0B8_
FNDA:0,_RNCNvMNtNtCskTACvQmcrtm_5ruchy9middleend5inferNtB4_16InferenceContext25infer_dataframe_operation0B8_
FNDA:7,_RNvMNtNtCskTACvQmcrtm_5ruchy9middleend5inferNtB2_16InferenceContext10infer_call
FNDA:159,_RNvMNtNtCskTACvQmcrtm_5ruchy9middleend5inferNtB2_16InferenceContext10infer_expr
FNDA:7,_RNvMNtNtCskTACvQmcrtm_5ruchy9middleend5inferNtB2_16InferenceContext10infer_list
FNDA:0,_RNvMNtNtCskTACvQmcrtm_5ruchy9middleend5inferNtB2_16InferenceContext10infer_loop
FNDA:0,_RNvMNtNtCskTACvQmcrtm_5ruchy9middleend5inferNtB2_16InferenceContext10infer_send
FNDA:0,_RNvMNtNtCskTACvQmcrtm_5ruchy9middleend5inferNtB2_16InferenceContext11infer_await
FNDA:8,_RNvMNtNtCskTACvQmcrtm_5ruchy9middleend5inferNtB2_16InferenceContext11infer_block
FNDA:0,_RNvMNtNtCskTACvQmcrtm_5ruchy9middleend5inferNtB2_16InferenceContext11infer_macro
FNDA:0,_RNvMNtNtCskTACvQmcrtm_5ruchy9middleend5inferNtB2_16InferenceContext11infer_match
FNDA:0,_RNvMNtNtCskTACvQmcrtm_5ruchy9middleend5inferNtB2_16InferenceContext11infer_range
FNDA:0,_RNvMNtNtCskTACvQmcrtm_5ruchy9middleend5inferNtB2_16InferenceContext11infer_slice
FNDA:0,_RNvMNtNtCskTACvQmcrtm_5ruchy9middleend5inferNtB2_16InferenceContext11infer_throw
FNDA:0,_RNvMNtNtCskTACvQmcrtm_5ruchy9middleend5inferNtB2_16InferenceContext11infer_unary
FNDA:0,_RNvMNtNtCskTACvQmcrtm_5ruchy9middleend5inferNtB2_16InferenceContext11infer_while
FNDA:0,_RNvMNtNtCskTACvQmcrtm_5ruchy9middleend5inferNtB2_16InferenceContext12infer_assign
FNDA:18,_RNvMNtNtCskTACvQmcrtm_5ruchy9middleend5inferNtB2_16InferenceContext12infer_binary
FNDA:10,_RNvMNtNtCskTACvQmcrtm_5ruchy9middleend5inferNtB2_16InferenceContext12infer_lambda
FNDA:60,_RNvMNtNtCskTACvQmcrtm_5ruchy9middleend5inferNtB2_16InferenceContext13infer_literal
FNDA:0,_RNvMNtNtCskTACvQmcrtm_5ruchy9middleend5inferNtB2_16InferenceContext13infer_pattern
FNDA:2,_RNvMNtNtCskTACvQmcrtm_5ruchy9middleend5inferNtB2_16InferenceContext14infer_function
FNDA:0,_RNvMNtNtCskTACvQmcrtm_5ruchy9middleend5inferNtB2_16InferenceContext14infer_pipeline
FNDA:0,_RNvMNtNtCskTACvQmcrtm_5ruchy9middleend5inferNtB2_16InferenceContext15infer_dataframe
FNDA:0,_RNvMNtNtCskTACvQmcrtm_5ruchy9middleend5inferNtB2_16InferenceContext15infer_result_ok
FNDA:28,_RNvMNtNtCskTACvQmcrtm_5ruchy9middleend5inferNtB2_16InferenceContext16infer_identifier
FNDA:21,_RNvMNtNtCskTACvQmcrtm_5ruchy9middleend5inferNtB2_16InferenceContext16infer_other_expr
FNDA:0,_RNvMNtNtCskTACvQmcrtm_5ruchy9middleend5inferNtB2_16InferenceContext16infer_result_err
FNDA:2,_RNvMNtNtCskTACvQmcrtm_5ruchy9middleend5inferNtB2_16InferenceContext16validate_no_args
FNDA:0,_RNvMNtNtCskTACvQmcrtm_5ruchy9middleend5inferNtB2_16InferenceContext17infer_async_block
FNDA:2,_RNvMNtNtCskTACvQmcrtm_5ruchy9middleend5inferNtB2_16InferenceContext17infer_list_method
FNDA:2,_RNvMNtNtCskTACvQmcrtm_5ruchy9middleend5inferNtB2_16InferenceContext17infer_method_call
FNDA:32,_RNvMNtNtCskTACvQmcrtm_5ruchy9middleend5inferNtB2_16InferenceContext17solve_constraints
FNDA:0,_RNvMNtNtCskTACvQmcrtm_5ruchy9middleend5inferNtB2_16InferenceContext18infer_field_access
FNDA:0,_RNvMNtNtCskTACvQmcrtm_5ruchy9middleend5inferNtB2_16InferenceContext18infer_index_access
FNDA:12,_RNvMNtNtCskTACvQmcrtm_5ruchy9middleend5inferNtB2_16InferenceContext19infer_function_expr
FNDA:0,_RNvMNtNtCskTACvQmcrtm_5ruchy9middleend5inferNtB2_16InferenceContext19infer_string_method
FNDA:0,_RNvMNtNtCskTACvQmcrtm_5ruchy9middleend5inferNtB2_16InferenceContext19validate_single_arg
FNDA:0,_RNvMNtNtCskTACvQmcrtm_5ruchy9middleend5inferNtB2_16InferenceContext20infer_binary_op_type
FNDA:0,_RNvMNtNtCskTACvQmcrtm_5ruchy9middleend5inferNtB2_16InferenceContext20infer_generic_method
FNDA:0,_RNvMNtNtCskTACvQmcrtm_5ruchy9middleend5inferNtB2_16InferenceContext20infer_object_literal
FNDA:27,_RNvMNtNtCskTACvQmcrtm_5ruchy9middleend5inferNtB2_16InferenceContext20infer_operation_expr
FNDA:19,_RNvMNtNtCskTACvQmcrtm_5ruchy9middleend5inferNtB2_16InferenceContext20infer_remaining_expr
FNDA:2,_RNvMNtNtCskTACvQmcrtm_5ruchy9middleend5inferNtB2_16InferenceContext21add_method_constraint
FNDA:7,_RNvMNtNtCskTACvQmcrtm_5ruchy9middleend5inferNtB2_16InferenceContext21infer_collection_expr
FNDA:0,_RNvMNtNtCskTACvQmcrtm_5ruchy9middleend5inferNtB2_16InferenceContext21infer_compound_assign
FNDA:32,_RNvMNtNtCskTACvQmcrtm_5ruchy9middleend5inferNtB2_16InferenceContext21solve_all_constraints
FNDA:2,_RNvMNtNtCskTACvQmcrtm_5ruchy9middleend5inferNtB2_16InferenceContext21solve_type_constraint
FNDA:0,_RNvMNtNtCskTACvQmcrtm_5ruchy9middleend5inferNtB2_16InferenceContext22infer_column_selection
FNDA:0,_RNvMNtNtCskTACvQmcrtm_5ruchy9middleend5inferNtB2_16InferenceContext22infer_dataframe_method
FNDA:0,_RNvMNtNtCskTACvQmcrtm_5ruchy9middleend5inferNtB2_16InferenceContext22infer_other_actor_expr
FNDA:0,_RNvMNtNtCskTACvQmcrtm_5ruchy9middleend5inferNtB2_16InferenceContext22infer_other_async_expr
FNDA:3,_RNvMNtNtCskTACvQmcrtm_5ruchy9middleend5inferNtB2_16InferenceContext23ast_type_to_mono_static
FNDA:4,_RNvMNtNtCskTACvQmcrtm_5ruchy9middleend5inferNtB2_16InferenceContext23infer_control_flow_expr
FNDA:0,_RNvMNtNtCskTACvQmcrtm_5ruchy9middleend5inferNtB2_16InferenceContext23infer_other_option_expr
FNDA:0,_RNvMNtNtCskTACvQmcrtm_5ruchy9middleend5inferNtB2_16InferenceContext24infer_list_comprehension
FNDA:0,_RNvMNtNtCskTACvQmcrtm_5ruchy9middleend5inferNtB2_16InferenceContext25infer_dataframe_operation
FNDA:0,_RNvMNtNtCskTACvQmcrtm_5ruchy9middleend5inferNtB2_16InferenceContext25infer_increment_decrement
FNDA:0,_RNvMNtNtCskTACvQmcrtm_5ruchy9middleend5inferNtB2_16InferenceContext26build_method_function_type
FNDA:0,_RNvMNtNtCskTACvQmcrtm_5ruchy9middleend5inferNtB2_16InferenceContext26infer_string_interpolation
FNDA:0,_RNvMNtNtCskTACvQmcrtm_5ruchy9middleend5inferNtB2_16InferenceContext27infer_other_assignment_expr
FNDA:2,_RNvMNtNtCskTACvQmcrtm_5ruchy9middleend5inferNtB2_16InferenceContext27infer_other_definition_expr
FNDA:2,_RNvMNtNtCskTACvQmcrtm_5ruchy9middleend5inferNtB2_16InferenceContext28check_method_call_constraint
FNDA:0,_RNvMNtNtCskTACvQmcrtm_5ruchy9middleend5inferNtB2_16InferenceContext29infer_other_control_flow_expr
FNDA:0,_RNvMNtNtCskTACvQmcrtm_5ruchy9middleend5inferNtB2_16InferenceContext31infer_other_literal_access_expr
FNDA:35,_RNvMNtNtCskTACvQmcrtm_5ruchy9middleend5inferNtB2_16InferenceContext3new
FNDA:35,_RNvMNtNtCskTACvQmcrtm_5ruchy9middleend5inferNtB2_16InferenceContext5infer
FNDA:4,_RNvMNtNtCskTACvQmcrtm_5ruchy9middleend5inferNtB2_16InferenceContext8infer_if
FNDA:0,_RNvMNtNtCskTACvQmcrtm_5ruchy9middleend5inferNtB2_16InferenceContext9infer_ask
FNDA:0,_RNvMNtNtCskTACvQmcrtm_5ruchy9middleend5inferNtB2_16InferenceContext9infer_for
FNDA:11,_RNvMNtNtCskTACvQmcrtm_5ruchy9middleend5inferNtB2_16InferenceContext9infer_let
FNDA:35,_RNvNtNtNtCskTACvQmcrtm_5ruchy9middleend5infer5tests9infer_str
FNDA:1,_RNvNtNtNtCskTACvQmcrtm_5ruchy9middleend5infer5testss_13test_infer_if
FNDA:1,_RNvNtNtNtCskTACvQmcrtm_5ruchy9middleend5infer5testss_14test_infer_let
FNDA:1,_RNvNtNtNtCskTACvQmcrtm_5ruchy9middleend5infer5testss_15test_infer_list
FNDA:1,_RNvNtNtNtCskTACvQmcrtm_5ruchy9middleend5infer5testss_16test_type_errors
FNDA:1,_RNvNtNtNtCskTACvQmcrtm_5ruchy9middleend5infer5testss_17test_infer_lambda
FNDA:0,_RNvNtNtNtCskTACvQmcrtm_5ruchy9middleend5infer5testss_17test_infer_series
FNDA:1,_RNvNtNtNtCskTACvQmcrtm_5ruchy9middleend5infer5testss_19test_infer_function
FNDA:1,_RNvNtNtNtCskTACvQmcrtm_5ruchy9middleend5infer5testss_19test_infer_literals
FNDA:0,_RNvNtNtNtCskTACvQmcrtm_5ruchy9middleend5infer5testss_20test_infer_dataframe
FNDA:1,_RNvNtNtNtCskTACvQmcrtm_5ruchy9middleend5infer5testss_21test_infer_arithmetic
FNDA:1,_RNvNtNtNtCskTACvQmcrtm_5ruchy9middleend5infer5testss_21test_infer_comparison
FNDA:1,_RNvNtNtNtCskTACvQmcrtm_5ruchy9middleend5infer5testss_23test_constraint_solving
FNDA:1,_RNvNtNtNtCskTACvQmcrtm_5ruchy9middleend5infer5testss_26test_self_hosting_patterns
FNDA:1,_RNvNtNtNtCskTACvQmcrtm_5ruchy9middleend5infer5testss_29test_compiler_data_structures
FNDA:0,_RNvNtNtNtCskTACvQmcrtm_5ruchy9middleend5infer5testss_31test_infer_dataframe_operations
FNDA:0,_RNvMNtNtCskTACvQmcrtm_5ruchy9middleend5inferNtB2_16InferenceContext5apply
FNDA:0,_RNvMNtNtCskTACvQmcrtm_5ruchy9middleend5inferNtB2_16InferenceContext5solve
FNDA:0,_RNvMNtNtCskTACvQmcrtm_5ruchy9middleend5inferNtB2_16InferenceContext8with_env
FNDA:0,_RNvXs_NtNtCskTACvQmcrtm_5ruchy9middleend5inferNtB4_16InferenceContextNtNtCs66KPHxksi63_4core7default7Default7default
FNDA:13,_RNCNvMNtNtCskTACvQmcrtm_5ruchy9middleend5inferNtB4_16InferenceContext12infer_lambda0B8_
FNDA:3,_RNCNvMNtNtCskTACvQmcrtm_5ruchy9middleend5inferNtB4_16InferenceContext14infer_function0B8_
FNDA:0,_RNCNvMNtNtCskTACvQmcrtm_5ruchy9middleend5inferNtB4_16InferenceContext23ast_type_to_mono_static0B8_
FNF:96
FNH:44
DA:40,35
DA:41,35
DA:42,35
DA:43,35
DA:44,35
DA:45,35
DA:46,35
DA:47,35
DA:48,35
DA:49,35
DA:52,0
DA:53,0
DA:54,0
DA:55,0
DA:56,0
DA:57,0
DA:58,0
DA:59,0
DA:60,0
DA:61,0
DA:68,35
DA:70,35
DA:71,0
DA:72,35
DA:74,35
DA:75,35
DA:76,35
DA:78,35
DA:81,32
DA:84,32
DA:85,35
DA:88,32
DA:90,32
DA:93,34
DA:94,2
DA:97,32
DA:98,32
DA:101,32
DA:102,32
DA:103,0
DA:104,0
DA:105,0
DA:106,0
DA:107,0
DA:108,0
DA:109,32
DA:112,2
DA:113,2
DA:114,0
DA:115,0
DA:117,0
DA:119,0
DA:120,0
DA:122,0
DA:123,0
DA:124,0
DA:125,0
DA:127,0
DA:128,0
DA:129,0
DA:133,0
DA:135,2
DA:137,2
DA:139,0
DA:141,0
DA:142,0
DA:143,0
DA:147,0
DA:149,0
DA:153,2
DA:154,2
DA:157,2
DA:158,2
DA:159,2
DA:160,2
DA:161,2
DA:162,2
DA:163,2
DA:165,2
DA:166,2
DA:167,0
DA:170,0
DA:171,0
DA:172,0
DA:175,0
DA:176,0
DA:177,0
DA:180,0
DA:181,0
DA:184,0
DA:190,0
DA:193,2
DA:202,159
DA:203,159
DA:205,60
DA:206,28
DA:207,0
DA:211,4
DA:213,0
DA:215,0
DA:220,12
DA:225,7
DA:230,27
DA:234,21
DA:236,159
DA:238,60
DA:239,60
DA:240,44
DA:241,3
DA:242,4
DA:243,9
DA:244,0
DA:245,0
DA:247,60
DA:249,28
DA:250,28
DA:251,28
DA:252,0
DA:254,28
DA:256,18
DA:257,18
DA:258,18
DA:260,18
DA:268,14
DA:270,13
DA:271,13
DA:274,0
DA:275,0
DA:276,0
DA:286,4
DA:287,4
DA:291,0
DA:292,0
DA:293,0
DA:298,0
DA:305,0
DA:306,0
DA:307,0
DA:310,18
DA:312,0
DA:313,0
DA:315,0
DA:317,0
DA:318,0
DA:322,0
DA:323,0
DA:326,0
DA:327,0
DA:331,0
DA:334,0
DA:337,0
DA:339,0
DA:347,0
DA:348,0
DA:350,0
DA:352,0
DA:356,0
DA:357,0
DA:359,0
DA:360,0
DA:361,0
DA:364,0
DA:365,0
DA:367,4
DA:368,4
DA:369,4
DA:370,4
DA:371,4
DA:372,4
DA:374,4
DA:375,4
DA:377,3
DA:379,3
DA:380,3
DA:382,3
DA:383,3
DA:386,0
DA:387,0
DA:389,4
DA:391,11
DA:392,11
DA:393,11
DA:394,11
DA:395,11
DA:396,11
DA:397,11
DA:399,11
DA:402,11
DA:405,11
DA:406,11
DA:407,11
DA:408,11
DA:410,11
DA:411,11
DA:413,2
DA:414,2
DA:415,2
DA:416,2
DA:417,2
DA:418,2
DA:419,2
DA:420,2
DA:422,2
DA:423,2
DA:425,5
DA:426,3
DA:427,3
DA:429,0
DA:432,3
DA:434,3
DA:435,3
DA:439,2
DA:440,2
DA:441,2
DA:442,2
DA:443,3
DA:444,3
DA:445,3
DA:446,2
DA:449,2
DA:450,2
DA:452,2
DA:454,2
DA:458,2
DA:459,2
DA:461,10
DA:462,10
DA:465,10
DA:466,23
DA:467,13
DA:468,13
DA:470,13
DA:474,0
DA:477,13
DA:478,13
DA:482,10
DA:485,10
DA:488,13
DA:489,13
DA:490,13
DA:492,10
DA:493,10
DA:495,7
DA:496,7
DA:499,7
DA:500,7
DA:502,8
DA:503,8
DA:504,8
DA:508,7
DA:510,7
DA:511,7
DA:513,0
DA:515,0
DA:516,0
DA:520,0
DA:521,0
DA:522,0
DA:524,0
DA:526,0
DA:529,0
DA:530,0
DA:533,0
DA:535,0
DA:540,2
DA:541,2
DA:542,2
DA:543,2
DA:544,2
DA:545,2
DA:546,2
DA:547,2
DA:550,0
DA:551,2
DA:552,0
DA:554,0
DA:556,0
DA:557,0
DA:559,0
DA:561,2
DA:564,2
DA:565,2
DA:566,2
DA:567,2
DA:568,2
DA:569,2
DA:570,2
DA:571,2
DA:573,2
DA:574,2
DA:575,2
DA:576,2
DA:577,2
DA:578,2
DA:579,2
DA:582,2
DA:583,2
DA:584,2
DA:585,2
DA:586,2
DA:587,2
DA:588,2
DA:589,2
DA:590,2
DA:591,2
DA:592,2
DA:594,0
DA:595,0
DA:596,0
DA:597,0
DA:598,0
DA:600,0
DA:601,0
DA:602,0
DA:604,0
DA:605,0
DA:606,0
DA:608,0
DA:609,0
DA:610,0
DA:612,0
DA:613,0
DA:614,0
DA:616,0
DA:619,0
DA:621,2
DA:624,0
DA:625,0
DA:626,0
DA:627,0
DA:628,0
DA:629,0
DA:630,0
DA:631,0
DA:632,0
DA:633,0
DA:635,0
DA:636,0
DA:637,0
DA:639,0
DA:641,0
DA:644,0
DA:645,0
DA:646,0
DA:647,0
DA:648,0
DA:649,0
DA:650,0
DA:651,0
DA:652,0
DA:653,0
DA:654,0
DA:655,0
DA:657,0
DA:660,0
DA:661,0
DA:662,0
DA:664,0
DA:667,0
DA:668,0
DA:669,0
DA:670,0
DA:671,0
DA:672,0
DA:673,0
DA:674,0
DA:675,0
DA:676,0
DA:677,0
DA:678,0
DA:679,0
DA:680,0
DA:682,0
DA:684,0
DA:687,0
DA:688,0
DA:689,0
DA:690,0
DA:691,0
DA:692,0
DA:693,0
DA:694,0
DA:695,0
DA:696,0
DA:698,0
DA:699,0
DA:701,0
DA:703,0
DA:706,0
DA:707,0
DA:708,0
DA:709,0
DA:710,0
DA:711,0
DA:712,0
DA:714,0
DA:715,0
DA:716,0
DA:720,0
DA:721,0
DA:722,0
DA:725,2
DA:726,2
DA:727,0
DA:728,2
DA:729,2
DA:730,2
DA:732,0
DA:733,0
DA:734,0
DA:735,0
DA:736,0
DA:737,0
DA:739,8
DA:740,8
DA:741,0
DA:742,8
DA:744,8
DA:745,16
DA:746,8
DA:749,8
DA:750,8
DA:752,7
DA:753,7
DA:755,0
DA:756,0
DA:757,7
DA:760,7
DA:761,12
DA:762,12
DA:763,12
DA:766,6
DA:767,7
DA:769,0
DA:770,0
DA:771,0
DA:772,0
DA:773,0
DA:774,0
DA:775,0
DA:777,0
DA:778,0
DA:779,0
DA:780,0
DA:783,0
DA:784,0
DA:785,0
DA:786,0
DA:789,0
DA:790,0
DA:791,0
DA:792,0
DA:795,0
DA:798,0
DA:801,0
DA:802,0
DA:803,0
DA:804,0
DA:806,0
DA:807,0
DA:808,0
DA:809,0
DA:810,0
DA:811,0
DA:813,0
DA:814,0
DA:815,0
DA:818,0
DA:820,0
DA:822,0
DA:823,0
DA:828,0
DA:829,0
DA:831,0
DA:834,0
DA:835,0
DA:837,0
DA:838,0
DA:839,0
DA:840,0
DA:841,0
DA:842,0
DA:844,0
DA:846,0
DA:847,0
DA:849,0
DA:852,0
DA:854,0
DA:855,0
DA:856,0
DA:857,0
DA:859,0
DA:860,0
DA:862,0
DA:864,0
DA:866,0
DA:867,0
DA:870,0
DA:871,0
DA:872,0
DA:873,0
DA:874,0
DA:875,0
DA:878,0
DA:880,0
DA:881,0
DA:884,0
DA:885,0
DA:886,0
DA:887,0
DA:888,0
DA:891,0
DA:893,0
DA:894,0
DA:897,0
DA:898,0
DA:899,0
DA:900,0
DA:905,0
DA:906,0
DA:907,0
DA:909,0
DA:911,0
DA:912,0
DA:913,0
DA:914,0
DA:915,0
DA:917,0
DA:918,0
DA:920,0
DA:923,0
DA:924,0
DA:927,0
DA:928,0
DA:929,0
DA:930,0
DA:931,0
DA:933,0
DA:935,0
DA:937,0
DA:938,0
DA:939,0
DA:940,0
DA:943,0
DA:944,0
DA:946,0
DA:948,0
DA:949,0
DA:951,0
DA:955,0
DA:957,0
DA:960,0
DA:961,0
DA:963,0
DA:966,0
DA:969,0
DA:971,0
DA:972,0
DA:975,0
DA:976,0
DA:977,0
DA:980,0
DA:981,0
DA:982,0
DA:983,0
DA:986,0
DA:987,0
DA:989,0
DA:991,0
DA:992,0
DA:995,0
DA:996,0
DA:999,0
DA:1000,0
DA:1002,0
DA:1004,0
DA:1005,0
DA:1008,0
DA:1009,0
DA:1011,0
DA:1012,0
DA:1013,0
DA:1016,0
DA:1017,0
DA:1020,0
DA:1021,0
DA:1023,0
DA:1024,0
DA:1025,0
DA:1026,0
DA:1027,0
DA:1028,0
DA:1030,0
DA:1032,0
DA:1035,0
DA:1036,0
DA:1037,0
DA:1039,0
DA:1040,0
DA:1043,0
DA:1044,0
DA:1046,0
DA:1048,0
DA:1051,0
DA:1054,0
DA:1057,0
DA:1058,0
DA:1060,0
DA:1061,0
DA:1062,0
DA:1063,0
DA:1064,0
DA:1065,0
DA:1067,0
DA:1068,0
DA:1072,0
DA:1075,0
DA:1078,0
DA:1079,0
DA:1081,0
DA:1082,0
DA:1083,0
DA:1084,0
DA:1085,0
DA:1086,0
DA:1087,0
DA:1095,0
DA:1096,0
DA:1097,0
DA:1098,0
DA:1099,0
DA:1101,0
DA:1102,0
DA:1103,0
DA:1107,0
DA:1108,0
DA:1109,0
DA:1111,0
DA:1112,0
DA:1122,0
DA:1123,0
DA:1127,0
DA:1128,0
DA:1129,0
DA:1134,0
DA:1141,0
DA:1142,0
DA:1143,0
DA:1146,0
DA:1148,0
DA:1150,0
DA:1154,0
DA:1155,0
DA:1157,0
DA:1158,0
DA:1160,0
DA:1162,3
DA:1165,3
DA:1166,3
DA:1167,3
DA:1168,0
DA:1169,0
DA:1170,0
DA:1171,0
DA:1172,0
DA:1174,0
DA:1177,0
DA:1178,0
DA:1179,0
DA:1180,0
DA:1182,0
DA:1185,0
DA:1186,0
DA:1187,0
DA:1188,0
DA:1189,0
DA:1191,0
DA:1192,0
DA:1193,0
DA:1196,0
DA:1199,0
DA:1200,0
DA:1202,0
DA:1203,0
DA:1205,0
DA:1208,0
DA:1210,0
DA:1211,0
DA:1212,0
DA:1213,0
DA:1215,0
DA:1216,0
DA:1218,0
DA:1219,0
DA:1221,0
DA:1222,0
DA:1223,0
DA:1224,0
DA:1226,0
DA:1228,0
DA:1229,0
DA:1231,0
DA:1232,0
DA:1233,0
DA:1234,0
DA:1235,0
DA:1236,0
DA:1238,0
DA:1240,0
DA:1243,3
DA:1247,0
DA:1248,0
DA:1249,0
DA:1253,0
DA:1254,0
DA:1255,0
DA:1263,4
DA:1264,4
DA:1265,4
DA:1266,4
DA:1268,0
DA:1269,0
DA:1270,0
DA:1271,0
DA:1272,0
DA:1273,0
DA:1274,0
DA:1275,0
DA:1277,0
DA:1279,0
DA:1280,0
DA:1282,0
DA:1283,0
DA:1284,0
DA:1285,0
DA:1287,0
DA:1289,4
DA:1292,12
DA:1293,12
DA:1294,2
DA:1295,2
DA:1297,10
DA:1298,0
DA:1300,12
DA:1303,7
DA:1304,7
DA:1305,7
DA:1306,0
DA:1307,0
DA:1308,0
DA:1310,0
DA:1311,0
DA:1313,0
DA:1315,7
DA:1318,27
DA:1319,27
DA:1320,18
DA:1321,0
DA:1322,7
DA:1323,2
DA:1324,2
DA:1326,0
DA:1328,27
DA:1333,21
DA:1334,21
DA:1336,0
DA:1337,0
DA:1338,0
DA:1339,0
DA:1343,0
DA:1350,2
DA:1356,0
DA:1360,0
DA:1364,0
DA:1370,0
DA:1377,0
DA:1381,19
DA:1383,21
DA:1386,0
DA:1387,0
DA:1388,0
DA:1391,2
DA:1392,2
DA:1393,2
DA:1396,0
DA:1397,0
DA:1398,0
DA:1399,0
DA:1400,0
DA:1401,0
DA:1402,0
DA:1403,0
DA:1405,0
DA:1408,0
DA:1409,0
DA:1410,0
DA:1411,0
DA:1412,0
DA:1415,0
DA:1416,0
DA:1418,0
DA:1420,0
DA:1423,0
DA:1424,0
DA:1425,0
DA:1426,0
DA:1427,0
DA:1428,0
DA:1429,0
DA:1431,0
DA:1433,0
DA:1436,0
DA:1437,0
DA:1438,0
DA:1439,0
DA:1441,0
DA:1442,0
DA:1444,0
DA:1445,0
DA:1447,0
DA:1450,0
DA:1451,0
DA:1452,0
DA:1453,0
DA:1454,0
DA:1456,0
DA:1457,0
DA:1458,0
DA:1460,0
DA:1462,0
DA:1465,19
DA:1466,19
DA:1467,11
DA:1468,11
DA:1470,8
DA:1471,0
DA:1472,0
DA:1473,0
DA:1474,0
DA:1475,0
DA:1476,0
DA:1477,0
DA:1478,0
DA:1480,0
DA:1482,19
DA:1485,0
DA:1486,0
DA:1487,0
DA:1488,0
DA:1489,0
DA:1490,0
DA:1491,0
DA:1492,0
DA:1494,0
DA:1495,0
DA:1497,0
DA:1498,0
DA:1499,0
DA:1500,0
DA:1501,0
DA:1503,0
DA:1504,0
DA:1505,0
DA:1506,0
DA:1507,0
DA:1509,0
DA:1510,0
DA:1511,0
DA:1512,0
DA:1513,0
DA:1514,0
DA:1515,0
DA:1516,0
DA:1518,0
DA:1519,0
DA:1523,0
DA:1524,0
DA:1526,0
DA:1527,0
DA:1528,0
DA:1529,0
DA:1531,0
DA:1532,0
DA:1533,0
DA:1536,0
DA:1537,0
DA:1539,0
DA:1540,0
DA:1541,0
DA:1544,0
DA:1545,0
DA:1547,0
DA:1548,0
DA:1552,0
DA:1553,0
DA:1555,0
DA:1557,0
DA:1559,0
DA:1560,0
DA:1563,0
DA:1564,0
DA:1566,0
DA:1567,0
DA:1568,0
DA:1569,0
DA:1570,0
DA:1572,0
DA:1573,0
DA:1574,0
DA:1575,0
DA:1576,0
DA:1577,0
DA:1578,0
DA:1579,0
DA:1580,0
DA:1581,0
DA:1582,0
DA:1583,0
DA:1584,0
DA:1585,0
DA:1587,0
DA:1588,0
DA:1589,0
DA:1590,0
DA:1591,0
DA:1593,0
DA:1595,0
DA:1596,0
DA:1598,0
DA:1600,0
DA:1601,0
DA:1602,0
DA:1604,0
DA:1606,0
DA:1609,0
DA:1610,0
DA:1612,0
DA:1613,0
DA:1614,0
DA:1615,0
DA:1616,0
DA:1619,0
DA:1622,0
DA:1623,0
DA:1624,0
DA:1627,0
DA:1629,0
DA:1631,0
DA:1632,0
DA:1633,0
DA:1634,0
DA:1635,0
DA:1636,0
DA:1638,0
DA:1642,0
DA:1646,0
DA:1650,0
DA:1654,0
DA:1658,0
DA:1662,0
DA:1664,0
DA:1666,0
DA:1668,0
DA:1670,0
DA:1672,0
DA:1675,0
DA:1676,0
DA:1680,0
DA:1681,0
DA:1682,0
DA:1692,35
DA:1693,35
DA:1694,35
DA:1695,35
DA:1696,35
DA:1697,35
DA:1700,1
DA:1701,1
DA:1702,1
DA:1703,1
DA:1704,1
DA:1705,1
DA:1708,1
DA:1709,1
DA:1710,1
DA:1711,1
DA:1712,1
DA:1715,1
DA:1716,1
DA:1717,1
DA:1718,1
DA:1719,1
DA:1722,1
DA:1723,1
DA:1724,1
DA:1727,1
DA:1728,1
DA:1731,1
DA:1734,1
DA:1735,1
DA:1736,1
DA:1737,1
DA:1740,1
DA:1743,1
DA:1744,1
DA:1745,1
DA:1746,1
DA:1748,1
DA:1749,1
DA:1750,1
DA:1752,1
DA:1756,0
DA:1757,0
DA:1758,0
DA:1759,0
DA:1760,0
DA:1762,0
DA:1763,0
DA:1764,0
DA:1765,0
DA:1766,0
DA:1767,0
DA:1768,0
DA:1769,0
DA:1771,0
DA:1773,0
DA:1777,0
DA:1779,0
DA:1780,0
DA:1781,0
DA:1784,0
DA:1785,0
DA:1786,0
DA:1787,0
DA:1788,0
DA:1789,0
DA:1791,0
DA:1793,0
DA:1797,0
DA:1799,0
DA:1800,0
DA:1801,0
DA:1804,0
DA:1805,0
DA:1806,0
DA:1807,0
DA:1810,1
DA:1811,1
DA:1812,1
DA:1813,1
DA:1814,1
DA:1815,1
DA:1816,1
DA:1817,1
DA:1818,1
DA:1820,0
DA:1823,0
DA:1825,1
DA:1828,1
DA:1829,1
DA:1830,1
DA:1831,1
DA:1832,1
DA:1835,1
DA:1837,1
DA:1838,1
DA:1839,1
DA:1840,1
DA:1841,1
DA:1843,0
DA:1847,1
DA:1848,1
DA:1849,1
DA:1850,1
DA:1851,1
DA:1852,1
DA:1853,1
DA:1854,1
DA:1856,0
DA:1859,0
DA:1863,1
DA:1864,1
DA:1867,1
DA:1868,1
DA:1869,1
DA:1872,1
DA:1874,1
DA:1875,1
DA:1876,1
DA:1877,1
DA:1878,1
DA:1880,0
DA:1884,1
DA:1885,1
DA:1888,1
DA:1889,1
DA:1890,1
DA:1891,1
DA:1892,1
DA:1894,0
DA:1896,1
DA:1899,1
DA:1901,1
DA:1902,1
DA:1905,1
DA:1906,1
DA:1909,1
DA:1910,1
DA:1913,1
DA:1914,1
DA:1915,1
DA:1918,1
DA:1920,1
DA:1921,1
DA:1924,1
DA:1925,1
DA:1928,1
DA:1929,1
DA:1932,1
DA:1933,1
DA:1934,1
BRF:0
BRH:0
LF:1128
LH:372
end_of_record
SF:/home/noah/src/ruchy/src/middleend/mir/builder.rs
FN:107,_RNCNvMNtNtNtCskTACvQmcrtm_5ruchy9middleend3mir7builderNtB4_10MirBuilder9block_mut0Ba_
FN:60,_RNvMNtNtNtCskTACvQmcrtm_5ruchy9middleend3mir7builderNtB2_10MirBuilder11alloc_local
FN:135,_RNvMNtNtNtCskTACvQmcrtm_5ruchy9middleend3mir7builderNtB2_10MirBuilder12storage_live
FN:111,_RNvMNtNtNtCskTACvQmcrtm_5ruchy9middleend3mir7builderNtB2_10MirBuilder14push_statement
FN:118,_RNvMNtNtNtCskTACvQmcrtm_5ruchy9middleend3mir7builderNtB2_10MirBuilder14set_terminator
FN:34,_RNvMNtNtNtCskTACvQmcrtm_5ruchy9middleend3mir7builderNtB2_10MirBuilder14start_function
FN:125,_RNvMNtNtNtCskTACvQmcrtm_5ruchy9middleend3mir7builderNtB2_10MirBuilder15finish_function
FN:24,_RNvMNtNtNtCskTACvQmcrtm_5ruchy9middleend3mir7builderNtB2_10MirBuilder3new
FN:145,_RNvMNtNtNtCskTACvQmcrtm_5ruchy9middleend3mir7builderNtB2_10MirBuilder4goto
FN:130,_RNvMNtNtNtCskTACvQmcrtm_5ruchy9middleend3mir7builderNtB2_10MirBuilder6assign
FN:150,_RNvMNtNtNtCskTACvQmcrtm_5ruchy9middleend3mir7builderNtB2_10MirBuilder6branch
FN:168,_RNvMNtNtNtCskTACvQmcrtm_5ruchy9middleend3mir7builderNtB2_10MirBuilder7return_
FN:50,_RNvMNtNtNtCskTACvQmcrtm_5ruchy9middleend3mir7builderNtB2_10MirBuilder9add_param
FN:104,_RNvMNtNtNtCskTACvQmcrtm_5ruchy9middleend3mir7builderNtB2_10MirBuilder9block_mut
FN:173,_RNvMNtNtNtCskTACvQmcrtm_5ruchy9middleend3mir7builderNtB2_10MirBuilder9call_term
FN:83,_RNvMNtNtNtCskTACvQmcrtm_5ruchy9middleend3mir7builderNtB2_10MirBuilder9get_local
FN:88,_RNvMNtNtNtCskTACvQmcrtm_5ruchy9middleend3mir7builderNtB2_10MirBuilder9new_block
FN:231,_RNvMs_NtNtNtCskTACvQmcrtm_5ruchy9middleend3mir7builderNtB4_10MirBuilder4call
FN:225,_RNvMs_NtNtNtCskTACvQmcrtm_5ruchy9middleend3mir7builderNtB4_10MirBuilder8unary_op
FN:212,_RNvMs_NtNtNtCskTACvQmcrtm_5ruchy9middleend3mir7builderNtB4_10MirBuilder9binary_op
FN:322,_RNvNtNtNtNtCskTACvQmcrtm_5ruchy9middleend3mir7builder5testss_18test_build_if_else
FN:293,_RNvNtNtNtNtCskTACvQmcrtm_5ruchy9middleend3mir7builder5testss_26test_build_simple_function
FN:140,_RNvMNtNtNtCskTACvQmcrtm_5ruchy9middleend3mir7builderNtB2_10MirBuilder12storage_dead
FN:191,_RNvMNtNtNtCskTACvQmcrtm_5ruchy9middleend3mir7builderNtB2_10MirBuilder6switch
FN:244,_RNvMs_NtNtNtCskTACvQmcrtm_5ruchy9middleend3mir7builderNtB4_10MirBuilder4cast
FN:269,_RNvMs_NtNtNtCskTACvQmcrtm_5ruchy9middleend3mir7builderNtB4_10MirBuilder4copy
FN:257,_RNvMs_NtNtNtCskTACvQmcrtm_5ruchy9middleend3mir7builderNtB4_10MirBuilder4ref_
FN:263,_RNvMs_NtNtNtCskTACvQmcrtm_5ruchy9middleend3mir7builderNtB4_10MirBuilder5move_
FN:275,_RNvMs_NtNtNtCskTACvQmcrtm_5ruchy9middleend3mir7builderNtB4_10MirBuilder6const_
FN:282,_RNvXs0_NtNtNtCskTACvQmcrtm_5ruchy9middleend3mir7builderNtB5_10MirBuilderNtNtCs66KPHxksi63_4core7default7Default7default
FNDA:19,_RNCNvMNtNtNtCskTACvQmcrtm_5ruchy9middleend3mir7builderNtB4_10MirBuilder9block_mut0Ba_
FNDA:11,_RNvMNtNtNtCskTACvQmcrtm_5ruchy9middleend3mir7builderNtB2_10MirBuilder11alloc_local
FNDA:1,_RNvMNtNtNtCskTACvQmcrtm_5ruchy9middleend3mir7builderNtB2_10MirBuilder12storage_live
FNDA:7,_RNvMNtNtNtCskTACvQmcrtm_5ruchy9middleend3mir7builderNtB2_10MirBuilder14push_statement
FNDA:12,_RNvMNtNtNtCskTACvQmcrtm_5ruchy9middleend3mir7builderNtB2_10MirBuilder14set_terminator
FNDA:6,_RNvMNtNtNtCskTACvQmcrtm_5ruchy9middleend3mir7builderNtB2_10MirBuilder14start_function
FNDA:6,_RNvMNtNtNtCskTACvQmcrtm_5ruchy9middleend3mir7builderNtB2_10MirBuilder15finish_function
FNDA:6,_RNvMNtNtNtCskTACvQmcrtm_5ruchy9middleend3mir7builderNtB2_10MirBuilder3new
FNDA:4,_RNvMNtNtNtCskTACvQmcrtm_5ruchy9middleend3mir7builderNtB2_10MirBuilder4goto
FNDA:6,_RNvMNtNtNtCskTACvQmcrtm_5ruchy9middleend3mir7builderNtB2_10MirBuilder6assign
FNDA:2,_RNvMNtNtNtCskTACvQmcrtm_5ruchy9middleend3mir7builderNtB2_10MirBuilder6branch
FNDA:6,_RNvMNtNtNtCskTACvQmcrtm_5ruchy9middleend3mir7builderNtB2_10MirBuilder7return_
FNDA:5,_RNvMNtNtNtCskTACvQmcrtm_5ruchy9middleend3mir7builderNtB2_10MirBuilder9add_param
FNDA:19,_RNvMNtNtNtCskTACvQmcrtm_5ruchy9middleend3mir7builderNtB2_10MirBuilder9block_mut
FNDA:0,_RNvMNtNtNtCskTACvQmcrtm_5ruchy9middleend3mir7builderNtB2_10MirBuilder9call_term
FNDA:2,_RNvMNtNtNtCskTACvQmcrtm_5ruchy9middleend3mir7builderNtB2_10MirBuilder9get_local
FNDA:12,_RNvMNtNtNtCskTACvQmcrtm_5ruchy9middleend3mir7builderNtB2_10MirBuilder9new_block
FNDA:0,_RNvMs_NtNtNtCskTACvQmcrtm_5ruchy9middleend3mir7builderNtB4_10MirBuilder4call
FNDA:1,_RNvMs_NtNtNtCskTACvQmcrtm_5ruchy9middleend3mir7builderNtB4_10MirBuilder8unary_op
FNDA:4,_RNvMs_NtNtNtCskTACvQmcrtm_5ruchy9middleend3mir7builderNtB4_10MirBuilder9binary_op
FNDA:1,_RNvNtNtNtNtCskTACvQmcrtm_5ruchy9middleend3mir7builder5testss_18test_build_if_else
FNDA:1,_RNvNtNtNtNtCskTACvQmcrtm_5ruchy9middleend3mir7builder5testss_26test_build_simple_function
FNDA:0,_RNvMNtNtNtCskTACvQmcrtm_5ruchy9middleend3mir7builderNtB2_10MirBuilder12storage_dead
FNDA:0,_RNvMNtNtNtCskTACvQmcrtm_5ruchy9middleend3mir7builderNtB2_10MirBuilder6switch
FNDA:0,_RNvMs_NtNtNtCskTACvQmcrtm_5ruchy9middleend3mir7builderNtB4_10MirBuilder4cast
FNDA:0,_RNvMs_NtNtNtCskTACvQmcrtm_5ruchy9middleend3mir7builderNtB4_10MirBuilder4copy
FNDA:0,_RNvMs_NtNtNtCskTACvQmcrtm_5ruchy9middleend3mir7builderNtB4_10MirBuilder4ref_
FNDA:0,_RNvMs_NtNtNtCskTACvQmcrtm_5ruchy9middleend3mir7builderNtB4_10MirBuilder5move_
FNDA:0,_RNvMs_NtNtNtCskTACvQmcrtm_5ruchy9middleend3mir7builderNtB4_10MirBuilder6const_
FNDA:0,_RNvXs0_NtNtNtCskTACvQmcrtm_5ruchy9middleend3mir7builderNtB5_10MirBuilderNtNtCs66KPHxksi63_4core7default7Default7default
FNF:30
FNH:20
DA:24,6
DA:25,6
DA:26,6
DA:27,6
DA:28,6
DA:29,6
DA:30,6
DA:31,6
DA:34,6
DA:35,6
DA:36,6
DA:37,6
DA:38,6
DA:39,6
DA:40,6
DA:41,6
DA:42,6
DA:43,6
DA:44,6
DA:45,6
DA:46,6
DA:47,6
DA:50,5
DA:51,5
DA:52,5
DA:53,5
DA:54,5
DA:55,5
DA:56,5
DA:57,5
DA:60,11
DA:61,11
DA:62,11
DA:64,11
DA:65,11
DA:66,11
DA:67,11
DA:68,11
DA:69,11
DA:71,11
DA:72,11
DA:73,11
DA:75,11
DA:76,6
DA:77,6
DA:79,11
DA:80,11
DA:83,2
DA:84,2
DA:85,2
DA:88,12
DA:89,12
DA:90,12
DA:92,12
DA:93,12
DA:94,12
DA:95,12
DA:96,12
DA:97,12
DA:98,12
DA:100,12
DA:101,12
DA:104,19
DA:105,19
DA:106,19
DA:107,19
DA:108,19
DA:111,7
DA:112,7
DA:113,7
DA:114,7
DA:115,7
DA:118,12
DA:119,12
DA:120,12
DA:121,12
DA:122,12
DA:125,6
DA:126,6
DA:127,6
DA:130,6
DA:131,6
DA:132,6
DA:135,1
DA:136,1
DA:137,1
DA:140,0
DA:141,0
DA:142,0
DA:145,4
DA:146,4
DA:147,4
DA:150,2
DA:151,2
DA:152,2
DA:153,2
DA:154,2
DA:155,2
DA:156,2
DA:157,2
DA:158,2
DA:159,2
DA:160,2
DA:161,2
DA:162,2
DA:163,2
DA:165,2
DA:168,6
DA:169,6
DA:170,6
DA:173,0
DA:174,0
DA:175,0
DA:176,0
DA:177,0
DA:178,0
DA:179,0
DA:180,0
DA:181,0
DA:182,0
DA:183,0
DA:184,0
DA:185,0
DA:186,0
DA:188,0
DA:191,0
DA:192,0
DA:193,0
DA:194,0
DA:195,0
DA:196,0
DA:197,0
DA:198,0
DA:199,0
DA:200,0
DA:201,0
DA:202,0
DA:203,0
DA:204,0
DA:206,0
DA:212,4
DA:213,4
DA:214,4
DA:215,4
DA:216,4
DA:217,4
DA:218,4
DA:219,4
DA:220,4
DA:221,4
DA:222,4
DA:225,1
DA:226,1
DA:227,1
DA:228,1
DA:231,0
DA:232,0
DA:233,0
DA:234,0
DA:235,0
DA:236,0
DA:237,0
DA:238,0
DA:239,0
DA:240,0
DA:241,0
DA:244,0
DA:245,0
DA:246,0
DA:247,0
DA:248,0
DA:249,0
DA:250,0
DA:251,0
DA:252,0
DA:253,0
DA:254,0
DA:257,0
DA:258,0
DA:259,0
DA:260,0
DA:263,0
DA:264,0
DA:265,0
DA:266,0
DA:269,0
DA:270,0
DA:271,0
DA:272,0
DA:275,0
DA:276,0
DA:277,0
DA:278,0
DA:282,0
DA:283,0
DA:284,0
DA:293,1
DA:294,1
DA:297,1
DA:299,1
DA:300,1
DA:302,1
DA:303,1
DA:305,1
DA:306,1
DA:307,1
DA:308,1
DA:309,1
DA:310,1
DA:311,1
DA:313,1
DA:315,1
DA:316,1
DA:317,1
DA:318,1
DA:319,1
DA:322,1
DA:323,1
DA:326,1
DA:328,1
DA:330,1
DA:331,1
DA:332,1
DA:333,1
DA:336,1
DA:337,1
DA:338,1
DA:339,1
DA:340,1
DA:341,1
DA:342,1
DA:344,1
DA:345,1
DA:346,1
DA:347,1
DA:348,1
DA:352,1
DA:353,1
DA:354,1
DA:357,1
DA:360,1
DA:362,1
DA:363,1
DA:364,1
BRF:0
BRH:0
LF:245
LH:171
end_of_record
SF:/home/noah/src/ruchy/src/middleend/mir/lower.rs
FN:353,_RNCNvMNtNtNtCskTACvQmcrtm_5ruchy9middleend3mir5lowerNtB4_15LoweringContext15ast_to_mir_type0Ba_
FN:371,_RNCNvMNtNtNtCskTACvQmcrtm_5ruchy9middleend3mir5lowerNtB4_15LoweringContext15ast_to_mir_types_0Ba_
FN:68,_RNCNvMNtNtNtCskTACvQmcrtm_5ruchy9middleend3mir5lowerNtB4_15LoweringContext14lower_function0Ba_
FN:91,_RNCNvMNtNtNtCskTACvQmcrtm_5ruchy9middleend3mir5lowerNtB4_15LoweringContext14lower_functions_0Ba_
FN:119,_RNCNvMNtNtNtCskTACvQmcrtm_5ruchy9middleend3mir5lowerNtB4_15LoweringContext15lower_main_expr0Ba_
FN:134,_RNCNvMNtNtNtCskTACvQmcrtm_5ruchy9middleend3mir5lowerNtB4_15LoweringContext21lower_expr_to_operand0Ba_
FN:43,_RNvMNtNtNtCskTACvQmcrtm_5ruchy9middleend3mir5lowerNtB2_15LoweringContext10lower_expr
FN:267,_RNvMNtNtNtCskTACvQmcrtm_5ruchy9middleend3mir5lowerNtB2_15LoweringContext13lower_literal
FN:60,_RNvMNtNtNtCskTACvQmcrtm_5ruchy9middleend3mir5lowerNtB2_15LoweringContext14lower_function
FN:304,_RNvMNtNtNtCskTACvQmcrtm_5ruchy9middleend3mir5lowerNtB2_15LoweringContext14lower_unary_op
FN:315,_RNvMNtNtNtCskTACvQmcrtm_5ruchy9middleend3mir5lowerNtB2_15LoweringContext15ast_to_mir_type
FN:279,_RNvMNtNtNtCskTACvQmcrtm_5ruchy9middleend3mir5lowerNtB2_15LoweringContext15lower_binary_op
FN:103,_RNvMNtNtNtCskTACvQmcrtm_5ruchy9middleend3mir5lowerNtB2_15LoweringContext15lower_main_expr
FN:131,_RNvMNtNtNtCskTACvQmcrtm_5ruchy9middleend3mir5lowerNtB2_15LoweringContext21lower_expr_to_operand
FN:407,_RNvMNtNtNtCskTACvQmcrtm_5ruchy9middleend3mir5lowerNtB2_15LoweringContext23infer_unary_result_type
FN:382,_RNvMNtNtNtCskTACvQmcrtm_5ruchy9middleend3mir5lowerNtB2_15LoweringContext24infer_binary_result_type
FN:27,_RNvMNtNtNtCskTACvQmcrtm_5ruchy9middleend3mir5lowerNtB2_15LoweringContext3new
FN:417,_RNvXs_NtNtNtCskTACvQmcrtm_5ruchy9middleend3mir5lowerNtB4_15LoweringContextNtNtCs66KPHxksi63_4core7default7Default7default
FN:472,_RNvNtNtNtNtCskTACvQmcrtm_5ruchy9middleend3mir5lower5testss_18test_lower_if_expr
FN:429,_RNvNtNtNtNtCskTACvQmcrtm_5ruchy9middleend3mir5lower5testss_18test_lower_literal
FN:457,_RNvNtNtNtNtCskTACvQmcrtm_5ruchy9middleend3mir5lower5testss_19test_lower_function
FN:443,_RNvNtNtNtNtCskTACvQmcrtm_5ruchy9middleend3mir5lower5testss_22test_lower_binary_expr
FNDA:0,_RNCNvMNtNtNtCskTACvQmcrtm_5ruchy9middleend3mir5lowerNtB4_15LoweringContext15ast_to_mir_type0Ba_
FNDA:0,_RNCNvMNtNtNtCskTACvQmcrtm_5ruchy9middleend3mir5lowerNtB4_15LoweringContext15ast_to_mir_types_0Ba_
FNDA:1,_RNCNvMNtNtNtCskTACvQmcrtm_5ruchy9middleend3mir5lowerNtB4_15LoweringContext14lower_function0Ba_
FNDA:0,_RNCNvMNtNtNtCskTACvQmcrtm_5ruchy9middleend3mir5lowerNtB4_15LoweringContext14lower_functions_0Ba_
FNDA:0,_RNCNvMNtNtNtCskTACvQmcrtm_5ruchy9middleend3mir5lowerNtB4_15LoweringContext15lower_main_expr0Ba_
FNDA:0,_RNCNvMNtNtNtCskTACvQmcrtm_5ruchy9middleend3mir5lowerNtB4_15LoweringContext21lower_expr_to_operand0Ba_
FNDA:4,_RNvMNtNtNtCskTACvQmcrtm_5ruchy9middleend3mir5lowerNtB2_15LoweringContext10lower_expr
FNDA:6,_RNvMNtNtNtCskTACvQmcrtm_5ruchy9middleend3mir5lowerNtB2_15LoweringContext13lower_literal
FNDA:1,_RNvMNtNtNtCskTACvQmcrtm_5ruchy9middleend3mir5lowerNtB2_15LoweringContext14lower_function
FNDA:0,_RNvMNtNtNtCskTACvQmcrtm_5ruchy9middleend3mir5lowerNtB2_15LoweringContext14lower_unary_op
FNDA:3,_RNvMNtNtNtCskTACvQmcrtm_5ruchy9middleend3mir5lowerNtB2_15LoweringContext15ast_to_mir_type
FNDA:2,_RNvMNtNtNtCskTACvQmcrtm_5ruchy9middleend3mir5lowerNtB2_15LoweringContext15lower_binary_op
FNDA:3,_RNvMNtNtNtCskTACvQmcrtm_5ruchy9middleend3mir5lowerNtB2_15LoweringContext15lower_main_expr
FNDA:14,_RNvMNtNtNtCskTACvQmcrtm_5ruchy9middleend3mir5lowerNtB2_15LoweringContext21lower_expr_to_operand
FNDA:0,_RNvMNtNtNtCskTACvQmcrtm_5ruchy9middleend3mir5lowerNtB2_15LoweringContext23infer_unary_result_type
FNDA:2,_RNvMNtNtNtCskTACvQmcrtm_5ruchy9middleend3mir5lowerNtB2_15LoweringContext24infer_binary_result_type
FNDA:4,_RNvMNtNtNtCskTACvQmcrtm_5ruchy9middleend3mir5lowerNtB2_15LoweringContext3new
FNDA:0,_RNvXs_NtNtNtCskTACvQmcrtm_5ruchy9middleend3mir5lowerNtB4_15LoweringContextNtNtCs66KPHxksi63_4core7default7Default7default
FNDA:1,_RNvNtNtNtNtCskTACvQmcrtm_5ruchy9middleend3mir5lower5testss_18test_lower_if_expr
FNDA:1,_RNvNtNtNtNtCskTACvQmcrtm_5ruchy9middleend3mir5lower5testss_18test_lower_literal
FNDA:1,_RNvNtNtNtNtCskTACvQmcrtm_5ruchy9middleend3mir5lower5testss_19test_lower_function
FNDA:1,_RNvNtNtNtNtCskTACvQmcrtm_5ruchy9middleend3mir5lower5testss_22test_lower_binary_expr
FNF:22
FNH:14
DA:27,4
DA:28,4
DA:29,4
DA:30,4
DA:31,4
DA:32,4
DA:33,4
DA:43,4
DA:44,4
DA:46,1
DA:47,1
DA:48,1
DA:49,1
DA:51,1
DA:54,3
DA:57,4
DA:60,1
DA:61,1
DA:62,1
DA:63,1
DA:64,1
DA:65,1
DA:66,1
DA:67,1
DA:68,1
DA:70,1
DA:73,3
DA:74,2
DA:75,2
DA:76,2
DA:79,1
DA:80,1
DA:83,1
DA:86,1
DA:88,1
DA:89,1
DA:90,1
DA:91,1
DA:93,1
DA:94,1
DA:96,1
DA:97,1
DA:98,1
DA:99,1
DA:100,1
DA:103,3
DA:104,3
DA:106,3
DA:107,3
DA:110,3
DA:113,3
DA:114,3
DA:116,3
DA:117,3
DA:118,3
DA:119,3
DA:121,3
DA:122,3
DA:124,3
DA:125,3
DA:126,3
DA:127,3
DA:128,3
DA:131,14
DA:132,14
DA:133,14
DA:134,14
DA:136,14
DA:137,6
DA:138,2
DA:139,2
DA:140,2
DA:142,0
DA:145,2
DA:146,2
DA:147,2
DA:148,2
DA:151,2
DA:152,2
DA:154,2
DA:155,2
DA:156,2
DA:158,0
DA:159,0
DA:160,0
DA:162,0
DA:163,0
DA:165,0
DA:166,0
DA:169,0
DA:172,0
DA:175,0
DA:176,0
DA:177,0
DA:178,0
DA:181,0
DA:182,0
DA:185,0
DA:188,1
DA:189,1
DA:190,1
DA:192,1
DA:194,1
DA:195,1
DA:196,1
DA:199,1
DA:202,1
DA:203,1
DA:204,1
DA:207,1
DA:208,1
DA:209,1
DA:211,0
DA:213,1
DA:216,1
DA:217,1
DA:220,1
DA:221,1
DA:222,1
DA:223,1
DA:224,1
DA:227,1
DA:229,0
DA:230,0
DA:231,0
DA:233,0
DA:234,0
DA:238,0
DA:239,0
DA:242,0
DA:243,0
DA:245,0
DA:247,3
DA:248,3
DA:249,0
DA:252,3
DA:253,6
DA:254,3
DA:256,3
DA:261,0
DA:264,14
DA:267,6
DA:268,6
DA:269,5
DA:270,0
DA:271,0
DA:272,1
DA:273,0
DA:274,0
DA:276,6
DA:279,2
DA:280,2
DA:281,2
DA:282,0
DA:283,0
DA:284,0
DA:285,0
DA:286,0
DA:287,0
DA:288,0
DA:289,0
DA:290,0
DA:291,0
DA:292,0
DA:293,0
DA:294,0
DA:295,0
DA:296,0
DA:297,0
DA:298,0
DA:299,0
DA:301,2
DA:304,0
DA:305,0
DA:306,0
DA:307,0
DA:308,0
DA:309,0
DA:311,0
DA:315,3
DA:317,3
DA:318,3
DA:319,3
DA:320,3
DA:321,3
DA:322,3
DA:323,0
DA:324,0
DA:325,0
DA:326,0
DA:327,0
DA:328,0
DA:329,0
DA:330,0
DA:331,0
DA:332,0
DA:333,0
DA:334,0
DA:336,0
DA:337,0
DA:338,0
DA:339,0
DA:341,0
DA:343,0
DA:345,0
DA:348,0
DA:350,0
DA:352,0
DA:353,0
DA:354,0
DA:356,0
DA:357,0
DA:360,0
DA:364,0
DA:368,0
DA:370,0
DA:371,0
DA:372,0
DA:374,0
DA:376,0
DA:379,3
DA:382,2
DA:383,2
DA:393,2
DA:401,0
DA:402,0
DA:404,2
DA:407,0
DA:408,0
DA:409,0
DA:410,0
DA:411,0
DA:413,0
DA:417,0
DA:418,0
DA:419,0
DA:429,1
DA:430,1
DA:431,1
DA:433,1
DA:434,1
DA:436,1
DA:437,1
DA:439,1
DA:440,1
DA:443,1
DA:444,1
DA:445,1
DA:447,1
DA:448,1
DA:450,1
DA:451,1
DA:453,1
DA:454,1
DA:457,1
DA:458,1
DA:459,1
DA:461,1
DA:462,1
DA:464,1
DA:465,1
DA:466,1
DA:468,1
DA:469,1
DA:472,1
DA:473,1
DA:474,1
DA:476,1
DA:477,1
DA:479,1
DA:481,1
DA:483,1
DA:484,1
BRF:0
BRH:0
LF:279
LH:170
end_of_record
SF:/home/noah/src/ruchy/src/middleend/mir/optimize.rs
FN:527,_RNvNtNtNtNtCskTACvQmcrtm_5ruchy9middleend3mir8optimize5testss_25test_constant_propagation
FN:520,_RNvNtNtNtNtCskTACvQmcrtm_5ruchy9middleend3mir8optimize5testss_26test_dead_code_elimination
FN:534,_RNvNtNtNtNtCskTACvQmcrtm_5ruchy9middleend3mir8optimize5testss_37test_common_subexpression_elimination
FN:227,_RNCNvMs_NtNtNtCskTACvQmcrtm_5ruchy9middleend3mir8optimizeNtB6_19DeadCodeElimination18remove_dead_blocks0Bc_
FN:233,_RNCNvMs_NtNtNtCskTACvQmcrtm_5ruchy9middleend3mir8optimizeNtB6_19DeadCodeElimination18remove_dead_locals0Bc_
FN:212,_RNCNvMs_NtNtNtCskTACvQmcrtm_5ruchy9middleend3mir8optimizeNtB6_19DeadCodeElimination22remove_dead_statements0Bc_
FN:58,_RNCNvMs_NtNtNtCskTACvQmcrtm_5ruchy9middleend3mir8optimizeNtB6_19DeadCodeElimination9mark_live0Bc_
FN:325,_RNvMs1_NtNtNtCskTACvQmcrtm_5ruchy9middleend3mir8optimizeNtB5_19ConstantPropagation13eval_unary_op
FN:302,_RNvMs1_NtNtNtCskTACvQmcrtm_5ruchy9middleend3mir8optimizeNtB5_19ConstantPropagation14eval_binary_op
FN:292,_RNvMs1_NtNtNtCskTACvQmcrtm_5ruchy9middleend3mir8optimizeNtB5_19ConstantPropagation16extract_constant
FN:336,_RNvMs1_NtNtNtCskTACvQmcrtm_5ruchy9middleend3mir8optimizeNtB5_19ConstantPropagation18get_constant_value
FN:354,_RNvMs1_NtNtNtCskTACvQmcrtm_5ruchy9middleend3mir8optimizeNtB5_19ConstantPropagation19propagate_in_rvalue
FN:374,_RNvMs1_NtNtNtCskTACvQmcrtm_5ruchy9middleend3mir8optimizeNtB5_19ConstantPropagation20propagate_in_operand
FN:347,_RNvMs1_NtNtNtCskTACvQmcrtm_5ruchy9middleend3mir8optimizeNtB5_19ConstantPropagation22propagate_in_statement
FN:381,_RNvMs1_NtNtNtCskTACvQmcrtm_5ruchy9middleend3mir8optimizeNtB5_19ConstantPropagation23propagate_in_terminator
FN:261,_RNvMs1_NtNtNtCskTACvQmcrtm_5ruchy9middleend3mir8optimizeNtB5_19ConstantPropagation3new
FN:268,_RNvMs1_NtNtNtCskTACvQmcrtm_5ruchy9middleend3mir8optimizeNtB5_19ConstantPropagation3run
FN:454,_RNvMs3_NtNtNtCskTACvQmcrtm_5ruchy9middleend3mir8optimizeNtB5_30CommonSubexpressionElimination10rvalue_key
FN:473,_RNvMs3_NtNtNtCskTACvQmcrtm_5ruchy9middleend3mir8optimizeNtB5_30CommonSubexpressionElimination11operand_key
FN:436,_RNvMs3_NtNtNtCskTACvQmcrtm_5ruchy9middleend3mir8optimizeNtB5_30CommonSubexpressionElimination17process_statement
FN:418,_RNvMs3_NtNtNtCskTACvQmcrtm_5ruchy9middleend3mir8optimizeNtB5_30CommonSubexpressionElimination3new
FN:425,_RNvMs3_NtNtNtCskTACvQmcrtm_5ruchy9middleend3mir8optimizeNtB5_30CommonSubexpressionElimination3run
FN:483,_RNvMs3_NtNtNtCskTACvQmcrtm_5ruchy9middleend3mir8optimizeNtB5_30CommonSubexpressionElimination9place_key
FN:237,_RNvMs_NtNtNtCskTACvQmcrtm_5ruchy9middleend3mir8optimizeNtB4_19DeadCodeElimination13is_place_live
FN:90,_RNvMs_NtNtNtCskTACvQmcrtm_5ruchy9middleend3mir8optimizeNtB4_19DeadCodeElimination15mark_place_live
FN:106,_RNvMs_NtNtNtCskTACvQmcrtm_5ruchy9middleend3mir8optimizeNtB4_19DeadCodeElimination16mark_rvalue_live
FN:133,_RNvMs_NtNtNtCskTACvQmcrtm_5ruchy9middleend3mir8optimizeNtB4_19DeadCodeElimination17mark_operand_live
FN:225,_RNvMs_NtNtNtCskTACvQmcrtm_5ruchy9middleend3mir8optimizeNtB4_19DeadCodeElimination18remove_dead_blocks
FN:231,_RNvMs_NtNtNtCskTACvQmcrtm_5ruchy9middleend3mir8optimizeNtB4_19DeadCodeElimination18remove_dead_locals
FN:76,_RNvMs_NtNtNtCskTACvQmcrtm_5ruchy9middleend3mir8optimizeNtB4_19DeadCodeElimination19mark_statement_live
FN:143,_RNvMs_NtNtNtCskTACvQmcrtm_5ruchy9middleend3mir8optimizeNtB4_19DeadCodeElimination20mark_terminator_live
FN:206,_RNvMs_NtNtNtCskTACvQmcrtm_5ruchy9middleend3mir8optimizeNtB4_19DeadCodeElimination22remove_dead_statements
FN:26,_RNvMs_NtNtNtCskTACvQmcrtm_5ruchy9middleend3mir8optimizeNtB4_19DeadCodeElimination3new
FN:34,_RNvMs_NtNtNtCskTACvQmcrtm_5ruchy9middleend3mir8optimizeNtB4_19DeadCodeElimination3run
FN:49,_RNvMs_NtNtNtCskTACvQmcrtm_5ruchy9middleend3mir8optimizeNtB4_19DeadCodeElimination9mark_live
FN:510,_RNvNtNtNtCskTACvQmcrtm_5ruchy9middleend3mir8optimize16optimize_program
FN:496,_RNvNtNtNtCskTACvQmcrtm_5ruchy9middleend3mir8optimize17optimize_function
FN:18,_RNvXNtNtNtCskTACvQmcrtm_5ruchy9middleend3mir8optimizeNtB2_19DeadCodeEliminationNtNtCs66KPHxksi63_4core7default7Default7default
FN:253,_RNvXs0_NtNtNtCskTACvQmcrtm_5ruchy9middleend3mir8optimizeNtB5_19ConstantPropagationNtNtCs66KPHxksi63_4core7default7Default7default
FN:410,_RNvXs2_NtNtNtCskTACvQmcrtm_5ruchy9middleend3mir8optimizeNtB5_30CommonSubexpressionEliminationNtNtCs66KPHxksi63_4core7default7Default7default
FNDA:1,_RNvNtNtNtNtCskTACvQmcrtm_5ruchy9middleend3mir8optimize5testss_25test_constant_propagation
FNDA:1,_RNvNtNtNtNtCskTACvQmcrtm_5ruchy9middleend3mir8optimize5testss_26test_dead_code_elimination
FNDA:1,_RNvNtNtNtNtCskTACvQmcrtm_5ruchy9middleend3mir8optimize5testss_37test_common_subexpression_elimination
FNDA:0,_RNCNvMs_NtNtNtCskTACvQmcrtm_5ruchy9middleend3mir8optimizeNtB6_19DeadCodeElimination18remove_dead_blocks0Bc_
FNDA:0,_RNCNvMs_NtNtNtCskTACvQmcrtm_5ruchy9middleend3mir8optimizeNtB6_19DeadCodeElimination18remove_dead_locals0Bc_
FNDA:0,_RNCNvMs_NtNtNtCskTACvQmcrtm_5ruchy9middleend3mir8optimizeNtB6_19DeadCodeElimination22remove_dead_statements0Bc_
FNDA:0,_RNCNvMs_NtNtNtCskTACvQmcrtm_5ruchy9middleend3mir8optimizeNtB6_19DeadCodeElimination9mark_live0Bc_
FNDA:0,_RNvMs1_NtNtNtCskTACvQmcrtm_5ruchy9middleend3mir8optimizeNtB5_19ConstantPropagation13eval_unary_op
FNDA:0,_RNvMs1_NtNtNtCskTACvQmcrtm_5ruchy9middleend3mir8optimizeNtB5_19ConstantPropagation14eval_binary_op
FNDA:0,_RNvMs1_NtNtNtCskTACvQmcrtm_5ruchy9middleend3mir8optimizeNtB5_19ConstantPropagation16extract_constant
FNDA:0,_RNvMs1_NtNtNtCskTACvQmcrtm_5ruchy9middleend3mir8optimizeNtB5_19ConstantPropagation18get_constant_value
FNDA:0,_RNvMs1_NtNtNtCskTACvQmcrtm_5ruchy9middleend3mir8optimizeNtB5_19ConstantPropagation19propagate_in_rvalue
FNDA:0,_RNvMs1_NtNtNtCskTACvQmcrtm_5ruchy9middleend3mir8optimizeNtB5_19ConstantPropagation20propagate_in_operand
FNDA:0,_RNvMs1_NtNtNtCskTACvQmcrtm_5ruchy9middleend3mir8optimizeNtB5_19ConstantPropagation22propagate_in_statement
FNDA:0,_RNvMs1_NtNtNtCskTACvQmcrtm_5ruchy9middleend3mir8optimizeNtB5_19ConstantPropagation23propagate_in_terminator
FNDA:0,_RNvMs1_NtNtNtCskTACvQmcrtm_5ruchy9middleend3mir8optimizeNtB5_19ConstantPropagation3new
FNDA:0,_RNvMs1_NtNtNtCskTACvQmcrtm_5ruchy9middleend3mir8optimizeNtB5_19ConstantPropagation3run
FNDA:0,_RNvMs3_NtNtNtCskTACvQmcrtm_5ruchy9middleend3mir8optimizeNtB5_30CommonSubexpressionElimination10rvalue_key
FNDA:0,_RNvMs3_NtNtNtCskTACvQmcrtm_5ruchy9middleend3mir8optimizeNtB5_30CommonSubexpressionElimination11operand_key
FNDA:0,_RNvMs3_NtNtNtCskTACvQmcrtm_5ruchy9middleend3mir8optimizeNtB5_30CommonSubexpressionElimination17process_statement
FNDA:0,_RNvMs3_NtNtNtCskTACvQmcrtm_5ruchy9middleend3mir8optimizeNtB5_30CommonSubexpressionElimination3new
FNDA:0,_RNvMs3_NtNtNtCskTACvQmcrtm_5ruchy9middleend3mir8optimizeNtB5_30CommonSubexpressionElimination3run
FNDA:0,_RNvMs3_NtNtNtCskTACvQmcrtm_5ruchy9middleend3mir8optimizeNtB5_30CommonSubexpressionElimination9place_key
FNDA:0,_RNvMs_NtNtNtCskTACvQmcrtm_5ruchy9middleend3mir8optimizeNtB4_19DeadCodeElimination13is_place_live
FNDA:0,_RNvMs_NtNtNtCskTACvQmcrtm_5ruchy9middleend3mir8optimizeNtB4_19DeadCodeElimination15mark_place_live
FNDA:0,_RNvMs_NtNtNtCskTACvQmcrtm_5ruchy9middleend3mir8optimizeNtB4_19DeadCodeElimination16mark_rvalue_live
FNDA:0,_RNvMs_NtNtNtCskTACvQmcrtm_5ruchy9middleend3mir8optimizeNtB4_19DeadCodeElimination17mark_operand_live
FNDA:0,_RNvMs_NtNtNtCskTACvQmcrtm_5ruchy9middleend3mir8optimizeNtB4_19DeadCodeElimination18remove_dead_blocks
FNDA:0,_RNvMs_NtNtNtCskTACvQmcrtm_5ruchy9middleend3mir8optimizeNtB4_19DeadCodeElimination18remove_dead_locals
FNDA:0,_RNvMs_NtNtNtCskTACvQmcrtm_5ruchy9middleend3mir8optimizeNtB4_19DeadCodeElimination19mark_statement_live
FNDA:0,_RNvMs_NtNtNtCskTACvQmcrtm_5ruchy9middleend3mir8optimizeNtB4_19DeadCodeElimination20mark_terminator_live
FNDA:0,_RNvMs_NtNtNtCskTACvQmcrtm_5ruchy9middleend3mir8optimizeNtB4_19DeadCodeElimination22remove_dead_statements
FNDA:0,_RNvMs_NtNtNtCskTACvQmcrtm_5ruchy9middleend3mir8optimizeNtB4_19DeadCodeElimination3new
FNDA:0,_RNvMs_NtNtNtCskTACvQmcrtm_5ruchy9middleend3mir8optimizeNtB4_19DeadCodeElimination3run
FNDA:0,_RNvMs_NtNtNtCskTACvQmcrtm_5ruchy9middleend3mir8optimizeNtB4_19DeadCodeElimination9mark_live
FNDA:0,_RNvNtNtNtCskTACvQmcrtm_5ruchy9middleend3mir8optimize16optimize_program
FNDA:0,_RNvNtNtNtCskTACvQmcrtm_5ruchy9middleend3mir8optimize17optimize_function
FNDA:0,_RNvXNtNtNtCskTACvQmcrtm_5ruchy9middleend3mir8optimizeNtB2_19DeadCodeEliminationNtNtCs66KPHxksi63_4core7default7Default7default
FNDA:0,_RNvXs0_NtNtNtCskTACvQmcrtm_5ruchy9middleend3mir8optimizeNtB5_19ConstantPropagationNtNtCs66KPHxksi63_4core7default7Default7default
FNDA:0,_RNvXs2_NtNtNtCskTACvQmcrtm_5ruchy9middleend3mir8optimizeNtB5_30CommonSubexpressionEliminationNtNtCs66KPHxksi63_4core7default7Default7default
FNF:40
FNH:3
DA:18,0
DA:19,0
DA:20,0
DA:26,0
DA:27,0
DA:28,0
DA:29,0
DA:30,0
DA:31,0
DA:34,0
DA:36,0
DA:39,0
DA:42,0
DA:45,0
DA:46,0
DA:49,0
DA:50,0
DA:51,0
DA:54,0
DA:55,0
DA:57,0
DA:58,0
DA:60,0
DA:61,0
DA:62,0
DA:65,0
DA:66,0
DA:70,0
DA:71,0
DA:72,0
DA:73,0
DA:76,0
DA:77,0
DA:78,0
DA:79,0
DA:80,0
DA:81,0
DA:82,0
DA:83,0
DA:84,0
DA:85,0
DA:87,0
DA:90,0
DA:91,0
DA:92,0
DA:93,0
DA:94,0
DA:95,0
DA:96,0
DA:97,0
DA:98,0
DA:99,0
DA:100,0
DA:101,0
DA:103,0
DA:106,0
DA:107,0
DA:108,0
DA:109,0
DA:110,0
DA:111,0
DA:112,0
DA:113,0
DA:114,0
DA:115,0
DA:116,0
DA:117,0
DA:118,0
DA:119,0
DA:120,0
DA:121,0
DA:123,0
DA:124,0
DA:125,0
DA:126,0
DA:127,0
DA:130,0
DA:133,0
DA:134,0
DA:135,0
DA:136,0
DA:137,0
DA:138,0
DA:140,0
DA:143,0
DA:144,0
DA:145,0
DA:146,0
DA:147,0
DA:148,0
DA:151,0
DA:152,0
DA:153,0
DA:155,0
DA:156,0
DA:157,0
DA:158,0
DA:159,0
DA:160,0
DA:161,0
DA:164,0
DA:165,0
DA:166,0
DA:168,0
DA:169,0
DA:170,0
DA:171,0
DA:172,0
DA:174,0
DA:175,0
DA:176,0
DA:177,0
DA:178,0
DA:180,0
DA:181,0
DA:182,0
DA:183,0
DA:186,0
DA:187,0
DA:188,0
DA:190,0
DA:191,0
DA:192,0
DA:193,0
DA:194,0
DA:195,0
DA:196,0
DA:197,0
DA:198,0
DA:199,0
DA:201,0
DA:203,0
DA:206,0
DA:207,0
DA:208,0
DA:209,0
DA:210,0
DA:212,0
DA:213,0
DA:214,0
DA:215,0
DA:216,0
DA:218,0
DA:220,0
DA:222,0
DA:225,0
DA:226,0
DA:227,0
DA:228,0
DA:231,0
DA:232,0
DA:233,0
DA:234,0
DA:237,0
DA:238,0
DA:239,0
DA:240,0
DA:241,0
DA:243,0
DA:253,0
DA:254,0
DA:255,0
DA:261,0
DA:262,0
DA:263,0
DA:264,0
DA:265,0
DA:268,0
DA:269,0
DA:272,0
DA:273,0
DA:274,0
DA:275,0
DA:276,0
DA:277,0
DA:278,0
DA:283,0
DA:284,0
DA:285,0
DA:286,0
DA:287,0
DA:289,0
DA:292,0
DA:293,0
DA:294,0
DA:295,0
DA:296,0
DA:297,0
DA:299,0
DA:302,0
DA:303,0
DA:304,0
DA:306,0
DA:307,0
DA:308,0
DA:310,0
DA:311,0
DA:313,0
DA:314,0
DA:316,0
DA:317,0
DA:318,0
DA:319,0
DA:320,0
DA:322,0
DA:325,0
DA:326,0
DA:328,0
DA:329,0
DA:330,0
DA:331,0
DA:333,0
DA:336,0
DA:337,0
DA:338,0
DA:339,0
DA:340,0
DA:342,0
DA:344,0
DA:347,0
DA:348,0
DA:349,0
DA:350,0
DA:351,0
DA:354,0
DA:355,0
DA:356,0
DA:357,0
DA:358,0
DA:359,0
DA:360,0
DA:361,0
DA:362,0
DA:363,0
DA:364,0
DA:365,0
DA:366,0
DA:367,0
DA:369,0
DA:371,0
DA:374,0
DA:375,0
DA:376,0
DA:377,0
DA:378,0
DA:381,0
DA:382,0
DA:383,0
DA:384,0
DA:385,0
DA:386,0
DA:387,0
DA:388,0
DA:389,0
DA:390,0
DA:391,0
DA:392,0
DA:393,0
DA:394,0
DA:395,0
DA:396,0
DA:398,0
DA:400,0
DA:410,0
DA:411,0
DA:412,0
DA:418,0
DA:419,0
DA:420,0
DA:421,0
DA:422,0
DA:425,0
DA:426,0
DA:428,0
DA:429,0
DA:430,0
DA:431,0
DA:433,0
DA:436,0
DA:437,0
DA:438,0
DA:440,0
DA:441,0
DA:442,0
DA:443,0
DA:444,0
DA:445,0
DA:446,0
DA:447,0
DA:448,0
DA:449,0
DA:450,0
DA:451,0
DA:454,0
DA:455,0
DA:456,0
DA:457,0
DA:458,0
DA:459,0
DA:461,0
DA:462,0
DA:465,0
DA:466,0
DA:468,0
DA:470,0
DA:473,0
DA:474,0
DA:475,0
DA:476,0
DA:477,0
DA:479,0
DA:483,0
DA:484,0
DA:485,0
DA:486,0
DA:487,0
DA:488,0
DA:490,0
DA:492,0
DA:496,0
DA:497,0
DA:498,0
DA:499,0
DA:502,0
DA:503,0
DA:504,0
DA:505,0
DA:506,0
DA:507,0
DA:510,0
DA:511,0
DA:512,0
DA:513,0
DA:514,0
DA:520,1
DA:524,1
DA:527,1
DA:531,1
DA:534,1
DA:538,1
BRF:0
BRH:0
LF:344
LH:6
end_of_record
SF:/home/noah/src/ruchy/src/middleend/mir/types.rs
FN:358,_RNvNtNtNtNtCskTACvQmcrtm_5ruchy9middleend3mir5types5testss_13test_block_id
FN:400,_RNvNtNtNtNtCskTACvQmcrtm_5ruchy9middleend3mir5types5testss_18test_type_equality
FN:380,_RNvNtNtNtNtCskTACvQmcrtm_5ruchy9middleend3mir5types5testss_18test_type_variants
FN:369,_RNvNtNtNtNtCskTACvQmcrtm_5ruchy9middleend3mir5types5testss_19test_local_variable
FN:346,_RNvNtNtNtNtCskTACvQmcrtm_5ruchy9middleend3mir5types5testss_21test_program_creation
FN:283,_RNvXNtNtNtCskTACvQmcrtm_5ruchy9middleend3mir5typesNtB2_7BlockIdNtNtCs66KPHxksi63_4core3fmt7Display3fmt
FN:295,_RNvXs0_NtNtNtCskTACvQmcrtm_5ruchy9middleend3mir5typesNtB5_4TypeNtNtCs66KPHxksi63_4core3fmt7Display3fmt
FN:289,_RNvXs_NtNtNtCskTACvQmcrtm_5ruchy9middleend3mir5typesNtB4_5LocalNtNtCs66KPHxksi63_4core3fmt7Display3fmt
FNDA:1,_RNvNtNtNtNtCskTACvQmcrtm_5ruchy9middleend3mir5types5testss_13test_block_id
FNDA:1,_RNvNtNtNtNtCskTACvQmcrtm_5ruchy9middleend3mir5types5testss_18test_type_equality
FNDA:1,_RNvNtNtNtNtCskTACvQmcrtm_5ruchy9middleend3mir5types5testss_18test_type_variants
FNDA:1,_RNvNtNtNtNtCskTACvQmcrtm_5ruchy9middleend3mir5types5testss_19test_local_variable
FNDA:1,_RNvNtNtNtNtCskTACvQmcrtm_5ruchy9middleend3mir5types5testss_21test_program_creation
FNDA:0,_RNvXNtNtNtCskTACvQmcrtm_5ruchy9middleend3mir5typesNtB2_7BlockIdNtNtCs66KPHxksi63_4core3fmt7Display3fmt
FNDA:0,_RNvXs0_NtNtNtCskTACvQmcrtm_5ruchy9middleend3mir5typesNtB5_4TypeNtNtCs66KPHxksi63_4core3fmt7Display3fmt
FNDA:0,_RNvXs_NtNtNtCskTACvQmcrtm_5ruchy9middleend3mir5typesNtB4_5LocalNtNtCs66KPHxksi63_4core3fmt7Display3fmt
FNF:8
FNH:5
DA:283,0
DA:284,0
DA:285,0
DA:289,0
DA:290,0
DA:291,0
DA:295,0
DA:296,0
DA:297,0
DA:298,0
DA:299,0
DA:300,0
DA:301,0
DA:302,0
DA:303,0
DA:304,0
DA:305,0
DA:306,0
DA:307,0
DA:308,0
DA:309,0
DA:310,0
DA:311,0
DA:312,0
DA:313,0
DA:314,0
DA:315,0
DA:316,0
DA:317,0
DA:318,0
DA:319,0
DA:320,0
DA:321,0
DA:322,0
DA:324,0
DA:326,0
DA:327,0
DA:328,0
DA:329,0
DA:330,0
DA:331,0
DA:332,0
DA:334,0
DA:336,0
DA:338,0
DA:346,1
DA:347,1
DA:348,1
DA:349,1
DA:350,1
DA:352,1
DA:353,1
DA:354,1
DA:358,1
DA:359,1
DA:360,1
DA:361,1
DA:363,1
DA:364,1
DA:365,1
DA:366,1
DA:369,1
DA:370,1
DA:371,1
DA:372,1
DA:374,1
DA:375,1
DA:376,1
DA:377,1
DA:380,1
DA:381,1
DA:382,1
DA:383,1
DA:384,1
DA:385,1
DA:386,1
DA:387,1
DA:388,1
DA:389,1
DA:390,1
DA:391,1
DA:394,11
DA:395,10
DA:397,1
DA:400,1
DA:401,1
DA:402,1
DA:403,1
DA:404,1
DA:405,1
DA:407,1
DA:408,1
DA:409,1
DA:411,1
BRF:0
BRH:0
LF:94
LH:49
end_of_record
SF:/home/noah/src/ruchy/src/middleend/types.rs
FN:177,_RNCNvMs4_NtNtCskTACvQmcrtm_5ruchy9middleend5typesNtB7_8MonoType10substitute0Bb_
FN:114,_RNvMs0_NtNtCskTACvQmcrtm_5ruchy9middleend5typesNtB5_10TypeScheme11instantiate
FN:106,_RNvMs0_NtNtCskTACvQmcrtm_5ruchy9middleend5typesNtB5_10TypeScheme4mono
FN:152,_RNvMs2_NtNtCskTACvQmcrtm_5ruchy9middleend5typesNtB5_14TyVarGenerator3new
FN:156,_RNvMs2_NtNtCskTACvQmcrtm_5ruchy9middleend5typesNtB5_14TyVarGenerator5fresh
FN:175,_RNvMs4_NtNtCskTACvQmcrtm_5ruchy9middleend5typesNtB5_8MonoType10substitute
FN:205,_RNvMs4_NtNtCskTACvQmcrtm_5ruchy9middleend5typesNtB5_8MonoType9free_vars
FN:208,_RNvNvMs4_NtNtCskTACvQmcrtm_5ruchy9middleend5typesNtB7_8MonoType9free_vars12collect_vars
FN:11,_RNvXNtNtCskTACvQmcrtm_5ruchy9middleend5typesNtB2_5TyVarNtNtCs66KPHxksi63_4core3fmt7Display3fmt
FN:54,_RNvXs_NtNtCskTACvQmcrtm_5ruchy9middleend5typesNtB4_8MonoTypeNtNtCs66KPHxksi63_4core3fmt7Display3fmt
FN:121,_RNCNvMs0_NtNtCskTACvQmcrtm_5ruchy9middleend5typesNtB7_10TypeScheme11instantiate0Bb_
FN:197,_RNCNvMs4_NtNtCskTACvQmcrtm_5ruchy9middleend5typesNtB7_8MonoType10substitutes0_0Bb_
FN:191,_RNCNvMs4_NtNtCskTACvQmcrtm_5ruchy9middleend5typesNtB7_8MonoType10substitutes_0Bb_
FN:300,_RNvNtNtNtCskTACvQmcrtm_5ruchy9middleend5types5testss_14test_free_vars
FN:288,_RNvNtNtNtCskTACvQmcrtm_5ruchy9middleend5types5testss_17test_substitution
FN:254,_RNvNtNtNtCskTACvQmcrtm_5ruchy9middleend5types5testss_17test_type_display
FN:265,_RNvNtNtNtCskTACvQmcrtm_5ruchy9middleend5types5testss_30test_type_scheme_instantiation
FN:129,_RNvXs1_NtNtCskTACvQmcrtm_5ruchy9middleend5typesNtB5_10TypeSchemeNtNtCs66KPHxksi63_4core3fmt7Display3fmt
FN:164,_RNvXs3_NtNtCskTACvQmcrtm_5ruchy9middleend5typesNtB5_14TyVarGeneratorNtNtCs66KPHxksi63_4core7default7Default7default
FNDA:69,_RNCNvMs4_NtNtCskTACvQmcrtm_5ruchy9middleend5typesNtB7_8MonoType10substitute0Bb_
FNDA:30,_RNvMs0_NtNtCskTACvQmcrtm_5ruchy9middleend5typesNtB5_10TypeScheme11instantiate
FNDA:175,_RNvMs0_NtNtCskTACvQmcrtm_5ruchy9middleend5typesNtB5_10TypeScheme4mono
FNDA:37,_RNvMs2_NtNtCskTACvQmcrtm_5ruchy9middleend5typesNtB5_14TyVarGenerator3new
FNDA:32,_RNvMs2_NtNtCskTACvQmcrtm_5ruchy9middleend5typesNtB5_14TyVarGenerator5fresh
FNDA:397,_RNvMs4_NtNtCskTACvQmcrtm_5ruchy9middleend5typesNtB5_8MonoType10substitute
FNDA:69,_RNvMs4_NtNtCskTACvQmcrtm_5ruchy9middleend5typesNtB5_8MonoType9free_vars
FNDA:244,_RNvNvMs4_NtNtCskTACvQmcrtm_5ruchy9middleend5typesNtB7_8MonoType9free_vars12collect_vars
FNDA:2,_RNvXNtNtCskTACvQmcrtm_5ruchy9middleend5typesNtB2_5TyVarNtNtCs66KPHxksi63_4core3fmt7Display3fmt
FNDA:19,_RNvXs_NtNtCskTACvQmcrtm_5ruchy9middleend5typesNtB4_8MonoTypeNtNtCs66KPHxksi63_4core3fmt7Display3fmt
FNDA:9,_RNCNvMs0_NtNtCskTACvQmcrtm_5ruchy9middleend5typesNtB7_10TypeScheme11instantiate0Bb_
FNDA:0,_RNCNvMs4_NtNtCskTACvQmcrtm_5ruchy9middleend5typesNtB7_8MonoType10substitutes0_0Bb_
FNDA:0,_RNCNvMs4_NtNtCskTACvQmcrtm_5ruchy9middleend5typesNtB7_8MonoType10substitutes_0Bb_
FNDA:1,_RNvNtNtNtCskTACvQmcrtm_5ruchy9middleend5types5testss_14test_free_vars
FNDA:1,_RNvNtNtNtCskTACvQmcrtm_5ruchy9middleend5types5testss_17test_substitution
FNDA:1,_RNvNtNtNtCskTACvQmcrtm_5ruchy9middleend5types5testss_17test_type_display
FNDA:1,_RNvNtNtNtCskTACvQmcrtm_5ruchy9middleend5types5testss_30test_type_scheme_instantiation
FNDA:0,_RNvXs1_NtNtCskTACvQmcrtm_5ruchy9middleend5typesNtB5_10TypeSchemeNtNtCs66KPHxksi63_4core3fmt7Display3fmt
FNDA:0,_RNvXs3_NtNtCskTACvQmcrtm_5ruchy9middleend5typesNtB5_14TyVarGeneratorNtNtCs66KPHxksi63_4core7default7Default7default
FNF:19
FNH:15
DA:11,2
DA:12,2
DA:13,2
DA:54,19
DA:55,19
DA:56,1
DA:57,8
DA:58,0
DA:59,6
DA:60,1
DA:61,0
DA:62,0
DA:63,1
DA:64,2
DA:65,0
DA:66,0
DA:67,0
DA:68,0
DA:69,0
DA:70,0
DA:71,0
DA:72,0
DA:73,0
DA:75,0
DA:77,0
DA:78,0
DA:79,0
DA:80,0
DA:81,0
DA:82,0
DA:83,0
DA:84,0
DA:85,0
DA:87,0
DA:89,0
DA:91,19
DA:106,175
DA:107,175
DA:108,175
DA:109,175
DA:110,175
DA:111,175
DA:114,30
DA:115,30
DA:116,24
DA:118,6
DA:119,6
DA:120,6
DA:121,9
DA:122,6
DA:123,6
DA:125,30
DA:129,0
DA:130,0
DA:131,0
DA:133,0
DA:134,0
DA:135,0
DA:136,0
DA:137,0
DA:138,0
DA:140,0
DA:142,0
DA:152,37
DA:153,37
DA:154,37
DA:156,32
DA:157,32
DA:158,32
DA:159,32
DA:160,32
DA:164,0
DA:165,0
DA:166,0
DA:175,397
DA:176,397
DA:177,115
DA:178,63
DA:179,63
DA:180,63
DA:181,63
DA:182,12
DA:183,0
DA:184,0
DA:185,0
DA:186,0
DA:187,0
DA:188,0
DA:189,0
DA:190,0
DA:191,0
DA:192,0
DA:194,0
DA:195,0
DA:196,0
DA:197,0
DA:199,207
DA:201,397
DA:205,69
DA:208,244
DA:209,244
DA:210,31
DA:211,31
DA:212,31
DA:213,87
DA:214,87
DA:215,87
DA:216,87
DA:217,1
DA:218,0
DA:219,0
DA:220,0
DA:221,0
DA:222,0
DA:223,0
DA:224,0
DA:225,0
DA:226,0
DA:227,0
DA:228,0
DA:229,0
DA:230,0
DA:232,0
DA:233,0
DA:234,0
DA:235,0
DA:237,125
DA:239,244
DA:241,69
DA:242,69
DA:243,69
DA:244,69
DA:254,1
DA:255,1
DA:256,1
DA:257,1
DA:258,1
DA:261,1
DA:262,1
DA:265,1
DA:266,1
DA:267,1
DA:269,1
DA:270,1
DA:271,1
DA:272,1
DA:273,1
DA:274,1
DA:275,1
DA:277,1
DA:278,1
DA:279,1
DA:280,1
DA:281,1
DA:283,0
DA:285,1
DA:288,1
DA:289,1
DA:290,1
DA:291,1
DA:293,1
DA:294,1
DA:296,1
DA:297,1
DA:300,1
DA:301,1
DA:302,1
DA:304,1
DA:305,1
DA:306,1
DA:307,1
DA:309,1
DA:310,1
DA:311,1
DA:312,1
DA:315,1
DA:316,1
DA:317,1
DA:318,1
DA:319,1
DA:320,1
DA:321,1
DA:322,1
BRF:0
BRH:0
LF:187
LH:115
end_of_record
SF:/home/noah/src/ruchy/src/middleend/unify.rs
FN:192,_RNvNtNtNtCskTACvQmcrtm_5ruchy9middleend5unify5testss_16test_unify_lists
FN:204,_RNvNtNtNtCskTACvQmcrtm_5ruchy9middleend5unify5testss_17test_occurs_check
FN:166,_RNvNtNtNtCskTACvQmcrtm_5ruchy9middleend5unify5testss_19test_unify_with_var
FN:177,_RNvNtNtNtCskTACvQmcrtm_5ruchy9middleend5unify5testss_20test_unify_functions
FN:151,_RNvNtNtNtCskTACvQmcrtm_5ruchy9middleend5unify5testss_21test_unify_same_types
FN:159,_RNvNtNtNtCskTACvQmcrtm_5ruchy9middleend5unify5testss_26test_unify_different_types
FN:214,_RNvNtNtNtCskTACvQmcrtm_5ruchy9middleend5unify5testss_27test_transitive_unification
FN:99,_RNCNvMNtNtCskTACvQmcrtm_5ruchy9middleend5unifyNtB4_7Unifier4bind0B8_
FN:135,_RNCNvMNtNtCskTACvQmcrtm_5ruchy9middleend5unifyNtB4_7Unifier5solve0B8_
FN:135,_RNCNvMNtNtCskTACvQmcrtm_5ruchy9middleend5unifyNtB4_7Unifier5solves_0B8_
FN:123,_RNCNvMNtNtCskTACvQmcrtm_5ruchy9middleend5unifyNtB4_7Unifier6occurs0B8_
FN:125,_RNCNvMNtNtCskTACvQmcrtm_5ruchy9middleend5unifyNtB4_7Unifier6occurss_0B8_
FN:14,_RNvMNtNtCskTACvQmcrtm_5ruchy9middleend5unifyNtB2_7Unifier3new
FN:86,_RNvMNtNtCskTACvQmcrtm_5ruchy9middleend5unifyNtB2_7Unifier4bind
FN:28,_RNvMNtNtCskTACvQmcrtm_5ruchy9middleend5unifyNtB2_7Unifier5apply
FN:132,_RNvMNtNtCskTACvQmcrtm_5ruchy9middleend5unifyNtB2_7Unifier5solve
FN:40,_RNvMNtNtCskTACvQmcrtm_5ruchy9middleend5unifyNtB2_7Unifier5unify
FN:113,_RNvMNtNtCskTACvQmcrtm_5ruchy9middleend5unifyNtB2_7Unifier6occurs
FN:22,_RNvMNtNtCskTACvQmcrtm_5ruchy9middleend5unifyNtB2_7Unifier12substitution
FN:140,_RNvXs_NtNtCskTACvQmcrtm_5ruchy9middleend5unifyNtB4_7UnifierNtNtCs66KPHxksi63_4core7default7Default7default
FNDA:1,_RNvNtNtNtCskTACvQmcrtm_5ruchy9middleend5unify5testss_16test_unify_lists
FNDA:1,_RNvNtNtNtCskTACvQmcrtm_5ruchy9middleend5unify5testss_17test_occurs_check
FNDA:1,_RNvNtNtNtCskTACvQmcrtm_5ruchy9middleend5unify5testss_19test_unify_with_var
FNDA:1,_RNvNtNtNtCskTACvQmcrtm_5ruchy9middleend5unify5testss_20test_unify_functions
FNDA:1,_RNvNtNtNtCskTACvQmcrtm_5ruchy9middleend5unify5testss_21test_unify_same_types
FNDA:1,_RNvNtNtNtCskTACvQmcrtm_5ruchy9middleend5unify5testss_26test_unify_different_types
FNDA:1,_RNvNtNtNtCskTACvQmcrtm_5ruchy9middleend5unify5testss_27test_transitive_unification
FNDA:42,_RNCNvMNtNtCskTACvQmcrtm_5ruchy9middleend5unifyNtB4_7Unifier4bind0B8_
FNDA:0,_RNCNvMNtNtCskTACvQmcrtm_5ruchy9middleend5unifyNtB4_7Unifier5solve0B8_
FNDA:5,_RNCNvMNtNtCskTACvQmcrtm_5ruchy9middleend5unifyNtB4_7Unifier5solves_0B8_
FNDA:0,_RNCNvMNtNtCskTACvQmcrtm_5ruchy9middleend5unifyNtB4_7Unifier6occurs0B8_
FNDA:0,_RNCNvMNtNtCskTACvQmcrtm_5ruchy9middleend5unifyNtB4_7Unifier6occurss_0B8_
FNDA:42,_RNvMNtNtCskTACvQmcrtm_5ruchy9middleend5unifyNtB2_7Unifier3new
FNDA:26,_RNvMNtNtCskTACvQmcrtm_5ruchy9middleend5unifyNtB2_7Unifier4bind
FNDA:235,_RNvMNtNtCskTACvQmcrtm_5ruchy9middleend5unifyNtB2_7Unifier5apply
FNDA:5,_RNvMNtNtCskTACvQmcrtm_5ruchy9middleend5unifyNtB2_7Unifier5solve
FNDA:85,_RNvMNtNtCskTACvQmcrtm_5ruchy9middleend5unifyNtB2_7Unifier5unify
FNDA:35,_RNvMNtNtCskTACvQmcrtm_5ruchy9middleend5unifyNtB2_7Unifier6occurs
FNDA:0,_RNvMNtNtCskTACvQmcrtm_5ruchy9middleend5unifyNtB2_7Unifier12substitution
FNDA:0,_RNvXs_NtNtCskTACvQmcrtm_5ruchy9middleend5unifyNtB4_7UnifierNtNtCs66KPHxksi63_4core7default7Default7default
FNF:20
FNH:15
DA:14,42
DA:15,42
DA:16,42
DA:17,42
DA:18,42
DA:22,0
DA:23,0
DA:24,0
DA:28,235
DA:29,235
DA:30,235
DA:40,85
DA:41,85
DA:42,85
DA:44,85
DA:45,3
DA:46,26
DA:51,46
DA:52,0
DA:53,7
DA:54,7
DA:55,7
DA:57,1
DA:58,0
DA:59,0
DA:60,0
DA:61,0
DA:63,0
DA:65,0
DA:66,0
DA:67,0
DA:68,0
DA:69,0
DA:70,0
DA:71,0
DA:75,0
DA:76,0
DA:78,0
DA:80,0
DA:81,5
DA:83,85
DA:86,26
DA:88,26
DA:89,1
DA:90,25
DA:93,25
DA:96,25
DA:97,25
DA:98,25
DA:99,42
DA:100,42
DA:101,25
DA:103,17
DA:105,42
DA:106,25
DA:107,25
DA:109,25
DA:110,26
DA:113,35
DA:114,35
DA:115,8
DA:116,3
DA:117,3
DA:118,0
DA:119,0
DA:121,0
DA:122,0
DA:123,0
DA:125,0
DA:126,21
DA:128,35
DA:132,5
DA:133,5
DA:134,5
DA:135,5
DA:136,5
DA:140,0
DA:141,0
DA:142,0
DA:151,1
DA:152,1
DA:153,1
DA:154,1
DA:155,1
DA:156,1
DA:159,1
DA:160,1
DA:161,1
DA:162,1
DA:163,1
DA:166,1
DA:167,1
DA:168,1
DA:170,1
DA:171,1
DA:172,1
DA:173,1
DA:174,1
DA:177,1
DA:178,1
DA:179,1
DA:181,1
DA:182,1
DA:183,1
DA:184,1
DA:185,1
DA:187,1
DA:188,1
DA:189,1
DA:192,1
DA:193,1
DA:194,1
DA:196,1
DA:197,1
DA:199,1
DA:200,1
DA:201,1
DA:204,1
DA:205,1
DA:206,1
DA:209,1
DA:210,1
DA:211,1
DA:214,1
DA:215,1
DA:216,1
DA:217,1
DA:220,1
DA:221,1
DA:222,1
DA:225,1
DA:226,1
DA:227,1
DA:230,1
DA:231,1
DA:232,1
BRF:0
BRH:0
LF:141
LH:109
end_of_record
SF:/home/noah/src/ruchy/src/notebook/server.rs
FN:29,_RNCNCNvNtNtCskTACvQmcrtm_5ruchy8notebook6server15execute_handler00B9_
FN:80,_RNCNvNtNtCskTACvQmcrtm_5ruchy8notebook6server12start_server0B7_
FN:22,_RNCNvNtNtCskTACvQmcrtm_5ruchy8notebook6server14serve_notebook0B7_
FN:26,_RNCNvNtNtCskTACvQmcrtm_5ruchy8notebook6server15execute_handler0B7_
FN:80,_RNvNtNtCskTACvQmcrtm_5ruchy8notebook6server12start_server
FN:22,_RNvNtNtCskTACvQmcrtm_5ruchy8notebook6server14serve_notebook
FN:26,_RNvNtNtCskTACvQmcrtm_5ruchy8notebook6server15execute_handler
FNDA:0,_RNCNCNvNtNtCskTACvQmcrtm_5ruchy8notebook6server15execute_handler00B9_
FNDA:0,_RNCNvNtNtCskTACvQmcrtm_5ruchy8notebook6server12start_server0B7_
FNDA:0,_RNCNvNtNtCskTACvQmcrtm_5ruchy8notebook6server14serve_notebook0B7_
FNDA:0,_RNCNvNtNtCskTACvQmcrtm_5ruchy8notebook6server15execute_handler0B7_
FNDA:0,_RNvNtNtCskTACvQmcrtm_5ruchy8notebook6server12start_server
FNDA:0,_RNvNtNtCskTACvQmcrtm_5ruchy8notebook6server14serve_notebook
FNDA:0,_RNvNtNtCskTACvQmcrtm_5ruchy8notebook6server15execute_handler
FNF:7
FNH:0
DA:22,0
DA:23,0
DA:24,0
DA:26,0
DA:27,0
DA:29,0
DA:33,0
DA:34,0
DA:35,0
DA:36,0
DA:37,0
DA:38,0
DA:39,0
DA:40,0
DA:41,0
DA:45,0
DA:46,0
DA:47,0
DA:48,0
DA:49,0
DA:50,0
DA:51,0
DA:52,0
DA:53,0
DA:55,0
DA:56,0
DA:57,0
DA:58,0
DA:59,0
DA:60,0
DA:63,0
DA:65,0
DA:66,0
DA:67,0
DA:68,0
DA:70,0
DA:71,0
DA:72,0
DA:73,0
DA:74,0
DA:75,0
DA:78,0
DA:80,0
DA:81,0
DA:83,0
DA:84,0
DA:85,0
DA:87,0
DA:88,0
DA:90,0
DA:91,0
DA:93,0
DA:95,0
DA:96,0
DA:97,0
BRF:0
BRH:0
LF:60
LH:0
end_of_record
SF:/home/noah/src/ruchy/src/notebook/testing/anticheat.rs
FN:146,_RNCNCNvMNtNtNtCskTACvQmcrtm_5ruchy8notebook7testing9anticheatNtB6_15AntiCheatSystem8tokenize00Bc_
FN:117,_RNCNvMNtNtNtCskTACvQmcrtm_5ruchy8notebook7testing9anticheatNtB4_15AntiCheatSystem14normalize_code0Ba_
FN:119,_RNCNvMNtNtNtCskTACvQmcrtm_5ruchy8notebook7testing9anticheatNtB4_15AntiCheatSystem14normalize_codes0_0Ba_
FN:118,_RNCNvMNtNtNtCskTACvQmcrtm_5ruchy8notebook7testing9anticheatNtB4_15AntiCheatSystem14normalize_codes_0Ba_
FN:187,_RNCNvMNtNtNtCskTACvQmcrtm_5ruchy8notebook7testing9anticheatNtB4_15AntiCheatSystem15line_similarity0Ba_
FN:145,_RNCNvMNtNtNtCskTACvQmcrtm_5ruchy8notebook7testing9anticheatNtB4_15AntiCheatSystem8tokenize0Ba_
FN:149,_RNCNvMNtNtNtCskTACvQmcrtm_5ruchy8notebook7testing9anticheatNtB4_15AntiCheatSystem8tokenizes0_0Ba_
FN:148,_RNCNvMNtNtNtCskTACvQmcrtm_5ruchy8notebook7testing9anticheatNtB4_15AntiCheatSystem8tokenizes_0Ba_
FN:343,_RNCNvMs0_NtNtNtCskTACvQmcrtm_5ruchy8notebook7testing9anticheatNtB7_15PatternAnalyzer15analyze_pattern0Bd_
FN:374,_RNCNvMs0_NtNtNtCskTACvQmcrtm_5ruchy8notebook7testing9anticheatNtB7_15PatternAnalyzer15analyze_patterns_0Bd_
FN:266,_RNCNvMs_NtNtNtCskTACvQmcrtm_5ruchy8notebook7testing9anticheatNtB6_19ObfuscationDetector13is_obfuscated0Bc_
FN:307,_RNCNvMs_NtNtNtCskTACvQmcrtm_5ruchy8notebook7testing9anticheatNtB6_19ObfuscationDetector15is_unusual_name0Bc_
FN:309,_RNCNvMs_NtNtNtCskTACvQmcrtm_5ruchy8notebook7testing9anticheatNtB6_19ObfuscationDetector15is_unusual_names_0Bc_
FN:295,_RNCNvMs_NtNtNtCskTACvQmcrtm_5ruchy8notebook7testing9anticheatNtB6_19ObfuscationDetector22extract_variable_names0Bc_
FN:114,_RNvMNtNtNtCskTACvQmcrtm_5ruchy8notebook7testing9anticheatNtB2_15AntiCheatSystem14normalize_code
FN:48,_RNvMNtNtNtCskTACvQmcrtm_5ruchy8notebook7testing9anticheatNtB2_15AntiCheatSystem14with_threshold
FN:176,_RNvMNtNtNtCskTACvQmcrtm_5ruchy8notebook7testing9anticheatNtB2_15AntiCheatSystem15line_similarity
FN:57,_RNvMNtNtNtCskTACvQmcrtm_5ruchy8notebook7testing9anticheatNtB2_15AntiCheatSystem16check_plagiarism
FN:218,_RNvMNtNtNtCskTACvQmcrtm_5ruchy8notebook7testing9anticheatNtB2_15AntiCheatSystem16store_submission
FN:124,_RNvMNtNtNtCskTACvQmcrtm_5ruchy8notebook7testing9anticheatNtB2_15AntiCheatSystem20calculate_similarity
FN:107,_RNvMNtNtNtCskTACvQmcrtm_5ruchy8notebook7testing9anticheatNtB2_15AntiCheatSystem20generate_fingerprint
FN:153,_RNvMNtNtNtCskTACvQmcrtm_5ruchy8notebook7testing9anticheatNtB2_15AntiCheatSystem21find_matched_sections
FN:194,_RNvMNtNtNtCskTACvQmcrtm_5ruchy8notebook7testing9anticheatNtB2_15AntiCheatSystem22merge_adjacent_matches
FN:40,_RNvMNtNtNtCskTACvQmcrtm_5ruchy8notebook7testing9anticheatNtB2_15AntiCheatSystem3new
FN:142,_RNvMNtNtNtCskTACvQmcrtm_5ruchy8notebook7testing9anticheatNtB2_15AntiCheatSystem8tokenize
FN:340,_RNvMs0_NtNtNtCskTACvQmcrtm_5ruchy8notebook7testing9anticheatNtB5_15PatternAnalyzer15analyze_pattern
FN:333,_RNvMs0_NtNtNtCskTACvQmcrtm_5ruchy8notebook7testing9anticheatNtB5_15PatternAnalyzer3new
FN:253,_RNvMs_NtNtNtCskTACvQmcrtm_5ruchy8notebook7testing9anticheatNtB4_19ObfuscationDetector13is_obfuscated
FN:304,_RNvMs_NtNtNtCskTACvQmcrtm_5ruchy8notebook7testing9anticheatNtB4_19ObfuscationDetector15is_unusual_name
FN:288,_RNvMs_NtNtNtCskTACvQmcrtm_5ruchy8notebook7testing9anticheatNtB4_19ObfuscationDetector22extract_variable_names
FN:239,_RNvMs_NtNtNtCskTACvQmcrtm_5ruchy8notebook7testing9anticheatNtB4_19ObfuscationDetector3new
FNDA:0,_RNCNCNvMNtNtNtCskTACvQmcrtm_5ruchy8notebook7testing9anticheatNtB6_15AntiCheatSystem8tokenize00Bc_
FNDA:0,_RNCNvMNtNtNtCskTACvQmcrtm_5ruchy8notebook7testing9anticheatNtB4_15AntiCheatSystem14normalize_code0Ba_
FNDA:0,_RNCNvMNtNtNtCskTACvQmcrtm_5ruchy8notebook7testing9anticheatNtB4_15AntiCheatSystem14normalize_codes0_0Ba_
FNDA:0,_RNCNvMNtNtNtCskTACvQmcrtm_5ruchy8notebook7testing9anticheatNtB4_15AntiCheatSystem14normalize_codes_0Ba_
FNDA:0,_RNCNvMNtNtNtCskTACvQmcrtm_5ruchy8notebook7testing9anticheatNtB4_15AntiCheatSystem15line_similarity0Ba_
FNDA:0,_RNCNvMNtNtNtCskTACvQmcrtm_5ruchy8notebook7testing9anticheatNtB4_15AntiCheatSystem8tokenize0Ba_
FNDA:0,_RNCNvMNtNtNtCskTACvQmcrtm_5ruchy8notebook7testing9anticheatNtB4_15AntiCheatSystem8tokenizes0_0Ba_
FNDA:0,_RNCNvMNtNtNtCskTACvQmcrtm_5ruchy8notebook7testing9anticheatNtB4_15AntiCheatSystem8tokenizes_0Ba_
FNDA:0,_RNCNvMs0_NtNtNtCskTACvQmcrtm_5ruchy8notebook7testing9anticheatNtB7_15PatternAnalyzer15analyze_pattern0Bd_
FNDA:0,_RNCNvMs0_NtNtNtCskTACvQmcrtm_5ruchy8notebook7testing9anticheatNtB7_15PatternAnalyzer15analyze_patterns_0Bd_
FNDA:0,_RNCNvMs_NtNtNtCskTACvQmcrtm_5ruchy8notebook7testing9anticheatNtB6_19ObfuscationDetector13is_obfuscated0Bc_
FNDA:0,_RNCNvMs_NtNtNtCskTACvQmcrtm_5ruchy8notebook7testing9anticheatNtB6_19ObfuscationDetector15is_unusual_name0Bc_
FNDA:0,_RNCNvMs_NtNtNtCskTACvQmcrtm_5ruchy8notebook7testing9anticheatNtB6_19ObfuscationDetector15is_unusual_names_0Bc_
FNDA:0,_RNCNvMs_NtNtNtCskTACvQmcrtm_5ruchy8notebook7testing9anticheatNtB6_19ObfuscationDetector22extract_variable_names0Bc_
FNDA:0,_RNvMNtNtNtCskTACvQmcrtm_5ruchy8notebook7testing9anticheatNtB2_15AntiCheatSystem14normalize_code
FNDA:0,_RNvMNtNtNtCskTACvQmcrtm_5ruchy8notebook7testing9anticheatNtB2_15AntiCheatSystem14with_threshold
FNDA:0,_RNvMNtNtNtCskTACvQmcrtm_5ruchy8notebook7testing9anticheatNtB2_15AntiCheatSystem15line_similarity
FNDA:0,_RNvMNtNtNtCskTACvQmcrtm_5ruchy8notebook7testing9anticheatNtB2_15AntiCheatSystem16check_plagiarism
FNDA:0,_RNvMNtNtNtCskTACvQmcrtm_5ruchy8notebook7testing9anticheatNtB2_15AntiCheatSystem16store_submission
FNDA:0,_RNvMNtNtNtCskTACvQmcrtm_5ruchy8notebook7testing9anticheatNtB2_15AntiCheatSystem20calculate_similarity
FNDA:0,_RNvMNtNtNtCskTACvQmcrtm_5ruchy8notebook7testing9anticheatNtB2_15AntiCheatSystem20generate_fingerprint
FNDA:0,_RNvMNtNtNtCskTACvQmcrtm_5ruchy8notebook7testing9anticheatNtB2_15AntiCheatSystem21find_matched_sections
FNDA:0,_RNvMNtNtNtCskTACvQmcrtm_5ruchy8notebook7testing9anticheatNtB2_15AntiCheatSystem22merge_adjacent_matches
FNDA:0,_RNvMNtNtNtCskTACvQmcrtm_5ruchy8notebook7testing9anticheatNtB2_15AntiCheatSystem3new
FNDA:0,_RNvMNtNtNtCskTACvQmcrtm_5ruchy8notebook7testing9anticheatNtB2_15AntiCheatSystem8tokenize
FNDA:0,_RNvMs0_NtNtNtCskTACvQmcrtm_5ruchy8notebook7testing9anticheatNtB5_15PatternAnalyzer15analyze_pattern
FNDA:0,_RNvMs0_NtNtNtCskTACvQmcrtm_5ruchy8notebook7testing9anticheatNtB5_15PatternAnalyzer3new
FNDA:0,_RNvMs_NtNtNtCskTACvQmcrtm_5ruchy8notebook7testing9anticheatNtB4_19ObfuscationDetector13is_obfuscated
FNDA:0,_RNvMs_NtNtNtCskTACvQmcrtm_5ruchy8notebook7testing9anticheatNtB4_19ObfuscationDetector15is_unusual_name
FNDA:0,_RNvMs_NtNtNtCskTACvQmcrtm_5ruchy8notebook7testing9anticheatNtB4_19ObfuscationDetector22extract_variable_names
FNDA:0,_RNvMs_NtNtNtCskTACvQmcrtm_5ruchy8notebook7testing9anticheatNtB4_19ObfuscationDetector3new
FNF:31
FNH:0
DA:40,0
DA:41,0
DA:42,0
DA:43,0
DA:44,0
DA:45,0
DA:46,0
DA:48,0
DA:49,0
DA:50,0
DA:51,0
DA:52,0
DA:53,0
DA:54,0
DA:57,0
DA:58,0
DA:61,0
DA:62,0
DA:63,0
DA:64,0
DA:65,0
DA:66,0
DA:67,0
DA:68,0
DA:69,0
DA:70,0
DA:71,0
DA:72,0
DA:73,0
DA:74,0
DA:77,0
DA:78,0
DA:79,0
DA:81,0
DA:82,0
DA:83,0
DA:84,0
DA:85,0
DA:87,0
DA:88,0
DA:89,0
DA:90,0
DA:91,0
DA:92,0
DA:97,0
DA:99,0
DA:100,0
DA:101,0
DA:102,0
DA:103,0
DA:104,0
DA:105,0
DA:107,0
DA:108,0
DA:109,0
DA:110,0
DA:111,0
DA:112,0
DA:114,0
DA:116,0
DA:117,0
DA:118,0
DA:119,0
DA:120,0
DA:121,0
DA:122,0
DA:124,0
DA:125,0
DA:126,0
DA:129,0
DA:130,0
DA:132,0
DA:133,0
DA:135,0
DA:136,0
DA:138,0
DA:140,0
DA:142,0
DA:144,0
DA:145,0
DA:146,0
DA:147,0
DA:148,0
DA:149,0
DA:150,0
DA:151,0
DA:153,0
DA:154,0
DA:155,0
DA:156,0
DA:159,0
DA:160,0
DA:161,0
DA:162,0
DA:163,0
DA:164,0
DA:165,0
DA:166,0
DA:167,0
DA:168,0
DA:173,0
DA:174,0
DA:176,0
DA:177,0
DA:178,0
DA:180,0
DA:181,0
DA:183,0
DA:184,0
DA:186,0
DA:187,0
DA:188,0
DA:189,0
DA:192,0
DA:194,0
DA:195,0
DA:196,0
DA:197,0
DA:199,0
DA:201,0
DA:202,0
DA:204,0
DA:205,0
DA:206,0
DA:207,0
DA:208,0
DA:209,0
DA:210,0
DA:211,0
DA:213,0
DA:215,0
DA:216,0
DA:218,0
DA:220,0
DA:221,0
DA:222,0
DA:226,0
DA:227,0
DA:228,0
DA:229,0
DA:230,0
DA:239,0
DA:240,0
DA:241,0
DA:242,0
DA:243,0
DA:244,0
DA:245,0
DA:246,0
DA:247,0
DA:248,0
DA:249,0
DA:250,0
DA:253,0
DA:254,0
DA:257,0
DA:258,0
DA:259,0
DA:260,0
DA:264,0
DA:265,0
DA:266,0
DA:267,0
DA:269,0
DA:270,0
DA:271,0
DA:274,0
DA:275,0
DA:276,0
DA:277,0
DA:278,0
DA:281,0
DA:282,0
DA:283,0
DA:284,0
DA:285,0
DA:286,0
DA:288,0
DA:290,0
DA:292,0
DA:293,0
DA:294,0
DA:295,0
DA:296,0
DA:297,0
DA:298,0
DA:301,0
DA:302,0
DA:304,0
DA:306,0
DA:307,0
DA:308,0
DA:309,0
DA:310,0
DA:333,0
DA:334,0
DA:335,0
DA:336,0
DA:337,0
DA:340,0
DA:341,0
DA:342,0
DA:343,0
DA:344,0
DA:345,0
DA:346,0
DA:348,0
DA:351,0
DA:352,0
DA:353,0
DA:354,0
DA:355,0
DA:356,0
DA:358,0
DA:359,0
DA:360,0
DA:363,0
DA:366,0
DA:367,0
DA:368,0
DA:369,0
DA:370,0
DA:373,0
DA:374,0
DA:375,0
DA:376,0
DA:377,0
DA:378,0
DA:380,0
DA:381,0
DA:382,0
DA:384,0
DA:385,0
DA:386,0
DA:387,0
DA:388,0
DA:389,0
BRF:0
BRH:0
LF:250
LH:0
end_of_record
SF:/home/noah/src/ruchy/src/notebook/testing/complexity.rs
FN:259,_RNCNvMs_NtNtNtCskTACvQmcrtm_5ruchy8notebook7testing10complexityNtB6_18ComplexityAnalyzer13find_hotspots0Bc_
FN:193,_RNCNvMs_NtNtNtCskTACvQmcrtm_5ruchy8notebook7testing10complexityNtB6_18ComplexityAnalyzer18calculate_halstead0Bc_
FN:195,_RNCNvMs_NtNtNtCskTACvQmcrtm_5ruchy8notebook7testing10complexityNtB6_18ComplexityAnalyzer18calculate_halsteads_0Bc_
FN:78,_RNvMs_NtNtNtCskTACvQmcrtm_5ruchy8notebook7testing10complexityNtB4_18ComplexityAnalyzer11with_config
FN:233,_RNvMs_NtNtNtCskTACvQmcrtm_5ruchy8notebook7testing10complexityNtB4_18ComplexityAnalyzer13find_hotspots
FN:263,_RNvMs_NtNtNtCskTACvQmcrtm_5ruchy8notebook7testing10complexityNtB4_18ComplexityAnalyzer16calculate_impact
FN:213,_RNvMs_NtNtNtCskTACvQmcrtm_5ruchy8notebook7testing10complexityNtB4_18ComplexityAnalyzer16count_loop_depth
FN:191,_RNvMs_NtNtNtCskTACvQmcrtm_5ruchy8notebook7testing10complexityNtB4_18ComplexityAnalyzer18calculate_halstead
FN:161,_RNvMs_NtNtNtCskTACvQmcrtm_5ruchy8notebook7testing10complexityNtB4_18ComplexityAnalyzer19calculate_cognitive
FN:146,_RNvMs_NtNtNtCskTACvQmcrtm_5ruchy8notebook7testing10complexityNtB4_18ComplexityAnalyzer20calculate_cyclomatic
FN:82,_RNvMs_NtNtNtCskTACvQmcrtm_5ruchy8notebook7testing10complexityNtB4_18ComplexityAnalyzer21get_default_threshold
FN:280,_RNvMs_NtNtNtCskTACvQmcrtm_5ruchy8notebook7testing10complexityNtB4_18ComplexityAnalyzer21suggest_optimizations
FN:114,_RNvMs_NtNtNtCskTACvQmcrtm_5ruchy8notebook7testing10complexityNtB4_18ComplexityAnalyzer23analyze_time_complexity
FN:134,_RNvMs_NtNtNtCskTACvQmcrtm_5ruchy8notebook7testing10complexityNtB4_18ComplexityAnalyzer24analyze_space_complexity
FN:72,_RNvMs_NtNtNtCskTACvQmcrtm_5ruchy8notebook7testing10complexityNtB4_18ComplexityAnalyzer3new
FN:87,_RNvMs_NtNtNtCskTACvQmcrtm_5ruchy8notebook7testing10complexityNtB4_18ComplexityAnalyzer7analyze
FN:19,_RNvXNtNtNtCskTACvQmcrtm_5ruchy8notebook7testing10complexityNtB2_16ComplexityConfigNtNtCs66KPHxksi63_4core7default7Default7default
FNDA:0,_RNCNvMs_NtNtNtCskTACvQmcrtm_5ruchy8notebook7testing10complexityNtB6_18ComplexityAnalyzer13find_hotspots0Bc_
FNDA:0,_RNCNvMs_NtNtNtCskTACvQmcrtm_5ruchy8notebook7testing10complexityNtB6_18ComplexityAnalyzer18calculate_halstead0Bc_
FNDA:0,_RNCNvMs_NtNtNtCskTACvQmcrtm_5ruchy8notebook7testing10complexityNtB6_18ComplexityAnalyzer18calculate_halsteads_0Bc_
FNDA:0,_RNvMs_NtNtNtCskTACvQmcrtm_5ruchy8notebook7testing10complexityNtB4_18ComplexityAnalyzer11with_config
FNDA:0,_RNvMs_NtNtNtCskTACvQmcrtm_5ruchy8notebook7testing10complexityNtB4_18ComplexityAnalyzer13find_hotspots
FNDA:0,_RNvMs_NtNtNtCskTACvQmcrtm_5ruchy8notebook7testing10complexityNtB4_18ComplexityAnalyzer16calculate_impact
FNDA:0,_RNvMs_NtNtNtCskTACvQmcrtm_5ruchy8notebook7testing10complexityNtB4_18ComplexityAnalyzer16count_loop_depth
FNDA:0,_RNvMs_NtNtNtCskTACvQmcrtm_5ruchy8notebook7testing10complexityNtB4_18ComplexityAnalyzer18calculate_halstead
FNDA:0,_RNvMs_NtNtNtCskTACvQmcrtm_5ruchy8notebook7testing10complexityNtB4_18ComplexityAnalyzer19calculate_cognitive
FNDA:0,_RNvMs_NtNtNtCskTACvQmcrtm_5ruchy8notebook7testing10complexityNtB4_18ComplexityAnalyzer20calculate_cyclomatic
FNDA:0,_RNvMs_NtNtNtCskTACvQmcrtm_5ruchy8notebook7testing10complexityNtB4_18ComplexityAnalyzer21get_default_threshold
FNDA:0,_RNvMs_NtNtNtCskTACvQmcrtm_5ruchy8notebook7testing10complexityNtB4_18ComplexityAnalyzer21suggest_optimizations
FNDA:0,_RNvMs_NtNtNtCskTACvQmcrtm_5ruchy8notebook7testing10complexityNtB4_18ComplexityAnalyzer23analyze_time_complexity
FNDA:0,_RNvMs_NtNtNtCskTACvQmcrtm_5ruchy8notebook7testing10complexityNtB4_18ComplexityAnalyzer24analyze_space_complexity
FNDA:0,_RNvMs_NtNtNtCskTACvQmcrtm_5ruchy8notebook7testing10complexityNtB4_18ComplexityAnalyzer3new
FNDA:0,_RNvMs_NtNtNtCskTACvQmcrtm_5ruchy8notebook7testing10complexityNtB4_18ComplexityAnalyzer7analyze
FNDA:0,_RNvXNtNtNtCskTACvQmcrtm_5ruchy8notebook7testing10complexityNtB2_16ComplexityConfigNtNtCs66KPHxksi63_4core7default7Default7default
FNF:17
FNH:0
DA:19,0
DA:20,0
DA:21,0
DA:22,0
DA:23,0
DA:24,0
DA:25,0
DA:72,0
DA:73,0
DA:74,0
DA:75,0
DA:76,0
DA:78,0
DA:79,0
DA:80,0
DA:82,0
DA:83,0
DA:84,0
DA:87,0
DA:88,0
DA:91,0
DA:94,0
DA:97,0
DA:100,0
DA:103,0
DA:105,0
DA:106,0
DA:107,0
DA:108,0
DA:109,0
DA:110,0
DA:111,0
DA:112,0
DA:114,0
DA:115,0
DA:117,0
DA:119,0
DA:120,0
DA:121,0
DA:122,0
DA:124,0
DA:127,0
DA:128,0
DA:129,0
DA:130,0
DA:132,0
DA:134,0
DA:135,0
DA:136,0
DA:137,0
DA:138,0
DA:139,0
DA:140,0
DA:142,0
DA:144,0
DA:146,0
DA:147,0
DA:150,0
DA:151,0
DA:152,0
DA:153,0
DA:154,0
DA:155,0
DA:156,0
DA:158,0
DA:159,0
DA:161,0
DA:162,0
DA:163,0
DA:165,0
DA:166,0
DA:169,0
DA:170,0
DA:171,0
DA:174,0
DA:175,0
DA:176,0
DA:177,0
DA:178,0
DA:179,0
DA:182,0
DA:183,0
DA:184,0
DA:187,0
DA:188,0
DA:189,0
DA:191,0
DA:193,0
DA:194,0
DA:195,0
DA:196,0
DA:198,0
DA:199,0
DA:200,0
DA:202,0
DA:203,0
DA:204,0
DA:206,0
DA:207,0
DA:208,0
DA:209,0
DA:210,0
DA:211,0
DA:213,0
DA:214,0
DA:215,0
DA:217,0
DA:218,0
DA:219,0
DA:220,0
DA:221,0
DA:222,0
DA:223,0
DA:224,0
DA:225,0
DA:226,0
DA:229,0
DA:230,0
DA:233,0
DA:234,0
DA:236,0
DA:237,0
DA:238,0
DA:241,0
DA:242,0
DA:244,0
DA:246,0
DA:247,0
DA:248,0
DA:249,0
DA:250,0
DA:251,0
DA:252,0
DA:253,0
DA:254,0
DA:255,0
DA:259,0
DA:260,0
DA:261,0
DA:263,0
DA:264,0
DA:265,0
DA:266,0
DA:267,0
DA:268,0
DA:269,0
DA:270,0
DA:271,0
DA:274,0
DA:276,0
DA:277,0
DA:280,0
DA:281,0
DA:283,0
DA:284,0
DA:285,0
DA:287,0
DA:290,0
DA:292,0
DA:293,0
DA:294,0
DA:295,0
DA:296,0
DA:297,0
DA:299,0
DA:300,0
DA:301,0
DA:302,0
DA:306,0
DA:307,0
DA:308,0
DA:309,0
DA:310,0
DA:311,0
DA:314,0
DA:315,0
DA:316,0
DA:318,0
DA:319,0
BRF:0
BRH:0
LF:182
LH:0
end_of_record
SF:/home/noah/src/ruchy/src/notebook/testing/coverage.rs
FN:17,_RNvMNtNtNtCskTACvQmcrtm_5ruchy8notebook7testing8coverageNtB2_15CoverageTracker15instrument_cell
FN:28,_RNvMNtNtNtCskTACvQmcrtm_5ruchy8notebook7testing8coverageNtB2_15CoverageTracker15report_coverage
FN:24,_RNvMNtNtNtCskTACvQmcrtm_5ruchy8notebook7testing8coverageNtB2_15CoverageTracker20execute_instrumented
FN:10,_RNvMNtNtNtCskTACvQmcrtm_5ruchy8notebook7testing8coverageNtB2_15CoverageTracker3new
FNDA:0,_RNvMNtNtNtCskTACvQmcrtm_5ruchy8notebook7testing8coverageNtB2_15CoverageTracker15instrument_cell
FNDA:0,_RNvMNtNtNtCskTACvQmcrtm_5ruchy8notebook7testing8coverageNtB2_15CoverageTracker15report_coverage
FNDA:0,_RNvMNtNtNtCskTACvQmcrtm_5ruchy8notebook7testing8coverageNtB2_15CoverageTracker20execute_instrumented
FNDA:0,_RNvMNtNtNtCskTACvQmcrtm_5ruchy8notebook7testing8coverageNtB2_15CoverageTracker3new
FNF:4
FNH:0
DA:10,0
DA:11,0
DA:12,0
DA:13,0
DA:14,0
DA:15,0
DA:17,0
DA:18,0
DA:19,0
DA:20,0
DA:21,0
DA:22,0
DA:24,0
DA:26,0
DA:28,0
DA:29,0
DA:30,0
DA:31,0
DA:32,0
DA:33,0
DA:34,0
BRF:0
BRH:0
LF:21
LH:0
end_of_record
SF:/home/noah/src/ruchy/src/notebook/testing/differential.rs
FN:88,_RNCNvMs_NtNtNtCskTACvQmcrtm_5ruchy8notebook7testing12differentialNtB6_18DifferentialTester12compare_cell0Bc_
FN:94,_RNCNvMs_NtNtNtCskTACvQmcrtm_5ruchy8notebook7testing12differentialNtB6_18DifferentialTester12compare_cells_0Bc_
FN:58,_RNvMs_NtNtNtCskTACvQmcrtm_5ruchy8notebook7testing12differentialNtB4_18DifferentialTester11with_config
FN:84,_RNvMs_NtNtNtCskTACvQmcrtm_5ruchy8notebook7testing12differentialNtB4_18DifferentialTester12compare_cell
FN:146,_RNvMs_NtNtNtCskTACvQmcrtm_5ruchy8notebook7testing12differentialNtB4_18DifferentialTester15generate_report
FN:115,_RNvMs_NtNtNtCskTACvQmcrtm_5ruchy8notebook7testing12differentialNtB4_18DifferentialTester19classify_divergence
FN:50,_RNvMs_NtNtNtCskTACvQmcrtm_5ruchy8notebook7testing12differentialNtB4_18DifferentialTester3new
FN:67,_RNvMs_NtNtNtCskTACvQmcrtm_5ruchy8notebook7testing12differentialNtB4_18DifferentialTester7compare
FN:22,_RNvXNtNtNtCskTACvQmcrtm_5ruchy8notebook7testing12differentialNtB2_18DifferentialConfigNtNtCs66KPHxksi63_4core7default7Default7default
FNDA:0,_RNCNvMs_NtNtNtCskTACvQmcrtm_5ruchy8notebook7testing12differentialNtB6_18DifferentialTester12compare_cell0Bc_
FNDA:0,_RNCNvMs_NtNtNtCskTACvQmcrtm_5ruchy8notebook7testing12differentialNtB6_18DifferentialTester12compare_cells_0Bc_
FNDA:0,_RNvMs_NtNtNtCskTACvQmcrtm_5ruchy8notebook7testing12differentialNtB4_18DifferentialTester11with_config
FNDA:0,_RNvMs_NtNtNtCskTACvQmcrtm_5ruchy8notebook7testing12differentialNtB4_18DifferentialTester12compare_cell
FNDA:0,_RNvMs_NtNtNtCskTACvQmcrtm_5ruchy8notebook7testing12differentialNtB4_18DifferentialTester15generate_report
FNDA:0,_RNvMs_NtNtNtCskTACvQmcrtm_5ruchy8notebook7testing12differentialNtB4_18DifferentialTester19classify_divergence
FNDA:0,_RNvMs_NtNtNtCskTACvQmcrtm_5ruchy8notebook7testing12differentialNtB4_18DifferentialTester3new
FNDA:0,_RNvMs_NtNtNtCskTACvQmcrtm_5ruchy8notebook7testing12differentialNtB4_18DifferentialTester7compare
FNDA:0,_RNvXNtNtNtCskTACvQmcrtm_5ruchy8notebook7testing12differentialNtB2_18DifferentialConfigNtNtCs66KPHxksi63_4core7default7Default7default
FNF:9
FNH:0
DA:22,0
DA:23,0
DA:24,0
DA:25,0
DA:26,0
DA:27,0
DA:50,0
DA:51,0
DA:52,0
DA:53,0
DA:54,0
DA:55,0
DA:56,0
DA:58,0
DA:59,0
DA:60,0
DA:61,0
DA:62,0
DA:63,0
DA:64,0
DA:67,0
DA:68,0
DA:70,0
DA:71,0
DA:72,0
DA:73,0
DA:75,0
DA:76,0
DA:77,0
DA:78,0
DA:81,0
DA:82,0
DA:84,0
DA:86,0
DA:87,0
DA:88,0
DA:89,0
DA:92,0
DA:93,0
DA:94,0
DA:95,0
DA:98,0
DA:99,0
DA:100,0
DA:101,0
DA:102,0
DA:105,0
DA:106,0
DA:107,0
DA:108,0
DA:109,0
DA:110,0
DA:111,0
DA:112,0
DA:113,0
DA:115,0
DA:116,0
DA:117,0
DA:118,0
DA:119,0
DA:120,0
DA:121,0
DA:123,0
DA:124,0
DA:125,0
DA:128,0
DA:130,0
DA:132,0
DA:134,0
DA:135,0
DA:136,0
DA:138,0
DA:141,0
DA:143,0
DA:146,0
DA:147,0
DA:148,0
DA:150,0
DA:151,0
DA:152,0
DA:153,0
DA:155,0
DA:156,0
DA:157,0
DA:159,0
DA:160,0
DA:161,0
DA:162,0
DA:163,0
DA:164,0
DA:166,0
DA:167,0
DA:168,0
DA:169,0
DA:170,0
DA:171,0
DA:173,0
DA:177,0
DA:178,0
BRF:0
BRH:0
LF:101
LH:0
end_of_record
SF:/home/noah/src/ruchy/src/notebook/testing/educational.rs
FN:139,_RNCNvMNtNtNtCskTACvQmcrtm_5ruchy8notebook7testing11educationalNtB4_19EducationalPlatform10auto_grade0Ba_
FN:147,_RNCNvMNtNtNtCskTACvQmcrtm_5ruchy8notebook7testing11educationalNtB4_19EducationalPlatform10auto_grades_0Ba_
FN:91,_RNCNvMNtNtNtCskTACvQmcrtm_5ruchy8notebook7testing11educationalNtB4_19EducationalPlatform17create_assignment0Ba_
FN:106,_RNCNvMNtNtNtCskTACvQmcrtm_5ruchy8notebook7testing11educationalNtB4_19EducationalPlatform17submit_assignment0Ba_
FN:111,_RNCNvMNtNtNtCskTACvQmcrtm_5ruchy8notebook7testing11educationalNtB4_19EducationalPlatform17submit_assignments_0Ba_
FN:271,_RNCNvMs_NtNtNtCskTACvQmcrtm_5ruchy8notebook7testing11educationalNtB6_17LearningAnalytics17get_class_metricss_0Bc_
FN:241,_RNCNvMs_NtNtNtCskTACvQmcrtm_5ruchy8notebook7testing11educationalNtB6_17LearningAnalytics19get_student_metrics0Bc_
FN:247,_RNCNvMs_NtNtNtCskTACvQmcrtm_5ruchy8notebook7testing11educationalNtB6_17LearningAnalytics19get_student_metricss0_0Bc_
FN:137,_RNvMNtNtNtCskTACvQmcrtm_5ruchy8notebook7testing11educationalNtB2_19EducationalPlatform10auto_grade
FN:182,_RNvMNtNtNtCskTACvQmcrtm_5ruchy8notebook7testing11educationalNtB2_19EducationalPlatform13get_analytics
FN:99,_RNvMNtNtNtCskTACvQmcrtm_5ruchy8notebook7testing11educationalNtB2_19EducationalPlatform15get_assignments
FN:90,_RNvMNtNtNtCskTACvQmcrtm_5ruchy8notebook7testing11educationalNtB2_19EducationalPlatform17create_assignment
FN:104,_RNvMNtNtNtCskTACvQmcrtm_5ruchy8notebook7testing11educationalNtB2_19EducationalPlatform17submit_assignment
FN:176,_RNvMNtNtNtCskTACvQmcrtm_5ruchy8notebook7testing11educationalNtB2_19EducationalPlatform18submit_peer_review
FN:80,_RNvMNtNtNtCskTACvQmcrtm_5ruchy8notebook7testing11educationalNtB2_19EducationalPlatform3new
FN:234,_RNvMs_NtNtNtCskTACvQmcrtm_5ruchy8notebook7testing11educationalNtB4_17LearningAnalytics11track_event
FN:266,_RNvMs_NtNtNtCskTACvQmcrtm_5ruchy8notebook7testing11educationalNtB4_17LearningAnalytics17get_class_metrics
FN:239,_RNvMs_NtNtNtCskTACvQmcrtm_5ruchy8notebook7testing11educationalNtB4_17LearningAnalytics19get_student_metrics
FN:229,_RNvMs_NtNtNtCskTACvQmcrtm_5ruchy8notebook7testing11educationalNtB4_17LearningAnalytics3new
FN:315,_RNvXs0_NtNtNtCskTACvQmcrtm_5ruchy8notebook7testing11educationalNtB5_10AssignmentNtNtCs66KPHxksi63_4core7default7Default7default
FNDA:0,_RNCNvMNtNtNtCskTACvQmcrtm_5ruchy8notebook7testing11educationalNtB4_19EducationalPlatform10auto_grade0Ba_
FNDA:0,_RNCNvMNtNtNtCskTACvQmcrtm_5ruchy8notebook7testing11educationalNtB4_19EducationalPlatform10auto_grades_0Ba_
FNDA:0,_RNCNvMNtNtNtCskTACvQmcrtm_5ruchy8notebook7testing11educationalNtB4_19EducationalPlatform17create_assignment0Ba_
FNDA:0,_RNCNvMNtNtNtCskTACvQmcrtm_5ruchy8notebook7testing11educationalNtB4_19EducationalPlatform17submit_assignment0Ba_
FNDA:0,_RNCNvMNtNtNtCskTACvQmcrtm_5ruchy8notebook7testing11educationalNtB4_19EducationalPlatform17submit_assignments_0Ba_
FNDA:0,_RNCNvMs_NtNtNtCskTACvQmcrtm_5ruchy8notebook7testing11educationalNtB6_17LearningAnalytics17get_class_metricss_0Bc_
FNDA:0,_RNCNvMs_NtNtNtCskTACvQmcrtm_5ruchy8notebook7testing11educationalNtB6_17LearningAnalytics19get_student_metrics0Bc_
FNDA:0,_RNCNvMs_NtNtNtCskTACvQmcrtm_5ruchy8notebook7testing11educationalNtB6_17LearningAnalytics19get_student_metricss0_0Bc_
FNDA:0,_RNvMNtNtNtCskTACvQmcrtm_5ruchy8notebook7testing11educationalNtB2_19EducationalPlatform10auto_grade
FNDA:0,_RNvMNtNtNtCskTACvQmcrtm_5ruchy8notebook7testing11educationalNtB2_19EducationalPlatform13get_analytics
FNDA:0,_RNvMNtNtNtCskTACvQmcrtm_5ruchy8notebook7testing11educationalNtB2_19EducationalPlatform15get_assignments
FNDA:0,_RNvMNtNtNtCskTACvQmcrtm_5ruchy8notebook7testing11educationalNtB2_19EducationalPlatform17create_assignment
FNDA:0,_RNvMNtNtNtCskTACvQmcrtm_5ruchy8notebook7testing11educationalNtB2_19EducationalPlatform17submit_assignment
FNDA:0,_RNvMNtNtNtCskTACvQmcrtm_5ruchy8notebook7testing11educationalNtB2_19EducationalPlatform18submit_peer_review
FNDA:0,_RNvMNtNtNtCskTACvQmcrtm_5ruchy8notebook7testing11educationalNtB2_19EducationalPlatform3new
FNDA:0,_RNvMs_NtNtNtCskTACvQmcrtm_5ruchy8notebook7testing11educationalNtB4_17LearningAnalytics11track_event
FNDA:0,_RNvMs_NtNtNtCskTACvQmcrtm_5ruchy8notebook7testing11educationalNtB4_17LearningAnalytics17get_class_metrics
FNDA:0,_RNvMs_NtNtNtCskTACvQmcrtm_5ruchy8notebook7testing11educationalNtB4_17LearningAnalytics19get_student_metrics
FNDA:0,_RNvMs_NtNtNtCskTACvQmcrtm_5ruchy8notebook7testing11educationalNtB4_17LearningAnalytics3new
FNDA:0,_RNvXs0_NtNtNtCskTACvQmcrtm_5ruchy8notebook7testing11educationalNtB5_10AssignmentNtNtCs66KPHxksi63_4core7default7Default7default
FNF:20
FNH:0
DA:80,0
DA:81,0
DA:82,0
DA:83,0
DA:84,0
DA:85,0
DA:86,0
DA:87,0
DA:90,0
DA:91,0
DA:92,0
DA:93,0
DA:94,0
DA:95,0
DA:96,0
DA:99,0
DA:100,0
DA:101,0
DA:104,0
DA:106,0
DA:107,0
DA:108,0
DA:111,0
DA:112,0
DA:113,0
DA:114,0
DA:115,0
DA:118,0
DA:119,0
DA:120,0
DA:121,0
DA:124,0
DA:125,0
DA:126,0
DA:127,0
DA:128,0
DA:129,0
DA:130,0
DA:131,0
DA:133,0
DA:134,0
DA:137,0
DA:138,0
DA:139,0
DA:140,0
DA:142,0
DA:143,0
DA:146,0
DA:147,0
DA:149,0
DA:150,0
DA:151,0
DA:152,0
DA:153,0
DA:154,0
DA:155,0
DA:156,0
DA:157,0
DA:158,0
DA:159,0
DA:160,0
DA:161,0
DA:162,0
DA:163,0
DA:166,0
DA:167,0
DA:168,0
DA:169,0
DA:170,0
DA:171,0
DA:172,0
DA:173,0
DA:176,0
DA:177,0
DA:178,0
DA:179,0
DA:182,0
DA:183,0
DA:184,0
DA:229,0
DA:230,0
DA:231,0
DA:234,0
DA:235,0
DA:236,0
DA:239,0
DA:240,0
DA:241,0
DA:242,0
DA:244,0
DA:245,0
DA:246,0
DA:247,0
DA:248,0
DA:250,0
DA:251,0
DA:252,0
DA:254,0
DA:258,0
DA:259,0
DA:260,0
DA:261,0
DA:263,0
DA:266,0
DA:267,0
DA:268,0
DA:270,0
DA:271,0
DA:272,0
DA:275,0
DA:276,0
DA:277,0
DA:279,0
DA:283,0
DA:315,0
DA:316,0
DA:317,0
DA:318,0
DA:319,0
DA:320,0
DA:321,0
DA:322,0
DA:323,0
DA:324,0
DA:325,0
DA:326,0
DA:327,0
DA:328,0
DA:329,0
BRF:0
BRH:0
LF:137
LH:0
end_of_record
SF:/home/noah/src/ruchy/src/notebook/testing/formal.rs
FN:80,_RNvMs_NtNtNtCskTACvQmcrtm_5ruchy8notebook7testing6formalNtB4_14FormalVerifier11with_config
FN:152,_RNvMs_NtNtNtCskTACvQmcrtm_5ruchy8notebook7testing6formalNtB4_14FormalVerifier14prove_function
FN:176,_RNvMs_NtNtNtCskTACvQmcrtm_5ruchy8notebook7testing6formalNtB4_14FormalVerifier16symbolic_execute
FN:93,_RNvMs_NtNtNtCskTACvQmcrtm_5ruchy8notebook7testing6formalNtB4_14FormalVerifier16verify_invariant
FN:128,_RNvMs_NtNtNtCskTACvQmcrtm_5ruchy8notebook7testing6formalNtB4_14FormalVerifier17verify_constraint
FN:208,_RNvMs_NtNtNtCskTACvQmcrtm_5ruchy8notebook7testing6formalNtB4_14FormalVerifier21verify_loop_invariant
FN:73,_RNvMs_NtNtNtCskTACvQmcrtm_5ruchy8notebook7testing6formalNtB4_14FormalVerifier3new
FN:87,_RNvMs_NtNtNtCskTACvQmcrtm_5ruchy8notebook7testing6formalNtB4_14FormalVerifier8is_ready
FN:20,_RNvXNtNtNtCskTACvQmcrtm_5ruchy8notebook7testing6formalNtB2_12FormalConfigNtNtCs66KPHxksi63_4core7default7Default7default
FNDA:0,_RNvMs_NtNtNtCskTACvQmcrtm_5ruchy8notebook7testing6formalNtB4_14FormalVerifier11with_config
FNDA:0,_RNvMs_NtNtNtCskTACvQmcrtm_5ruchy8notebook7testing6formalNtB4_14FormalVerifier14prove_function
FNDA:0,_RNvMs_NtNtNtCskTACvQmcrtm_5ruchy8notebook7testing6formalNtB4_14FormalVerifier16symbolic_execute
FNDA:0,_RNvMs_NtNtNtCskTACvQmcrtm_5ruchy8notebook7testing6formalNtB4_14FormalVerifier16verify_invariant
FNDA:0,_RNvMs_NtNtNtCskTACvQmcrtm_5ruchy8notebook7testing6formalNtB4_14FormalVerifier17verify_constraint
FNDA:0,_RNvMs_NtNtNtCskTACvQmcrtm_5ruchy8notebook7testing6formalNtB4_14FormalVerifier21verify_loop_invariant
FNDA:0,_RNvMs_NtNtNtCskTACvQmcrtm_5ruchy8notebook7testing6formalNtB4_14FormalVerifier3new
FNDA:0,_RNvMs_NtNtNtCskTACvQmcrtm_5ruchy8notebook7testing6formalNtB4_14FormalVerifier8is_ready
FNDA:0,_RNvXNtNtNtCskTACvQmcrtm_5ruchy8notebook7testing6formalNtB2_12FormalConfigNtNtCs66KPHxksi63_4core7default7Default7default
FNF:9
FNH:0
DA:20,0
DA:21,0
DA:22,0
DA:23,0
DA:24,0
DA:25,0
DA:26,0
DA:73,0
DA:74,0
DA:75,0
DA:76,0
DA:77,0
DA:78,0
DA:80,0
DA:81,0
DA:82,0
DA:83,0
DA:84,0
DA:85,0
DA:87,0
DA:89,0
DA:90,0
DA:93,0
DA:95,0
DA:96,0
DA:97,0
DA:99,0
DA:102,0
DA:103,0
DA:106,0
DA:107,0
DA:108,0
DA:109,0
DA:110,0
DA:111,0
DA:112,0
DA:113,0
DA:114,0
DA:115,0
DA:116,0
DA:117,0
DA:118,0
DA:120,0
DA:121,0
DA:122,0
DA:123,0
DA:124,0
DA:125,0
DA:128,0
DA:129,0
DA:130,0
DA:133,0
DA:134,0
DA:136,0
DA:137,0
DA:138,0
DA:139,0
DA:140,0
DA:141,0
DA:142,0
DA:143,0
DA:145,0
DA:146,0
DA:147,0
DA:148,0
DA:149,0
DA:152,0
DA:153,0
DA:154,0
DA:157,0
DA:158,0
DA:159,0
DA:160,0
DA:161,0
DA:164,0
DA:165,0
DA:166,0
DA:167,0
DA:169,0
DA:170,0
DA:171,0
DA:172,0
DA:173,0
DA:176,0
DA:177,0
DA:180,0
DA:182,0
DA:183,0
DA:184,0
DA:185,0
DA:186,0
DA:187,0
DA:188,0
DA:189,0
DA:190,0
DA:191,0
DA:192,0
DA:193,0
DA:194,0
DA:195,0
DA:196,0
DA:197,0
DA:198,0
DA:199,0
DA:200,0
DA:201,0
DA:202,0
DA:204,0
DA:205,0
DA:208,0
DA:210,0
DA:211,0
DA:212,0
DA:213,0
DA:214,0
DA:215,0
DA:216,0
BRF:0
BRH:0
LF:117
LH:0
end_of_record
SF:/home/noah/src/ruchy/src/notebook/testing/golden.rs
FN:39,_RNCNvMNtNtNtCskTACvQmcrtm_5ruchy8notebook7testing6goldenNtB4_13GoldenManager11load_golden0Ba_
FN:20,_RNCNvMNtNtNtCskTACvQmcrtm_5ruchy8notebook7testing6goldenNtB4_13GoldenManager11save_golden0Ba_
FN:33,_RNCNvMNtNtNtCskTACvQmcrtm_5ruchy8notebook7testing6goldenNtB4_13GoldenManager11save_goldens_0Ba_
FN:36,_RNvMNtNtNtCskTACvQmcrtm_5ruchy8notebook7testing6goldenNtB2_13GoldenManager11load_golden
FN:16,_RNvMNtNtNtCskTACvQmcrtm_5ruchy8notebook7testing6goldenNtB2_13GoldenManager11save_golden
FN:10,_RNvMNtNtNtCskTACvQmcrtm_5ruchy8notebook7testing6goldenNtB2_13GoldenManager3new
FNDA:0,_RNCNvMNtNtNtCskTACvQmcrtm_5ruchy8notebook7testing6goldenNtB4_13GoldenManager11load_golden0Ba_
FNDA:0,_RNCNvMNtNtNtCskTACvQmcrtm_5ruchy8notebook7testing6goldenNtB4_13GoldenManager11save_golden0Ba_
FNDA:0,_RNCNvMNtNtNtCskTACvQmcrtm_5ruchy8notebook7testing6goldenNtB4_13GoldenManager11save_goldens_0Ba_
FNDA:0,_RNvMNtNtNtCskTACvQmcrtm_5ruchy8notebook7testing6goldenNtB2_13GoldenManager11load_golden
FNDA:0,_RNvMNtNtNtCskTACvQmcrtm_5ruchy8notebook7testing6goldenNtB2_13GoldenManager11save_golden
FNDA:0,_RNvMNtNtNtCskTACvQmcrtm_5ruchy8notebook7testing6goldenNtB2_13GoldenManager3new
FNF:6
FNH:0
DA:10,0
DA:11,0
DA:12,0
DA:13,0
DA:14,0
DA:16,0
DA:17,0
DA:18,0
DA:19,0
DA:20,0
DA:21,0
DA:23,0
DA:24,0
DA:25,0
DA:26,0
DA:27,0
DA:28,0
DA:29,0
DA:32,0
DA:33,0
DA:34,0
DA:36,0
DA:37,0
DA:38,0
DA:39,0
DA:42,0
DA:43,0
BRF:0
BRH:0
LF:30
LH:0
end_of_record
SF:/home/noah/src/ruchy/src/notebook/testing/grading.rs
FN:54,_RNCNvMs_NtNtNtCskTACvQmcrtm_5ruchy8notebook7testing7gradingNtB6_6Grader17grade_with_rubric0Bc_
FN:228,_RNvMs0_NtNtNtCskTACvQmcrtm_5ruchy8notebook7testing7gradingNtB5_17ExerciseValidator10would_pass
FN:188,_RNvMs0_NtNtNtCskTACvQmcrtm_5ruchy8notebook7testing7gradingNtB5_17ExerciseValidator3new
FN:193,_RNvMs0_NtNtNtCskTACvQmcrtm_5ruchy8notebook7testing7gradingNtB5_17ExerciseValidator8validate
FN:37,_RNvMs_NtNtNtCskTACvQmcrtm_5ruchy8notebook7testing7gradingNtB4_6Grader11with_config
FN:150,_RNvMs_NtNtNtCskTACvQmcrtm_5ruchy8notebook7testing7gradingNtB4_6Grader13count_nesting
FN:42,_RNvMs_NtNtNtCskTACvQmcrtm_5ruchy8notebook7testing7gradingNtB4_6Grader17grade_with_rubric
FN:89,_RNvMs_NtNtNtCskTACvQmcrtm_5ruchy8notebook7testing7gradingNtB4_6Grader18apply_late_penalty
FN:110,_RNvMs_NtNtNtCskTACvQmcrtm_5ruchy8notebook7testing7gradingNtB4_6Grader18grade_code_quality
FN:31,_RNvMs_NtNtNtCskTACvQmcrtm_5ruchy8notebook7testing7gradingNtB4_6Grader3new
FN:21,_RNvXNtNtNtCskTACvQmcrtm_5ruchy8notebook7testing7gradingNtB2_13GradingConfigNtNtCs66KPHxksi63_4core7default7Default7default
FNDA:0,_RNCNvMs_NtNtNtCskTACvQmcrtm_5ruchy8notebook7testing7gradingNtB6_6Grader17grade_with_rubric0Bc_
FNDA:0,_RNvMs0_NtNtNtCskTACvQmcrtm_5ruchy8notebook7testing7gradingNtB5_17ExerciseValidator10would_pass
FNDA:0,_RNvMs0_NtNtNtCskTACvQmcrtm_5ruchy8notebook7testing7gradingNtB5_17ExerciseValidator3new
FNDA:0,_RNvMs0_NtNtNtCskTACvQmcrtm_5ruchy8notebook7testing7gradingNtB5_17ExerciseValidator8validate
FNDA:0,_RNvMs_NtNtNtCskTACvQmcrtm_5ruchy8notebook7testing7gradingNtB4_6Grader11with_config
FNDA:0,_RNvMs_NtNtNtCskTACvQmcrtm_5ruchy8notebook7testing7gradingNtB4_6Grader13count_nesting
FNDA:0,_RNvMs_NtNtNtCskTACvQmcrtm_5ruchy8notebook7testing7gradingNtB4_6Grader17grade_with_rubric
FNDA:0,_RNvMs_NtNtNtCskTACvQmcrtm_5ruchy8notebook7testing7gradingNtB4_6Grader18apply_late_penalty
FNDA:0,_RNvMs_NtNtNtCskTACvQmcrtm_5ruchy8notebook7testing7gradingNtB4_6Grader18grade_code_quality
FNDA:0,_RNvMs_NtNtNtCskTACvQmcrtm_5ruchy8notebook7testing7gradingNtB4_6Grader3new
FNDA:0,_RNvXNtNtNtCskTACvQmcrtm_5ruchy8notebook7testing7gradingNtB2_13GradingConfigNtNtCs66KPHxksi63_4core7default7Default7default
FNF:11
FNH:0
DA:21,0
DA:22,0
DA:23,0
DA:24,0
DA:25,0
DA:26,0
DA:27,0
DA:31,0
DA:32,0
DA:33,0
DA:34,0
DA:35,0
DA:37,0
DA:38,0
DA:39,0
DA:42,0
DA:43,0
DA:44,0
DA:45,0
DA:46,0
DA:47,0
DA:48,0
DA:49,0
DA:50,0
DA:53,0
DA:54,0
DA:55,0
DA:56,0
DA:57,0
DA:60,0
DA:61,0
DA:62,0
DA:63,0
DA:64,0
DA:66,0
DA:69,0
DA:70,0
DA:71,0
DA:72,0
DA:73,0
DA:74,0
DA:77,0
DA:79,0
DA:80,0
DA:81,0
DA:82,0
DA:83,0
DA:84,0
DA:85,0
DA:86,0
DA:89,0
DA:90,0
DA:91,0
DA:92,0
DA:94,0
DA:95,0
DA:96,0
DA:98,0
DA:99,0
DA:101,0
DA:102,0
DA:103,0
DA:104,0
DA:105,0
DA:106,0
DA:107,0
DA:110,0
DA:111,0
DA:113,0
DA:114,0
DA:116,0
DA:117,0
DA:118,0
DA:121,0
DA:122,0
DA:123,0
DA:126,0
DA:127,0
DA:128,0
DA:131,0
DA:132,0
DA:133,0
DA:134,0
DA:135,0
DA:139,0
DA:140,0
DA:141,0
DA:142,0
DA:144,0
DA:145,0
DA:147,0
DA:148,0
DA:150,0
DA:151,0
DA:152,0
DA:154,0
DA:155,0
DA:156,0
DA:157,0
DA:158,0
DA:159,0
DA:161,0
DA:162,0
DA:163,0
DA:165,0
DA:169,0
DA:170,0
DA:188,0
DA:189,0
DA:190,0
DA:193,0
DA:194,0
DA:195,0
DA:196,0
DA:199,0
DA:200,0
DA:201,0
DA:202,0
DA:203,0
DA:204,0
DA:205,0
DA:206,0
DA:207,0
DA:210,0
DA:212,0
DA:213,0
DA:214,0
DA:215,0
DA:216,0
DA:217,0
DA:220,0
DA:221,0
DA:222,0
DA:223,0
DA:224,0
DA:225,0
DA:226,0
DA:228,0
DA:230,0
DA:231,0
DA:232,0
BRF:0
BRH:0
LF:142
LH:0
end_of_record
SF:/home/noah/src/ruchy/src/notebook/testing/incremental.rs
FN:432,_RNCNCNvMs0_NtNtNtCskTACvQmcrtm_5ruchy8notebook7testing11incrementalNtB9_17DependencyTracker14extract_usagess_00Bf_
FN:162,_RNCNvMNtNtNtCskTACvQmcrtm_5ruchy8notebook7testing11incrementalNtB4_17IncrementalTester21find_cells_to_execute0Ba_
FN:222,_RNCNvMNtNtNtCskTACvQmcrtm_5ruchy8notebook7testing11incrementalNtB4_17IncrementalTester21get_dependencies_hash0Ba_
FN:431,_RNCNvMs0_NtNtNtCskTACvQmcrtm_5ruchy8notebook7testing11incrementalNtB7_17DependencyTracker14extract_usages0Bd_
FN:433,_RNCNvMs0_NtNtNtCskTACvQmcrtm_5ruchy8notebook7testing11incrementalNtB7_17DependencyTracker14extract_usagess0_0Bd_
FN:432,_RNCNvMs0_NtNtNtCskTACvQmcrtm_5ruchy8notebook7testing11incrementalNtB7_17DependencyTracker14extract_usagess_0Bd_
FN:532,_RNCNvMs2_NtNtNtCskTACvQmcrtm_5ruchy8notebook7testing11incrementalNtB7_8Notebook8get_cell0Bd_
FN:286,_RNCNvMs_NtNtNtCskTACvQmcrtm_5ruchy8notebook7testing11incrementalNtB6_15TestResultCache3get0Bc_
FN:266,_RNCNvMs_NtNtNtCskTACvQmcrtm_5ruchy8notebook7testing11incrementalNtB6_15TestResultCache5store0Bc_
FN:89,_RNvMNtNtNtCskTACvQmcrtm_5ruchy8notebook7testing11incrementalNtB2_17IncrementalTester11with_config
FN:176,_RNvMNtNtNtCskTACvQmcrtm_5ruchy8notebook7testing11incrementalNtB2_17IncrementalTester12execute_cell
FN:227,_RNvMNtNtNtCskTACvQmcrtm_5ruchy8notebook7testing11incrementalNtB2_17IncrementalTester14calculate_hash
FN:197,_RNvMNtNtNtCskTACvQmcrtm_5ruchy8notebook7testing11incrementalNtB2_17IncrementalTester14is_cache_valid
FN:101,_RNvMNtNtNtCskTACvQmcrtm_5ruchy8notebook7testing11incrementalNtB2_17IncrementalTester19execute_incremental
FN:146,_RNvMNtNtNtCskTACvQmcrtm_5ruchy8notebook7testing11incrementalNtB2_17IncrementalTester21find_cells_to_execute
FN:220,_RNvMNtNtNtCskTACvQmcrtm_5ruchy8notebook7testing11incrementalNtB2_17IncrementalTester21get_dependencies_hash
FN:85,_RNvMNtNtNtCskTACvQmcrtm_5ruchy8notebook7testing11incrementalNtB2_17IncrementalTester3new
FN:428,_RNvMs0_NtNtNtCskTACvQmcrtm_5ruchy8notebook7testing11incrementalNtB5_17DependencyTracker14extract_usages
