SF:/home/noah/src/ruchy/src/backend/compiler.rs
FN:75,_RNCNvNtNtCs2RUqfoJCtLU_5ruchy7backend8compiler17compile_to_binary0B7_
FN:72,_RNvNtNtCs2RUqfoJCtLU_5ruchy7backend8compiler17compile_to_binary
FN:255,_RNvNtNtCs2RUqfoJCtLU_5ruchy7backend8compiler17get_rustc_version
FN:139,_RNvNtNtCs2RUqfoJCtLU_5ruchy7backend8compiler17prepare_rust_file
FN:157,_RNvNtNtCs2RUqfoJCtLU_5ruchy7backend8compiler19build_rustc_command
FN:192,_RNvNtNtCs2RUqfoJCtLU_5ruchy7backend8compiler19execute_compilation
FN:123,_RNvNtNtCs2RUqfoJCtLU_5ruchy7backend8compiler19parse_and_transpile
FN:173,_RNvNtNtCs2RUqfoJCtLU_5ruchy7backend8compiler20apply_optional_flags
FN:205,_RNvNtNtCs2RUqfoJCtLU_5ruchy7backend8compiler20verify_output_exists
FN:227,_RNvNtNtCs2RUqfoJCtLU_5ruchy7backend8compiler21check_rustc_available
FN:105,_RNvNtNtCs2RUqfoJCtLU_5ruchy7backend8compiler24compile_source_to_binary
FN:33,_RNvXNtNtCs2RUqfoJCtLU_5ruchy7backend8compilerNtB2_14CompileOptionsNtNtCs66KPHxksi63_4core7default7Default7default
FNDA:0,_RNCNvNtNtCs2RUqfoJCtLU_5ruchy7backend8compiler17compile_to_binary0B7_
FNDA:0,_RNvNtNtCs2RUqfoJCtLU_5ruchy7backend8compiler17compile_to_binary
FNDA:0,_RNvNtNtCs2RUqfoJCtLU_5ruchy7backend8compiler17get_rustc_version
FNDA:0,_RNvNtNtCs2RUqfoJCtLU_5ruchy7backend8compiler17prepare_rust_file
FNDA:0,_RNvNtNtCs2RUqfoJCtLU_5ruchy7backend8compiler19build_rustc_command
FNDA:0,_RNvNtNtCs2RUqfoJCtLU_5ruchy7backend8compiler19execute_compilation
FNDA:0,_RNvNtNtCs2RUqfoJCtLU_5ruchy7backend8compiler19parse_and_transpile
FNDA:0,_RNvNtNtCs2RUqfoJCtLU_5ruchy7backend8compiler20apply_optional_flags
FNDA:0,_RNvNtNtCs2RUqfoJCtLU_5ruchy7backend8compiler20verify_output_exists
FNDA:0,_RNvNtNtCs2RUqfoJCtLU_5ruchy7backend8compiler21check_rustc_available
FNDA:0,_RNvNtNtCs2RUqfoJCtLU_5ruchy7backend8compiler24compile_source_to_binary
FNDA:0,_RNvXNtNtCs2RUqfoJCtLU_5ruchy7backend8compilerNtB2_14CompileOptionsNtNtCs66KPHxksi63_4core7default7Default7default
FNF:12
FNH:0
DA:33,0
DA:34,0
DA:35,0
DA:36,0
DA:37,0
DA:38,0
DA:39,0
DA:40,0
DA:41,0
DA:42,0
DA:72,0
DA:74,0
DA:75,0
DA:77,0
DA:78,0
DA:105,0
DA:107,0
DA:110,0
DA:113,0
DA:114,0
DA:117,0
DA:119,0
DA:120,0
DA:123,0
DA:124,0
DA:126,0
DA:127,0
DA:128,0
DA:130,0
DA:131,0
DA:132,0
DA:134,0
DA:135,0
DA:136,0
DA:139,0
DA:140,0
DA:141,0
DA:143,0
DA:144,0
DA:147,0
DA:148,0
DA:150,0
DA:151,0
DA:153,0
DA:154,0
DA:157,0
DA:158,0
DA:159,0
DA:160,0
DA:161,0
DA:164,0
DA:167,0
DA:169,0
DA:170,0
DA:173,0
DA:174,0
DA:175,0
DA:176,0
DA:178,0
DA:179,0
DA:180,0
DA:182,0
DA:183,0
DA:184,0
DA:186,0
DA:187,0
DA:188,0
DA:189,0
DA:192,0
DA:193,0
DA:194,0
DA:196,0
DA:197,0
DA:198,0
DA:199,0
DA:201,0
DA:202,0
DA:205,0
DA:206,0
DA:207,0
DA:208,0
DA:209,0
DA:210,0
DA:227,0
DA:228,0
DA:229,0
DA:230,0
DA:231,0
DA:233,0
DA:234,0
DA:235,0
DA:237,0
DA:238,0
DA:255,0
DA:256,0
DA:257,0
DA:258,0
DA:259,0
DA:261,0
DA:262,0
DA:263,0
DA:265,0
DA:266,0
BRF:0
BRH:0
LF:104
LH:0
end_of_record
SF:/home/noah/src/ruchy/src/backend/module_loader.rs
FN:200,_RNCNvMNtNtCs2RUqfoJCtLU_5ruchy7backend13module_loaderNtB4_12ModuleLoader19resolve_module_path0B8_
FN:124,_RNCNvMNtNtCs2RUqfoJCtLU_5ruchy7backend13module_loaderNtB4_12ModuleLoader11load_module0B8_
FN:139,_RNCNvMNtNtCs2RUqfoJCtLU_5ruchy7backend13module_loaderNtB4_12ModuleLoader11load_modules0_0B8_
FN:160,_RNCNvMNtNtCs2RUqfoJCtLU_5ruchy7backend13module_loaderNtB4_12ModuleLoader11load_modules1_0B8_
FN:128,_RNCNvMNtNtCs2RUqfoJCtLU_5ruchy7backend13module_loaderNtB4_12ModuleLoader11load_modules_0B8_
FN:304,_RNCNvMs0_NtNtCs2RUqfoJCtLU_5ruchy7backend13module_loaderNtB7_12ParsedModule4name0Bb_
FN:274,_RNvMNtNtCs2RUqfoJCtLU_5ruchy7backend13module_loaderNtB2_12ModuleLoader10is_loading
FN:266,_RNvMNtNtCs2RUqfoJCtLU_5ruchy7backend13module_loaderNtB2_12ModuleLoader11clear_cache
FN:106,_RNvMNtNtCs2RUqfoJCtLU_5ruchy7backend13module_loaderNtB2_12ModuleLoader11load_module
FN:208,_RNvMNtNtCs2RUqfoJCtLU_5ruchy7backend13module_loaderNtB2_12ModuleLoader14is_cache_valid
FN:180,_RNvMNtNtCs2RUqfoJCtLU_5ruchy7backend13module_loaderNtB2_12ModuleLoader19resolve_module_path
FN:224,_RNvMNtNtCs2RUqfoJCtLU_5ruchy7backend13module_loaderNtB2_12ModuleLoader20collect_dependencies
FN:217,_RNvMNtNtCs2RUqfoJCtLU_5ruchy7backend13module_loaderNtB2_12ModuleLoader20extract_dependencies
FN:59,_RNvMNtNtCs2RUqfoJCtLU_5ruchy7backend13module_loaderNtB2_12ModuleLoader3new
FN:253,_RNvMNtNtCs2RUqfoJCtLU_5ruchy7backend13module_loaderNtB2_12ModuleLoader5stats
FN:310,_RNvMs0_NtNtCs2RUqfoJCtLU_5ruchy7backend13module_loaderNtB5_12ParsedModule16has_dependencies
FN:301,_RNvMs0_NtNtCs2RUqfoJCtLU_5ruchy7backend13module_loaderNtB5_12ParsedModule4name
FN:331,_RNvMs1_NtNtCs2RUqfoJCtLU_5ruchy7backend13module_loaderNtB5_17ModuleLoaderStats15cache_hit_ratio
FN:280,_RNvXs_NtNtCs2RUqfoJCtLU_5ruchy7backend13module_loaderNtB4_12ModuleLoaderNtNtCs66KPHxksi63_4core7default7Default7default
FN:80,_RINvMNtNtCs2RUqfoJCtLU_5ruchy7backend13module_loaderNtB3_12ModuleLoader15add_search_pathRNtNtCsiKSG5X70Gj7_3std4path4PathEB7_
FNDA:0,_RNCNvMNtNtCs2RUqfoJCtLU_5ruchy7backend13module_loaderNtB4_12ModuleLoader19resolve_module_path0B8_
FNDA:0,_RNCNvMNtNtCs2RUqfoJCtLU_5ruchy7backend13module_loaderNtB4_12ModuleLoader11load_module0B8_
FNDA:0,_RNCNvMNtNtCs2RUqfoJCtLU_5ruchy7backend13module_loaderNtB4_12ModuleLoader11load_modules0_0B8_
FNDA:0,_RNCNvMNtNtCs2RUqfoJCtLU_5ruchy7backend13module_loaderNtB4_12ModuleLoader11load_modules1_0B8_
FNDA:0,_RNCNvMNtNtCs2RUqfoJCtLU_5ruchy7backend13module_loaderNtB4_12ModuleLoader11load_modules_0B8_
FNDA:0,_RNCNvMs0_NtNtCs2RUqfoJCtLU_5ruchy7backend13module_loaderNtB7_12ParsedModule4name0Bb_
FNDA:0,_RNvMNtNtCs2RUqfoJCtLU_5ruchy7backend13module_loaderNtB2_12ModuleLoader10is_loading
FNDA:0,_RNvMNtNtCs2RUqfoJCtLU_5ruchy7backend13module_loaderNtB2_12ModuleLoader11clear_cache
FNDA:0,_RNvMNtNtCs2RUqfoJCtLU_5ruchy7backend13module_loaderNtB2_12ModuleLoader11load_module
FNDA:0,_RNvMNtNtCs2RUqfoJCtLU_5ruchy7backend13module_loaderNtB2_12ModuleLoader14is_cache_valid
FNDA:0,_RNvMNtNtCs2RUqfoJCtLU_5ruchy7backend13module_loaderNtB2_12ModuleLoader19resolve_module_path
FNDA:0,_RNvMNtNtCs2RUqfoJCtLU_5ruchy7backend13module_loaderNtB2_12ModuleLoader20collect_dependencies
FNDA:0,_RNvMNtNtCs2RUqfoJCtLU_5ruchy7backend13module_loaderNtB2_12ModuleLoader20extract_dependencies
FNDA:0,_RNvMNtNtCs2RUqfoJCtLU_5ruchy7backend13module_loaderNtB2_12ModuleLoader3new
FNDA:0,_RNvMNtNtCs2RUqfoJCtLU_5ruchy7backend13module_loaderNtB2_12ModuleLoader5stats
FNDA:0,_RNvMs0_NtNtCs2RUqfoJCtLU_5ruchy7backend13module_loaderNtB5_12ParsedModule16has_dependencies
FNDA:0,_RNvMs0_NtNtCs2RUqfoJCtLU_5ruchy7backend13module_loaderNtB5_12ParsedModule4name
FNDA:0,_RNvMs1_NtNtCs2RUqfoJCtLU_5ruchy7backend13module_loaderNtB5_17ModuleLoaderStats15cache_hit_ratio
FNDA:0,_RNvXs_NtNtCs2RUqfoJCtLU_5ruchy7backend13module_loaderNtB4_12ModuleLoaderNtNtCs66KPHxksi63_4core7default7Default7default
FNDA:0,_RINvMNtNtCs2RUqfoJCtLU_5ruchy7backend13module_loaderNtB3_12ModuleLoader15add_search_pathRNtNtCsiKSG5X70Gj7_3std4path4PathEB7_
FNF:20
FNH:0
DA:59,0
DA:60,0
DA:61,0
DA:62,0
DA:63,0
DA:64,0
DA:65,0
DA:66,0
DA:67,0
DA:68,0
DA:69,0
DA:70,0
DA:71,0
DA:80,0
DA:81,0
DA:82,0
DA:106,0
DA:108,0
DA:109,0
DA:110,0
DA:111,0
DA:112,0
DA:115,0
DA:116,0
DA:117,0
DA:118,0
DA:119,0
DA:120,0
DA:123,0
DA:124,0
DA:127,0
DA:128,0
DA:129,0
DA:130,0
DA:131,0
DA:134,0
DA:137,0
DA:138,0
DA:139,0
DA:142,0
DA:145,0
DA:146,0
DA:147,0
DA:148,0
DA:149,0
DA:153,0
DA:154,0
DA:155,0
DA:156,0
DA:157,0
DA:158,0
DA:159,0
DA:160,0
DA:164,0
DA:167,0
DA:168,0
DA:169,0
DA:171,0
DA:172,0
DA:180,0
DA:181,0
DA:182,0
DA:183,0
DA:184,0
DA:185,0
DA:187,0
DA:188,0
DA:189,0
DA:190,0
DA:191,0
DA:192,0
DA:196,0
DA:197,0
DA:199,0
DA:200,0
DA:201,0
DA:202,0
DA:203,0
DA:205,0
DA:208,0
DA:209,0
DA:210,0
DA:211,0
DA:217,0
DA:218,0
DA:219,0
DA:220,0
DA:221,0
DA:224,0
DA:225,0
DA:226,0
DA:228,0
DA:229,0
DA:230,0
DA:232,0
DA:233,0
DA:234,0
DA:235,0
DA:237,0
DA:238,0
DA:239,0
DA:240,0
DA:241,0
DA:242,0
DA:244,0
DA:245,0
DA:246,0
DA:247,0
DA:249,0
DA:253,0
DA:254,0
DA:255,0
DA:256,0
DA:257,0
DA:258,0
DA:259,0
DA:260,0
DA:266,0
DA:267,0
DA:268,0
DA:269,0
DA:270,0
DA:274,0
DA:275,0
DA:276,0
DA:280,0
DA:281,0
DA:282,0
DA:301,0
DA:302,0
DA:303,0
DA:304,0
DA:305,0
DA:306,0
DA:310,0
DA:311,0
DA:312,0
DA:331,0
DA:332,0
DA:333,0
DA:335,0
DA:337,0
BRF:0
BRH:0
LF:149
LH:0
end_of_record
SF:/home/noah/src/ruchy/src/backend/module_resolver.rs
FN:142,_RNCNvMNtNtCs2RUqfoJCtLU_5ruchy7backend15module_resolverNtB4_14ModuleResolver12resolve_exprs0_0B8_
FN:99,_RNCNvMNtNtCs2RUqfoJCtLU_5ruchy7backend15module_resolverNtB4_14ModuleResolver12resolve_expr0B8_
FN:184,_RNCNvMNtNtCs2RUqfoJCtLU_5ruchy7backend15module_resolverNtB4_14ModuleResolver12resolve_exprs1_0B8_
FN:114,_RNCNvMNtNtCs2RUqfoJCtLU_5ruchy7backend15module_resolverNtB4_14ModuleResolver12resolve_exprs_0B8_
FN:230,_RNvMNtNtCs2RUqfoJCtLU_5ruchy7backend15module_resolverNtB2_14ModuleResolver11clear_cache
FN:92,_RNvMNtNtCs2RUqfoJCtLU_5ruchy7backend15module_resolverNtB2_14ModuleResolver12resolve_expr
FN:201,_RNvMNtNtCs2RUqfoJCtLU_5ruchy7backend15module_resolverNtB2_14ModuleResolver14is_file_import
FN:87,_RNvMNtNtCs2RUqfoJCtLU_5ruchy7backend15module_resolverNtB2_14ModuleResolver15resolve_imports
FN:209,_RNvMNtNtCs2RUqfoJCtLU_5ruchy7backend15module_resolverNtB2_14ModuleResolver21create_use_statements
FN:53,_RNvMNtNtCs2RUqfoJCtLU_5ruchy7backend15module_resolverNtB2_14ModuleResolver3new
FN:223,_RNvMNtNtCs2RUqfoJCtLU_5ruchy7backend15module_resolverNtB2_14ModuleResolver5stats
FN:236,_RNvXs_NtNtCs2RUqfoJCtLU_5ruchy7backend15module_resolverNtB4_14ModuleResolverNtNtCs66KPHxksi63_4core7default7Default7default
FN:64,_RINvMNtNtCs2RUqfoJCtLU_5ruchy7backend15module_resolverNtB3_14ModuleResolver15add_search_pathRNtNtCsiKSG5X70Gj7_3std4path4PathEB7_
FNDA:0,_RNCNvMNtNtCs2RUqfoJCtLU_5ruchy7backend15module_resolverNtB4_14ModuleResolver12resolve_exprs0_0B8_
FNDA:0,_RNCNvMNtNtCs2RUqfoJCtLU_5ruchy7backend15module_resolverNtB4_14ModuleResolver12resolve_expr0B8_
FNDA:0,_RNCNvMNtNtCs2RUqfoJCtLU_5ruchy7backend15module_resolverNtB4_14ModuleResolver12resolve_exprs1_0B8_
FNDA:0,_RNCNvMNtNtCs2RUqfoJCtLU_5ruchy7backend15module_resolverNtB4_14ModuleResolver12resolve_exprs_0B8_
FNDA:0,_RNvMNtNtCs2RUqfoJCtLU_5ruchy7backend15module_resolverNtB2_14ModuleResolver11clear_cache
FNDA:0,_RNvMNtNtCs2RUqfoJCtLU_5ruchy7backend15module_resolverNtB2_14ModuleResolver12resolve_expr
FNDA:0,_RNvMNtNtCs2RUqfoJCtLU_5ruchy7backend15module_resolverNtB2_14ModuleResolver14is_file_import
FNDA:0,_RNvMNtNtCs2RUqfoJCtLU_5ruchy7backend15module_resolverNtB2_14ModuleResolver15resolve_imports
FNDA:0,_RNvMNtNtCs2RUqfoJCtLU_5ruchy7backend15module_resolverNtB2_14ModuleResolver21create_use_statements
FNDA:0,_RNvMNtNtCs2RUqfoJCtLU_5ruchy7backend15module_resolverNtB2_14ModuleResolver3new
FNDA:0,_RNvMNtNtCs2RUqfoJCtLU_5ruchy7backend15module_resolverNtB2_14ModuleResolver5stats
FNDA:0,_RNvXs_NtNtCs2RUqfoJCtLU_5ruchy7backend15module_resolverNtB4_14ModuleResolverNtNtCs66KPHxksi63_4core7default7Default7default
FNDA:0,_RINvMNtNtCs2RUqfoJCtLU_5ruchy7backend15module_resolverNtB3_14ModuleResolver15add_search_pathRNtNtCsiKSG5X70Gj7_3std4path4PathEB7_
FNF:13
FNH:0
DA:53,0
DA:54,0
DA:55,0
DA:56,0
DA:57,0
DA:64,0
DA:65,0
DA:66,0
DA:87,0
DA:88,0
DA:89,0
DA:92,0
DA:93,0
DA:94,0
DA:96,0
DA:98,0
DA:99,0
DA:102,0
DA:105,0
DA:106,0
DA:107,0
DA:108,0
DA:109,0
DA:110,0
DA:114,0
DA:116,0
DA:117,0
DA:118,0
DA:119,0
DA:120,0
DA:121,0
DA:125,0
DA:129,0
DA:130,0
DA:131,0
DA:132,0
DA:135,0
DA:138,0
DA:140,0
DA:141,0
DA:142,0
DA:143,0
DA:144,0
DA:146,0
DA:148,0
DA:149,0
DA:150,0
DA:151,0
DA:152,0
DA:153,0
DA:154,0
DA:155,0
DA:158,0
DA:159,0
DA:160,0
DA:161,0
DA:162,0
DA:163,0
DA:164,0
DA:167,0
DA:168,0
DA:169,0
DA:170,0
DA:171,0
DA:172,0
DA:173,0
DA:174,0
DA:175,0
DA:176,0
DA:177,0
DA:178,0
DA:179,0
DA:181,0
DA:182,0
DA:183,0
DA:184,0
DA:185,0
DA:186,0
DA:187,0
DA:188,0
DA:189,0
DA:190,0
DA:191,0
DA:192,0
DA:196,0
DA:198,0
DA:201,0
DA:202,0
DA:203,0
DA:204,0
DA:205,0
DA:206,0
DA:209,0
DA:212,0
DA:213,0
DA:214,0
DA:215,0
DA:216,0
DA:217,0
DA:219,0
DA:223,0
DA:224,0
DA:225,0
DA:230,0
DA:231,0
DA:232,0
DA:236,0
DA:237,0
DA:238,0
BRF:0
BRH:0
LF:113
LH:0
end_of_record
SF:/home/noah/src/ruchy/src/backend/transpiler/actors.rs
FN:30,_RNCNCNvMNtNtNtCs2RUqfoJCtLU_5ruchy7backend10transpiler6actorsNtB8_10Transpiler15transpile_actor00Bc_
FN:59,_RNCNCNvMNtNtNtCs2RUqfoJCtLU_5ruchy7backend10transpiler6actorsNtB8_10Transpiler15transpile_actors_00Bc_
FN:26,_RNCNvMNtNtNtCs2RUqfoJCtLU_5ruchy7backend10transpiler6actorsNtB6_10Transpiler15transpile_actor0Ba_
FN:73,_RNCNvMNtNtNtCs2RUqfoJCtLU_5ruchy7backend10transpiler6actorsNtB6_10Transpiler15transpile_actors0_0Ba_
FN:57,_RNCNvMNtNtNtCs2RUqfoJCtLU_5ruchy7backend10transpiler6actorsNtB6_10Transpiler15transpile_actors_0Ba_
FN:181,_RNCNvMNtNtNtCs2RUqfoJCtLU_5ruchy7backend10transpiler6actorsNtB6_10Transpiler17transpile_command0Ba_
FN:150,_RNvMNtNtNtCs2RUqfoJCtLU_5ruchy7backend10transpiler6actorsNtB4_10Transpiler13transpile_ask
FN:140,_RNvMNtNtNtCs2RUqfoJCtLU_5ruchy7backend10transpiler6actorsNtB4_10Transpiler14transpile_send
FN:14,_RNvMNtNtNtCs2RUqfoJCtLU_5ruchy7backend10transpiler6actorsNtB4_10Transpiler15transpile_actor
FN:173,_RNvMNtNtNtCs2RUqfoJCtLU_5ruchy7backend10transpiler6actorsNtB4_10Transpiler17transpile_command
FNDA:0,_RNCNCNvMNtNtNtCs2RUqfoJCtLU_5ruchy7backend10transpiler6actorsNtB8_10Transpiler15transpile_actor00Bc_
FNDA:0,_RNCNCNvMNtNtNtCs2RUqfoJCtLU_5ruchy7backend10transpiler6actorsNtB8_10Transpiler15transpile_actors_00Bc_
FNDA:0,_RNCNvMNtNtNtCs2RUqfoJCtLU_5ruchy7backend10transpiler6actorsNtB6_10Transpiler15transpile_actor0Ba_
FNDA:0,_RNCNvMNtNtNtCs2RUqfoJCtLU_5ruchy7backend10transpiler6actorsNtB6_10Transpiler15transpile_actors0_0Ba_
FNDA:0,_RNCNvMNtNtNtCs2RUqfoJCtLU_5ruchy7backend10transpiler6actorsNtB6_10Transpiler15transpile_actors_0Ba_
FNDA:0,_RNCNvMNtNtNtCs2RUqfoJCtLU_5ruchy7backend10transpiler6actorsNtB6_10Transpiler17transpile_command0Ba_
FNDA:0,_RNvMNtNtNtCs2RUqfoJCtLU_5ruchy7backend10transpiler6actorsNtB4_10Transpiler13transpile_ask
FNDA:0,_RNvMNtNtNtCs2RUqfoJCtLU_5ruchy7backend10transpiler6actorsNtB4_10Transpiler14transpile_send
FNDA:0,_RNvMNtNtNtCs2RUqfoJCtLU_5ruchy7backend10transpiler6actorsNtB4_10Transpiler15transpile_actor
FNDA:0,_RNvMNtNtNtCs2RUqfoJCtLU_5ruchy7backend10transpiler6actorsNtB4_10Transpiler17transpile_command
FNF:10
FNH:0
DA:14,0
DA:15,0
DA:16,0
DA:17,0
DA:18,0
DA:19,0
DA:20,0
DA:21,0
DA:24,0
DA:25,0
DA:26,0
DA:27,0
DA:28,0
DA:29,0
DA:30,0
DA:31,0
DA:32,0
DA:33,0
DA:36,0
DA:37,0
DA:39,0
DA:40,0
DA:42,0
DA:44,0
DA:46,0
DA:47,0
DA:54,0
DA:55,0
DA:56,0
DA:57,0
DA:58,0
DA:59,0
DA:60,0
DA:61,0
DA:63,0
DA:64,0
DA:66,0
DA:70,0
DA:71,0
DA:72,0
DA:73,0
DA:74,0
DA:76,0
DA:78,0
DA:79,0
DA:80,0
DA:81,0
DA:82,0
DA:83,0
DA:84,0
DA:85,0
DA:86,0
DA:96,0
DA:137,0
DA:140,0
DA:141,0
DA:142,0
DA:144,0
DA:145,0
DA:146,0
DA:147,0
DA:150,0
DA:151,0
DA:152,0
DA:153,0
DA:154,0
DA:155,0
DA:156,0
DA:157,0
DA:159,0
DA:160,0
DA:161,0
DA:162,0
DA:163,0
DA:166,0
DA:167,0
DA:168,0
DA:170,0
DA:173,0
DA:174,0
DA:175,0
DA:176,0
DA:177,0
DA:178,0
DA:179,0
DA:180,0
DA:181,0
DA:183,0
DA:189,0
BRF:0
BRH:0
LF:95
LH:0
end_of_record
SF:/home/noah/src/ruchy/src/backend/transpiler/codegen_minimal.rs
FN:41,_RNCNvMNtNtNtCs2RUqfoJCtLU_5ruchy7backend10transpiler15codegen_minimalNtB4_14MinimalCodeGen8gen_expr0Ba_
FN:122,_RNCNvMNtNtNtCs2RUqfoJCtLU_5ruchy7backend10transpiler15codegen_minimalNtB4_14MinimalCodeGen8gen_exprs0_0Ba_
FN:114,_RNCNvMNtNtNtCs2RUqfoJCtLU_5ruchy7backend10transpiler15codegen_minimalNtB4_14MinimalCodeGen8gen_exprs_0Ba_
FN:272,_RNvMNtNtNtCs2RUqfoJCtLU_5ruchy7backend10transpiler15codegen_minimalNtB2_14MinimalCodeGen8gen_type
FN:197,_RNvMNtNtNtCs2RUqfoJCtLU_5ruchy7backend10transpiler15codegen_minimalNtB2_14MinimalCodeGen11gen_literal
FN:241,_RNvMNtNtNtCs2RUqfoJCtLU_5ruchy7backend10transpiler15codegen_minimalNtB2_14MinimalCodeGen11gen_pattern
FN:277,_RNvMNtNtNtCs2RUqfoJCtLU_5ruchy7backend10transpiler15codegen_minimalNtB2_14MinimalCodeGen11gen_program
FN:232,_RNvMNtNtNtCs2RUqfoJCtLU_5ruchy7backend10transpiler15codegen_minimalNtB2_14MinimalCodeGen12gen_unary_op
FN:208,_RNvMNtNtNtCs2RUqfoJCtLU_5ruchy7backend10transpiler15codegen_minimalNtB2_14MinimalCodeGen13gen_binary_op
FN:14,_RNvMNtNtNtCs2RUqfoJCtLU_5ruchy7backend10transpiler15codegen_minimalNtB2_14MinimalCodeGen8gen_expr
FNDA:0,_RNCNvMNtNtNtCs2RUqfoJCtLU_5ruchy7backend10transpiler15codegen_minimalNtB4_14MinimalCodeGen8gen_expr0Ba_
FNDA:0,_RNCNvMNtNtNtCs2RUqfoJCtLU_5ruchy7backend10transpiler15codegen_minimalNtB4_14MinimalCodeGen8gen_exprs0_0Ba_
FNDA:0,_RNCNvMNtNtNtCs2RUqfoJCtLU_5ruchy7backend10transpiler15codegen_minimalNtB4_14MinimalCodeGen8gen_exprs_0Ba_
FNDA:0,_RNvMNtNtNtCs2RUqfoJCtLU_5ruchy7backend10transpiler15codegen_minimalNtB2_14MinimalCodeGen8gen_type
FNDA:0,_RNvMNtNtNtCs2RUqfoJCtLU_5ruchy7backend10transpiler15codegen_minimalNtB2_14MinimalCodeGen11gen_literal
FNDA:0,_RNvMNtNtNtCs2RUqfoJCtLU_5ruchy7backend10transpiler15codegen_minimalNtB2_14MinimalCodeGen11gen_pattern
FNDA:0,_RNvMNtNtNtCs2RUqfoJCtLU_5ruchy7backend10transpiler15codegen_minimalNtB2_14MinimalCodeGen11gen_program
FNDA:0,_RNvMNtNtNtCs2RUqfoJCtLU_5ruchy7backend10transpiler15codegen_minimalNtB2_14MinimalCodeGen12gen_unary_op
FNDA:0,_RNvMNtNtNtCs2RUqfoJCtLU_5ruchy7backend10transpiler15codegen_minimalNtB2_14MinimalCodeGen13gen_binary_op
FNDA:0,_RNvMNtNtNtCs2RUqfoJCtLU_5ruchy7backend10transpiler15codegen_minimalNtB2_14MinimalCodeGen8gen_expr
FNF:10
FNH:0
DA:14,0
DA:15,0
DA:16,0
DA:18,0
DA:20,0
DA:21,0
DA:22,0
DA:23,0
DA:24,0
DA:27,0
DA:28,0
DA:29,0
DA:30,0
DA:33,0
DA:34,0
DA:35,0
DA:36,0
DA:39,0
DA:40,0
DA:41,0
DA:42,0
DA:43,0
DA:44,0
DA:45,0
DA:48,0
DA:49,0
DA:50,0
DA:51,0
DA:52,0
DA:53,0
DA:54,0
DA:57,0
DA:58,0
DA:59,0
DA:60,0
DA:61,0
DA:62,0
DA:65,0
DA:66,0
DA:67,0
DA:68,0
DA:69,0
DA:70,0
DA:72,0
DA:76,0
DA:77,0
DA:78,0
DA:79,0
DA:80,0
DA:81,0
DA:82,0
DA:83,0
DA:84,0
DA:85,0
DA:86,0
DA:88,0
DA:89,0
DA:92,0
DA:93,0
DA:94,0
DA:95,0
DA:96,0
DA:97,0
DA:98,0
DA:100,0
DA:101,0
DA:104,0
DA:105,0
DA:106,0
DA:107,0
DA:108,0
DA:109,0
DA:112,0
DA:113,0
DA:114,0
DA:115,0
DA:116,0
DA:117,0
DA:120,0
DA:121,0
DA:122,0
DA:123,0
DA:124,0
DA:125,0
DA:126,0
DA:127,0
DA:128,0
DA:129,0
DA:132,0
DA:133,0
DA:134,0
DA:135,0
DA:136,0
DA:137,0
DA:138,0
DA:141,0
DA:142,0
DA:143,0
DA:144,0
DA:145,0
DA:146,0
DA:149,0
DA:150,0
DA:153,0
DA:155,0
DA:156,0
DA:157,0
DA:159,0
DA:160,0
DA:161,0
DA:162,0
DA:163,0
DA:164,0
DA:165,0
DA:166,0
DA:168,0
DA:169,0
DA:170,0
DA:171,0
DA:172,0
DA:177,0
DA:178,0
DA:179,0
DA:180,0
DA:181,0
DA:182,0
DA:183,0
DA:189,0
DA:190,0
DA:191,0
DA:192,0
DA:195,0
DA:197,0
DA:198,0
DA:199,0
DA:200,0
DA:201,0
DA:202,0
DA:203,0
DA:204,0
DA:206,0
DA:208,0
DA:209,0
DA:210,0
DA:211,0
DA:212,0
DA:213,0
DA:214,0
DA:215,0
DA:216,0
DA:217,0
DA:218,0
DA:219,0
DA:220,0
DA:221,0
DA:222,0
DA:223,0
DA:224,0
DA:225,0
DA:226,0
DA:227,0
DA:228,0
DA:230,0
DA:232,0
DA:233,0
DA:234,0
DA:235,0
DA:236,0
DA:237,0
DA:239,0
DA:241,0
DA:242,0
DA:243,0
DA:244,0
DA:245,0
DA:246,0
DA:247,0
DA:248,0
DA:249,0
DA:250,0
DA:251,0
DA:253,0
DA:254,0
DA:255,0
DA:257,0
DA:258,0
DA:259,0
DA:261,0
DA:262,0
DA:263,0
DA:265,0
DA:266,0
DA:268,0
DA:272,0
DA:273,0
DA:274,0
DA:277,0
DA:278,0
DA:279,0
DA:280,0
DA:281,0
DA:282,0
BRF:0
BRH:0
LF:205
LH:0
end_of_record
SF:/home/noah/src/ruchy/src/backend/transpiler/dataframe.rs
FN:36,_RNCNvMNtNtNtCs2RUqfoJCtLU_5ruchy7backend10transpiler9dataframeNtB6_10Transpiler19transpile_dataframe0Ba_
FN:153,_RNCNvMNtNtNtCs2RUqfoJCtLU_5ruchy7backend10transpiler9dataframeNtB6_10Transpiler26transpile_dataframe_method0Ba_
FN:67,_RNCNvMNtNtNtCs2RUqfoJCtLU_5ruchy7backend10transpiler9dataframeNtB6_10Transpiler29transpile_dataframe_operation0Ba_
FN:88,_RNCNvMNtNtNtCs2RUqfoJCtLU_5ruchy7backend10transpiler9dataframeNtB6_10Transpiler29transpile_dataframe_operations0_0Ba_
FN:95,_RNCNvMNtNtNtCs2RUqfoJCtLU_5ruchy7backend10transpiler9dataframeNtB6_10Transpiler29transpile_dataframe_operations1_0Ba_
FN:117,_RNCNvMNtNtNtCs2RUqfoJCtLU_5ruchy7backend10transpiler9dataframeNtB6_10Transpiler29transpile_dataframe_operations2_0Ba_
FN:80,_RNCNvMNtNtNtCs2RUqfoJCtLU_5ruchy7backend10transpiler9dataframeNtB6_10Transpiler29transpile_dataframe_operations_0Ba_
FN:244,_RNvMNtNtNtCs2RUqfoJCtLU_5ruchy7backend10transpiler9dataframeNtB4_10Transpiler17is_dataframe_expr
FN:15,_RNvMNtNtNtCs2RUqfoJCtLU_5ruchy7backend10transpiler9dataframeNtB4_10Transpiler19transpile_dataframe
FN:145,_RNvMNtNtNtCs2RUqfoJCtLU_5ruchy7backend10transpiler9dataframeNtB4_10Transpiler26transpile_dataframe_method
FN:57,_RNvMNtNtNtCs2RUqfoJCtLU_5ruchy7backend10transpiler9dataframeNtB4_10Transpiler29transpile_dataframe_operation
FNDA:0,_RNCNvMNtNtNtCs2RUqfoJCtLU_5ruchy7backend10transpiler9dataframeNtB6_10Transpiler19transpile_dataframe0Ba_
FNDA:0,_RNCNvMNtNtNtCs2RUqfoJCtLU_5ruchy7backend10transpiler9dataframeNtB6_10Transpiler26transpile_dataframe_method0Ba_
FNDA:0,_RNCNvMNtNtNtCs2RUqfoJCtLU_5ruchy7backend10transpiler9dataframeNtB6_10Transpiler29transpile_dataframe_operation0Ba_
FNDA:0,_RNCNvMNtNtNtCs2RUqfoJCtLU_5ruchy7backend10transpiler9dataframeNtB6_10Transpiler29transpile_dataframe_operations0_0Ba_
FNDA:0,_RNCNvMNtNtNtCs2RUqfoJCtLU_5ruchy7backend10transpiler9dataframeNtB6_10Transpiler29transpile_dataframe_operations1_0Ba_
FNDA:0,_RNCNvMNtNtNtCs2RUqfoJCtLU_5ruchy7backend10transpiler9dataframeNtB6_10Transpiler29transpile_dataframe_operations2_0Ba_
FNDA:0,_RNCNvMNtNtNtCs2RUqfoJCtLU_5ruchy7backend10transpiler9dataframeNtB6_10Transpiler29transpile_dataframe_operations_0Ba_
FNDA:0,_RNvMNtNtNtCs2RUqfoJCtLU_5ruchy7backend10transpiler9dataframeNtB4_10Transpiler17is_dataframe_expr
FNDA:0,_RNvMNtNtNtCs2RUqfoJCtLU_5ruchy7backend10transpiler9dataframeNtB4_10Transpiler19transpile_dataframe
FNDA:0,_RNvMNtNtNtCs2RUqfoJCtLU_5ruchy7backend10transpiler9dataframeNtB4_10Transpiler26transpile_dataframe_method
FNDA:0,_RNvMNtNtNtCs2RUqfoJCtLU_5ruchy7backend10transpiler9dataframeNtB4_10Transpiler29transpile_dataframe_operation
FNF:11
FNH:0
DA:15,0
DA:16,0
DA:18,0
DA:19,0
DA:20,0
DA:21,0
DA:23,0
DA:25,0
DA:26,0
DA:29,0
DA:30,0
DA:33,0
DA:34,0
DA:35,0
DA:36,0
DA:37,0
DA:38,0
DA:39,0
DA:43,0
DA:49,0
DA:54,0
DA:57,0
DA:58,0
DA:59,0
DA:60,0
DA:61,0
DA:62,0
DA:64,0
DA:65,0
DA:66,0
DA:67,0
DA:68,0
DA:72,0
DA:73,0
DA:74,0
DA:75,0
DA:76,0
DA:78,0
DA:79,0
DA:80,0
DA:81,0
DA:85,0
DA:87,0
DA:88,0
DA:89,0
DA:93,0
DA:94,0
DA:95,0
DA:97,0
DA:98,0
DA:99,0
DA:100,0
DA:101,0
DA:104,0
DA:113,0
DA:115,0
DA:116,0
DA:117,0
DA:118,0
DA:119,0
DA:120,0
DA:121,0
DA:122,0
DA:123,0
DA:124,0
DA:125,0
DA:126,0
DA:128,0
DA:132,0
DA:133,0
DA:134,0
DA:135,0
DA:136,0
DA:137,0
DA:138,0
DA:139,0
DA:140,0
DA:142,0
DA:145,0
DA:146,0
DA:147,0
DA:148,0
DA:149,0
DA:150,0
DA:151,0
DA:153,0
DA:154,0
DA:157,0
DA:159,0
DA:162,0
DA:163,0
DA:164,0
DA:165,0
DA:167,0
DA:170,0
DA:172,0
DA:176,0
DA:178,0
DA:180,0
DA:182,0
DA:184,0
DA:186,0
DA:187,0
DA:188,0
DA:190,0
DA:195,0
DA:197,0
DA:198,0
DA:202,0
DA:204,0
DA:208,0
DA:209,0
DA:210,0
DA:216,0
DA:218,0
DA:219,0
DA:220,0
DA:221,0
DA:225,0
DA:226,0
DA:227,0
DA:228,0
DA:230,0
DA:235,0
DA:236,0
DA:241,0
DA:244,0
DA:247,0
DA:249,0
DA:252,0
DA:253,0
DA:254,0
DA:256,0
DA:261,0
DA:263,0
DA:264,0
DA:265,0
DA:266,0
DA:270,0
DA:272,0
DA:274,0
BRF:0
BRH:0
LF:148
LH:0
end_of_record
SF:/home/noah/src/ruchy/src/backend/transpiler/dataframe_builder.rs
FN:63,_RNvMNtNtNtCs2RUqfoJCtLU_5ruchy7backend10transpiler17dataframe_builderNtB4_10Transpiler20extract_column_chain
FN:88,_RNvMNtNtNtCs2RUqfoJCtLU_5ruchy7backend10transpiler17dataframe_builderNtB4_10Transpiler20is_dataframe_builder
FN:15,_RNvMNtNtNtCs2RUqfoJCtLU_5ruchy7backend10transpiler17dataframe_builderNtB4_10Transpiler27transpile_dataframe_builder
FN:43,_RNvMNtNtNtCs2RUqfoJCtLU_5ruchy7backend10transpiler17dataframe_builderNtB4_10Transpiler31extract_dataframe_builder_chain
FNDA:0,_RNvMNtNtNtCs2RUqfoJCtLU_5ruchy7backend10transpiler17dataframe_builderNtB4_10Transpiler20extract_column_chain
FNDA:0,_RNvMNtNtNtCs2RUqfoJCtLU_5ruchy7backend10transpiler17dataframe_builderNtB4_10Transpiler20is_dataframe_builder
FNDA:0,_RNvMNtNtNtCs2RUqfoJCtLU_5ruchy7backend10transpiler17dataframe_builderNtB4_10Transpiler27transpile_dataframe_builder
FNDA:0,_RNvMNtNtNtCs2RUqfoJCtLU_5ruchy7backend10transpiler17dataframe_builderNtB4_10Transpiler31extract_dataframe_builder_chain
FNF:4
FNH:0
DA:15,0
DA:17,0
DA:19,0
DA:20,0
DA:21,0
DA:22,0
DA:23,0
DA:29,0
DA:30,0
DA:32,0
DA:37,0
DA:39,0
DA:43,0
DA:44,0
DA:46,0
DA:47,0
DA:50,0
DA:51,0
DA:52,0
DA:53,0
DA:55,0
DA:58,0
DA:60,0
DA:63,0
DA:64,0
DA:65,0
DA:66,0
DA:67,0
DA:68,0
DA:71,0
DA:74,0
DA:76,0
DA:77,0
DA:78,0
DA:79,0
DA:80,0
DA:81,0
DA:83,0
DA:85,0
DA:88,0
DA:89,0
DA:90,0
DA:91,0
DA:93,0
DA:94,0
DA:95,0
DA:97,0
DA:100,0
DA:102,0
BRF:0
BRH:0
LF:49
LH:0
end_of_record
SF:/home/noah/src/ruchy/src/backend/transpiler/dispatcher.rs
FN:579,_RNCNvMNtNtNtCs2RUqfoJCtLU_5ruchy7backend10transpiler10dispatcherNtB6_10Transpiler19transpile_vec_macro0Ba_
FN:514,_RNCNvMNtNtNtCs2RUqfoJCtLU_5ruchy7backend10transpiler10dispatcherNtB6_10Transpiler20transpile_print_args0Ba_
FN:597,_RNCNvMNtNtNtCs2RUqfoJCtLU_5ruchy7backend10transpiler10dispatcherNtB6_10Transpiler22transpile_assert_macro0Ba_
FN:623,_RNCNvMNtNtNtCs2RUqfoJCtLU_5ruchy7backend10transpiler10dispatcherNtB6_10Transpiler25transpile_assert_eq_macro0Ba_
FN:645,_RNCNvMNtNtNtCs2RUqfoJCtLU_5ruchy7backend10transpiler10dispatcherNtB6_10Transpiler25transpile_assert_ne_macro0Ba_
FN:667,_RNCNvMNtNtNtCs2RUqfoJCtLU_5ruchy7backend10transpiler10dispatcherNtB6_10Transpiler27transpile_control_misc_expr0Ba_
FN:558,_RNCNvMNtNtNtCs2RUqfoJCtLU_5ruchy7backend10transpiler10dispatcherNtB6_10Transpiler40transpile_string_interpolation_for_prints_0Ba_
FN:548,_RNCNvMNtNtNtCs2RUqfoJCtLU_5ruchy7backend10transpiler10dispatcherNtB6_10Transpiler40transpile_string_interpolation_for_print0Ba_
FN:220,_RNvMNtNtNtCs2RUqfoJCtLU_5ruchy7backend10transpiler10dispatcherNtB4_10Transpiler15transpile_macro
FN:674,_RNvMNtNtNtCs2RUqfoJCtLU_5ruchy7backend10transpiler10dispatcherNtB4_10Transpiler19make_break_continue
FN:368,_RNvMNtNtNtCs2RUqfoJCtLU_5ruchy7backend10transpiler10dispatcherNtB4_10Transpiler19transpile_misc_expr
FN:313,_RNvMNtNtNtCs2RUqfoJCtLU_5ruchy7backend10transpiler10dispatcherNtB4_10Transpiler19transpile_result_ok
FN:27,_RNvMNtNtNtCs2RUqfoJCtLU_5ruchy7backend10transpiler10dispatcherNtB4_10Transpiler19transpile_type_cast
FN:576,_RNvMNtNtNtCs2RUqfoJCtLU_5ruchy7backend10transpiler10dispatcherNtB4_10Transpiler19transpile_vec_macro
FN:341,_RNvMNtNtNtCs2RUqfoJCtLU_5ruchy7backend10transpiler10dispatcherNtB4_10Transpiler20transpile_actor_expr
FN:14,_RNvMNtNtNtCs2RUqfoJCtLU_5ruchy7backend10transpiler10dispatcherNtB4_10Transpiler20transpile_basic_expr
FN:49,_RNvMNtNtNtCs2RUqfoJCtLU_5ruchy7backend10transpiler10dispatcherNtB4_10Transpiler20transpile_identifier
FN:484,_RNvMNtNtNtCs2RUqfoJCtLU_5ruchy7backend10transpiler10dispatcherNtB4_10Transpiler20transpile_print_args
FN:318,_RNvMNtNtNtCs2RUqfoJCtLU_5ruchy7backend10transpiler10dispatcherNtB4_10Transpiler20transpile_result_err
FN:330,_RNvMNtNtNtCs2RUqfoJCtLU_5ruchy7backend10transpiler10dispatcherNtB4_10Transpiler21transpile_option_some
FN:470,_RNvMNtNtNtCs2RUqfoJCtLU_5ruchy7backend10transpiler10dispatcherNtB4_10Transpiler21transpile_panic_macro
FN:453,_RNvMNtNtNtCs2RUqfoJCtLU_5ruchy7backend10transpiler10dispatcherNtB4_10Transpiler21transpile_print_macro
FN:240,_RNvMNtNtNtCs2RUqfoJCtLU_5ruchy7backend10transpiler10dispatcherNtB4_10Transpiler21transpile_struct_expr
FN:594,_RNvMNtNtNtCs2RUqfoJCtLU_5ruchy7backend10transpiler10dispatcherNtB4_10Transpiler22transpile_assert_macro
FN:335,_RNvMNtNtNtCs2RUqfoJCtLU_5ruchy7backend10transpiler10dispatcherNtB4_10Transpiler22transpile_try_operator
FN:178,_RNvMNtNtNtCs2RUqfoJCtLU_5ruchy7backend10transpiler10dispatcherNtB4_10Transpiler23transpile_function_expr
FN:436,_RNvMNtNtNtCs2RUqfoJCtLU_5ruchy7backend10transpiler10dispatcherNtB4_10Transpiler23transpile_println_macro
FN:276,_RNvMNtNtNtCs2RUqfoJCtLU_5ruchy7backend10transpiler10dispatcherNtB4_10Transpiler24transpile_data_only_expr
FN:90,_RNvMNtNtNtCs2RUqfoJCtLU_5ruchy7backend10transpiler10dispatcherNtB4_10Transpiler24transpile_qualified_name
FN:399,_RNvMNtNtNtCs2RUqfoJCtLU_5ruchy7backend10transpiler10dispatcherNtB4_10Transpiler24transpile_type_decl_expr
FN:616,_RNvMNtNtNtCs2RUqfoJCtLU_5ruchy7backend10transpiler10dispatcherNtB4_10Transpiler25transpile_assert_eq_macro
FN:638,_RNvMNtNtNtCs2RUqfoJCtLU_5ruchy7backend10transpiler10dispatcherNtB4_10Transpiler25transpile_assert_ne_macro
FN:258,_RNvMNtNtNtCs2RUqfoJCtLU_5ruchy7backend10transpiler10dispatcherNtB4_10Transpiler25transpile_data_error_expr
FN:301,_RNvMNtNtNtCs2RUqfoJCtLU_5ruchy7backend10transpiler10dispatcherNtB4_10Transpiler25transpile_error_only_expr
FN:652,_RNvMNtNtNtCs2RUqfoJCtLU_5ruchy7backend10transpiler10dispatcherNtB4_10Transpiler27transpile_control_misc_expr
FN:136,_RNvMNtNtNtCs2RUqfoJCtLU_5ruchy7backend10transpiler10dispatcherNtB4_10Transpiler28transpile_operator_only_expr
FN:114,_RNvMNtNtNtCs2RUqfoJCtLU_5ruchy7backend10transpiler10dispatcherNtB4_10Transpiler31transpile_operator_control_expr
FN:148,_RNvMNtNtNtCs2RUqfoJCtLU_5ruchy7backend10transpiler10dispatcherNtB4_10Transpiler32transpile_control_flow_only_expr
FN:547,_RNvMNtNtNtCs2RUqfoJCtLU_5ruchy7backend10transpiler10dispatcherNtB4_10Transpiler40transpile_string_interpolation_for_print
FNDA:0,_RNCNvMNtNtNtCs2RUqfoJCtLU_5ruchy7backend10transpiler10dispatcherNtB6_10Transpiler19transpile_vec_macro0Ba_
FNDA:0,_RNCNvMNtNtNtCs2RUqfoJCtLU_5ruchy7backend10transpiler10dispatcherNtB6_10Transpiler20transpile_print_args0Ba_
FNDA:0,_RNCNvMNtNtNtCs2RUqfoJCtLU_5ruchy7backend10transpiler10dispatcherNtB6_10Transpiler22transpile_assert_macro0Ba_
FNDA:0,_RNCNvMNtNtNtCs2RUqfoJCtLU_5ruchy7backend10transpiler10dispatcherNtB6_10Transpiler25transpile_assert_eq_macro0Ba_
FNDA:0,_RNCNvMNtNtNtCs2RUqfoJCtLU_5ruchy7backend10transpiler10dispatcherNtB6_10Transpiler25transpile_assert_ne_macro0Ba_
FNDA:0,_RNCNvMNtNtNtCs2RUqfoJCtLU_5ruchy7backend10transpiler10dispatcherNtB6_10Transpiler27transpile_control_misc_expr0Ba_
FNDA:0,_RNCNvMNtNtNtCs2RUqfoJCtLU_5ruchy7backend10transpiler10dispatcherNtB6_10Transpiler40transpile_string_interpolation_for_prints_0Ba_
FNDA:0,_RNCNvMNtNtNtCs2RUqfoJCtLU_5ruchy7backend10transpiler10dispatcherNtB6_10Transpiler40transpile_string_interpolation_for_print0Ba_
FNDA:0,_RNvMNtNtNtCs2RUqfoJCtLU_5ruchy7backend10transpiler10dispatcherNtB4_10Transpiler15transpile_macro
FNDA:0,_RNvMNtNtNtCs2RUqfoJCtLU_5ruchy7backend10transpiler10dispatcherNtB4_10Transpiler19make_break_continue
FNDA:0,_RNvMNtNtNtCs2RUqfoJCtLU_5ruchy7backend10transpiler10dispatcherNtB4_10Transpiler19transpile_misc_expr
FNDA:0,_RNvMNtNtNtCs2RUqfoJCtLU_5ruchy7backend10transpiler10dispatcherNtB4_10Transpiler19transpile_result_ok
FNDA:0,_RNvMNtNtNtCs2RUqfoJCtLU_5ruchy7backend10transpiler10dispatcherNtB4_10Transpiler19transpile_type_cast
FNDA:0,_RNvMNtNtNtCs2RUqfoJCtLU_5ruchy7backend10transpiler10dispatcherNtB4_10Transpiler19transpile_vec_macro
FNDA:0,_RNvMNtNtNtCs2RUqfoJCtLU_5ruchy7backend10transpiler10dispatcherNtB4_10Transpiler20transpile_actor_expr
FNDA:0,_RNvMNtNtNtCs2RUqfoJCtLU_5ruchy7backend10transpiler10dispatcherNtB4_10Transpiler20transpile_basic_expr
FNDA:0,_RNvMNtNtNtCs2RUqfoJCtLU_5ruchy7backend10transpiler10dispatcherNtB4_10Transpiler20transpile_identifier
FNDA:0,_RNvMNtNtNtCs2RUqfoJCtLU_5ruchy7backend10transpiler10dispatcherNtB4_10Transpiler20transpile_print_args
FNDA:0,_RNvMNtNtNtCs2RUqfoJCtLU_5ruchy7backend10transpiler10dispatcherNtB4_10Transpiler20transpile_result_err
FNDA:0,_RNvMNtNtNtCs2RUqfoJCtLU_5ruchy7backend10transpiler10dispatcherNtB4_10Transpiler21transpile_option_some
FNDA:0,_RNvMNtNtNtCs2RUqfoJCtLU_5ruchy7backend10transpiler10dispatcherNtB4_10Transpiler21transpile_panic_macro
FNDA:0,_RNvMNtNtNtCs2RUqfoJCtLU_5ruchy7backend10transpiler10dispatcherNtB4_10Transpiler21transpile_print_macro
FNDA:0,_RNvMNtNtNtCs2RUqfoJCtLU_5ruchy7backend10transpiler10dispatcherNtB4_10Transpiler21transpile_struct_expr
FNDA:0,_RNvMNtNtNtCs2RUqfoJCtLU_5ruchy7backend10transpiler10dispatcherNtB4_10Transpiler22transpile_assert_macro
FNDA:0,_RNvMNtNtNtCs2RUqfoJCtLU_5ruchy7backend10transpiler10dispatcherNtB4_10Transpiler22transpile_try_operator
FNDA:0,_RNvMNtNtNtCs2RUqfoJCtLU_5ruchy7backend10transpiler10dispatcherNtB4_10Transpiler23transpile_function_expr
FNDA:0,_RNvMNtNtNtCs2RUqfoJCtLU_5ruchy7backend10transpiler10dispatcherNtB4_10Transpiler23transpile_println_macro
FNDA:0,_RNvMNtNtNtCs2RUqfoJCtLU_5ruchy7backend10transpiler10dispatcherNtB4_10Transpiler24transpile_data_only_expr
FNDA:0,_RNvMNtNtNtCs2RUqfoJCtLU_5ruchy7backend10transpiler10dispatcherNtB4_10Transpiler24transpile_qualified_name
FNDA:0,_RNvMNtNtNtCs2RUqfoJCtLU_5ruchy7backend10transpiler10dispatcherNtB4_10Transpiler24transpile_type_decl_expr
FNDA:0,_RNvMNtNtNtCs2RUqfoJCtLU_5ruchy7backend10transpiler10dispatcherNtB4_10Transpiler25transpile_assert_eq_macro
FNDA:0,_RNvMNtNtNtCs2RUqfoJCtLU_5ruchy7backend10transpiler10dispatcherNtB4_10Transpiler25transpile_assert_ne_macro
FNDA:0,_RNvMNtNtNtCs2RUqfoJCtLU_5ruchy7backend10transpiler10dispatcherNtB4_10Transpiler25transpile_data_error_expr
FNDA:0,_RNvMNtNtNtCs2RUqfoJCtLU_5ruchy7backend10transpiler10dispatcherNtB4_10Transpiler25transpile_error_only_expr
FNDA:0,_RNvMNtNtNtCs2RUqfoJCtLU_5ruchy7backend10transpiler10dispatcherNtB4_10Transpiler27transpile_control_misc_expr
FNDA:0,_RNvMNtNtNtCs2RUqfoJCtLU_5ruchy7backend10transpiler10dispatcherNtB4_10Transpiler28transpile_operator_only_expr
FNDA:0,_RNvMNtNtNtCs2RUqfoJCtLU_5ruchy7backend10transpiler10dispatcherNtB4_10Transpiler31transpile_operator_control_expr
FNDA:0,_RNvMNtNtNtCs2RUqfoJCtLU_5ruchy7backend10transpiler10dispatcherNtB4_10Transpiler32transpile_control_flow_only_expr
FNDA:0,_RNvMNtNtNtCs2RUqfoJCtLU_5ruchy7backend10transpiler10dispatcherNtB4_10Transpiler40transpile_string_interpolation_for_print
FNF:39
FNH:0
DA:14,0
DA:15,0
DA:16,0
DA:17,0
DA:18,0
DA:19,0
DA:21,0
DA:22,0
DA:23,0
DA:25,0
DA:27,0
DA:28,0
DA:31,0
DA:32,0
DA:33,0
DA:34,0
DA:35,0
DA:36,0
DA:37,0
DA:38,0
DA:39,0
DA:40,0
DA:41,0
DA:42,0
DA:43,0
DA:46,0
DA:47,0
DA:49,0
DA:51,0
DA:53,0
DA:54,0
DA:56,0
DA:57,0
DA:58,0
DA:59,0
DA:60,0
DA:62,0
DA:65,0
DA:66,0
DA:68,0
DA:69,0
DA:70,0
DA:73,0
DA:76,0
DA:78,0
DA:79,0
DA:80,0
DA:82,0
DA:85,0
DA:86,0
DA:88,0
DA:90,0
DA:92,0
DA:93,0
DA:95,0
DA:97,0
DA:98,0
DA:101,0
DA:102,0
DA:103,0
DA:104,0
DA:105,0
DA:106,0
DA:107,0
DA:109,0
DA:111,0
DA:114,0
DA:115,0
DA:122,0
DA:131,0
DA:132,0
DA:134,0
DA:136,0
DA:137,0
DA:138,0
DA:139,0
DA:140,0
DA:141,0
DA:142,0
DA:143,0
DA:144,0
DA:146,0
DA:148,0
DA:149,0
DA:151,0
DA:152,0
DA:153,0
DA:154,0
DA:155,0
DA:156,0
DA:157,0
DA:159,0
DA:160,0
DA:161,0
DA:162,0
DA:163,0
DA:165,0
DA:166,0
DA:167,0
DA:168,0
DA:169,0
DA:170,0
DA:171,0
DA:173,0
DA:175,0
DA:178,0
DA:179,0
DA:181,0
DA:182,0
DA:183,0
DA:184,0
DA:185,0
DA:186,0
DA:187,0
DA:188,0
DA:189,0
DA:190,0
DA:191,0
DA:192,0
DA:193,0
DA:194,0
DA:195,0
DA:196,0
DA:198,0
DA:199,0
DA:201,0
DA:202,0
DA:203,0
DA:204,0
DA:205,0
DA:206,0
DA:208,0
DA:220,0
DA:221,0
DA:223,0
DA:224,0
DA:225,0
DA:228,0
DA:231,0
DA:232,0
DA:233,0
DA:235,0
DA:237,0
DA:240,0
DA:241,0
DA:243,0
DA:244,0
DA:245,0
DA:246,0
DA:247,0
DA:248,0
DA:249,0
DA:250,0
DA:251,0
DA:252,0
DA:253,0
DA:255,0
DA:258,0
DA:259,0
DA:265,0
DA:271,0
DA:272,0
DA:274,0
DA:276,0
DA:277,0
DA:278,0
DA:279,0
DA:280,0
DA:282,0
DA:283,0
DA:285,0
DA:286,0
DA:287,0
DA:288,0
DA:290,0
DA:293,0
DA:294,0
DA:295,0
DA:296,0
DA:297,0
DA:299,0
DA:301,0
DA:302,0
DA:303,0
DA:304,0
DA:305,0
DA:306,0
DA:307,0
DA:308,0
DA:309,0
DA:311,0
DA:313,0
DA:314,0
DA:315,0
DA:316,0
DA:318,0
DA:319,0
DA:321,0
DA:323,0
DA:325,0
DA:327,0
DA:328,0
DA:330,0
DA:331,0
DA:332,0
DA:333,0
DA:335,0
DA:336,0
DA:337,0
DA:338,0
DA:341,0
DA:342,0
DA:344,0
DA:345,0
DA:346,0
DA:347,0
DA:348,0
DA:349,0
DA:352,0
DA:353,0
DA:354,0
DA:355,0
DA:356,0
DA:358,0
DA:360,0
DA:361,0
DA:363,0
DA:365,0
DA:368,0
DA:369,0
DA:371,0
DA:373,0
DA:374,0
DA:375,0
DA:376,0
DA:378,0
DA:380,0
DA:381,0
DA:383,0
DA:384,0
DA:385,0
DA:386,0
DA:387,0
DA:391,0
DA:393,0
DA:395,0
DA:397,0
DA:399,0
DA:400,0
DA:402,0
DA:403,0
DA:404,0
DA:405,0
DA:406,0
DA:408,0
DA:409,0
DA:410,0
DA:411,0
DA:412,0
DA:413,0
DA:415,0
DA:416,0
DA:417,0
DA:419,0
DA:420,0
DA:421,0
DA:422,0
DA:423,0
DA:424,0
DA:426,0
DA:436,0
DA:437,0
DA:438,0
DA:439,0
DA:441,0
DA:443,0
DA:453,0
DA:454,0
DA:455,0
DA:456,0
DA:458,0
DA:460,0
DA:470,0
DA:471,0
DA:472,0
DA:473,0
DA:475,0
DA:477,0
DA:484,0
DA:485,0
DA:486,0
DA:487,0
DA:490,0
DA:491,0
DA:492,0
DA:495,0
DA:497,0
DA:498,0
DA:499,0
DA:502,0
DA:505,0
DA:506,0
DA:507,0
DA:510,0
DA:513,0
DA:514,0
DA:515,0
DA:516,0
DA:517,0
DA:519,0
DA:520,0
DA:524,0
DA:525,0
DA:528,0
DA:532,0
DA:537,0
DA:538,0
DA:540,0
DA:547,0
DA:548,0
DA:552,0
DA:554,0
DA:557,0
DA:558,0
DA:559,0
DA:561,0
DA:562,0
DA:563,0
DA:564,0
DA:566,0
DA:576,0
DA:577,0
DA:578,0
DA:579,0
DA:580,0
DA:581,0
DA:583,0
DA:584,0
DA:594,0
DA:595,0
DA:596,0
DA:597,0
DA:598,0
DA:599,0
DA:601,0
DA:602,0
DA:604,0
DA:606,0
DA:616,0
DA:617,0
DA:618,0
DA:619,0
DA:621,0
DA:622,0
DA:623,0
DA:624,0
DA:625,0
DA:627,0
DA:628,0
DA:638,0
DA:639,0
DA:640,0
DA:641,0
DA:643,0
DA:644,0
DA:645,0
DA:646,0
DA:647,0
DA:649,0
DA:650,0
DA:652,0
DA:653,0
DA:654,0
DA:655,0
DA:656,0
DA:657,0
DA:658,0
DA:659,0
DA:660,0
DA:662,0
DA:665,0
DA:666,0
DA:667,0
DA:668,0
DA:670,0
DA:672,0
DA:674,0
DA:675,0
DA:676,0
DA:678,0
DA:680,0
DA:681,0
DA:682,0
DA:683,0
DA:685,0
DA:687,0
BRF:0
BRH:0
LF:404
LH:0
end_of_record
SF:/home/noah/src/ruchy/src/backend/transpiler/expressions.rs
FN:490,_RNCNvMNtNtNtCs2RUqfoJCtLU_5ruchy7backend10transpiler11expressionsNtB6_10Transpiler14transpile_lists_0Ba_
FN:499,_RNCNvMNtNtNtCs2RUqfoJCtLU_5ruchy7backend10transpiler11expressionsNtB6_10Transpiler15transpile_tuple0Ba_
FN:468,_RNCNvMNtNtNtCs2RUqfoJCtLU_5ruchy7backend10transpiler11expressionsNtB6_10Transpiler14transpile_list0Ba_
FN:466,_RNvMNtNtNtCs2RUqfoJCtLU_5ruchy7backend10transpiler11expressionsNtB4_10Transpiler14transpile_list
FN:271,_RNvMNtNtNtCs2RUqfoJCtLU_5ruchy7backend10transpiler11expressionsNtB4_10Transpiler15transpile_await
FN:505,_RNvMNtNtNtCs2RUqfoJCtLU_5ruchy7backend10transpiler11expressionsNtB4_10Transpiler15transpile_range
FN:352,_RNvMNtNtNtCs2RUqfoJCtLU_5ruchy7backend10transpiler11expressionsNtB4_10Transpiler15transpile_slice
FN:283,_RNvMNtNtNtCs2RUqfoJCtLU_5ruchy7backend10transpiler11expressionsNtB4_10Transpiler15transpile_throw
FN:497,_RNvMNtNtNtCs2RUqfoJCtLU_5ruchy7backend10transpiler11expressionsNtB4_10Transpiler15transpile_tuple
FN:259,_RNvMNtNtNtCs2RUqfoJCtLU_5ruchy7backend10transpiler11expressionsNtB4_10Transpiler15transpile_unary
FN:380,_RNvMNtNtNtCs2RUqfoJCtLU_5ruchy7backend10transpiler11expressionsNtB4_10Transpiler16transpile_assign
FN:86,_RNvMNtNtNtCs2RUqfoJCtLU_5ruchy7backend10transpiler11expressionsNtB4_10Transpiler16transpile_binary
FN:32,_RNvMNtNtNtCs2RUqfoJCtLU_5ruchy7backend10transpiler11expressionsNtB4_10Transpiler17transpile_integer
FN:14,_RNvMNtNtNtCs2RUqfoJCtLU_5ruchy7backend10transpiler11expressionsNtB4_10Transpiler17transpile_literal
FN:209,_RNvMNtNtNtCs2RUqfoJCtLU_5ruchy7backend10transpiler11expressionsNtB4_10Transpiler18transpile_equality
FN:217,_RNvMNtNtNtCs2RUqfoJCtLU_5ruchy7backend10transpiler11expressionsNtB4_10Transpiler18transpile_ordering
FN:143,_RNvMNtNtNtCs2RUqfoJCtLU_5ruchy7backend10transpiler11expressionsNtB4_10Transpiler19transpile_binary_op
FN:251,_RNvMNtNtNtCs2RUqfoJCtLU_5ruchy7backend10transpiler11expressionsNtB4_10Transpiler19transpile_shift_ops
FN:595,_RNvMNtNtNtCs2RUqfoJCtLU_5ruchy7backend10transpiler11expressionsNtB4_10Transpiler20is_definitely_string
FN:139,_RNvMNtNtNtCs2RUqfoJCtLU_5ruchy7backend10transpiler11expressionsNtB4_10Transpiler20is_right_associative
FN:241,_RNvMNtNtNtCs2RUqfoJCtLU_5ruchy7backend10transpiler11expressionsNtB4_10Transpiler20transpile_bitwise_op
FN:233,_RNvMNtNtNtCs2RUqfoJCtLU_5ruchy7backend10transpiler11expressionsNtB4_10Transpiler20transpile_logical_op
FN:400,_RNvMNtNtNtCs2RUqfoJCtLU_5ruchy7backend10transpiler11expressionsNtB4_10Transpiler21get_compound_op_token
FN:277,_RNvMNtNtNtCs2RUqfoJCtLU_5ruchy7backend10transpiler11expressionsNtB4_10Transpiler21transpile_async_block
FN:225,_RNvMNtNtNtCs2RUqfoJCtLU_5ruchy7backend10transpiler11expressionsNtB4_10Transpiler21transpile_greater_ops
FN:192,_RNvMNtNtNtCs2RUqfoJCtLU_5ruchy7backend10transpiler11expressionsNtB4_10Transpiler22transpile_division_mod
FN:291,_RNvMNtNtNtCs2RUqfoJCtLU_5ruchy7backend10transpiler11expressionsNtB4_10Transpiler22transpile_field_access
FN:328,_RNvMNtNtNtCs2RUqfoJCtLU_5ruchy7backend10transpiler11expressionsNtB4_10Transpiler22transpile_index_access
FN:125,_RNvMNtNtNtCs2RUqfoJCtLU_5ruchy7backend10transpiler11expressionsNtB4_10Transpiler23get_operator_precedence
FN:167,_RNvMNtNtNtCs2RUqfoJCtLU_5ruchy7backend10transpiler11expressionsNtB4_10Transpiler23transpile_arithmetic_op
FN:200,_RNvMNtNtNtCs2RUqfoJCtLU_5ruchy7backend10transpiler11expressionsNtB4_10Transpiler23transpile_comparison_op
FN:448,_RNvMNtNtNtCs2RUqfoJCtLU_5ruchy7backend10transpiler11expressionsNtB4_10Transpiler23transpile_pre_decrement
FN:430,_RNvMNtNtNtCs2RUqfoJCtLU_5ruchy7backend10transpiler11expressionsNtB4_10Transpiler23transpile_pre_increment
FN:412,_RNvMNtNtNtCs2RUqfoJCtLU_5ruchy7backend10transpiler11expressionsNtB4_10Transpiler24get_basic_compound_token
FN:522,_RNvMNtNtNtCs2RUqfoJCtLU_5ruchy7backend10transpiler11expressionsNtB4_10Transpiler24transpile_object_literal
FN:454,_RNvMNtNtNtCs2RUqfoJCtLU_5ruchy7backend10transpiler11expressionsNtB4_10Transpiler24transpile_post_decrement
FN:436,_RNvMNtNtNtCs2RUqfoJCtLU_5ruchy7backend10transpiler11expressionsNtB4_10Transpiler24transpile_post_increment
FN:23,_RNvMNtNtNtCs2RUqfoJCtLU_5ruchy7backend10transpiler11expressionsNtB4_10Transpiler24transpile_simple_literal
FN:567,_RNvMNtNtNtCs2RUqfoJCtLU_5ruchy7backend10transpiler11expressionsNtB4_10Transpiler24transpile_struct_literal
FN:387,_RNvMNtNtNtCs2RUqfoJCtLU_5ruchy7backend10transpiler11expressionsNtB4_10Transpiler25transpile_compound_assign
FN:178,_RNvMNtNtNtCs2RUqfoJCtLU_5ruchy7backend10transpiler11expressionsNtB4_10Transpiler26transpile_basic_arithmetic
FN:421,_RNvMNtNtNtCs2RUqfoJCtLU_5ruchy7backend10transpiler11expressionsNtB4_10Transpiler27get_division_compound_token
FN:536,_RNvMNtNtNtCs2RUqfoJCtLU_5ruchy7backend10transpiler11expressionsNtB4_10Transpiler28collect_hashmap_field_tokens
FN:103,_RNvMNtNtNtCs2RUqfoJCtLU_5ruchy7backend10transpiler11expressionsNtB4_10Transpiler30transpile_expr_with_precedence
FN:622,_RNvMNtNtNtCs2RUqfoJCtLU_5ruchy7backend10transpiler11expressionsNtB4_10Transpiler30transpile_string_concatenation
FN:50,_RNvMNtNtNtCs2RUqfoJCtLU_5ruchy7backend10transpiler11expressionsNtB4_10Transpiler30transpile_string_interpolation
FNDA:0,_RNCNvMNtNtNtCs2RUqfoJCtLU_5ruchy7backend10transpiler11expressionsNtB6_10Transpiler14transpile_lists_0Ba_
FNDA:0,_RNCNvMNtNtNtCs2RUqfoJCtLU_5ruchy7backend10transpiler11expressionsNtB6_10Transpiler15transpile_tuple0Ba_
FNDA:0,_RNCNvMNtNtNtCs2RUqfoJCtLU_5ruchy7backend10transpiler11expressionsNtB6_10Transpiler14transpile_list0Ba_
FNDA:0,_RNvMNtNtNtCs2RUqfoJCtLU_5ruchy7backend10transpiler11expressionsNtB4_10Transpiler14transpile_list
FNDA:0,_RNvMNtNtNtCs2RUqfoJCtLU_5ruchy7backend10transpiler11expressionsNtB4_10Transpiler15transpile_await
FNDA:0,_RNvMNtNtNtCs2RUqfoJCtLU_5ruchy7backend10transpiler11expressionsNtB4_10Transpiler15transpile_range
FNDA:0,_RNvMNtNtNtCs2RUqfoJCtLU_5ruchy7backend10transpiler11expressionsNtB4_10Transpiler15transpile_slice
FNDA:0,_RNvMNtNtNtCs2RUqfoJCtLU_5ruchy7backend10transpiler11expressionsNtB4_10Transpiler15transpile_throw
FNDA:0,_RNvMNtNtNtCs2RUqfoJCtLU_5ruchy7backend10transpiler11expressionsNtB4_10Transpiler15transpile_tuple
FNDA:0,_RNvMNtNtNtCs2RUqfoJCtLU_5ruchy7backend10transpiler11expressionsNtB4_10Transpiler15transpile_unary
FNDA:0,_RNvMNtNtNtCs2RUqfoJCtLU_5ruchy7backend10transpiler11expressionsNtB4_10Transpiler16transpile_assign
FNDA:0,_RNvMNtNtNtCs2RUqfoJCtLU_5ruchy7backend10transpiler11expressionsNtB4_10Transpiler16transpile_binary
FNDA:0,_RNvMNtNtNtCs2RUqfoJCtLU_5ruchy7backend10transpiler11expressionsNtB4_10Transpiler17transpile_integer
FNDA:0,_RNvMNtNtNtCs2RUqfoJCtLU_5ruchy7backend10transpiler11expressionsNtB4_10Transpiler17transpile_literal
FNDA:0,_RNvMNtNtNtCs2RUqfoJCtLU_5ruchy7backend10transpiler11expressionsNtB4_10Transpiler18transpile_equality
FNDA:0,_RNvMNtNtNtCs2RUqfoJCtLU_5ruchy7backend10transpiler11expressionsNtB4_10Transpiler18transpile_ordering
FNDA:0,_RNvMNtNtNtCs2RUqfoJCtLU_5ruchy7backend10transpiler11expressionsNtB4_10Transpiler19transpile_binary_op
FNDA:0,_RNvMNtNtNtCs2RUqfoJCtLU_5ruchy7backend10transpiler11expressionsNtB4_10Transpiler19transpile_shift_ops
FNDA:0,_RNvMNtNtNtCs2RUqfoJCtLU_5ruchy7backend10transpiler11expressionsNtB4_10Transpiler20is_definitely_string
FNDA:0,_RNvMNtNtNtCs2RUqfoJCtLU_5ruchy7backend10transpiler11expressionsNtB4_10Transpiler20is_right_associative
FNDA:0,_RNvMNtNtNtCs2RUqfoJCtLU_5ruchy7backend10transpiler11expressionsNtB4_10Transpiler20transpile_bitwise_op
FNDA:0,_RNvMNtNtNtCs2RUqfoJCtLU_5ruchy7backend10transpiler11expressionsNtB4_10Transpiler20transpile_logical_op
FNDA:0,_RNvMNtNtNtCs2RUqfoJCtLU_5ruchy7backend10transpiler11expressionsNtB4_10Transpiler21get_compound_op_token
FNDA:0,_RNvMNtNtNtCs2RUqfoJCtLU_5ruchy7backend10transpiler11expressionsNtB4_10Transpiler21transpile_async_block
FNDA:0,_RNvMNtNtNtCs2RUqfoJCtLU_5ruchy7backend10transpiler11expressionsNtB4_10Transpiler21transpile_greater_ops
FNDA:0,_RNvMNtNtNtCs2RUqfoJCtLU_5ruchy7backend10transpiler11expressionsNtB4_10Transpiler22transpile_division_mod
FNDA:0,_RNvMNtNtNtCs2RUqfoJCtLU_5ruchy7backend10transpiler11expressionsNtB4_10Transpiler22transpile_field_access
FNDA:0,_RNvMNtNtNtCs2RUqfoJCtLU_5ruchy7backend10transpiler11expressionsNtB4_10Transpiler22transpile_index_access
FNDA:0,_RNvMNtNtNtCs2RUqfoJCtLU_5ruchy7backend10transpiler11expressionsNtB4_10Transpiler23get_operator_precedence
FNDA:0,_RNvMNtNtNtCs2RUqfoJCtLU_5ruchy7backend10transpiler11expressionsNtB4_10Transpiler23transpile_arithmetic_op
FNDA:0,_RNvMNtNtNtCs2RUqfoJCtLU_5ruchy7backend10transpiler11expressionsNtB4_10Transpiler23transpile_comparison_op
FNDA:0,_RNvMNtNtNtCs2RUqfoJCtLU_5ruchy7backend10transpiler11expressionsNtB4_10Transpiler23transpile_pre_decrement
FNDA:0,_RNvMNtNtNtCs2RUqfoJCtLU_5ruchy7backend10transpiler11expressionsNtB4_10Transpiler23transpile_pre_increment
FNDA:0,_RNvMNtNtNtCs2RUqfoJCtLU_5ruchy7backend10transpiler11expressionsNtB4_10Transpiler24get_basic_compound_token
FNDA:0,_RNvMNtNtNtCs2RUqfoJCtLU_5ruchy7backend10transpiler11expressionsNtB4_10Transpiler24transpile_object_literal
FNDA:0,_RNvMNtNtNtCs2RUqfoJCtLU_5ruchy7backend10transpiler11expressionsNtB4_10Transpiler24transpile_post_decrement
FNDA:0,_RNvMNtNtNtCs2RUqfoJCtLU_5ruchy7backend10transpiler11expressionsNtB4_10Transpiler24transpile_post_increment
FNDA:0,_RNvMNtNtNtCs2RUqfoJCtLU_5ruchy7backend10transpiler11expressionsNtB4_10Transpiler24transpile_simple_literal
FNDA:0,_RNvMNtNtNtCs2RUqfoJCtLU_5ruchy7backend10transpiler11expressionsNtB4_10Transpiler24transpile_struct_literal
FNDA:0,_RNvMNtNtNtCs2RUqfoJCtLU_5ruchy7backend10transpiler11expressionsNtB4_10Transpiler25transpile_compound_assign
FNDA:0,_RNvMNtNtNtCs2RUqfoJCtLU_5ruchy7backend10transpiler11expressionsNtB4_10Transpiler26transpile_basic_arithmetic
FNDA:0,_RNvMNtNtNtCs2RUqfoJCtLU_5ruchy7backend10transpiler11expressionsNtB4_10Transpiler27get_division_compound_token
FNDA:0,_RNvMNtNtNtCs2RUqfoJCtLU_5ruchy7backend10transpiler11expressionsNtB4_10Transpiler28collect_hashmap_field_tokens
FNDA:0,_RNvMNtNtNtCs2RUqfoJCtLU_5ruchy7backend10transpiler11expressionsNtB4_10Transpiler30transpile_expr_with_precedence
FNDA:0,_RNvMNtNtNtCs2RUqfoJCtLU_5ruchy7backend10transpiler11expressionsNtB4_10Transpiler30transpile_string_concatenation
FNDA:0,_RNvMNtNtNtCs2RUqfoJCtLU_5ruchy7backend10transpiler11expressionsNtB4_10Transpiler30transpile_string_interpolation
FNF:46
FNH:0
DA:14,0
DA:15,0
DA:16,0
DA:17,0
DA:18,0
DA:19,0
DA:21,0
DA:23,0
DA:24,0
DA:25,0
DA:26,0
DA:27,0
DA:28,0
DA:30,0
DA:32,0
DA:35,0
DA:37,0
DA:38,0
DA:41,0
DA:42,0
DA:44,0
DA:50,0
DA:51,0
DA:52,0
DA:53,0
DA:55,0
DA:56,0
DA:58,0
DA:59,0
DA:60,0
DA:61,0
DA:62,0
DA:63,0
DA:64,0
DA:65,0
DA:66,0
DA:67,0
DA:69,0
DA:71,0
DA:72,0
DA:73,0
DA:74,0
DA:75,0
DA:80,0
DA:83,0
DA:86,0
DA:89,0
DA:90,0
DA:91,0
DA:94,0
DA:95,0
DA:97,0
DA:98,0
DA:103,0
DA:104,0
DA:107,0
DA:108,0
DA:109,0
DA:113,0
DA:114,0
DA:116,0
DA:117,0
DA:118,0
DA:119,0
DA:121,0
DA:122,0
DA:125,0
DA:126,0
DA:127,0
DA:128,0
DA:129,0
DA:130,0
DA:131,0
DA:132,0
DA:133,0
DA:134,0
DA:136,0
DA:139,0
DA:140,0
DA:141,0
DA:143,0
DA:149,0
DA:152,0
DA:156,0
DA:159,0
DA:162,0
DA:165,0
DA:167,0
DA:169,0
DA:171,0
DA:173,0
DA:174,0
DA:176,0
DA:178,0
DA:179,0
DA:180,0
DA:181,0
DA:182,0
DA:184,0
DA:185,0
DA:186,0
DA:187,0
DA:188,0
DA:190,0
DA:192,0
DA:193,0
DA:194,0
DA:195,0
DA:196,0
DA:198,0
DA:200,0
DA:202,0
DA:203,0
DA:204,0
DA:205,0
DA:207,0
DA:209,0
DA:210,0
DA:211,0
DA:212,0
DA:213,0
DA:215,0
DA:217,0
DA:218,0
DA:219,0
DA:220,0
DA:221,0
DA:223,0
DA:225,0
DA:226,0
DA:227,0
DA:228,0
DA:229,0
DA:231,0
DA:233,0
DA:234,0
DA:235,0
DA:236,0
DA:237,0
DA:239,0
DA:241,0
DA:243,0
DA:244,0
DA:245,0
DA:246,0
DA:247,0
DA:249,0
DA:251,0
DA:252,0
DA:253,0
DA:254,0
DA:256,0
DA:259,0
DA:260,0
DA:262,0
DA:263,0
DA:264,0
DA:265,0
DA:267,0
DA:271,0
DA:272,0
DA:273,0
DA:274,0
DA:277,0
DA:278,0
DA:279,0
DA:280,0
DA:283,0
DA:284,0
DA:285,0
DA:286,0
DA:287,0
DA:288,0
DA:291,0
DA:294,0
DA:297,0
DA:300,0
DA:301,0
DA:302,0
DA:303,0
DA:304,0
DA:308,0
DA:309,0
DA:311,0
DA:313,0
DA:314,0
DA:318,0
DA:319,0
DA:320,0
DA:321,0
DA:322,0
DA:325,0
DA:328,0
DA:331,0
DA:332,0
DA:335,0
DA:338,0
DA:339,0
DA:340,0
DA:341,0
DA:342,0
DA:346,0
DA:349,0
DA:352,0
DA:353,0
DA:355,0
DA:358,0
DA:360,0
DA:362,0
DA:363,0
DA:365,0
DA:367,0
DA:368,0
DA:370,0
DA:372,0
DA:373,0
DA:374,0
DA:377,0
DA:380,0
DA:381,0
DA:382,0
DA:383,0
DA:384,0
DA:387,0
DA:388,0
DA:389,0
DA:390,0
DA:391,0
DA:392,0
DA:393,0
DA:394,0
DA:395,0
DA:397,0
DA:398,0
DA:400,0
DA:402,0
DA:403,0
DA:404,0
DA:407,0
DA:410,0
DA:412,0
DA:413,0
DA:414,0
DA:415,0
DA:416,0
DA:417,0
DA:419,0
DA:421,0
DA:422,0
DA:423,0
DA:424,0
DA:425,0
DA:427,0
DA:430,0
DA:431,0
DA:432,0
DA:433,0
DA:436,0
DA:437,0
DA:438,0
DA:439,0
DA:440,0
DA:441,0
DA:442,0
DA:443,0
DA:444,0
DA:445,0
DA:448,0
DA:449,0
DA:450,0
DA:451,0
DA:454,0
DA:455,0
DA:456,0
DA:457,0
DA:458,0
DA:459,0
DA:460,0
DA:461,0
DA:462,0
DA:463,0
DA:466,0
DA:468,0
DA:470,0
DA:472,0
DA:473,0
DA:475,0
DA:476,0
DA:477,0
DA:478,0
DA:480,0
DA:481,0
DA:485,0
DA:486,0
DA:489,0
DA:490,0
DA:491,0
DA:492,0
DA:494,0
DA:497,0
DA:498,0
DA:499,0
DA:500,0
DA:501,0
DA:502,0
DA:505,0
DA:506,0
DA:507,0
DA:508,0
DA:509,0
DA:510,0
DA:511,0
DA:512,0
DA:514,0
DA:515,0
DA:517,0
DA:519,0
DA:522,0
DA:523,0
DA:524,0
DA:525,0
DA:526,0
DA:527,0
DA:534,0
DA:536,0
DA:537,0
DA:538,0
DA:539,0
DA:541,0
DA:543,0
DA:544,0
DA:545,0
DA:546,0
DA:547,0
DA:549,0
DA:550,0
DA:552,0
DA:559,0
DA:562,0
DA:563,0
DA:567,0
DA:568,0
DA:569,0
DA:570,0
DA:571,0
DA:572,0
DA:573,0
DA:575,0
DA:576,0
DA:577,0
DA:579,0
DA:580,0
DA:582,0
DA:584,0
DA:587,0
DA:592,0
DA:595,0
DA:596,0
DA:598,0
DA:600,0
DA:602,0
DA:603,0
DA:606,0
DA:607,0
DA:608,0
DA:612,0
DA:614,0
DA:616,0
DA:618,0
DA:622,0
DA:623,0
DA:624,0
DA:628,0
DA:629,0
BRF:0
BRH:0
LF:377
LH:0
end_of_record
SF:/home/noah/src/ruchy/src/backend/transpiler/method_call_refactored.rs
FN:19,_RNCNvMNtNtNtCs2RUqfoJCtLU_5ruchy7backend10transpiler22method_call_refactoredNtB6_10Transpiler32transpile_method_call_refactored0Ba_
FN:172,_RNvMNtNtNtCs2RUqfoJCtLU_5ruchy7backend10transpiler22method_call_refactoredNtB4_10Transpiler23transpile_string_method
FN:90,_RNvMNtNtNtCs2RUqfoJCtLU_5ruchy7backend10transpiler22method_call_refactoredNtB4_10Transpiler24transpile_hashmap_method
FN:107,_RNvMNtNtNtCs2RUqfoJCtLU_5ruchy7backend10transpiler22method_call_refactoredNtB4_10Transpiler24transpile_hashset_method
FN:64,_RNvMNtNtNtCs2RUqfoJCtLU_5ruchy7backend10transpiler22method_call_refactoredNtB4_10Transpiler25transpile_iterator_method
FN:136,_RNvMNtNtNtCs2RUqfoJCtLU_5ruchy7backend10transpiler22method_call_refactoredNtB4_10Transpiler28transpile_collection_mutator
FN:147,_RNvMNtNtNtCs2RUqfoJCtLU_5ruchy7backend10transpiler22method_call_refactoredNtB4_10Transpiler29transpile_collection_accessor
FN:12,_RNvMNtNtNtCs2RUqfoJCtLU_5ruchy7backend10transpiler22method_call_refactoredNtB4_10Transpiler32transpile_method_call_refactored
FN:206,_RNvMNtNtNtCs2RUqfoJCtLU_5ruchy7backend10transpiler22method_call_refactoredNtB4_10Transpiler37transpile_dataframe_method_refactored
FNDA:0,_RNCNvMNtNtNtCs2RUqfoJCtLU_5ruchy7backend10transpiler22method_call_refactoredNtB6_10Transpiler32transpile_method_call_refactored0Ba_
FNDA:0,_RNvMNtNtNtCs2RUqfoJCtLU_5ruchy7backend10transpiler22method_call_refactoredNtB4_10Transpiler23transpile_string_method
FNDA:0,_RNvMNtNtNtCs2RUqfoJCtLU_5ruchy7backend10transpiler22method_call_refactoredNtB4_10Transpiler24transpile_hashmap_method
FNDA:0,_RNvMNtNtNtCs2RUqfoJCtLU_5ruchy7backend10transpiler22method_call_refactoredNtB4_10Transpiler24transpile_hashset_method
FNDA:0,_RNvMNtNtNtCs2RUqfoJCtLU_5ruchy7backend10transpiler22method_call_refactoredNtB4_10Transpiler25transpile_iterator_method
FNDA:0,_RNvMNtNtNtCs2RUqfoJCtLU_5ruchy7backend10transpiler22method_call_refactoredNtB4_10Transpiler28transpile_collection_mutator
FNDA:0,_RNvMNtNtNtCs2RUqfoJCtLU_5ruchy7backend10transpiler22method_call_refactoredNtB4_10Transpiler29transpile_collection_accessor
FNDA:0,_RNvMNtNtNtCs2RUqfoJCtLU_5ruchy7backend10transpiler22method_call_refactoredNtB4_10Transpiler32transpile_method_call_refactored
FNDA:0,_RNvMNtNtNtCs2RUqfoJCtLU_5ruchy7backend10transpiler22method_call_refactoredNtB4_10Transpiler37transpile_dataframe_method_refactored
FNF:9
FNH:0
DA:12,0
DA:13,0
DA:14,0
DA:15,0
DA:16,0
DA:17,0
DA:18,0
DA:19,0
DA:20,0
DA:23,0
DA:25,0
DA:26,0
DA:29,0
DA:30,0
DA:33,0
DA:34,0
DA:37,0
DA:38,0
DA:41,0
DA:42,0
DA:45,0
DA:46,0
DA:47,0
DA:50,0
DA:51,0
DA:52,0
DA:53,0
DA:57,0
DA:58,0
DA:61,0
DA:64,0
DA:65,0
DA:66,0
DA:67,0
DA:68,0
DA:69,0
DA:70,0
DA:71,0
DA:72,0
DA:73,0
DA:74,0
DA:75,0
DA:76,0
DA:77,0
DA:78,0
DA:79,0
DA:80,0
DA:82,0
DA:83,0
DA:84,0
DA:85,0
DA:87,0
DA:90,0
DA:91,0
DA:92,0
DA:93,0
DA:94,0
DA:95,0
DA:96,0
DA:97,0
DA:98,0
DA:99,0
DA:100,0
DA:101,0
DA:102,0
DA:104,0
DA:107,0
DA:108,0
DA:109,0
DA:110,0
DA:111,0
DA:112,0
DA:113,0
DA:114,0
DA:115,0
DA:116,0
DA:118,0
DA:119,0
DA:120,0
DA:121,0
DA:122,0
DA:123,0
DA:124,0
DA:125,0
DA:126,0
DA:127,0
DA:128,0
DA:129,0
DA:131,0
DA:133,0
DA:136,0
DA:137,0
DA:138,0
DA:139,0
DA:140,0
DA:141,0
DA:142,0
DA:143,0
DA:144,0
DA:147,0
DA:148,0
DA:149,0
DA:150,0
DA:151,0
DA:152,0
DA:153,0
DA:154,0
DA:155,0
DA:156,0
DA:157,0
DA:158,0
DA:159,0
DA:160,0
DA:162,0
DA:163,0
DA:165,0
DA:166,0
DA:169,0
DA:172,0
DA:173,0
DA:174,0
DA:175,0
DA:176,0
DA:177,0
DA:178,0
DA:179,0
DA:180,0
DA:181,0
DA:182,0
DA:183,0
DA:184,0
DA:185,0
DA:186,0
DA:188,0
DA:191,0
DA:192,0
DA:193,0
DA:194,0
DA:195,0
DA:197,0
DA:198,0
DA:199,0
DA:201,0
DA:203,0
DA:206,0
DA:207,0
DA:208,0
DA:209,0
DA:210,0
DA:211,0
DA:212,0
DA:213,0
DA:214,0
BRF:0
BRH:0
LF:154
LH:0
end_of_record
SF:/home/noah/src/ruchy/src/backend/transpiler/mod.rs
FN:130,_RNCNvMs_NtNtCs2RUqfoJCtLU_5ruchy7backend10transpilerNtB6_10Transpiler28collect_signatures_from_expr0Ba_
FN:563,_RNCNvMs_NtNtCs2RUqfoJCtLU_5ruchy7backend10transpilerNtB6_10Transpiler30transpile_statement_only_blocks_0Ba_
FN:322,_RNCNvMs_NtNtCs2RUqfoJCtLU_5ruchy7backend10transpilerNtB6_10Transpiler16contains_hashmap0Ba_
FN:642,_RNCNvMs_NtNtCs2RUqfoJCtLU_5ruchy7backend10transpilerNtB6_10Transpiler17is_statement_expr0Ba_
FN:550,_RNCNvMs_NtNtCs2RUqfoJCtLU_5ruchy7backend10transpilerNtB6_10Transpiler30transpile_statement_only_block0Ba_
FN:906,_RNvMs_NtNtCs2RUqfoJCtLU_5ruchy7backend10transpilerNtB4_10Transpiler14transpile_expr
FN:152,_RNvMs_NtNtCs2RUqfoJCtLU_5ruchy7backend10transpilerNtB4_10Transpiler14type_to_string
FN:300,_RNvMs_NtNtCs2RUqfoJCtLU_5ruchy7backend10transpilerNtB4_10Transpiler16contains_hashmap
FN:625,_RNvMs_NtNtCs2RUqfoJCtLU_5ruchy7backend10transpilerNtB4_10Transpiler17is_statement_expr
FN:883,_RNvMs_NtNtCs2RUqfoJCtLU_5ruchy7backend10transpilerNtB4_10Transpiler17transpile_minimal
FN:111,_RNvMs_NtNtCs2RUqfoJCtLU_5ruchy7backend10transpilerNtB4_10Transpiler18analyze_mutability
FN:332,_RNvMs_NtNtCs2RUqfoJCtLU_5ruchy7backend10transpilerNtB4_10Transpiler18contains_dataframe
FN:864,_RNvMs_NtNtCs2RUqfoJCtLU_5ruchy7backend10transpilerNtB4_10Transpiler19transpile_to_string
FN:361,_RNvMs_NtNtCs2RUqfoJCtLU_5ruchy7backend10transpilerNtB4_10Transpiler20transpile_to_program
FN:795,_RNvMs_NtNtCs2RUqfoJCtLU_5ruchy7backend10transpilerNtB4_10Transpiler22wrap_statement_in_main
FN:162,_RNvMs_NtNtCs2RUqfoJCtLU_5ruchy7backend10transpilerNtB4_10Transpiler23analyze_expr_mutability
FN:448,_RNvMs_NtNtCs2RUqfoJCtLU_5ruchy7backend10transpilerNtB4_10Transpiler23transpile_program_block
FN:888,_RNvMs_NtNtCs2RUqfoJCtLU_5ruchy7backend10transpilerNtB4_10Transpiler24is_rust_reserved_keyword
FN:400,_RNvMs_NtNtCs2RUqfoJCtLU_5ruchy7backend10transpilerNtB4_10Transpiler25transpile_single_function
FN:746,_RNvMs_NtNtCs2RUqfoJCtLU_5ruchy7backend10transpilerNtB4_10Transpiler26extract_main_function_body
FN:118,_RNvMs_NtNtCs2RUqfoJCtLU_5ruchy7backend10transpilerNtB4_10Transpiler27collect_function_signatures
FN:460,_RNvMs_NtNtCs2RUqfoJCtLU_5ruchy7backend10transpilerNtB4_10Transpiler28categorize_block_expressions
FN:124,_RNvMs_NtNtCs2RUqfoJCtLU_5ruchy7backend10transpilerNtB4_10Transpiler28collect_signatures_from_expr
FN:264,_RNvMs_NtNtCs2RUqfoJCtLU_5ruchy7backend10transpilerNtB4_10Transpiler28resolve_imports_with_context
FN:782,_RNvMs_NtNtCs2RUqfoJCtLU_5ruchy7backend10transpilerNtB4_10Transpiler28transpile_expression_program
FN:514,_RNvMs_NtNtCs2RUqfoJCtLU_5ruchy7backend10transpilerNtB4_10Transpiler28transpile_module_declaration
FN:93,_RNvMs_NtNtCs2RUqfoJCtLU_5ruchy7backend10transpilerNtB4_10Transpiler30generate_value_printing_tokens
FN:755,_RNvMs_NtNtCs2RUqfoJCtLU_5ruchy7backend10transpilerNtB4_10Transpiler30transpile_block_with_functions
FN:548,_RNvMs_NtNtCs2RUqfoJCtLU_5ruchy7backend10transpilerNtB4_10Transpiler30transpile_statement_only_block
FN:78,_RNvMs_NtNtCs2RUqfoJCtLU_5ruchy7backend10transpilerNtB4_10Transpiler31generate_result_printing_tokens
FN:381,_RNvMs_NtNtCs2RUqfoJCtLU_5ruchy7backend10transpilerNtB4_10Transpiler33transpile_to_program_with_context
FN:825,_RNvMs_NtNtCs2RUqfoJCtLU_5ruchy7backend10transpilerNtB4_10Transpiler33wrap_in_main_with_result_printing
FN:648,_RNvMs_NtNtCs2RUqfoJCtLU_5ruchy7backend10transpilerNtB4_10Transpiler34transpile_block_with_main_function
FN:68,_RNvMs_NtNtCs2RUqfoJCtLU_5ruchy7backend10transpilerNtB4_10Transpiler3new
FN:295,_RNvMs_NtNtCs2RUqfoJCtLU_5ruchy7backend10transpilerNtB4_10Transpiler9transpile
FN:52,_RNvXNtNtCs2RUqfoJCtLU_5ruchy7backend10transpilerNtB2_10TranspilerNtNtCs66KPHxksi63_4core7default7Default7default
FN:257,_RNvMs_NtNtCs2RUqfoJCtLU_5ruchy7backend10transpilerNtB4_10Transpiler15resolve_imports
FNDA:0,_RNCNvMs_NtNtCs2RUqfoJCtLU_5ruchy7backend10transpilerNtB6_10Transpiler28collect_signatures_from_expr0Ba_
FNDA:0,_RNCNvMs_NtNtCs2RUqfoJCtLU_5ruchy7backend10transpilerNtB6_10Transpiler30transpile_statement_only_blocks_0Ba_
FNDA:0,_RNCNvMs_NtNtCs2RUqfoJCtLU_5ruchy7backend10transpilerNtB6_10Transpiler16contains_hashmap0Ba_
FNDA:0,_RNCNvMs_NtNtCs2RUqfoJCtLU_5ruchy7backend10transpilerNtB6_10Transpiler17is_statement_expr0Ba_
FNDA:0,_RNCNvMs_NtNtCs2RUqfoJCtLU_5ruchy7backend10transpilerNtB6_10Transpiler30transpile_statement_only_block0Ba_
FNDA:0,_RNvMs_NtNtCs2RUqfoJCtLU_5ruchy7backend10transpilerNtB4_10Transpiler14transpile_expr
FNDA:0,_RNvMs_NtNtCs2RUqfoJCtLU_5ruchy7backend10transpilerNtB4_10Transpiler14type_to_string
FNDA:0,_RNvMs_NtNtCs2RUqfoJCtLU_5ruchy7backend10transpilerNtB4_10Transpiler16contains_hashmap
FNDA:0,_RNvMs_NtNtCs2RUqfoJCtLU_5ruchy7backend10transpilerNtB4_10Transpiler17is_statement_expr
FNDA:0,_RNvMs_NtNtCs2RUqfoJCtLU_5ruchy7backend10transpilerNtB4_10Transpiler17transpile_minimal
FNDA:0,_RNvMs_NtNtCs2RUqfoJCtLU_5ruchy7backend10transpilerNtB4_10Transpiler18analyze_mutability
FNDA:0,_RNvMs_NtNtCs2RUqfoJCtLU_5ruchy7backend10transpilerNtB4_10Transpiler18contains_dataframe
FNDA:0,_RNvMs_NtNtCs2RUqfoJCtLU_5ruchy7backend10transpilerNtB4_10Transpiler19transpile_to_string
FNDA:0,_RNvMs_NtNtCs2RUqfoJCtLU_5ruchy7backend10transpilerNtB4_10Transpiler20transpile_to_program
FNDA:0,_RNvMs_NtNtCs2RUqfoJCtLU_5ruchy7backend10transpilerNtB4_10Transpiler22wrap_statement_in_main
FNDA:0,_RNvMs_NtNtCs2RUqfoJCtLU_5ruchy7backend10transpilerNtB4_10Transpiler23analyze_expr_mutability
FNDA:0,_RNvMs_NtNtCs2RUqfoJCtLU_5ruchy7backend10transpilerNtB4_10Transpiler23transpile_program_block
FNDA:0,_RNvMs_NtNtCs2RUqfoJCtLU_5ruchy7backend10transpilerNtB4_10Transpiler24is_rust_reserved_keyword
FNDA:0,_RNvMs_NtNtCs2RUqfoJCtLU_5ruchy7backend10transpilerNtB4_10Transpiler25transpile_single_function
FNDA:0,_RNvMs_NtNtCs2RUqfoJCtLU_5ruchy7backend10transpilerNtB4_10Transpiler26extract_main_function_body
FNDA:0,_RNvMs_NtNtCs2RUqfoJCtLU_5ruchy7backend10transpilerNtB4_10Transpiler27collect_function_signatures
FNDA:0,_RNvMs_NtNtCs2RUqfoJCtLU_5ruchy7backend10transpilerNtB4_10Transpiler28categorize_block_expressions
FNDA:0,_RNvMs_NtNtCs2RUqfoJCtLU_5ruchy7backend10transpilerNtB4_10Transpiler28collect_signatures_from_expr
FNDA:0,_RNvMs_NtNtCs2RUqfoJCtLU_5ruchy7backend10transpilerNtB4_10Transpiler28resolve_imports_with_context
FNDA:0,_RNvMs_NtNtCs2RUqfoJCtLU_5ruchy7backend10transpilerNtB4_10Transpiler28transpile_expression_program
FNDA:0,_RNvMs_NtNtCs2RUqfoJCtLU_5ruchy7backend10transpilerNtB4_10Transpiler28transpile_module_declaration
FNDA:0,_RNvMs_NtNtCs2RUqfoJCtLU_5ruchy7backend10transpilerNtB4_10Transpiler30generate_value_printing_tokens
FNDA:0,_RNvMs_NtNtCs2RUqfoJCtLU_5ruchy7backend10transpilerNtB4_10Transpiler30transpile_block_with_functions
FNDA:0,_RNvMs_NtNtCs2RUqfoJCtLU_5ruchy7backend10transpilerNtB4_10Transpiler30transpile_statement_only_block
FNDA:0,_RNvMs_NtNtCs2RUqfoJCtLU_5ruchy7backend10transpilerNtB4_10Transpiler31generate_result_printing_tokens
FNDA:0,_RNvMs_NtNtCs2RUqfoJCtLU_5ruchy7backend10transpilerNtB4_10Transpiler33transpile_to_program_with_context
FNDA:0,_RNvMs_NtNtCs2RUqfoJCtLU_5ruchy7backend10transpilerNtB4_10Transpiler33wrap_in_main_with_result_printing
FNDA:0,_RNvMs_NtNtCs2RUqfoJCtLU_5ruchy7backend10transpilerNtB4_10Transpiler34transpile_block_with_main_function
FNDA:35,_RNvMs_NtNtCs2RUqfoJCtLU_5ruchy7backend10transpilerNtB4_10Transpiler3new
FNDA:0,_RNvMs_NtNtCs2RUqfoJCtLU_5ruchy7backend10transpilerNtB4_10Transpiler9transpile
FNDA:0,_RNvXNtNtCs2RUqfoJCtLU_5ruchy7backend10transpilerNtB2_10TranspilerNtNtCs66KPHxksi63_4core7default7Default7default
FNDA:0,_RNvMs_NtNtCs2RUqfoJCtLU_5ruchy7backend10transpilerNtB4_10Transpiler15resolve_imports
FNF:37
FNH:1
DA:52,0
DA:53,0
DA:54,0
DA:68,35
DA:69,35
DA:70,35
DA:71,35
DA:72,35
DA:73,35
DA:74,35
DA:78,0
DA:79,0
DA:90,0
DA:93,0
DA:94,0
DA:108,0
DA:111,0
DA:112,0
DA:113,0
DA:114,0
DA:115,0
DA:118,0
DA:119,0
DA:120,0
DA:121,0
DA:122,0
DA:124,0
DA:127,0
DA:128,0
DA:129,0
DA:130,0
DA:131,0
DA:133,0
DA:134,0
DA:135,0
DA:136,0
DA:138,0
DA:140,0
DA:141,0
DA:142,0
DA:143,0
DA:145,0
DA:146,0
DA:147,0
DA:148,0
DA:150,0
DA:152,0
DA:155,0
DA:156,0
DA:157,0
DA:158,0
DA:160,0
DA:162,0
DA:165,0
DA:167,0
DA:168,0
DA:169,0
DA:170,0
DA:171,0
DA:174,0
DA:175,0
DA:176,0
DA:177,0
DA:178,0
DA:181,0
DA:182,0
DA:183,0
DA:184,0
DA:185,0
DA:186,0
DA:187,0
DA:190,0
DA:191,0
DA:192,0
DA:193,0
DA:196,0
DA:197,0
DA:198,0
DA:199,0
DA:200,0
DA:201,0
DA:203,0
DA:204,0
DA:205,0
DA:206,0
DA:207,0
DA:208,0
DA:209,0
DA:210,0
DA:212,0
DA:213,0
DA:214,0
DA:215,0
DA:216,0
DA:219,0
DA:220,0
DA:221,0
DA:222,0
DA:224,0
DA:225,0
DA:226,0
DA:227,0
DA:228,0
DA:229,0
DA:231,0
DA:232,0
DA:233,0
DA:234,0
DA:235,0
DA:236,0
DA:237,0
DA:239,0
DA:240,0
DA:241,0
DA:242,0
DA:243,0
DA:245,0
DA:246,0
DA:247,0
DA:248,0
DA:249,0
DA:251,0
DA:253,0
DA:257,0
DA:259,0
DA:260,0
DA:261,0
DA:264,0
DA:265,0
DA:268,0
DA:269,0
DA:270,0
DA:271,0
DA:272,0
DA:274,0
DA:275,0
DA:295,0
DA:296,0
DA:297,0
DA:300,0
DA:303,0
DA:304,0
DA:305,0
DA:307,0
DA:308,0
DA:310,0
DA:313,0
DA:315,0
DA:317,0
DA:318,0
DA:319,0
DA:320,0
DA:321,0
DA:322,0
DA:324,0
DA:325,0
DA:327,0
DA:329,0
DA:332,0
DA:333,0
DA:334,0
DA:337,0
DA:361,0
DA:363,0
DA:364,0
DA:365,0
DA:366,0
DA:367,0
DA:368,0
DA:369,0
DA:371,0
DA:372,0
DA:373,0
DA:374,0
DA:375,0
DA:376,0
DA:377,0
DA:378,0
DA:381,0
DA:383,0
DA:384,0
DA:385,0
DA:387,0
DA:388,0
DA:389,0
DA:391,0
DA:392,0
DA:395,0
DA:398,0
DA:400,0
DA:402,0
DA:403,0
DA:404,0
DA:406,0
DA:408,0
DA:409,0
DA:410,0
DA:411,0
DA:412,0
DA:413,0
DA:414,0
DA:415,0
DA:416,0
DA:417,0
DA:418,0
DA:419,0
DA:420,0
DA:421,0
DA:422,0
DA:423,0
DA:424,0
DA:425,0
DA:426,0
DA:427,0
DA:428,0
DA:429,0
DA:430,0
DA:431,0
DA:432,0
DA:433,0
DA:434,0
DA:435,0
DA:436,0
DA:437,0
DA:438,0
DA:439,0
DA:440,0
DA:441,0
DA:442,0
DA:443,0
DA:444,0
DA:446,0
DA:448,0
DA:449,0
DA:451,0
DA:452,0
DA:453,0
DA:454,0
DA:456,0
DA:458,0
DA:460,0
DA:461,0
DA:462,0
DA:463,0
DA:464,0
DA:465,0
DA:468,0
DA:469,0
DA:470,0
DA:471,0
DA:472,0
DA:473,0
DA:474,0
DA:476,0
DA:479,0
DA:481,0
DA:483,0
DA:485,0
DA:486,0
DA:487,0
DA:489,0
DA:490,0
DA:491,0
DA:492,0
DA:495,0
DA:499,0
DA:501,0
DA:502,0
DA:503,0
DA:504,0
DA:505,0
DA:506,0
DA:511,0
DA:512,0
DA:514,0
DA:515,0
DA:518,0
DA:520,0
DA:522,0
DA:523,0
DA:526,0
DA:530,0
DA:535,0
DA:538,0
DA:541,0
DA:542,0
DA:543,0
DA:544,0
DA:545,0
DA:546,0
DA:548,0
DA:550,0
DA:552,0
DA:554,0
DA:556,0
DA:559,0
DA:563,0
DA:564,0
DA:565,0
DA:567,0
DA:568,0
DA:571,0
DA:573,0
DA:574,0
DA:577,0
DA:578,0
DA:579,0
DA:580,0
DA:586,0
DA:591,0
DA:592,0
DA:593,0
DA:594,0
DA:595,0
DA:596,0
DA:597,0
DA:598,0
DA:599,0
DA:600,0
DA:601,0
DA:602,0
DA:603,0
DA:604,0
DA:605,0
DA:606,0
DA:607,0
DA:608,0
DA:609,0
DA:610,0
DA:611,0
DA:612,0
DA:613,0
DA:614,0
DA:615,0
DA:619,0
DA:620,0
DA:621,0
DA:623,0
DA:625,0
DA:626,0
DA:628,0
DA:630,0
DA:632,0
DA:634,0
DA:635,0
DA:636,0
DA:638,0
DA:642,0
DA:644,0
DA:646,0
DA:648,0
DA:649,0
DA:651,0
DA:652,0
DA:654,0
DA:657,0
DA:658,0
DA:665,0
DA:671,0
DA:677,0
DA:685,0
DA:686,0
DA:689,0
DA:692,0
DA:693,0
DA:706,0
DA:718,0
DA:730,0
DA:743,0
DA:746,0
DA:747,0
DA:749,0
DA:751,0
DA:753,0
DA:755,0
DA:757,0
DA:758,0
DA:764,0
DA:769,0
DA:774,0
DA:779,0
DA:782,0
DA:783,0
DA:786,0
DA:788,0
DA:791,0
DA:793,0
DA:795,0
DA:797,0
DA:798,0
DA:799,0
DA:800,0
DA:801,0
DA:802,0
DA:803,0
DA:804,0
DA:805,0
DA:806,0
DA:807,0
DA:808,0
DA:809,0
DA:810,0
DA:811,0
DA:812,0
DA:813,0
DA:814,0
DA:815,0
DA:816,0
DA:817,0
DA:818,0
DA:819,0
DA:820,0
DA:821,0
DA:823,0
DA:825,0
DA:826,0
DA:827,0
DA:828,0
DA:829,0
DA:830,0
DA:831,0
DA:832,0
DA:833,0
DA:834,0
DA:835,0
DA:836,0
DA:837,0
DA:838,0
DA:839,0
DA:840,0
DA:841,0
DA:842,0
DA:844,0
DA:845,0
DA:846,0
DA:847,0
DA:848,0
DA:849,0
DA:850,0
DA:853,0
DA:854,0
DA:855,0
DA:856,0
DA:857,0
DA:858,0
DA:861,0
DA:864,0
DA:865,0
DA:868,0
DA:869,0
DA:872,0
DA:873,0
DA:874,0
DA:875,0
DA:876,0
DA:879,0
DA:880,0
DA:883,0
DA:884,0
DA:885,0
DA:888,0
DA:890,0
DA:891,0
DA:892,0
DA:893,0
DA:894,0
DA:895,0
DA:896,0
DA:897,0
DA:899,0
DA:906,0
DA:916,0
DA:919,0
DA:936,0
DA:940,0
DA:946,0
DA:961,0
DA:964,0
DA:967,0
DA:969,0
BRF:0
BRH:0
LF:486
LH:7
end_of_record
SF:/home/noah/src/ruchy/src/backend/transpiler/patterns.rs
FN:106,_RNCNvMNtNtNtCs2RUqfoJCtLU_5ruchy7backend10transpiler8patternsNtB6_10Transpiler17transpile_pattern0Ba_
FN:139,_RNCNvMNtNtNtCs2RUqfoJCtLU_5ruchy7backend10transpiler8patternsNtB6_10Transpiler17transpile_patterns1_0Ba_
FN:160,_RNCNvMNtNtNtCs2RUqfoJCtLU_5ruchy7backend10transpiler8patternsNtB6_10Transpiler17transpile_patterns2_0Ba_
FN:181,_RNCNvMNtNtNtCs2RUqfoJCtLU_5ruchy7backend10transpiler8patternsNtB6_10Transpiler17transpile_patterns3_0Ba_
FN:111,_RNCNvMNtNtNtCs2RUqfoJCtLU_5ruchy7backend10transpiler8patternsNtB6_10Transpiler17transpile_patterns_0Ba_
FN:120,_RNCNvMNtNtNtCs2RUqfoJCtLU_5ruchy7backend10transpiler8patternsNtB6_10Transpiler17transpile_patterns0_0Ba_
FN:30,_RNvMNtNtNtCs2RUqfoJCtLU_5ruchy7backend10transpiler8patternsNtB4_10Transpiler15transpile_match
FN:96,_RNvMNtNtNtCs2RUqfoJCtLU_5ruchy7backend10transpiler8patternsNtB4_10Transpiler17transpile_pattern
FNDA:0,_RNCNvMNtNtNtCs2RUqfoJCtLU_5ruchy7backend10transpiler8patternsNtB6_10Transpiler17transpile_pattern0Ba_
FNDA:0,_RNCNvMNtNtNtCs2RUqfoJCtLU_5ruchy7backend10transpiler8patternsNtB6_10Transpiler17transpile_patterns1_0Ba_
FNDA:0,_RNCNvMNtNtNtCs2RUqfoJCtLU_5ruchy7backend10transpiler8patternsNtB6_10Transpiler17transpile_patterns2_0Ba_
FNDA:0,_RNCNvMNtNtNtCs2RUqfoJCtLU_5ruchy7backend10transpiler8patternsNtB6_10Transpiler17transpile_patterns3_0Ba_
FNDA:0,_RNCNvMNtNtNtCs2RUqfoJCtLU_5ruchy7backend10transpiler8patternsNtB6_10Transpiler17transpile_patterns_0Ba_
FNDA:0,_RNCNvMNtNtNtCs2RUqfoJCtLU_5ruchy7backend10transpiler8patternsNtB6_10Transpiler17transpile_patterns0_0Ba_
FNDA:0,_RNvMNtNtNtCs2RUqfoJCtLU_5ruchy7backend10transpiler8patternsNtB4_10Transpiler15transpile_match
FNDA:0,_RNvMNtNtNtCs2RUqfoJCtLU_5ruchy7backend10transpiler8patternsNtB4_10Transpiler17transpile_pattern
FNF:8
FNH:0
DA:30,0
DA:31,0
DA:33,0
DA:34,0
DA:35,0
DA:36,0
DA:39,0
DA:40,0
DA:41,0
DA:44,0
DA:45,0
DA:46,0
DA:47,0
DA:48,0
DA:51,0
DA:56,0
DA:96,0
DA:97,0
DA:98,0
DA:99,0
DA:100,0
DA:101,0
DA:102,0
DA:104,0
DA:106,0
DA:107,0
DA:109,0
DA:110,0
DA:111,0
DA:112,0
DA:113,0
DA:115,0
DA:116,0
DA:117,0
DA:120,0
DA:122,0
DA:124,0
DA:125,0
DA:126,0
DA:127,0
DA:128,0
DA:129,0
DA:130,0
DA:131,0
DA:132,0
DA:135,0
DA:138,0
DA:139,0
DA:140,0
DA:141,0
DA:145,0
DA:147,0
DA:150,0
DA:151,0
DA:153,0
DA:155,0
DA:156,0
DA:158,0
DA:159,0
DA:160,0
DA:161,0
DA:162,0
DA:163,0
DA:164,0
DA:167,0
DA:169,0
DA:170,0
DA:171,0
DA:172,0
DA:173,0
DA:175,0
DA:179,0
DA:180,0
DA:181,0
DA:182,0
DA:185,0
DA:186,0
DA:187,0
DA:188,0
DA:189,0
DA:190,0
DA:192,0
DA:195,0
DA:196,0
DA:197,0
DA:199,0
DA:200,0
DA:202,0
DA:203,0
DA:205,0
DA:208,0
DA:209,0
DA:210,0
DA:211,0
DA:213,0
DA:214,0
DA:215,0
DA:217,0
DA:218,0
DA:219,0
DA:221,0
DA:222,0
DA:223,0
DA:225,0
DA:226,0
DA:229,0
DA:232,0
BRF:0
BRH:0
LF:113
LH:0
end_of_record
SF:/home/noah/src/ruchy/src/backend/transpiler/result_type.rs
FN:190,_RNCNvMNtNtNtCs2RUqfoJCtLU_5ruchy7backend10transpiler11result_typeNtB6_10Transpiler20transpile_error_type0Ba_
FN:178,_RNvMNtNtNtCs2RUqfoJCtLU_5ruchy7backend10transpiler11result_typeNtB4_10Transpiler20transpile_error_type
FN:168,_RNvMNtNtNtCs2RUqfoJCtLU_5ruchy7backend10transpiler11result_typeNtB4_10Transpiler20transpile_result_map
FN:142,_RNvMNtNtNtCs2RUqfoJCtLU_5ruchy7backend10transpiler11result_typeNtB4_10Transpiler22transpile_result_chain
FN:100,_RNvMNtNtNtCs2RUqfoJCtLU_5ruchy7backend10transpiler11result_typeNtB4_10Transpiler22transpile_result_match
FN:31,_RNvMNtNtNtCs2RUqfoJCtLU_5ruchy7backend10transpiler11result_typeNtB4_10Transpiler23generate_result_helpers
FN:158,_RNvMNtNtNtCs2RUqfoJCtLU_5ruchy7backend10transpiler11result_typeNtB4_10Transpiler26transpile_result_unwrap_or
FNDA:0,_RNCNvMNtNtNtCs2RUqfoJCtLU_5ruchy7backend10transpiler11result_typeNtB6_10Transpiler20transpile_error_type0Ba_
FNDA:0,_RNvMNtNtNtCs2RUqfoJCtLU_5ruchy7backend10transpiler11result_typeNtB4_10Transpiler20transpile_error_type
FNDA:0,_RNvMNtNtNtCs2RUqfoJCtLU_5ruchy7backend10transpiler11result_typeNtB4_10Transpiler20transpile_result_map
FNDA:0,_RNvMNtNtNtCs2RUqfoJCtLU_5ruchy7backend10transpiler11result_typeNtB4_10Transpiler22transpile_result_chain
FNDA:0,_RNvMNtNtNtCs2RUqfoJCtLU_5ruchy7backend10transpiler11result_typeNtB4_10Transpiler22transpile_result_match
FNDA:0,_RNvMNtNtNtCs2RUqfoJCtLU_5ruchy7backend10transpiler11result_typeNtB4_10Transpiler23generate_result_helpers
FNDA:0,_RNvMNtNtNtCs2RUqfoJCtLU_5ruchy7backend10transpiler11result_typeNtB4_10Transpiler26transpile_result_unwrap_or
FNF:7
FNH:0
DA:31,0
DA:32,0
DA:82,0
DA:100,0
DA:101,0
DA:102,0
DA:103,0
DA:104,0
DA:105,0
DA:106,0
DA:108,0
DA:109,0
DA:110,0
DA:111,0
DA:112,0
DA:113,0
DA:115,0
DA:117,0
DA:120,0
DA:125,0
DA:142,0
DA:143,0
DA:144,0
DA:145,0
DA:147,0
DA:149,0
DA:150,0
DA:151,0
DA:154,0
DA:155,0
DA:158,0
DA:159,0
DA:160,0
DA:162,0
DA:163,0
DA:164,0
DA:165,0
DA:168,0
DA:169,0
DA:170,0
DA:172,0
DA:173,0
DA:174,0
DA:175,0
DA:178,0
DA:179,0
DA:180,0
DA:181,0
DA:182,0
DA:183,0
DA:184,0
DA:186,0
DA:187,0
DA:188,0
DA:190,0
DA:192,0
DA:193,0
DA:194,0
DA:196,0
DA:198,0
DA:201,0
DA:215,0
BRF:0
BRH:0
LF:63
LH:0
end_of_record
SF:/home/noah/src/ruchy/src/backend/transpiler/statements.rs
FN:504,_RNCNCNCNvMNtNtNtCs2RUqfoJCtLU_5ruchy7backend10transpiler10statementsNtBa_10Transpiler27generate_function_signature000Be_
FN:466,_RNCNCNvMNtNtNtCs2RUqfoJCtLU_5ruchy7backend10transpiler10statementsNtB8_10Transpiler26generate_type_param_tokens00Bc_
FN:504,_RNCNCNvMNtNtNtCs2RUqfoJCtLU_5ruchy7backend10transpiler10statementsNtB8_10Transpiler27generate_function_signature00Bc_
FN:1918,_RNCNvMNtNtNtCs2RUqfoJCtLU_5ruchy7backend10transpiler10statementsNtB6_10Transpiler16transpile_export0Ba_
FN:582,_RNCNvMNtNtNtCs2RUqfoJCtLU_5ruchy7backend10transpiler10statementsNtB6_10Transpiler16transpile_lambda0Ba_
FN:1052,_RNCNvMNtNtNtCs2RUqfoJCtLU_5ruchy7backend10transpiler10statementsNtB6_10Transpiler18transpile_pipeline0Ba_
FN:1061,_RNCNvMNtNtNtCs2RUqfoJCtLU_5ruchy7backend10transpiler10statementsNtB6_10Transpiler18transpile_pipelines_0Ba_
FN:1902,_RNCNvMNtNtNtCs2RUqfoJCtLU_5ruchy7backend10transpiler10statementsNtB6_10Transpiler20process_import_items0Ba_
FN:369,_RNCNvMNtNtNtCs2RUqfoJCtLU_5ruchy7backend10transpiler10statementsNtB6_10Transpiler21generate_param_tokens0Ba_
FN:771,_RNCNvMNtNtNtCs2RUqfoJCtLU_5ruchy7backend10transpiler10statementsNtB6_10Transpiler25transpile_method_call_old0Ba_
FN:1973,_RNCNvMNtNtNtCs2RUqfoJCtLU_5ruchy7backend10transpiler10statementsNtB6_10Transpiler25try_transpile_print_macro0Ba_
FN:463,_RNCNvMNtNtNtCs2RUqfoJCtLU_5ruchy7backend10transpiler10statementsNtB6_10Transpiler26generate_type_param_tokens0Ba_
FN:498,_RNCNvMNtNtNtCs2RUqfoJCtLU_5ruchy7backend10transpiler10statementsNtB6_10Transpiler27generate_function_signature0Ba_
FN:1990,_RNCNvMNtNtNtCs2RUqfoJCtLU_5ruchy7backend10transpiler10statementsNtB6_10Transpiler29transpile_print_multiple_args0Ba_
FN:2034,_RNCNvMNtNtNtCs2RUqfoJCtLU_5ruchy7backend10transpiler10statementsNtB6_10Transpiler29transpile_print_multiple_argss0_0Ba_
FN:2023,_RNCNvMNtNtNtCs2RUqfoJCtLU_5ruchy7backend10transpiler10statementsNtB6_10Transpiler29transpile_print_multiple_argss_0Ba_
FN:2559,_RNCNvMNtNtNtCs2RUqfoJCtLU_5ruchy7backend10transpiler10statementsNtB6_10Transpiler31transpile_regular_function_call0Ba_
FN:2571,_RNCNvMNtNtNtCs2RUqfoJCtLU_5ruchy7backend10transpiler10statementsNtB6_10Transpiler31transpile_regular_function_calls_0Ba_
FN:599,_RNCNvMNtNtNtCs2RUqfoJCtLU_5ruchy7backend10transpiler10statementsNtB6_10Transpiler16transpile_lambdas_0Ba_
FN:320,_RNCNvMNtNtNtCs2RUqfoJCtLU_5ruchy7backend10transpiler10statementsNtB6_10Transpiler18is_void_expression0Ba_
FN:331,_RNCNvMNtNtNtCs2RUqfoJCtLU_5ruchy7backend10transpiler10statementsNtB6_10Transpiler18is_void_expressions0_0Ba_
FN:326,_RNCNvMNtNtNtCs2RUqfoJCtLU_5ruchy7backend10transpiler10statementsNtB6_10Transpiler18is_void_expressions_0Ba_
FN:555,_RNCNvMNtNtNtCs2RUqfoJCtLU_5ruchy7backend10transpiler10statementsNtB6_10Transpiler18transpile_function0Ba_
FN:51,_RNCNvMNtNtNtCs2RUqfoJCtLU_5ruchy7backend10transpiler10statementsNtB6_10Transpiler19is_variable_mutated0Ba_
FN:71,_RNCNvMNtNtNtCs2RUqfoJCtLU_5ruchy7backend10transpiler10statementsNtB6_10Transpiler19is_variable_mutateds0_0Ba_
FN:97,_RNCNvMNtNtNtCs2RUqfoJCtLU_5ruchy7backend10transpiler10statementsNtB6_10Transpiler19is_variable_mutateds1_0Ba_
FN:101,_RNCNvMNtNtNtCs2RUqfoJCtLU_5ruchy7backend10transpiler10statementsNtB6_10Transpiler19is_variable_mutateds2_0Ba_
FN:57,_RNCNvMNtNtNtCs2RUqfoJCtLU_5ruchy7backend10transpiler10statementsNtB6_10Transpiler19is_variable_mutateds_0Ba_
FN:1391,_RNCNvMNtNtNtCs2RUqfoJCtLU_5ruchy7backend10transpiler10statementsNtB6_10Transpiler33transpile_std_fs_import_with_path0Ba_
FN:109,_RNvMNtNtNtCs2RUqfoJCtLU_5ruchy7backend10transpiler10statementsNtB4_10Transpiler12transpile_if
FN:2084,_RNvMNtNtNtCs2RUqfoJCtLU_5ruchy7backend10transpiler10statementsNtB4_10Transpiler13transpile_abs
FN:1078,_RNvMNtNtNtCs2RUqfoJCtLU_5ruchy7backend10transpiler10statementsNtB4_10Transpiler13transpile_for
FN:137,_RNvMNtNtNtCs2RUqfoJCtLU_5ruchy7backend10transpiler10statementsNtB4_10Transpiler13transpile_let
FN:2109,_RNvMNtNtNtCs2RUqfoJCtLU_5ruchy7backend10transpiler10statementsNtB4_10Transpiler13transpile_max
FN:2096,_RNvMNtNtNtCs2RUqfoJCtLU_5ruchy7backend10transpiler10statementsNtB4_10Transpiler13transpile_min
FN:2078,_RNvMNtNtNtCs2RUqfoJCtLU_5ruchy7backend10transpiler10statementsNtB4_10Transpiler13transpile_pow
FN:1846,_RNvMNtNtNtCs2RUqfoJCtLU_5ruchy7backend10transpiler10statementsNtB4_10Transpiler14path_to_tokens
FN:639,_RNvMNtNtNtCs2RUqfoJCtLU_5ruchy7backend10transpiler10statementsNtB4_10Transpiler14transpile_call
FN:2127,_RNvMNtNtNtCs2RUqfoJCtLU_5ruchy7backend10transpiler10statementsNtB4_10Transpiler14transpile_ceil
FN:1161,_RNvMNtNtNtCs2RUqfoJCtLU_5ruchy7backend10transpiler10statementsNtB4_10Transpiler14transpile_loop
FN:2073,_RNvMNtNtNtCs2RUqfoJCtLU_5ruchy7backend10transpiler10statementsNtB4_10Transpiler14transpile_sqrt
FN:1013,_RNvMNtNtNtCs2RUqfoJCtLU_5ruchy7backend10transpiler10statementsNtB4_10Transpiler15transpile_block
FN:2122,_RNvMNtNtNtCs2RUqfoJCtLU_5ruchy7backend10transpiler10statementsNtB4_10Transpiler15transpile_floor
FN:2132,_RNvMNtNtNtCs2RUqfoJCtLU_5ruchy7backend10transpiler10statementsNtB4_10Transpiler15transpile_round
FN:1102,_RNvMNtNtNtCs2RUqfoJCtLU_5ruchy7backend10transpiler10statementsNtB4_10Transpiler15transpile_while
FN:351,_RNvMNtNtNtCs2RUqfoJCtLU_5ruchy7backend10transpiler10statementsNtB4_10Transpiler16infer_param_type
FN:1917,_RNvMNtNtNtCs2RUqfoJCtLU_5ruchy7backend10transpiler10statementsNtB4_10Transpiler16transpile_export
FN:1114,_RNvMNtNtNtCs2RUqfoJCtLU_5ruchy7backend10transpiler10statementsNtB4_10Transpiler16transpile_if_let
FN:1273,_RNvMNtNtNtCs2RUqfoJCtLU_5ruchy7backend10transpiler10statementsNtB4_10Transpiler16transpile_import
FN:579,_RNvMNtNtNtCs2RUqfoJCtLU_5ruchy7backend10transpiler10statementsNtB4_10Transpiler16transpile_lambda
FN:1260,_RNvMNtNtNtCs2RUqfoJCtLU_5ruchy7backend10transpiler10statementsNtB4_10Transpiler16transpile_module
FN:297,_RNvMNtNtNtCs2RUqfoJCtLU_5ruchy7backend10transpiler10statementsNtB4_10Transpiler18is_void_expression
FN:539,_RNvMNtNtNtCs2RUqfoJCtLU_5ruchy7backend10transpiler10statementsNtB4_10Transpiler18transpile_function
FN:1040,_RNvMNtNtNtCs2RUqfoJCtLU_5ruchy7backend10transpiler10statementsNtB4_10Transpiler18transpile_pipeline
FN:15,_RNvMNtNtNtCs2RUqfoJCtLU_5ruchy7backend10transpiler10statementsNtB4_10Transpiler19is_variable_mutated
FN:1172,_RNvMNtNtNtCs2RUqfoJCtLU_5ruchy7backend10transpiler10statementsNtB4_10Transpiler19transpile_try_catch
FN:1144,_RNvMNtNtNtCs2RUqfoJCtLU_5ruchy7backend10transpiler10statementsNtB4_10Transpiler19transpile_while_let
FN:408,_RNvMNtNtNtCs2RUqfoJCtLU_5ruchy7backend10transpiler10statementsNtB4_10Transpiler20generate_body_tokens
FN:1899,_RNvMNtNtNtCs2RUqfoJCtLU_5ruchy7backend10transpiler10statementsNtB4_10Transpiler20process_import_items
FN:2579,_RNvMNtNtNtCs2RUqfoJCtLU_5ruchy7backend10transpiler10statementsNtB4_10Transpiler21apply_string_coercion
FN:366,_RNvMNtNtNtCs2RUqfoJCtLU_5ruchy7backend10transpiler10statementsNtB4_10Transpiler21generate_param_tokens
FN:1832,_RNvMNtNtNtCs2RUqfoJCtLU_5ruchy7backend10transpiler10statementsNtB4_10Transpiler21handle_generic_import
FN:274,_RNvMNtNtNtCs2RUqfoJCtLU_5ruchy7backend10transpiler10statementsNtB4_10Transpiler21is_void_function_call
FN:2278,_RNvMNtNtNtCs2RUqfoJCtLU_5ruchy7backend10transpiler10statementsNtB4_10Transpiler21transpile_int_generic
FN:238,_RNvMNtNtNtCs2RUqfoJCtLU_5ruchy7backend10transpiler10statementsNtB4_10Transpiler21transpile_let_pattern
FN:734,_RNvMNtNtNtCs2RUqfoJCtLU_5ruchy7backend10transpiler10statementsNtB4_10Transpiler21transpile_method_call
FN:343,_RNvMNtNtNtCs2RUqfoJCtLU_5ruchy7backend10transpiler10statementsNtB4_10Transpiler23has_non_unit_expression
FN:2312,_RNvMNtNtNtCs2RUqfoJCtLU_5ruchy7backend10transpiler10statementsNtB4_10Transpiler23transpile_float_generic
FN:1783,_RNvMNtNtNtCs2RUqfoJCtLU_5ruchy7backend10transpiler10statementsNtB4_10Transpiler23transpile_import_inline
FN:1794,_RNvMNtNtNtCs2RUqfoJCtLU_5ruchy7backend10transpiler10statementsNtB4_10Transpiler24handle_std_module_import
FN:2246,_RNvMNtNtNtCs2RUqfoJCtLU_5ruchy7backend10transpiler10statementsNtB4_10Transpiler24transpile_int_conversion
FN:888,_RNvMNtNtNtCs2RUqfoJCtLU_5ruchy7backend10transpiler10statementsNtB4_10Transpiler24transpile_set_operations
FN:1561,_RNvMNtNtNtCs2RUqfoJCtLU_5ruchy7backend10transpiler10statementsNtB4_10Transpiler24transpile_std_mem_import
FN:1511,_RNvMNtNtNtCs2RUqfoJCtLU_5ruchy7backend10transpiler10statementsNtB4_10Transpiler24transpile_std_net_import
FN:2237,_RNvMNtNtNtCs2RUqfoJCtLU_5ruchy7backend10transpiler10statementsNtB4_10Transpiler24transpile_str_conversion
FN:903,_RNvMNtNtNtCs2RUqfoJCtLU_5ruchy7backend10transpiler10statementsNtB4_10Transpiler24transpile_string_methods
FN:1864,_RNvMNtNtNtCs2RUqfoJCtLU_5ruchy7backend10transpiler10statementsNtB4_10Transpiler25handle_single_import_item
FN:2318,_RNvMNtNtNtCs2RUqfoJCtLU_5ruchy7backend10transpiler10statementsNtB4_10Transpiler25transpile_bool_conversion
FN:862,_RNvMNtNtNtCs2RUqfoJCtLU_5ruchy7backend10transpiler10statementsNtB4_10Transpiler25transpile_map_set_methods
FN:763,_RNvMNtNtNtCs2RUqfoJCtLU_5ruchy7backend10transpiler10statementsNtB4_10Transpiler25transpile_method_call_old
FN:1631,_RNvMNtNtNtCs2RUqfoJCtLU_5ruchy7backend10transpiler10statementsNtB4_10Transpiler25transpile_std_simd_import
FN:1943,_RNvMNtNtNtCs2RUqfoJCtLU_5ruchy7backend10transpiler10statementsNtB4_10Transpiler25try_transpile_print_macro
FN:2188,_RNvMNtNtNtCs2RUqfoJCtLU_5ruchy7backend10transpiler10statementsNtB4_10Transpiler26generate_input_with_prompt
FN:460,_RNvMNtNtNtCs2RUqfoJCtLU_5ruchy7backend10transpiler10statementsNtB4_10Transpiler26generate_type_param_tokens
FN:2284,_RNvMNtNtNtCs2RUqfoJCtLU_5ruchy7backend10transpiler10statementsNtB4_10Transpiler26transpile_float_conversion
FN:843,_RNvMNtNtNtCs2RUqfoJCtLU_5ruchy7backend10transpiler10statementsNtB4_10Transpiler26transpile_iterator_methods
FN:1715,_RNvMNtNtNtCs2RUqfoJCtLU_5ruchy7backend10transpiler10statementsNtB4_10Transpiler26transpile_std_bench_import
FN:1683,_RNvMNtNtNtCs2RUqfoJCtLU_5ruchy7backend10transpiler10statementsNtB4_10Transpiler26transpile_std_cache_import
FN:477,_RNvMNtNtNtCs2RUqfoJCtLU_5ruchy7backend10transpiler10statementsNtB4_10Transpiler27generate_function_signature
FN:1349,_RNvMNtNtNtCs2RUqfoJCtLU_5ruchy7backend10transpiler10statementsNtB4_10Transpiler27generate_read_file_function
FN:387,_RNvMNtNtNtCs2RUqfoJCtLU_5ruchy7backend10transpiler10statementsNtB4_10Transpiler27generate_return_type_tokens
FN:263,_RNvMNtNtNtCs2RUqfoJCtLU_5ruchy7backend10transpiler10statementsNtB4_10Transpiler27looks_like_numeric_function
FN:1484,_RNvMNtNtNtCs2RUqfoJCtLU_5ruchy7backend10transpiler10statementsNtB4_10Transpiler27transpile_std_signal_import
FN:1460,_RNvMNtNtNtCs2RUqfoJCtLU_5ruchy7backend10transpiler10statementsNtB4_10Transpiler27transpile_std_system_import
FN:2059,_RNvMNtNtNtCs2RUqfoJCtLU_5ruchy7backend10transpiler10statementsNtB4_10Transpiler27try_transpile_math_function
FN:1367,_RNvMNtNtNtCs2RUqfoJCtLU_5ruchy7backend10transpiler10statementsNtB4_10Transpiler28generate_all_file_operations
FN:1358,_RNvMNtNtNtCs2RUqfoJCtLU_5ruchy7backend10transpiler10statementsNtB4_10Transpiler28generate_write_file_function
FN:1890,_RNvMNtNtNtCs2RUqfoJCtLU_5ruchy7backend10transpiler10statementsNtB4_10Transpiler28handle_multiple_import_items
FN:1228,_RNvMNtNtNtCs2RUqfoJCtLU_5ruchy7backend10transpiler10statementsNtB4_10Transpiler28transpile_list_comprehension
FN:1437,_RNvMNtNtNtCs2RUqfoJCtLU_5ruchy7backend10transpiler10statementsNtB4_10Transpiler28transpile_std_process_import
FN:1752,_RNvMNtNtNtCs2RUqfoJCtLU_5ruchy7backend10transpiler10statementsNtB4_10Transpiler28transpile_std_profile_import
FN:2150,_RNvMNtNtNtCs2RUqfoJCtLU_5ruchy7backend10transpiler10statementsNtB4_10Transpiler28try_transpile_input_function
FN:2362,_RNvMNtNtNtCs2RUqfoJCtLU_5ruchy7backend10transpiler10statementsNtB4_10Transpiler28try_transpile_math_functions
FN:2171,_RNvMNtNtNtCs2RUqfoJCtLU_5ruchy7backend10transpiler10statementsNtB4_10Transpiler29generate_input_without_prompt
FN:1979,_RNvMNtNtNtCs2RUqfoJCtLU_5ruchy7backend10transpiler10statementsNtB4_10Transpiler29transpile_print_multiple_args
FN:1598,_RNvMNtNtNtCs2RUqfoJCtLU_5ruchy7backend10transpiler10statementsNtB4_10Transpiler29transpile_std_parallel_import
FN:2423,_RNvMNtNtNtCs2RUqfoJCtLU_5ruchy7backend10transpiler10statementsNtB4_10Transpiler29try_transpile_assert_function
FN:2218,_RNvMNtNtNtCs2RUqfoJCtLU_5ruchy7backend10transpiler10statementsNtB4_10Transpiler29try_transpile_type_conversion
FN:2549,_RNvMNtNtNtCs2RUqfoJCtLU_5ruchy7backend10transpiler10statementsNtB4_10Transpiler31transpile_regular_function_call
FN:2506,_RNvMNtNtNtCs2RUqfoJCtLU_5ruchy7backend10transpiler10statementsNtB4_10Transpiler32try_transpile_dataframe_function
FN:1378,_RNvMNtNtNtCs2RUqfoJCtLU_5ruchy7backend10transpiler10statementsNtB4_10Transpiler33transpile_std_fs_import_with_path
FN:2226,_RNvMNtNtNtCs2RUqfoJCtLU_5ruchy7backend10transpiler10statementsNtB4_10Transpiler33try_transpile_type_conversion_old
FN:690,_RNvMNtNtNtCs2RUqfoJCtLU_5ruchy7backend10transpiler10statementsNtB4_10Transpiler34transpile_print_with_interpolation
FN:2485,_RNvMNtNtNtCs2RUqfoJCtLU_5ruchy7backend10transpiler10statementsNtB4_10Transpiler36try_transpile_collection_constructor
FN:962,_RNvMNtNtNtCs2RUqfoJCtLU_5ruchy7backend10transpiler10statementsNtB4_10Transpiler37transpile_advanced_collection_methods
FN:1290,_RNCNvMNtNtNtCs2RUqfoJCtLU_5ruchy7backend10transpiler10statementsNtB6_10Transpiler23transpile_std_fs_import0Ba_
FN:1282,_RNvMNtNtNtCs2RUqfoJCtLU_5ruchy7backend10transpiler10statementsNtB4_10Transpiler23transpile_std_fs_import
FNDA:0,_RNCNCNCNvMNtNtNtCs2RUqfoJCtLU_5ruchy7backend10transpiler10statementsNtBa_10Transpiler27generate_function_signature000Be_
FNDA:0,_RNCNCNvMNtNtNtCs2RUqfoJCtLU_5ruchy7backend10transpiler10statementsNtB8_10Transpiler26generate_type_param_tokens00Bc_
FNDA:0,_RNCNCNvMNtNtNtCs2RUqfoJCtLU_5ruchy7backend10transpiler10statementsNtB8_10Transpiler27generate_function_signature00Bc_
FNDA:0,_RNCNvMNtNtNtCs2RUqfoJCtLU_5ruchy7backend10transpiler10statementsNtB6_10Transpiler16transpile_export0Ba_
FNDA:0,_RNCNvMNtNtNtCs2RUqfoJCtLU_5ruchy7backend10transpiler10statementsNtB6_10Transpiler16transpile_lambda0Ba_
FNDA:0,_RNCNvMNtNtNtCs2RUqfoJCtLU_5ruchy7backend10transpiler10statementsNtB6_10Transpiler18transpile_pipeline0Ba_
FNDA:0,_RNCNvMNtNtNtCs2RUqfoJCtLU_5ruchy7backend10transpiler10statementsNtB6_10Transpiler18transpile_pipelines_0Ba_
FNDA:0,_RNCNvMNtNtNtCs2RUqfoJCtLU_5ruchy7backend10transpiler10statementsNtB6_10Transpiler20process_import_items0Ba_
FNDA:0,_RNCNvMNtNtNtCs2RUqfoJCtLU_5ruchy7backend10transpiler10statementsNtB6_10Transpiler21generate_param_tokens0Ba_
FNDA:0,_RNCNvMNtNtNtCs2RUqfoJCtLU_5ruchy7backend10transpiler10statementsNtB6_10Transpiler25transpile_method_call_old0Ba_
FNDA:0,_RNCNvMNtNtNtCs2RUqfoJCtLU_5ruchy7backend10transpiler10statementsNtB6_10Transpiler25try_transpile_print_macro0Ba_
FNDA:0,_RNCNvMNtNtNtCs2RUqfoJCtLU_5ruchy7backend10transpiler10statementsNtB6_10Transpiler26generate_type_param_tokens0Ba_
FNDA:0,_RNCNvMNtNtNtCs2RUqfoJCtLU_5ruchy7backend10transpiler10statementsNtB6_10Transpiler27generate_function_signature0Ba_
FNDA:0,_RNCNvMNtNtNtCs2RUqfoJCtLU_5ruchy7backend10transpiler10statementsNtB6_10Transpiler29transpile_print_multiple_args0Ba_
FNDA:0,_RNCNvMNtNtNtCs2RUqfoJCtLU_5ruchy7backend10transpiler10statementsNtB6_10Transpiler29transpile_print_multiple_argss0_0Ba_
FNDA:0,_RNCNvMNtNtNtCs2RUqfoJCtLU_5ruchy7backend10transpiler10statementsNtB6_10Transpiler29transpile_print_multiple_argss_0Ba_
FNDA:0,_RNCNvMNtNtNtCs2RUqfoJCtLU_5ruchy7backend10transpiler10statementsNtB6_10Transpiler31transpile_regular_function_call0Ba_
FNDA:0,_RNCNvMNtNtNtCs2RUqfoJCtLU_5ruchy7backend10transpiler10statementsNtB6_10Transpiler31transpile_regular_function_calls_0Ba_
FNDA:0,_RNCNvMNtNtNtCs2RUqfoJCtLU_5ruchy7backend10transpiler10statementsNtB6_10Transpiler16transpile_lambdas_0Ba_
FNDA:0,_RNCNvMNtNtNtCs2RUqfoJCtLU_5ruchy7backend10transpiler10statementsNtB6_10Transpiler18is_void_expression0Ba_
FNDA:0,_RNCNvMNtNtNtCs2RUqfoJCtLU_5ruchy7backend10transpiler10statementsNtB6_10Transpiler18is_void_expressions0_0Ba_
FNDA:0,_RNCNvMNtNtNtCs2RUqfoJCtLU_5ruchy7backend10transpiler10statementsNtB6_10Transpiler18is_void_expressions_0Ba_
FNDA:0,_RNCNvMNtNtNtCs2RUqfoJCtLU_5ruchy7backend10transpiler10statementsNtB6_10Transpiler18transpile_function0Ba_
FNDA:0,_RNCNvMNtNtNtCs2RUqfoJCtLU_5ruchy7backend10transpiler10statementsNtB6_10Transpiler19is_variable_mutated0Ba_
FNDA:0,_RNCNvMNtNtNtCs2RUqfoJCtLU_5ruchy7backend10transpiler10statementsNtB6_10Transpiler19is_variable_mutateds0_0Ba_
FNDA:0,_RNCNvMNtNtNtCs2RUqfoJCtLU_5ruchy7backend10transpiler10statementsNtB6_10Transpiler19is_variable_mutateds1_0Ba_
FNDA:0,_RNCNvMNtNtNtCs2RUqfoJCtLU_5ruchy7backend10transpiler10statementsNtB6_10Transpiler19is_variable_mutateds2_0Ba_
FNDA:0,_RNCNvMNtNtNtCs2RUqfoJCtLU_5ruchy7backend10transpiler10statementsNtB6_10Transpiler19is_variable_mutateds_0Ba_
FNDA:0,_RNCNvMNtNtNtCs2RUqfoJCtLU_5ruchy7backend10transpiler10statementsNtB6_10Transpiler33transpile_std_fs_import_with_path0Ba_
FNDA:0,_RNvMNtNtNtCs2RUqfoJCtLU_5ruchy7backend10transpiler10statementsNtB4_10Transpiler12transpile_if
FNDA:0,_RNvMNtNtNtCs2RUqfoJCtLU_5ruchy7backend10transpiler10statementsNtB4_10Transpiler13transpile_abs
FNDA:0,_RNvMNtNtNtCs2RUqfoJCtLU_5ruchy7backend10transpiler10statementsNtB4_10Transpiler13transpile_for
FNDA:0,_RNvMNtNtNtCs2RUqfoJCtLU_5ruchy7backend10transpiler10statementsNtB4_10Transpiler13transpile_let
FNDA:0,_RNvMNtNtNtCs2RUqfoJCtLU_5ruchy7backend10transpiler10statementsNtB4_10Transpiler13transpile_max
FNDA:0,_RNvMNtNtNtCs2RUqfoJCtLU_5ruchy7backend10transpiler10statementsNtB4_10Transpiler13transpile_min
FNDA:0,_RNvMNtNtNtCs2RUqfoJCtLU_5ruchy7backend10transpiler10statementsNtB4_10Transpiler13transpile_pow
FNDA:0,_RNvMNtNtNtCs2RUqfoJCtLU_5ruchy7backend10transpiler10statementsNtB4_10Transpiler14path_to_tokens
FNDA:0,_RNvMNtNtNtCs2RUqfoJCtLU_5ruchy7backend10transpiler10statementsNtB4_10Transpiler14transpile_call
FNDA:0,_RNvMNtNtNtCs2RUqfoJCtLU_5ruchy7backend10transpiler10statementsNtB4_10Transpiler14transpile_ceil
FNDA:0,_RNvMNtNtNtCs2RUqfoJCtLU_5ruchy7backend10transpiler10statementsNtB4_10Transpiler14transpile_loop
FNDA:0,_RNvMNtNtNtCs2RUqfoJCtLU_5ruchy7backend10transpiler10statementsNtB4_10Transpiler14transpile_sqrt
FNDA:0,_RNvMNtNtNtCs2RUqfoJCtLU_5ruchy7backend10transpiler10statementsNtB4_10Transpiler15transpile_block
FNDA:0,_RNvMNtNtNtCs2RUqfoJCtLU_5ruchy7backend10transpiler10statementsNtB4_10Transpiler15transpile_floor
FNDA:0,_RNvMNtNtNtCs2RUqfoJCtLU_5ruchy7backend10transpiler10statementsNtB4_10Transpiler15transpile_round
FNDA:0,_RNvMNtNtNtCs2RUqfoJCtLU_5ruchy7backend10transpiler10statementsNtB4_10Transpiler15transpile_while
FNDA:0,_RNvMNtNtNtCs2RUqfoJCtLU_5ruchy7backend10transpiler10statementsNtB4_10Transpiler16infer_param_type
FNDA:0,_RNvMNtNtNtCs2RUqfoJCtLU_5ruchy7backend10transpiler10statementsNtB4_10Transpiler16transpile_export
FNDA:0,_RNvMNtNtNtCs2RUqfoJCtLU_5ruchy7backend10transpiler10statementsNtB4_10Transpiler16transpile_if_let
FNDA:0,_RNvMNtNtNtCs2RUqfoJCtLU_5ruchy7backend10transpiler10statementsNtB4_10Transpiler16transpile_import
FNDA:0,_RNvMNtNtNtCs2RUqfoJCtLU_5ruchy7backend10transpiler10statementsNtB4_10Transpiler16transpile_lambda
FNDA:0,_RNvMNtNtNtCs2RUqfoJCtLU_5ruchy7backend10transpiler10statementsNtB4_10Transpiler16transpile_module
FNDA:0,_RNvMNtNtNtCs2RUqfoJCtLU_5ruchy7backend10transpiler10statementsNtB4_10Transpiler18is_void_expression
FNDA:0,_RNvMNtNtNtCs2RUqfoJCtLU_5ruchy7backend10transpiler10statementsNtB4_10Transpiler18transpile_function
FNDA:0,_RNvMNtNtNtCs2RUqfoJCtLU_5ruchy7backend10transpiler10statementsNtB4_10Transpiler18transpile_pipeline
FNDA:0,_RNvMNtNtNtCs2RUqfoJCtLU_5ruchy7backend10transpiler10statementsNtB4_10Transpiler19is_variable_mutated
FNDA:0,_RNvMNtNtNtCs2RUqfoJCtLU_5ruchy7backend10transpiler10statementsNtB4_10Transpiler19transpile_try_catch
FNDA:0,_RNvMNtNtNtCs2RUqfoJCtLU_5ruchy7backend10transpiler10statementsNtB4_10Transpiler19transpile_while_let
FNDA:0,_RNvMNtNtNtCs2RUqfoJCtLU_5ruchy7backend10transpiler10statementsNtB4_10Transpiler20generate_body_tokens
FNDA:0,_RNvMNtNtNtCs2RUqfoJCtLU_5ruchy7backend10transpiler10statementsNtB4_10Transpiler20process_import_items
FNDA:0,_RNvMNtNtNtCs2RUqfoJCtLU_5ruchy7backend10transpiler10statementsNtB4_10Transpiler21apply_string_coercion
FNDA:0,_RNvMNtNtNtCs2RUqfoJCtLU_5ruchy7backend10transpiler10statementsNtB4_10Transpiler21generate_param_tokens
FNDA:0,_RNvMNtNtNtCs2RUqfoJCtLU_5ruchy7backend10transpiler10statementsNtB4_10Transpiler21handle_generic_import
FNDA:0,_RNvMNtNtNtCs2RUqfoJCtLU_5ruchy7backend10transpiler10statementsNtB4_10Transpiler21is_void_function_call
FNDA:0,_RNvMNtNtNtCs2RUqfoJCtLU_5ruchy7backend10transpiler10statementsNtB4_10Transpiler21transpile_int_generic
FNDA:0,_RNvMNtNtNtCs2RUqfoJCtLU_5ruchy7backend10transpiler10statementsNtB4_10Transpiler21transpile_let_pattern
FNDA:0,_RNvMNtNtNtCs2RUqfoJCtLU_5ruchy7backend10transpiler10statementsNtB4_10Transpiler21transpile_method_call
FNDA:0,_RNvMNtNtNtCs2RUqfoJCtLU_5ruchy7backend10transpiler10statementsNtB4_10Transpiler23has_non_unit_expression
FNDA:0,_RNvMNtNtNtCs2RUqfoJCtLU_5ruchy7backend10transpiler10statementsNtB4_10Transpiler23transpile_float_generic
FNDA:0,_RNvMNtNtNtCs2RUqfoJCtLU_5ruchy7backend10transpiler10statementsNtB4_10Transpiler23transpile_import_inline
FNDA:0,_RNvMNtNtNtCs2RUqfoJCtLU_5ruchy7backend10transpiler10statementsNtB4_10Transpiler24handle_std_module_import
FNDA:0,_RNvMNtNtNtCs2RUqfoJCtLU_5ruchy7backend10transpiler10statementsNtB4_10Transpiler24transpile_int_conversion
FNDA:0,_RNvMNtNtNtCs2RUqfoJCtLU_5ruchy7backend10transpiler10statementsNtB4_10Transpiler24transpile_set_operations
FNDA:0,_RNvMNtNtNtCs2RUqfoJCtLU_5ruchy7backend10transpiler10statementsNtB4_10Transpiler24transpile_std_mem_import
FNDA:0,_RNvMNtNtNtCs2RUqfoJCtLU_5ruchy7backend10transpiler10statementsNtB4_10Transpiler24transpile_std_net_import
FNDA:0,_RNvMNtNtNtCs2RUqfoJCtLU_5ruchy7backend10transpiler10statementsNtB4_10Transpiler24transpile_str_conversion
FNDA:0,_RNvMNtNtNtCs2RUqfoJCtLU_5ruchy7backend10transpiler10statementsNtB4_10Transpiler24transpile_string_methods
FNDA:0,_RNvMNtNtNtCs2RUqfoJCtLU_5ruchy7backend10transpiler10statementsNtB4_10Transpiler25handle_single_import_item
FNDA:0,_RNvMNtNtNtCs2RUqfoJCtLU_5ruchy7backend10transpiler10statementsNtB4_10Transpiler25transpile_bool_conversion
FNDA:0,_RNvMNtNtNtCs2RUqfoJCtLU_5ruchy7backend10transpiler10statementsNtB4_10Transpiler25transpile_map_set_methods
FNDA:0,_RNvMNtNtNtCs2RUqfoJCtLU_5ruchy7backend10transpiler10statementsNtB4_10Transpiler25transpile_method_call_old
FNDA:0,_RNvMNtNtNtCs2RUqfoJCtLU_5ruchy7backend10transpiler10statementsNtB4_10Transpiler25transpile_std_simd_import
FNDA:0,_RNvMNtNtNtCs2RUqfoJCtLU_5ruchy7backend10transpiler10statementsNtB4_10Transpiler25try_transpile_print_macro
FNDA:0,_RNvMNtNtNtCs2RUqfoJCtLU_5ruchy7backend10transpiler10statementsNtB4_10Transpiler26generate_input_with_prompt
FNDA:0,_RNvMNtNtNtCs2RUqfoJCtLU_5ruchy7backend10transpiler10statementsNtB4_10Transpiler26generate_type_param_tokens
FNDA:0,_RNvMNtNtNtCs2RUqfoJCtLU_5ruchy7backend10transpiler10statementsNtB4_10Transpiler26transpile_float_conversion
FNDA:0,_RNvMNtNtNtCs2RUqfoJCtLU_5ruchy7backend10transpiler10statementsNtB4_10Transpiler26transpile_iterator_methods
FNDA:0,_RNvMNtNtNtCs2RUqfoJCtLU_5ruchy7backend10transpiler10statementsNtB4_10Transpiler26transpile_std_bench_import
FNDA:0,_RNvMNtNtNtCs2RUqfoJCtLU_5ruchy7backend10transpiler10statementsNtB4_10Transpiler26transpile_std_cache_import
FNDA:0,_RNvMNtNtNtCs2RUqfoJCtLU_5ruchy7backend10transpiler10statementsNtB4_10Transpiler27generate_function_signature
FNDA:0,_RNvMNtNtNtCs2RUqfoJCtLU_5ruchy7backend10transpiler10statementsNtB4_10Transpiler27generate_read_file_function
FNDA:0,_RNvMNtNtNtCs2RUqfoJCtLU_5ruchy7backend10transpiler10statementsNtB4_10Transpiler27generate_return_type_tokens
FNDA:0,_RNvMNtNtNtCs2RUqfoJCtLU_5ruchy7backend10transpiler10statementsNtB4_10Transpiler27looks_like_numeric_function
FNDA:0,_RNvMNtNtNtCs2RUqfoJCtLU_5ruchy7backend10transpiler10statementsNtB4_10Transpiler27transpile_std_signal_import
FNDA:0,_RNvMNtNtNtCs2RUqfoJCtLU_5ruchy7backend10transpiler10statementsNtB4_10Transpiler27transpile_std_system_import
FNDA:0,_RNvMNtNtNtCs2RUqfoJCtLU_5ruchy7backend10transpiler10statementsNtB4_10Transpiler27try_transpile_math_function
FNDA:0,_RNvMNtNtNtCs2RUqfoJCtLU_5ruchy7backend10transpiler10statementsNtB4_10Transpiler28generate_all_file_operations
FNDA:0,_RNvMNtNtNtCs2RUqfoJCtLU_5ruchy7backend10transpiler10statementsNtB4_10Transpiler28generate_write_file_function
FNDA:0,_RNvMNtNtNtCs2RUqfoJCtLU_5ruchy7backend10transpiler10statementsNtB4_10Transpiler28handle_multiple_import_items
FNDA:0,_RNvMNtNtNtCs2RUqfoJCtLU_5ruchy7backend10transpiler10statementsNtB4_10Transpiler28transpile_list_comprehension
FNDA:0,_RNvMNtNtNtCs2RUqfoJCtLU_5ruchy7backend10transpiler10statementsNtB4_10Transpiler28transpile_std_process_import
FNDA:0,_RNvMNtNtNtCs2RUqfoJCtLU_5ruchy7backend10transpiler10statementsNtB4_10Transpiler28transpile_std_profile_import
FNDA:0,_RNvMNtNtNtCs2RUqfoJCtLU_5ruchy7backend10transpiler10statementsNtB4_10Transpiler28try_transpile_input_function
FNDA:0,_RNvMNtNtNtCs2RUqfoJCtLU_5ruchy7backend10transpiler10statementsNtB4_10Transpiler28try_transpile_math_functions
FNDA:0,_RNvMNtNtNtCs2RUqfoJCtLU_5ruchy7backend10transpiler10statementsNtB4_10Transpiler29generate_input_without_prompt
FNDA:0,_RNvMNtNtNtCs2RUqfoJCtLU_5ruchy7backend10transpiler10statementsNtB4_10Transpiler29transpile_print_multiple_args
FNDA:0,_RNvMNtNtNtCs2RUqfoJCtLU_5ruchy7backend10transpiler10statementsNtB4_10Transpiler29transpile_std_parallel_import
FNDA:0,_RNvMNtNtNtCs2RUqfoJCtLU_5ruchy7backend10transpiler10statementsNtB4_10Transpiler29try_transpile_assert_function
FNDA:0,_RNvMNtNtNtCs2RUqfoJCtLU_5ruchy7backend10transpiler10statementsNtB4_10Transpiler29try_transpile_type_conversion
FNDA:0,_RNvMNtNtNtCs2RUqfoJCtLU_5ruchy7backend10transpiler10statementsNtB4_10Transpiler31transpile_regular_function_call
FNDA:0,_RNvMNtNtNtCs2RUqfoJCtLU_5ruchy7backend10transpiler10statementsNtB4_10Transpiler32try_transpile_dataframe_function
FNDA:0,_RNvMNtNtNtCs2RUqfoJCtLU_5ruchy7backend10transpiler10statementsNtB4_10Transpiler33transpile_std_fs_import_with_path
FNDA:0,_RNvMNtNtNtCs2RUqfoJCtLU_5ruchy7backend10transpiler10statementsNtB4_10Transpiler33try_transpile_type_conversion_old
FNDA:0,_RNvMNtNtNtCs2RUqfoJCtLU_5ruchy7backend10transpiler10statementsNtB4_10Transpiler34transpile_print_with_interpolation
FNDA:0,_RNvMNtNtNtCs2RUqfoJCtLU_5ruchy7backend10transpiler10statementsNtB4_10Transpiler36try_transpile_collection_constructor
FNDA:0,_RNvMNtNtNtCs2RUqfoJCtLU_5ruchy7backend10transpiler10statementsNtB4_10Transpiler37transpile_advanced_collection_methods
FNDA:0,_RNCNvMNtNtNtCs2RUqfoJCtLU_5ruchy7backend10transpiler10statementsNtB6_10Transpiler23transpile_std_fs_import0Ba_
FNDA:0,_RNvMNtNtNtCs2RUqfoJCtLU_5ruchy7backend10transpiler10statementsNtB4_10Transpiler23transpile_std_fs_import
FNF:117
FNH:0
DA:15,0
DA:18,0
DA:20,0
DA:21,0
DA:22,0
DA:23,0
DA:24,0
DA:25,0
DA:26,0
DA:29,0
DA:30,0
DA:31,0
DA:32,0
DA:33,0
DA:34,0
DA:35,0
DA:38,0
DA:39,0
DA:40,0
DA:41,0
DA:42,0
DA:43,0
DA:44,0
DA:45,0
DA:46,0
DA:47,0
DA:50,0
DA:51,0
DA:54,0
DA:55,0
DA:56,0
DA:57,0
DA:60,0
DA:61,0
DA:62,0
DA:65,0
DA:66,0
DA:69,0
DA:70,0
DA:71,0
DA:74,0
DA:75,0
DA:78,0
DA:79,0
DA:82,0
DA:83,0
DA:86,0
DA:87,0
DA:88,0
DA:91,0
DA:92,0
DA:95,0
DA:96,0
DA:97,0
DA:99,0
DA:100,0
DA:101,0
DA:104,0
DA:106,0
DA:109,0
DA:110,0
DA:111,0
DA:112,0
DA:113,0
DA:114,0
DA:115,0
DA:116,0
DA:118,0
DA:119,0
DA:120,0
DA:121,0
DA:122,0
DA:123,0
DA:124,0
DA:125,0
DA:126,0
DA:128,0
DA:129,0
DA:130,0
DA:131,0
DA:132,0
DA:134,0
DA:137,0
DA:138,0
DA:139,0
DA:140,0
DA:141,0
DA:142,0
DA:143,0
DA:145,0
DA:146,0
DA:148,0
DA:150,0
DA:153,0
DA:154,0
DA:155,0
DA:159,0
DA:160,0
DA:161,0
DA:163,0
DA:167,0
DA:168,0
DA:169,0
DA:171,0
DA:176,0
DA:178,0
DA:181,0
DA:182,0
DA:183,0
DA:184,0
DA:185,0
DA:188,0
DA:189,0
DA:193,0
DA:194,0
DA:195,0
DA:198,0
DA:199,0
DA:200,0
DA:201,0
DA:202,0
DA:203,0
DA:204,0
DA:206,0
DA:207,0
DA:208,0
DA:209,0
DA:210,0
DA:214,0
DA:217,0
DA:218,0
DA:219,0
DA:220,0
DA:221,0
DA:222,0
DA:223,0
DA:224,0
DA:226,0
DA:227,0
DA:228,0
DA:229,0
DA:230,0
DA:231,0
DA:235,0
DA:238,0
DA:239,0
DA:240,0
DA:241,0
DA:242,0
DA:243,0
DA:244,0
DA:245,0
DA:248,0
DA:249,0
DA:252,0
DA:253,0
DA:254,0
DA:255,0
DA:256,0
DA:257,0
DA:258,0
DA:260,0
DA:263,0
DA:264,0
DA:265,0
DA:266,0
DA:267,0
DA:268,0
DA:270,0
DA:274,0
DA:275,0
DA:276,0
DA:277,0
DA:279,0
DA:281,0
DA:283,0
DA:285,0
DA:286,0
DA:289,0
DA:292,0
DA:294,0
DA:297,0
DA:298,0
DA:300,0
DA:303,0
DA:307,0
DA:311,0
DA:314,0
DA:315,0
DA:319,0
DA:320,0
DA:324,0
DA:325,0
DA:326,0
DA:330,0
DA:331,0
DA:335,0
DA:338,0
DA:340,0
DA:343,0
DA:344,0
DA:345,0
DA:351,0
DA:354,0
DA:355,0
DA:356,0
DA:357,0
DA:358,0
DA:359,0
DA:361,0
DA:363,0
DA:366,0
DA:367,0
DA:368,0
DA:369,0
DA:370,0
DA:371,0
DA:372,0
DA:373,0
DA:374,0
DA:376,0
DA:379,0
DA:381,0
DA:382,0
DA:383,0
DA:384,0
DA:387,0
DA:389,0
DA:390,0
DA:391,0
DA:393,0
DA:394,0
DA:395,0
DA:396,0
DA:397,0
DA:398,0
DA:399,0
DA:400,0
DA:401,0
DA:403,0
DA:405,0
DA:408,0
DA:409,0
DA:410,0
DA:411,0
DA:412,0
DA:415,0
DA:416,0
DA:418,0
DA:420,0
DA:423,0
DA:424,0
DA:425,0
DA:429,0
DA:430,0
DA:431,0
DA:432,0
DA:434,0
DA:435,0
DA:436,0
DA:437,0
DA:438,0
DA:439,0
DA:440,0
DA:444,0
DA:445,0
DA:447,0
DA:453,0
DA:457,0
DA:460,0
DA:461,0
DA:462,0
DA:463,0
DA:464,0
DA:466,0
DA:469,0
DA:470,0
DA:472,0
DA:473,0
DA:474,0
DA:477,0
DA:478,0
DA:479,0
DA:480,0
DA:481,0
DA:482,0
DA:483,0
DA:484,0
DA:485,0
DA:486,0
DA:487,0
DA:489,0
DA:490,0
DA:492,0
DA:494,0
DA:497,0
DA:498,0
DA:499,0
DA:500,0
DA:501,0
DA:503,0
DA:504,0
DA:505,0
DA:506,0
DA:508,0
DA:509,0
DA:511,0
DA:512,0
DA:518,0
DA:524,0
DA:530,0
DA:537,0
DA:539,0
DA:540,0
DA:541,0
DA:542,0
DA:543,0
DA:544,0
DA:545,0
DA:546,0
DA:547,0
DA:548,0
DA:549,0
DA:550,0
DA:551,0
DA:552,0
DA:555,0
DA:557,0
DA:558,0
DA:560,0
DA:563,0
DA:564,0
DA:566,0
DA:567,0
DA:568,0
DA:569,0
DA:570,0
DA:571,0
DA:572,0
DA:573,0
DA:574,0
DA:576,0
DA:579,0
DA:580,0
DA:581,0
DA:582,0
DA:583,0
DA:584,0
DA:587,0
DA:588,0
DA:591,0
DA:592,0
DA:593,0
DA:594,0
DA:595,0
DA:596,0
DA:597,0
DA:598,0
DA:599,0
DA:601,0
DA:639,0
DA:640,0
DA:643,0
DA:644,0
DA:645,0
DA:647,0
DA:651,0
DA:652,0
DA:653,0
DA:655,0
DA:656,0
DA:657,0
DA:659,0
DA:660,0
DA:661,0
DA:663,0
DA:664,0
DA:665,0
DA:667,0
DA:668,0
DA:669,0
DA:671,0
DA:672,0
DA:673,0
DA:675,0
DA:676,0
DA:677,0
DA:679,0
DA:680,0
DA:681,0
DA:682,0
DA:685,0
DA:686,0
DA:690,0
DA:691,0
DA:692,0
DA:693,0
DA:694,0
DA:695,0
DA:696,0
DA:697,0
DA:698,0
DA:700,0
DA:701,0
DA:703,0
DA:704,0
DA:705,0
DA:706,0
DA:707,0
DA:708,0
DA:709,0
DA:710,0
DA:711,0
DA:712,0
DA:714,0
DA:716,0
DA:717,0
DA:718,0
DA:719,0
DA:720,0
DA:725,0
DA:727,0
DA:730,0
DA:734,0
DA:735,0
DA:736,0
DA:737,0
DA:738,0
DA:739,0
DA:741,0
DA:743,0
DA:744,0
DA:745,0
DA:746,0
DA:747,0
DA:748,0
DA:749,0
DA:750,0
DA:751,0
DA:753,0
DA:754,0
DA:755,0
DA:756,0
DA:759,0
DA:760,0
DA:763,0
DA:764,0
DA:765,0
DA:766,0
DA:767,0
DA:768,0
DA:769,0
DA:770,0
DA:771,0
DA:772,0
DA:775,0
DA:776,0
DA:777,0
DA:779,0
DA:780,0
DA:783,0
DA:785,0
DA:786,0
DA:789,0
DA:790,0
DA:791,0
DA:794,0
DA:795,0
DA:798,0
DA:799,0
DA:802,0
DA:803,0
DA:804,0
DA:806,0
DA:807,0
DA:809,0
DA:813,0
DA:814,0
DA:815,0
DA:816,0
DA:819,0
DA:821,0
DA:823,0
DA:825,0
DA:828,0
DA:829,0
DA:832,0
DA:833,0
DA:837,0
DA:840,0
DA:843,0
DA:844,0
DA:845,0
DA:847,0
DA:849,0
DA:851,0
DA:853,0
DA:855,0
DA:857,0
DA:859,0
DA:862,0
DA:863,0
DA:864,0
DA:866,0
DA:868,0
DA:869,0
DA:871,0
DA:873,0
DA:875,0
DA:877,0
DA:879,0
DA:881,0
DA:883,0
DA:885,0
DA:888,0
DA:889,0
DA:890,0
DA:891,0
DA:892,0
DA:893,0
DA:894,0
DA:895,0
DA:896,0
DA:897,0
DA:898,0
DA:899,0
DA:900,0
DA:903,0
DA:904,0
DA:905,0
DA:907,0
DA:909,0
DA:910,0
DA:911,0
DA:913,0
DA:914,0
DA:915,0
DA:917,0
DA:918,0
DA:920,0
DA:921,0
DA:923,0
DA:924,0
DA:926,0
DA:927,0
DA:929,0
DA:930,0
DA:932,0
DA:933,0
DA:935,0
DA:936,0
DA:938,0
DA:940,0
DA:941,0
DA:943,0
DA:945,0
DA:946,0
DA:947,0
DA:948,0
DA:949,0
DA:950,0
DA:951,0
DA:952,0
DA:953,0
DA:954,0
DA:955,0
DA:957,0
DA:959,0
DA:962,0
DA:963,0
DA:964,0
DA:966,0
DA:967,0
DA:968,0
DA:969,0
DA:970,0
DA:971,0
DA:973,0
DA:975,0
DA:976,0
DA:977,0
DA:978,0
DA:979,0
DA:981,0
DA:983,0
DA:984,0
DA:985,0
DA:986,0
DA:988,0
DA:990,0
DA:991,0
DA:992,0
DA:993,0
DA:994,0
DA:995,0
DA:996,0
DA:997,0
DA:998,0
DA:1000,0
DA:1002,0
DA:1003,0
DA:1004,0
DA:1005,0
DA:1006,0
DA:1008,0
DA:1010,0
DA:1013,0
DA:1014,0
DA:1015,0
DA:1016,0
DA:1018,0
DA:1020,0
DA:1021,0
DA:1024,0
DA:1025,0
DA:1026,0
DA:1027,0
DA:1028,0
DA:1031,0
DA:1036,0
DA:1040,0
DA:1041,0
DA:1043,0
DA:1045,0
DA:1048,0
DA:1049,0
DA:1050,0
DA:1051,0
DA:1052,0
DA:1053,0
DA:1056,0
DA:1058,0
DA:1059,0
DA:1060,0
DA:1061,0
DA:1062,0
DA:1064,0
DA:1068,0
DA:1069,0
DA:1074,0
DA:1075,0
DA:1078,0
DA:1079,0
DA:1080,0
DA:1083,0
DA:1084,0
DA:1085,0
DA:1086,0
DA:1087,0
DA:1088,0
DA:1089,0
DA:1092,0
DA:1093,0
DA:1094,0
DA:1095,0
DA:1096,0
DA:1097,0
DA:1099,0
DA:1102,0
DA:1103,0
DA:1104,0
DA:1106,0
DA:1107,0
DA:1108,0
DA:1109,0
DA:1110,0
DA:1111,0
DA:1114,0
DA:1115,0
DA:1116,0
DA:1117,0
DA:1118,0
DA:1119,0
DA:1120,0
DA:1121,0
DA:1122,0
DA:1123,0
DA:1125,0
DA:1126,0
DA:1127,0
DA:1128,0
DA:1129,0
DA:1130,0
DA:1131,0
DA:1132,0
DA:1133,0
DA:1135,0
DA:1136,0
DA:1137,0
DA:1138,0
DA:1139,0
DA:1141,0
DA:1144,0
DA:1145,0
DA:1146,0
DA:1147,0
DA:1148,0
DA:1149,0
DA:1150,0
DA:1151,0
DA:1152,0
DA:1154,0
DA:1155,0
DA:1156,0
DA:1157,0
DA:1158,0
DA:1159,0
DA:1161,0
DA:1162,0
DA:1164,0
DA:1165,0
DA:1166,0
DA:1167,0
DA:1168,0
DA:1169,0
DA:1172,0
DA:1173,0
DA:1174,0
DA:1175,0
DA:1176,0
DA:1177,0
DA:1180,0
DA:1182,0
DA:1183,0
DA:1184,0
DA:1187,0
DA:1188,0
DA:1189,0
DA:1190,0
DA:1192,0
DA:1195,0
DA:1196,0
DA:1197,0
DA:1214,0
DA:1224,0
DA:1225,0
DA:1228,0
DA:1229,0
DA:1230,0
DA:1231,0
DA:1232,0
DA:1233,0
DA:1234,0
DA:1235,0
DA:1236,0
DA:1237,0
DA:1239,0
DA:1240,0
DA:1241,0
DA:1242,0
DA:1243,0
DA:1244,0
DA:1245,0
DA:1246,0
DA:1247,0
DA:1249,0
DA:1250,0
DA:1251,0
DA:1252,0
DA:1253,0
DA:1254,0
DA:1256,0
DA:1260,0
DA:1261,0
DA:1262,0
DA:1264,0
DA:1265,0
DA:1266,0
DA:1267,0
DA:1268,0
DA:1269,0
DA:1273,0
DA:1278,0
DA:1279,0
DA:1282,0
DA:1285,0
DA:1288,0
DA:1290,0
DA:1291,0
DA:1292,0
DA:1293,0
DA:1295,0
DA:1296,0
DA:1297,0
DA:1298,0
DA:1299,0
DA:1300,0
DA:1301,0
DA:1302,0
DA:1303,0
DA:1304,0
DA:1305,0
DA:1306,0
DA:1307,0
DA:1308,0
DA:1309,0
DA:1312,0
DA:1313,0
DA:1314,0
DA:1315,0
DA:1316,0
DA:1317,0
DA:1318,0
DA:1319,0
DA:1320,0
DA:1321,0
DA:1322,0
DA:1323,0
DA:1324,0
DA:1325,0
DA:1326,0
DA:1327,0
DA:1328,0
DA:1329,0
DA:1330,0
DA:1331,0
DA:1332,0
DA:1333,0
DA:1334,0
DA:1335,0
DA:1338,0
DA:1339,0
DA:1340,0
DA:1345,0
DA:1346,0
DA:1349,0
DA:1350,0
DA:1355,0
DA:1358,0
DA:1359,0
DA:1364,0
DA:1367,0
DA:1368,0
DA:1369,0
DA:1371,0
DA:1375,0
DA:1378,0
DA:1382,0
DA:1385,0
DA:1387,0
DA:1390,0
DA:1391,0
DA:1392,0
DA:1394,0
DA:1395,0
DA:1396,0
DA:1397,0
DA:1399,0
DA:1400,0
DA:1401,0
DA:1402,0
DA:1403,0
DA:1404,0
DA:1405,0
DA:1409,0
DA:1410,0
DA:1412,0
DA:1414,0
DA:1415,0
DA:1416,0
DA:1417,0
DA:1423,0
DA:1425,0
DA:1426,0
DA:1427,0
DA:1428,0
DA:1429,0
DA:1431,0
DA:1433,0
DA:1434,0
DA:1437,0
DA:1439,0
DA:1457,0
DA:1460,0
DA:1462,0
DA:1481,0
DA:1484,0
DA:1486,0
DA:1508,0
DA:1511,0
DA:1513,0
DA:1559,0
DA:1561,0
DA:1563,0
DA:1596,0
DA:1598,0
DA:1600,0
DA:1629,0
DA:1631,0
DA:1633,0
DA:1681,0
DA:1683,0
DA:1685,0
DA:1713,0
DA:1715,0
DA:1717,0
DA:1750,0
DA:1752,0
DA:1754,0
DA:1778,0
DA:1783,0
DA:1785,0
DA:1786,0
DA:1787,0
DA:1790,0
DA:1791,0
DA:1794,0
DA:1795,0
DA:1796,0
DA:1797,0
DA:1798,0
DA:1799,0
DA:1800,0
DA:1801,0
DA:1802,0
DA:1803,0
DA:1804,0
DA:1805,0
DA:1806,0
DA:1807,0
DA:1808,0
DA:1809,0
DA:1810,0
DA:1811,0
DA:1812,0
DA:1813,0
DA:1814,0
DA:1815,0
DA:1816,0
DA:1817,0
DA:1818,0
DA:1819,0
DA:1820,0
DA:1821,0
DA:1822,0
DA:1823,0
DA:1824,0
DA:1825,0
DA:1826,0
DA:1827,0
DA:1828,0
DA:1829,0
DA:1832,0
DA:1834,0
DA:1836,0
DA:1837,0
DA:1838,0
DA:1839,0
DA:1841,0
DA:1843,0
DA:1846,0
DA:1847,0
DA:1848,0
DA:1850,0
DA:1851,0
DA:1852,0
DA:1853,0
DA:1854,0
DA:1855,0
DA:1856,0
DA:1857,0
DA:1860,0
DA:1861,0
DA:1864,0
DA:1865,0
DA:1866,0
DA:1867,0
DA:1868,0
DA:1871,0
DA:1872,0
DA:1873,0
DA:1874,0
DA:1876,0
DA:1877,0
DA:1880,0
DA:1881,0
DA:1882,0
DA:1883,0
DA:1885,0
DA:1887,0
DA:1890,0
DA:1891,0
DA:1892,0
DA:1893,0
DA:1894,0
DA:1895,0
DA:1896,0
DA:1899,0
DA:1902,0
DA:1903,0
DA:1904,0
DA:1905,0
DA:1907,0
DA:1908,0
DA:1909,0
DA:1910,0
DA:1912,0
DA:1913,0
DA:1914,0
DA:1917,0
DA:1918,0
DA:1920,0
DA:1921,0
DA:1922,0
DA:1924,0
DA:1926,0
DA:1943,0
DA:1944,0
DA:1945,0
DA:1946,0
DA:1947,0
DA:1948,0
DA:1949,0
DA:1950,0
DA:1951,0
DA:1954,0
DA:1955,0
DA:1956,0
DA:1957,0
DA:1959,0
DA:1960,0
DA:1962,0
DA:1963,0
DA:1964,0
DA:1965,0
DA:1968,0
DA:1969,0
DA:1970,0
DA:1973,0
DA:1974,0
DA:1975,0
DA:1976,0
DA:1979,0
DA:1980,0
DA:1981,0
DA:1982,0
DA:1983,0
DA:1986,0
DA:1987,0
DA:1988,0
DA:1990,0
DA:1991,0
DA:1993,0
DA:1995,0
DA:1999,0
DA:2004,0
DA:2005,0
DA:2006,0
DA:2010,0
DA:2015,0
DA:2016,0
DA:2018,0
DA:2019,0
DA:2020,0
DA:2023,0
DA:2024,0
DA:2025,0
DA:2026,0
DA:2028,0
DA:2029,0
DA:2030,0
DA:2034,0
DA:2035,0
DA:2036,0
DA:2037,0
DA:2039,0
DA:2040,0
DA:2041,0
DA:2044,0
DA:2059,0
DA:2060,0
DA:2061,0
DA:2062,0
DA:2063,0
DA:2064,0
DA:2065,0
DA:2066,0
DA:2067,0
DA:2068,0
DA:2069,0
DA:2071,0
DA:2073,0
DA:2074,0
DA:2075,0
DA:2076,0
DA:2078,0
DA:2079,0
DA:2080,0
DA:2081,0
DA:2082,0
DA:2084,0
DA:2085,0
DA:2087,0
DA:2088,0
DA:2089,0
DA:2090,0
DA:2091,0
DA:2093,0
DA:2094,0
DA:2096,0
DA:2097,0
DA:2098,0
DA:2100,0
DA:2101,0
DA:2102,0
DA:2103,0
DA:2105,0
DA:2107,0
DA:2109,0
DA:2110,0
DA:2111,0
DA:2113,0
DA:2114,0
DA:2115,0
DA:2116,0
DA:2118,0
DA:2120,0
DA:2122,0
DA:2123,0
DA:2124,0
DA:2125,0
DA:2127,0
DA:2128,0
DA:2129,0
DA:2130,0
DA:2132,0
DA:2133,0
DA:2134,0
DA:2135,0
DA:2150,0
DA:2151,0
DA:2152,0
DA:2153,0
DA:2154,0
DA:2155,0
DA:2156,0
DA:2157,0
DA:2159,0
DA:2160,0
DA:2163,0
DA:2164,0
DA:2166,0
DA:2168,0
DA:2171,0
DA:2172,0
DA:2185,0
DA:2188,0
DA:2189,0
DA:2204,0
DA:2218,0
DA:2221,0
DA:2222,0
DA:2226,0
DA:2227,0
DA:2228,0
DA:2229,0
DA:2230,0
DA:2231,0
DA:2232,0
DA:2234,0
DA:2237,0
DA:2238,0
DA:2239,0
DA:2240,0
DA:2241,0
DA:2242,0
DA:2243,0
DA:2246,0
DA:2247,0
DA:2248,0
DA:2249,0
DA:2252,0
DA:2254,0
DA:2255,0
DA:2257,0
DA:2258,0
DA:2259,0
DA:2260,0
DA:2262,0
DA:2266,0
DA:2267,0
DA:2270,0
DA:2271,0
DA:2273,0
DA:2275,0
DA:2278,0
DA:2279,0
DA:2280,0
DA:2281,0
DA:2284,0
DA:2285,0
DA:2286,0
DA:2287,0
DA:2290,0
DA:2292,0
DA:2293,0
DA:2295,0
DA:2296,0
DA:2297,0
DA:2298,0
DA:2300,0
DA:2304,0
DA:2305,0
DA:2307,0
DA:2309,0
DA:2312,0
DA:2313,0
DA:2314,0
DA:2315,0
DA:2318,0
DA:2319,0
DA:2320,0
DA:2321,0
DA:2324,0
DA:2326,0
DA:2327,0
DA:2330,0
DA:2331,0
DA:2333,0
DA:2334,0
DA:2335,0
DA:2339,0
DA:2340,0
DA:2344,0
DA:2345,0
DA:2348,0
DA:2362,0
DA:2363,0
DA:2364,0
DA:2365,0
DA:2366,0
DA:2367,0
DA:2368,0
DA:2369,0
DA:2370,0
DA:2372,0
DA:2373,0
DA:2374,0
DA:2375,0
DA:2376,0
DA:2377,0
DA:2379,0
DA:2380,0
DA:2381,0
DA:2382,0
DA:2383,0
DA:2384,0
DA:2386,0
DA:2387,0
DA:2388,0
DA:2389,0
DA:2391,0
DA:2392,0
DA:2393,0
DA:2394,0
DA:2395,0
DA:2396,0
DA:2397,0
DA:2398,0
DA:2399,0
DA:2400,0
DA:2401,0
DA:2402,0
DA:2403,0
DA:2404,0
DA:2406,0
DA:2408,0
DA:2423,0
DA:2424,0
DA:2425,0
DA:2426,0
DA:2427,0
DA:2428,0
DA:2429,0
DA:2430,0
DA:2431,0
DA:2432,0
DA:2433,0
DA:2434,0
DA:2435,0
DA:2436,0
DA:2438,0
DA:2439,0
DA:2442,0
DA:2443,0
DA:2444,0
DA:2445,0
DA:2446,0
DA:2447,0
DA:2448,0
DA:2449,0
DA:2451,0
DA:2452,0
DA:2455,0
DA:2456,0
DA:2457,0
DA:2458,0
DA:2459,0
DA:2460,0
DA:2461,0
DA:2462,0
DA:2464,0
DA:2465,0
DA:2468,0
DA:2470,0
DA:2485,0
DA:2486,0
DA:2487,0
DA:2488,0
DA:2489,0
DA:2491,0
DA:2506,0
DA:2508,0
DA:2509,0
DA:2510,0
DA:2511,0
DA:2512,0
DA:2514,0
DA:2515,0
DA:2516,0
DA:2517,0
DA:2518,0
DA:2519,0
DA:2520,0
DA:2521,0
DA:2523,0
DA:2525,0
DA:2528,0
DA:2529,0
DA:2530,0
DA:2531,0
DA:2532,0
DA:2533,0
DA:2534,0
DA:2549,0
DA:2550,0
DA:2551,0
DA:2552,0
DA:2553,0
DA:2555,0
DA:2558,0
DA:2559,0
DA:2560,0
DA:2563,0
DA:2564,0
DA:2566,0
DA:2568,0
DA:2571,0
DA:2574,0
DA:2575,0
DA:2576,0
DA:2579,0
DA:2580,0
DA:2581,0
DA:2582,0
DA:2583,0
DA:2584,0
DA:2587,0
DA:2589,0
DA:2590,0
DA:2593,0
DA:2594,0
DA:2597,0
DA:2600,0
DA:2603,0
DA:2605,0
BRF:0
BRH:0
LF:1400
LH:0
end_of_record
SF:/home/noah/src/ruchy/src/backend/transpiler/type_conversion_refactored.rs
FN:47,_RNvMNtNtNtCs2RUqfoJCtLU_5ruchy7backend10transpiler26type_conversion_refactoredNtB4_10Transpiler14convert_to_int
FN:187,_RNvMNtNtNtCs2RUqfoJCtLU_5ruchy7backend10transpiler26type_conversion_refactoredNtB4_10Transpiler14convert_to_set
FN:104,_RNvMNtNtNtCs2RUqfoJCtLU_5ruchy7backend10transpiler26type_conversion_refactoredNtB4_10Transpiler15convert_to_bool
FN:219,_RNvMNtNtNtCs2RUqfoJCtLU_5ruchy7backend10transpiler26type_conversion_refactoredNtB4_10Transpiler15convert_to_dict
FN:161,_RNvMNtNtNtCs2RUqfoJCtLU_5ruchy7backend10transpiler26type_conversion_refactoredNtB4_10Transpiler15convert_to_list
FN:78,_RNvMNtNtNtCs2RUqfoJCtLU_5ruchy7backend10transpiler26type_conversion_refactoredNtB4_10Transpiler16convert_to_float
FN:41,_RNvMNtNtNtCs2RUqfoJCtLU_5ruchy7backend10transpiler26type_conversion_refactoredNtB4_10Transpiler17convert_to_string
FN:135,_RNvMNtNtNtCs2RUqfoJCtLU_5ruchy7backend10transpiler26type_conversion_refactoredNtB4_10Transpiler22convert_string_to_bool
FN:147,_RNvMNtNtNtCs2RUqfoJCtLU_5ruchy7backend10transpiler26type_conversion_refactoredNtB4_10Transpiler23convert_generic_to_bool
FN:116,_RNvMNtNtNtCs2RUqfoJCtLU_5ruchy7backend10transpiler26type_conversion_refactoredNtB4_10Transpiler23convert_literal_to_bool
FN:141,_RNvMNtNtNtCs2RUqfoJCtLU_5ruchy7backend10transpiler26type_conversion_refactoredNtB4_10Transpiler26convert_collection_to_bool
FN:12,_RNvMNtNtNtCs2RUqfoJCtLU_5ruchy7backend10transpiler26type_conversion_refactoredNtB4_10Transpiler40try_transpile_type_conversion_refactored
FN:251,_RNvNtNtNtCs2RUqfoJCtLU_5ruchy7backend10transpiler26type_conversion_refactored13is_tuple_expr
FN:247,_RNvNtNtNtCs2RUqfoJCtLU_5ruchy7backend10transpiler26type_conversion_refactored19is_single_text_part
FNDA:0,_RNvMNtNtNtCs2RUqfoJCtLU_5ruchy7backend10transpiler26type_conversion_refactoredNtB4_10Transpiler14convert_to_int
FNDA:0,_RNvMNtNtNtCs2RUqfoJCtLU_5ruchy7backend10transpiler26type_conversion_refactoredNtB4_10Transpiler14convert_to_set
FNDA:0,_RNvMNtNtNtCs2RUqfoJCtLU_5ruchy7backend10transpiler26type_conversion_refactoredNtB4_10Transpiler15convert_to_bool
FNDA:0,_RNvMNtNtNtCs2RUqfoJCtLU_5ruchy7backend10transpiler26type_conversion_refactoredNtB4_10Transpiler15convert_to_dict
FNDA:0,_RNvMNtNtNtCs2RUqfoJCtLU_5ruchy7backend10transpiler26type_conversion_refactoredNtB4_10Transpiler15convert_to_list
FNDA:0,_RNvMNtNtNtCs2RUqfoJCtLU_5ruchy7backend10transpiler26type_conversion_refactoredNtB4_10Transpiler16convert_to_float
FNDA:0,_RNvMNtNtNtCs2RUqfoJCtLU_5ruchy7backend10transpiler26type_conversion_refactoredNtB4_10Transpiler17convert_to_string
FNDA:0,_RNvMNtNtNtCs2RUqfoJCtLU_5ruchy7backend10transpiler26type_conversion_refactoredNtB4_10Transpiler22convert_string_to_bool
FNDA:0,_RNvMNtNtNtCs2RUqfoJCtLU_5ruchy7backend10transpiler26type_conversion_refactoredNtB4_10Transpiler23convert_generic_to_bool
FNDA:0,_RNvMNtNtNtCs2RUqfoJCtLU_5ruchy7backend10transpiler26type_conversion_refactoredNtB4_10Transpiler23convert_literal_to_bool
FNDA:0,_RNvMNtNtNtCs2RUqfoJCtLU_5ruchy7backend10transpiler26type_conversion_refactoredNtB4_10Transpiler26convert_collection_to_bool
FNDA:0,_RNvMNtNtNtCs2RUqfoJCtLU_5ruchy7backend10transpiler26type_conversion_refactoredNtB4_10Transpiler40try_transpile_type_conversion_refactored
FNDA:0,_RNvNtNtNtCs2RUqfoJCtLU_5ruchy7backend10transpiler26type_conversion_refactored13is_tuple_expr
FNDA:0,_RNvNtNtNtCs2RUqfoJCtLU_5ruchy7backend10transpiler26type_conversion_refactored19is_single_text_part
FNF:14
FNH:0
DA:12,0
DA:13,0
DA:14,0
DA:15,0
DA:16,0
DA:18,0
DA:19,0
DA:21,0
DA:22,0
DA:23,0
DA:25,0
DA:28,0
DA:29,0
DA:30,0
DA:31,0
DA:32,0
DA:33,0
DA:34,0
DA:35,0
DA:36,0
DA:38,0
DA:41,0
DA:42,0
DA:43,0
DA:44,0
DA:47,0
DA:48,0
DA:51,0
DA:52,0
DA:55,0
DA:56,0
DA:57,0
DA:61,0
DA:62,0
DA:66,0
DA:67,0
DA:71,0
DA:72,0
DA:75,0
DA:78,0
DA:79,0
DA:82,0
DA:83,0
DA:86,0
DA:87,0
DA:88,0
DA:92,0
DA:93,0
DA:97,0
DA:98,0
DA:101,0
DA:104,0
DA:106,0
DA:107,0
DA:108,0
DA:109,0
DA:110,0
DA:111,0
DA:113,0
DA:116,0
DA:117,0
DA:119,0
DA:120,0
DA:123,0
DA:124,0
DA:127,0
DA:128,0
DA:130,0
DA:132,0
DA:135,0
DA:136,0
DA:137,0
DA:138,0
DA:141,0
DA:142,0
DA:143,0
DA:144,0
DA:147,0
DA:148,0
DA:149,0
DA:150,0
DA:151,0
DA:152,0
DA:153,0
DA:154,0
DA:155,0
DA:156,0
DA:157,0
DA:158,0
DA:161,0
DA:162,0
DA:165,0
DA:166,0
DA:170,0
DA:171,0
DA:175,0
DA:176,0
DA:180,0
DA:181,0
DA:184,0
DA:187,0
DA:188,0
DA:191,0
DA:192,0
DA:193,0
DA:194,0
DA:198,0
DA:199,0
DA:200,0
DA:201,0
DA:202,0
DA:206,0
DA:207,0
DA:208,0
DA:209,0
DA:210,0
DA:211,0
DA:212,0
DA:213,0
DA:216,0
DA:219,0
DA:220,0
DA:222,0
DA:223,0
DA:224,0
DA:225,0
DA:226,0
DA:227,0
DA:228,0
DA:232,0
DA:233,0
DA:234,0
DA:235,0
DA:239,0
DA:242,0
DA:247,0
DA:248,0
DA:249,0
DA:251,0
DA:252,0
DA:253,0
BRF:0
BRH:0
LF:141
LH:0
end_of_record
SF:/home/noah/src/ruchy/src/backend/transpiler/type_inference.rs
FN:177,_RNCNvNtNtNtCs2RUqfoJCtLU_5ruchy7backend10transpiler14type_inference14contains_param0B9_
FN:181,_RNCNvNtNtNtCs2RUqfoJCtLU_5ruchy7backend10transpiler14type_inference14contains_params_0B9_
FN:155,_RNCNvNtNtNtCs2RUqfoJCtLU_5ruchy7backend10transpiler14type_inference22check_if_numeric_usage0B9_
FN:166,_RNCNvNtNtNtCs2RUqfoJCtLU_5ruchy7backend10transpiler14type_inference24check_call_numeric_usage0B9_
FN:148,_RNCNvNtNtNtCs2RUqfoJCtLU_5ruchy7backend10transpiler14type_inference25check_block_numeric_usage0B9_
FN:64,_RNCNvNtNtNtCs2RUqfoJCtLU_5ruchy7backend10transpiler14type_inference25is_param_used_as_function0B9_
FN:72,_RNCNvNtNtNtCs2RUqfoJCtLU_5ruchy7backend10transpiler14type_inference25is_param_used_as_functions0_0B9_
FN:67,_RNCNvNtNtNtCs2RUqfoJCtLU_5ruchy7backend10transpiler14type_inference25is_param_used_as_functions_0B9_
FN:24,_RNCNvNtNtNtCs2RUqfoJCtLU_5ruchy7backend10transpiler14type_inference34is_param_used_as_function_argument0B9_
FN:32,_RNCNvNtNtNtCs2RUqfoJCtLU_5ruchy7backend10transpiler14type_inference34is_param_used_as_function_arguments0_0B9_
FN:27,_RNCNvNtNtNtCs2RUqfoJCtLU_5ruchy7backend10transpiler14type_inference34is_param_used_as_function_arguments_0B9_
FN:170,_RNvNtNtNtCs2RUqfoJCtLU_5ruchy7backend10transpiler14type_inference14contains_param
FN:188,_RNvNtNtNtCs2RUqfoJCtLU_5ruchy7backend10transpiler14type_inference17is_string_literal
FN:128,_RNvNtNtNtCs2RUqfoJCtLU_5ruchy7backend10transpiler14type_inference19is_numeric_operator
FN:152,_RNvNtNtNtCs2RUqfoJCtLU_5ruchy7backend10transpiler14type_inference22check_if_numeric_usage
FN:136,_RNvNtNtNtCs2RUqfoJCtLU_5ruchy7backend10transpiler14type_inference22has_param_in_operation
FN:159,_RNvNtNtNtCs2RUqfoJCtLU_5ruchy7backend10transpiler14type_inference23check_let_numeric_usage
FN:141,_RNvNtNtNtCs2RUqfoJCtLU_5ruchy7backend10transpiler14type_inference23is_string_concatenation
FN:165,_RNvNtNtNtCs2RUqfoJCtLU_5ruchy7backend10transpiler14type_inference24check_call_numeric_usage
FN:147,_RNvNtNtNtCs2RUqfoJCtLU_5ruchy7backend10transpiler14type_inference25check_block_numeric_usage
FN:54,_RNvNtNtNtCs2RUqfoJCtLU_5ruchy7backend10transpiler14type_inference25is_param_used_as_function
FN:91,_RNvNtNtNtCs2RUqfoJCtLU_5ruchy7backend10transpiler14type_inference25is_param_used_numerically
FN:113,_RNvNtNtNtCs2RUqfoJCtLU_5ruchy7backend10transpiler14type_inference26check_binary_numeric_usage
FN:9,_RNvNtNtNtCs2RUqfoJCtLU_5ruchy7backend10transpiler14type_inference34is_param_used_as_function_argument
FNDA:0,_RNCNvNtNtNtCs2RUqfoJCtLU_5ruchy7backend10transpiler14type_inference14contains_param0B9_
FNDA:0,_RNCNvNtNtNtCs2RUqfoJCtLU_5ruchy7backend10transpiler14type_inference14contains_params_0B9_
FNDA:0,_RNCNvNtNtNtCs2RUqfoJCtLU_5ruchy7backend10transpiler14type_inference22check_if_numeric_usage0B9_
FNDA:0,_RNCNvNtNtNtCs2RUqfoJCtLU_5ruchy7backend10transpiler14type_inference24check_call_numeric_usage0B9_
FNDA:0,_RNCNvNtNtNtCs2RUqfoJCtLU_5ruchy7backend10transpiler14type_inference25check_block_numeric_usage0B9_
FNDA:0,_RNCNvNtNtNtCs2RUqfoJCtLU_5ruchy7backend10transpiler14type_inference25is_param_used_as_function0B9_
FNDA:0,_RNCNvNtNtNtCs2RUqfoJCtLU_5ruchy7backend10transpiler14type_inference25is_param_used_as_functions0_0B9_
FNDA:0,_RNCNvNtNtNtCs2RUqfoJCtLU_5ruchy7backend10transpiler14type_inference25is_param_used_as_functions_0B9_
FNDA:0,_RNCNvNtNtNtCs2RUqfoJCtLU_5ruchy7backend10transpiler14type_inference34is_param_used_as_function_argument0B9_
FNDA:0,_RNCNvNtNtNtCs2RUqfoJCtLU_5ruchy7backend10transpiler14type_inference34is_param_used_as_function_arguments0_0B9_
FNDA:0,_RNCNvNtNtNtCs2RUqfoJCtLU_5ruchy7backend10transpiler14type_inference34is_param_used_as_function_arguments_0B9_
FNDA:0,_RNvNtNtNtCs2RUqfoJCtLU_5ruchy7backend10transpiler14type_inference14contains_param
FNDA:0,_RNvNtNtNtCs2RUqfoJCtLU_5ruchy7backend10transpiler14type_inference17is_string_literal
FNDA:0,_RNvNtNtNtCs2RUqfoJCtLU_5ruchy7backend10transpiler14type_inference19is_numeric_operator
FNDA:0,_RNvNtNtNtCs2RUqfoJCtLU_5ruchy7backend10transpiler14type_inference22check_if_numeric_usage
FNDA:0,_RNvNtNtNtCs2RUqfoJCtLU_5ruchy7backend10transpiler14type_inference22has_param_in_operation
FNDA:0,_RNvNtNtNtCs2RUqfoJCtLU_5ruchy7backend10transpiler14type_inference23check_let_numeric_usage
FNDA:0,_RNvNtNtNtCs2RUqfoJCtLU_5ruchy7backend10transpiler14type_inference23is_string_concatenation
FNDA:0,_RNvNtNtNtCs2RUqfoJCtLU_5ruchy7backend10transpiler14type_inference24check_call_numeric_usage
FNDA:0,_RNvNtNtNtCs2RUqfoJCtLU_5ruchy7backend10transpiler14type_inference25check_block_numeric_usage
FNDA:0,_RNvNtNtNtCs2RUqfoJCtLU_5ruchy7backend10transpiler14type_inference25is_param_used_as_function
FNDA:0,_RNvNtNtNtCs2RUqfoJCtLU_5ruchy7backend10transpiler14type_inference25is_param_used_numerically
FNDA:0,_RNvNtNtNtCs2RUqfoJCtLU_5ruchy7backend10transpiler14type_inference26check_binary_numeric_usage
FNDA:0,_RNvNtNtNtCs2RUqfoJCtLU_5ruchy7backend10transpiler14type_inference34is_param_used_as_function_argument
FNF:24
FNH:0
DA:9,0
DA:10,0
DA:11,0
DA:13,0
DA:15,0
DA:16,0
DA:17,0
DA:18,0
DA:19,0
DA:20,0
DA:22,0
DA:24,0
DA:26,0
DA:27,0
DA:29,0
DA:30,0
DA:31,0
DA:32,0
DA:34,0
DA:35,0
DA:36,0
DA:38,0
DA:39,0
DA:40,0
DA:42,0
DA:43,0
DA:44,0
DA:46,0
DA:47,0
DA:49,0
DA:51,0
DA:54,0
DA:55,0
DA:56,0
DA:58,0
DA:59,0
DA:60,0
DA:61,0
DA:62,0
DA:64,0
DA:66,0
DA:67,0
DA:69,0
DA:70,0
DA:71,0
DA:72,0
DA:74,0
DA:75,0
DA:76,0
DA:78,0
DA:79,0
DA:80,0
DA:82,0
DA:83,0
DA:85,0
DA:87,0
DA:91,0
DA:92,0
DA:93,0
DA:94,0
DA:96,0
DA:97,0
DA:99,0
DA:100,0
DA:102,0
DA:103,0
DA:105,0
DA:106,0
DA:108,0
DA:110,0
DA:113,0
DA:114,0
DA:116,0
DA:117,0
DA:118,0
DA:119,0
DA:120,0
DA:123,0
DA:124,0
DA:125,0
DA:128,0
DA:129,0
DA:133,0
DA:136,0
DA:137,0
DA:138,0
DA:141,0
DA:142,0
DA:143,0
DA:144,0
DA:147,0
DA:148,0
DA:149,0
DA:152,0
DA:153,0
DA:154,0
DA:155,0
DA:156,0
DA:159,0
DA:160,0
DA:161,0
DA:162,0
DA:165,0
DA:166,0
DA:167,0
DA:170,0
DA:171,0
DA:172,0
DA:173,0
DA:174,0
DA:176,0
DA:177,0
DA:179,0
DA:180,0
DA:181,0
DA:183,0
DA:185,0
DA:188,0
DA:189,0
DA:190,0
BRF:0
BRH:0
LF:131
LH:0
end_of_record
SF:/home/noah/src/ruchy/src/backend/transpiler/types.rs
FN:214,_RNCNCNCNvMNtNtNtCs2RUqfoJCtLU_5ruchy7backend10transpiler5typesNtBa_10Transpiler14transpile_enums0_000Be_
FN:374,_RNCNCNCNvMNtNtNtCs2RUqfoJCtLU_5ruchy7backend10transpiler5typesNtBa_10Transpiler14transpile_impl000Be_
FN:286,_RNCNCNCNvMNtNtNtCs2RUqfoJCtLU_5ruchy7backend10transpiler5typesNtBa_10Transpiler15transpile_trait000Be_
FN:523,_RNCNCNCNvMNtNtNtCs2RUqfoJCtLU_5ruchy7backend10transpiler5typesNtBa_10Transpiler16transpile_extend000Be_
FN:568,_RNCNCNCNvMNtNtNtCs2RUqfoJCtLU_5ruchy7backend10transpiler5typesNtBa_10Transpiler16transpile_extends_000Be_
FN:214,_RNCNCNvMNtNtNtCs2RUqfoJCtLU_5ruchy7backend10transpiler5typesNtB8_10Transpiler14transpile_enums0_00Bc_
FN:362,_RNCNCNvMNtNtNtCs2RUqfoJCtLU_5ruchy7backend10transpiler5typesNtB8_10Transpiler14transpile_impl00Bc_
FN:274,_RNCNCNvMNtNtNtCs2RUqfoJCtLU_5ruchy7backend10transpiler5typesNtB8_10Transpiler15transpile_trait00Bc_
FN:511,_RNCNCNvMNtNtNtCs2RUqfoJCtLU_5ruchy7backend10transpiler5typesNtB8_10Transpiler16transpile_extend00Bc_
FN:557,_RNCNCNvMNtNtNtCs2RUqfoJCtLU_5ruchy7backend10transpiler5typesNtB8_10Transpiler16transpile_extends_00Bc_
FN:162,_RNCNCNvMNtNtNtCs2RUqfoJCtLU_5ruchy7backend10transpiler5typesNtB8_10Transpiler16transpile_structs_00Bc_
FN:457,_RNCNCNvMNtNtNtCs2RUqfoJCtLU_5ruchy7backend10transpiler5typesNtB8_10Transpiler23transpile_property_test00Bc_
FN:200,_RNCNvMNtNtNtCs2RUqfoJCtLU_5ruchy7backend10transpiler5typesNtB6_10Transpiler14transpile_enum0Ba_
FN:207,_RNCNvMNtNtNtCs2RUqfoJCtLU_5ruchy7backend10transpiler5typesNtB6_10Transpiler14transpile_enums0_0Ba_
FN:354,_RNCNvMNtNtNtCs2RUqfoJCtLU_5ruchy7backend10transpiler5typesNtB6_10Transpiler14transpile_impl0Ba_
FN:405,_RNCNvMNtNtNtCs2RUqfoJCtLU_5ruchy7backend10transpiler5typesNtB6_10Transpiler14transpile_impls_0Ba_
FN:85,_RNCNvMNtNtNtCs2RUqfoJCtLU_5ruchy7backend10transpiler5typesNtB6_10Transpiler14transpile_type0Ba_
FN:105,_RNCNvMNtNtNtCs2RUqfoJCtLU_5ruchy7backend10transpiler5typesNtB6_10Transpiler14transpile_types0_0Ba_
FN:99,_RNCNvMNtNtNtCs2RUqfoJCtLU_5ruchy7backend10transpiler5typesNtB6_10Transpiler14transpile_types_0Ba_
FN:266,_RNCNvMNtNtNtCs2RUqfoJCtLU_5ruchy7backend10transpiler5typesNtB6_10Transpiler15transpile_trait0Ba_
FN:322,_RNCNvMNtNtNtCs2RUqfoJCtLU_5ruchy7backend10transpiler5typesNtB6_10Transpiler15transpile_traits_0Ba_
FN:503,_RNCNvMNtNtNtCs2RUqfoJCtLU_5ruchy7backend10transpiler5typesNtB6_10Transpiler16transpile_extend0Ba_
FN:549,_RNCNvMNtNtNtCs2RUqfoJCtLU_5ruchy7backend10transpiler5typesNtB6_10Transpiler16transpile_extends_0Ba_
FN:154,_RNCNvMNtNtNtCs2RUqfoJCtLU_5ruchy7backend10transpiler5typesNtB6_10Transpiler16transpile_struct0Ba_
FN:158,_RNCNvMNtNtNtCs2RUqfoJCtLU_5ruchy7backend10transpiler5typesNtB6_10Transpiler16transpile_structs_0Ba_
FN:453,_RNCNvMNtNtNtCs2RUqfoJCtLU_5ruchy7backend10transpiler5typesNtB6_10Transpiler23transpile_property_test0Ba_
FN:203,_RNCNvMNtNtNtCs2RUqfoJCtLU_5ruchy7backend10transpiler5typesNtB6_10Transpiler14transpile_enums_0Ba_
FN:190,_RNvMNtNtNtCs2RUqfoJCtLU_5ruchy7backend10transpiler5typesNtB4_10Transpiler14transpile_enum
FN:342,_RNvMNtNtNtCs2RUqfoJCtLU_5ruchy7backend10transpiler5typesNtB4_10Transpiler14transpile_impl
FN:60,_RNvMNtNtNtCs2RUqfoJCtLU_5ruchy7backend10transpiler5typesNtB4_10Transpiler14transpile_type
FN:255,_RNvMNtNtNtCs2RUqfoJCtLU_5ruchy7backend10transpiler5typesNtB4_10Transpiler15transpile_trait
FN:492,_RNvMNtNtNtCs2RUqfoJCtLU_5ruchy7backend10transpiler5typesNtB4_10Transpiler16transpile_extend
FN:144,_RNvMNtNtNtCs2RUqfoJCtLU_5ruchy7backend10transpiler5typesNtB4_10Transpiler16transpile_struct
FN:440,_RNvMNtNtNtCs2RUqfoJCtLU_5ruchy7backend10transpiler5typesNtB4_10Transpiler23transpile_property_test
FNDA:0,_RNCNCNCNvMNtNtNtCs2RUqfoJCtLU_5ruchy7backend10transpiler5typesNtBa_10Transpiler14transpile_enums0_000Be_
FNDA:0,_RNCNCNCNvMNtNtNtCs2RUqfoJCtLU_5ruchy7backend10transpiler5typesNtBa_10Transpiler14transpile_impl000Be_
FNDA:0,_RNCNCNCNvMNtNtNtCs2RUqfoJCtLU_5ruchy7backend10transpiler5typesNtBa_10Transpiler15transpile_trait000Be_
FNDA:0,_RNCNCNCNvMNtNtNtCs2RUqfoJCtLU_5ruchy7backend10transpiler5typesNtBa_10Transpiler16transpile_extend000Be_
FNDA:0,_RNCNCNCNvMNtNtNtCs2RUqfoJCtLU_5ruchy7backend10transpiler5typesNtBa_10Transpiler16transpile_extends_000Be_
FNDA:0,_RNCNCNvMNtNtNtCs2RUqfoJCtLU_5ruchy7backend10transpiler5typesNtB8_10Transpiler14transpile_enums0_00Bc_
FNDA:0,_RNCNCNvMNtNtNtCs2RUqfoJCtLU_5ruchy7backend10transpiler5typesNtB8_10Transpiler14transpile_impl00Bc_
FNDA:0,_RNCNCNvMNtNtNtCs2RUqfoJCtLU_5ruchy7backend10transpiler5typesNtB8_10Transpiler15transpile_trait00Bc_
FNDA:0,_RNCNCNvMNtNtNtCs2RUqfoJCtLU_5ruchy7backend10transpiler5typesNtB8_10Transpiler16transpile_extend00Bc_
FNDA:0,_RNCNCNvMNtNtNtCs2RUqfoJCtLU_5ruchy7backend10transpiler5typesNtB8_10Transpiler16transpile_extends_00Bc_
FNDA:0,_RNCNCNvMNtNtNtCs2RUqfoJCtLU_5ruchy7backend10transpiler5typesNtB8_10Transpiler16transpile_structs_00Bc_
FNDA:0,_RNCNCNvMNtNtNtCs2RUqfoJCtLU_5ruchy7backend10transpiler5typesNtB8_10Transpiler23transpile_property_test00Bc_
FNDA:0,_RNCNvMNtNtNtCs2RUqfoJCtLU_5ruchy7backend10transpiler5typesNtB6_10Transpiler14transpile_enum0Ba_
FNDA:0,_RNCNvMNtNtNtCs2RUqfoJCtLU_5ruchy7backend10transpiler5typesNtB6_10Transpiler14transpile_enums0_0Ba_
FNDA:0,_RNCNvMNtNtNtCs2RUqfoJCtLU_5ruchy7backend10transpiler5typesNtB6_10Transpiler14transpile_impl0Ba_
FNDA:0,_RNCNvMNtNtNtCs2RUqfoJCtLU_5ruchy7backend10transpiler5typesNtB6_10Transpiler14transpile_impls_0Ba_
FNDA:0,_RNCNvMNtNtNtCs2RUqfoJCtLU_5ruchy7backend10transpiler5typesNtB6_10Transpiler14transpile_type0Ba_
FNDA:0,_RNCNvMNtNtNtCs2RUqfoJCtLU_5ruchy7backend10transpiler5typesNtB6_10Transpiler14transpile_types0_0Ba_
FNDA:0,_RNCNvMNtNtNtCs2RUqfoJCtLU_5ruchy7backend10transpiler5typesNtB6_10Transpiler14transpile_types_0Ba_
FNDA:0,_RNCNvMNtNtNtCs2RUqfoJCtLU_5ruchy7backend10transpiler5typesNtB6_10Transpiler15transpile_trait0Ba_
FNDA:0,_RNCNvMNtNtNtCs2RUqfoJCtLU_5ruchy7backend10transpiler5typesNtB6_10Transpiler15transpile_traits_0Ba_
FNDA:0,_RNCNvMNtNtNtCs2RUqfoJCtLU_5ruchy7backend10transpiler5typesNtB6_10Transpiler16transpile_extend0Ba_
FNDA:0,_RNCNvMNtNtNtCs2RUqfoJCtLU_5ruchy7backend10transpiler5typesNtB6_10Transpiler16transpile_extends_0Ba_
FNDA:0,_RNCNvMNtNtNtCs2RUqfoJCtLU_5ruchy7backend10transpiler5typesNtB6_10Transpiler16transpile_struct0Ba_
FNDA:0,_RNCNvMNtNtNtCs2RUqfoJCtLU_5ruchy7backend10transpiler5typesNtB6_10Transpiler16transpile_structs_0Ba_
FNDA:0,_RNCNvMNtNtNtCs2RUqfoJCtLU_5ruchy7backend10transpiler5typesNtB6_10Transpiler23transpile_property_test0Ba_
FNDA:0,_RNCNvMNtNtNtCs2RUqfoJCtLU_5ruchy7backend10transpiler5typesNtB6_10Transpiler14transpile_enums_0Ba_
FNDA:0,_RNvMNtNtNtCs2RUqfoJCtLU_5ruchy7backend10transpiler5typesNtB4_10Transpiler14transpile_enum
FNDA:0,_RNvMNtNtNtCs2RUqfoJCtLU_5ruchy7backend10transpiler5typesNtB4_10Transpiler14transpile_impl
FNDA:0,_RNvMNtNtNtCs2RUqfoJCtLU_5ruchy7backend10transpiler5typesNtB4_10Transpiler14transpile_type
FNDA:0,_RNvMNtNtNtCs2RUqfoJCtLU_5ruchy7backend10transpiler5typesNtB4_10Transpiler15transpile_trait
FNDA:0,_RNvMNtNtNtCs2RUqfoJCtLU_5ruchy7backend10transpiler5typesNtB4_10Transpiler16transpile_extend
FNDA:0,_RNvMNtNtNtCs2RUqfoJCtLU_5ruchy7backend10transpiler5typesNtB4_10Transpiler16transpile_struct
FNDA:0,_RNvMNtNtNtCs2RUqfoJCtLU_5ruchy7backend10transpiler5typesNtB4_10Transpiler23transpile_property_test
FNF:34
FNH:0
DA:60,0
DA:63,0
DA:64,0
DA:66,0
DA:67,0
DA:68,0
DA:69,0
DA:70,0
DA:71,0
DA:72,0
DA:74,0
DA:76,0
DA:77,0
DA:80,0
DA:82,0
DA:83,0
DA:84,0
DA:85,0
DA:86,0
DA:87,0
DA:89,0
DA:90,0
DA:91,0
DA:93,0
DA:94,0
DA:95,0
DA:97,0
DA:98,0
DA:99,0
DA:100,0
DA:101,0
DA:103,0
DA:104,0
DA:105,0
DA:106,0
DA:107,0
DA:110,0
DA:114,0
DA:118,0
DA:120,0
DA:122,0
DA:123,0
DA:125,0
DA:126,0
DA:128,0
DA:130,0
DA:131,0
DA:133,0
DA:134,0
DA:135,0
DA:137,0
DA:141,0
DA:144,0
DA:145,0
DA:146,0
DA:147,0
DA:148,0
DA:149,0
DA:150,0
DA:151,0
DA:153,0
DA:154,0
DA:156,0
DA:157,0
DA:158,0
DA:159,0
DA:160,0
DA:161,0
DA:162,0
DA:164,0
DA:165,0
DA:167,0
DA:169,0
DA:170,0
DA:172,0
DA:174,0
DA:175,0
DA:181,0
DA:187,0
DA:190,0
DA:191,0
DA:192,0
DA:193,0
DA:194,0
DA:195,0
DA:196,0
DA:197,0
DA:199,0
DA:200,0
DA:203,0
DA:205,0
DA:206,0
DA:207,0
DA:208,0
DA:210,0
DA:212,0
DA:213,0
DA:214,0
DA:215,0
DA:216,0
DA:217,0
DA:220,0
DA:221,0
DA:224,0
DA:226,0
DA:227,0
DA:229,0
DA:232,0
DA:233,0
DA:235,0
DA:238,0
DA:239,0
DA:246,0
DA:253,0
DA:255,0
DA:256,0
DA:257,0
DA:258,0
DA:259,0
DA:260,0
DA:261,0
DA:262,0
DA:264,0
DA:265,0
DA:266,0
DA:267,0
DA:270,0
DA:271,0
DA:272,0
DA:273,0
DA:274,0
DA:275,0
DA:277,0
DA:278,0
DA:280,0
DA:283,0
DA:284,0
DA:285,0
DA:286,0
DA:287,0
DA:289,0
DA:290,0
DA:293,0
DA:294,0
DA:295,0
DA:297,0
DA:301,0
DA:304,0
DA:305,0
DA:306,0
DA:312,0
DA:316,0
DA:317,0
DA:319,0
DA:321,0
DA:322,0
DA:324,0
DA:326,0
DA:327,0
DA:333,0
DA:339,0
DA:342,0
DA:343,0
DA:344,0
DA:345,0
DA:346,0
DA:347,0
DA:348,0
DA:349,0
DA:350,0
DA:352,0
DA:353,0
DA:354,0
DA:355,0
DA:358,0
DA:359,0
DA:360,0
DA:361,0
DA:362,0
DA:363,0
DA:365,0
DA:366,0
DA:368,0
DA:371,0
DA:372,0
DA:373,0
DA:374,0
DA:375,0
DA:377,0
DA:378,0
DA:381,0
DA:382,0
DA:383,0
DA:385,0
DA:389,0
DA:392,0
DA:394,0
DA:399,0
DA:400,0
DA:402,0
DA:404,0
DA:405,0
DA:407,0
DA:408,0
DA:409,0
DA:410,0
DA:416,0
DA:423,0
DA:424,0
DA:430,0
DA:437,0
DA:440,0
DA:445,0
DA:446,0
DA:448,0
DA:451,0
DA:452,0
DA:453,0
DA:454,0
DA:455,0
DA:456,0
DA:457,0
DA:458,0
DA:459,0
DA:460,0
DA:462,0
DA:465,0
DA:480,0
DA:482,0
DA:492,0
DA:493,0
DA:494,0
DA:495,0
DA:496,0
DA:497,0
DA:498,0
DA:501,0
DA:502,0
DA:503,0
DA:504,0
DA:507,0
DA:508,0
DA:509,0
DA:510,0
DA:511,0
DA:512,0
DA:514,0
DA:515,0
DA:517,0
DA:520,0
DA:521,0
DA:522,0
DA:523,0
DA:524,0
DA:526,0
DA:527,0
DA:530,0
DA:531,0
DA:532,0
DA:534,0
DA:538,0
DA:541,0
DA:542,0
DA:544,0
DA:547,0
DA:548,0
DA:549,0
DA:550,0
DA:553,0
DA:554,0
DA:555,0
DA:556,0
DA:557,0
DA:558,0
DA:559,0
DA:560,0
DA:562,0
DA:565,0
DA:566,0
DA:567,0
DA:568,0
DA:569,0
DA:571,0
DA:572,0
DA:575,0
DA:576,0
DA:577,0
DA:579,0
DA:583,0
DA:585,0
DA:590,0
DA:591,0
DA:593,0
DA:596,0
DA:605,0
BRF:0
BRH:0
LF:322
LH:0
end_of_record
SF:/home/noah/src/ruchy/src/bin/handlers/commands.rs
FN:699,_RNCNvNtNtCs2dSEqydACWj_5ruchy8handlers8commands19format_score_outputs_0B7_
FN:1272,_RNCNvNvNtNtCs2dSEqydACWj_5ruchy8handlers8commands21calculate_max_nesting14nesting_helpers0_0B9_
FN:1251,_RNCNvNvNtNtCs2dSEqydACWj_5ruchy8handlers8commands21calculate_max_nesting14nesting_helpers_0B9_
FN:265,_RNCNvNtNtCs2dSEqydACWj_5ruchy8handlers8commands17count_issue_types0B7_
FN:266,_RNCNvNtNtCs2dSEqydACWj_5ruchy8handlers8commands17count_issue_typess_0B7_
FN:1155,_RNCNvNtNtCs2dSEqydACWj_5ruchy8handlers8commands19analyze_ast_quality0B7_
FN:750,_RNCNvNtNtCs2dSEqydACWj_5ruchy8handlers8commands19collect_ruchy_files0B7_
FN:1219,_RNCNvNtNtCs2dSEqydACWj_5ruchy8handlers8commands19count_lines_in_expr0B7_
FN:698,_RNCNvNtNtCs2dSEqydACWj_5ruchy8handlers8commands19format_score_output0B7_
FN:939,_RNCNvNtNtCs2dSEqydACWj_5ruchy8handlers8commands21detect_satd_in_source0B7_
FN:548,_RNCNvNtNtCs2dSEqydACWj_5ruchy8handlers8commands24handle_single_file_scores_0B7_
FN:1245,_RNCNvNvNtNtCs2dSEqydACWj_5ruchy8handlers8commands21calculate_max_nesting14nesting_helper0B9_
FN:720,_RNvNtNtCs2dSEqydACWj_5ruchy8handlers8commands12write_output
FN:873,_RNvNtNtCs2dSEqydACWj_5ruchy8handlers8commands14output_results
FN:840,_RNvNtNtCs2dSEqydACWj_5ruchy8handlers8commands15check_satd_gate
FN:891,_RNvNtNtCs2dSEqydACWj_5ruchy8handlers8commands15count_ast_nodes
FN:1327,_RNvNtNtCs2dSEqydACWj_5ruchy8handlers8commands15extract_symbols
FN:312,_RNvNtNtCs2dSEqydACWj_5ruchy8handlers8commands15handle_auto_fix
FN:228,_RNvNtNtCs2dSEqydACWj_5ruchy8handlers8commands16configure_linter
FN:1031,_RNvNtNtCs2dSEqydACWj_5ruchy8handlers8commands16get_satd_penalty
FN:186,_RNvNtNtCs2dSEqydACWj_5ruchy8handlers8commands16handle_diff_mode
FN:673,_RNvNtNtCs2dSEqydACWj_5ruchy8handlers8commands17calculate_average
FN:264,_RNvNtNtCs2dSEqydACWj_5ruchy8handlers8commands17count_issue_types
FN:171,_RNvNtNtCs2dSEqydACWj_5ruchy8handlers8commands17handle_check_mode
FN:141,_RNvNtNtCs2dSEqydACWj_5ruchy8handlers8commands17handle_fmt_output
FN:199,_RNvNtNtCs2dSEqydACWj_5ruchy8handlers8commands17handle_write_mode
FN:804,_RNvNtNtCs2dSEqydACWj_5ruchy8handlers8commands17parse_source_file
FN:810,_RNvNtNtCs2dSEqydACWj_5ruchy8handlers8commands17run_quality_gates
FN:1117,_RNvNtNtCs2dSEqydACWj_5ruchy8handlers8commands18analyze_complexity
FN:114,_RNvNtNtCs2dSEqydACWj_5ruchy8handlers8commands18determine_fmt_mode
FN:255,_RNvNtNtCs2dSEqydACWj_5ruchy8handlers8commands18format_json_output
FN:271,_RNvNtNtCs2dSEqydACWj_5ruchy8handlers8commands18format_text_output
FN:1012,_RNvNtNtCs2dSEqydACWj_5ruchy8handlers8commands18get_length_penalty
FN:12,_RNvNtNtCs2dSEqydACWj_5ruchy8handlers8commands18handle_ast_command
FN:83,_RNvNtNtCs2dSEqydACWj_5ruchy8handlers8commands18handle_fmt_command
FN:181,_RNvNtNtCs2dSEqydACWj_5ruchy8handlers8commands18handle_stdout_mode
FN:329,_RNvNtNtCs2dSEqydACWj_5ruchy8handlers8commands18handle_strict_mode
FN:886,_RNvNtNtCs2dSEqydACWj_5ruchy8handlers8commands18should_fail_strict
FN:1143,_RNvNtNtCs2dSEqydACWj_5ruchy8handlers8commands19analyze_ast_quality
FN:896,_RNvNtNtCs2dSEqydACWj_5ruchy8handlers8commands19calculate_ast_depth
FN:741,_RNvNtNtCs2dSEqydACWj_5ruchy8handlers8commands19collect_ruchy_files
FN:1210,_RNvNtNtCs2dSEqydACWj_5ruchy8handlers8commands19count_lines_in_expr
FN:861,_RNvNtNtCs2dSEqydACWj_5ruchy8handlers8commands19format_gate_results
FN:682,_RNvNtNtCs2dSEqydACWj_5ruchy8handlers8commands19format_score_output
FN:999,_RNvNtNtCs2dSEqydACWj_5ruchy8handlers8commands19get_nesting_penalty
FN:212,_RNvNtNtCs2dSEqydACWj_5ruchy8handlers8commands19handle_default_mode
FN:336,_RNvNtNtCs2dSEqydACWj_5ruchy8handlers8commands19handle_lint_command
FN:246,_RNvNtNtCs2dSEqydACWj_5ruchy8handlers8commands19run_linter_analysis
FN:1051,_RNvNtNtCs2dSEqydACWj_5ruchy8handlers8commands20calculate_complexity
FN:761,_RNvNtNtCs2dSEqydACWj_5ruchy8handlers8commands20calculate_file_score
FN:501,_RNvNtNtCs2dSEqydACWj_5ruchy8handlers8commands20handle_score_command
FN:125,_RNvNtNtCs2dSEqydACWj_5ruchy8handlers8commands20read_and_format_file
FN:1225,_RNvNtNtCs2dSEqydACWj_5ruchy8handlers8commands21calculate_max_nesting
FN:828,_RNvNtNtCs2dSEqydACWj_5ruchy8handlers8commands21check_complexity_gate
FN:731,_RNvNtNtCs2dSEqydACWj_5ruchy8handlers8commands21check_score_threshold
FN:851,_RNvNtNtCs2dSEqydACWj_5ruchy8handlers8commands21contains_satd_comment
FN:938,_RNvNtNtCs2dSEqydACWj_5ruchy8handlers8commands21detect_satd_in_source
FN:986,_RNvNtNtCs2dSEqydACWj_5ruchy8handlers8commands21get_parameter_penalty
FN:217,_RNvNtNtCs2dSEqydACWj_5ruchy8handlers8commands21read_and_parse_source
FN:972,_RNvNtNtCs2dSEqydACWj_5ruchy8handlers8commands22get_complexity_penalty
FN:581,_RNvNtNtCs2dSEqydACWj_5ruchy8handlers8commands22handle_directory_score
FN:617,_RNvNtNtCs2dSEqydACWj_5ruchy8handlers8commands22handle_empty_directory
FN:430,_RNvNtNtCs2dSEqydACWj_5ruchy8handlers8commands22handle_runtime_command
FN:916,_RNvNtNtCs2dSEqydACWj_5ruchy8handlers8commands23calculate_quality_score
FN:925,_RNvNtNtCs2dSEqydACWj_5ruchy8handlers8commands23collect_quality_metrics
FN:527,_RNvNtNtCs2dSEqydACWj_5ruchy8handlers8commands24handle_single_file_score
FN:653,_RNvNtNtCs2dSEqydACWj_5ruchy8handlers8commands25calculate_all_file_scores
FN:1036,_RNvNtNtCs2dSEqydACWj_5ruchy8handlers8commands25get_documentation_penalty
FN:1283,_RNvNtNtCs2dSEqydACWj_5ruchy8handlers8commands26count_assertions_recursive
FN:363,_RNvNtNtCs2dSEqydACWj_5ruchy8handlers8commands26handle_provability_command
FN:901,_RNvNtNtCs2dSEqydACWj_5ruchy8handlers8commands27calculate_provability_score
FN:773,_RNvNtNtCs2dSEqydACWj_5ruchy8handlers8commands27handle_quality_gate_command
FN:629,_RNvNtNtCs2dSEqydACWj_5ruchy8handlers8commands29format_empty_directory_output
FN:957,_RNvNtNtCs2dSEqydACWj_5ruchy8handlers8commands30calculate_score_with_penalties
FN:1022,_RNvNtNtCs2dSEqydACWj_5ruchy8handlers8commands33calculate_average_function_length
FN:950,_RNvNtNtCs2dSEqydACWj_5ruchy8handlers8commands33calculate_complexity_from_metrics
FN:1055,_RNvNvNtNtCs2dSEqydACWj_5ruchy8handlers8commands20calculate_complexity14count_branches
FN:1228,_RNvNvNtNtCs2dSEqydACWj_5ruchy8handlers8commands21calculate_max_nesting14nesting_helper
FN:23,_RNCNvNtNtCs2dSEqydACWj_5ruchy8handlers8commands18handle_ast_command0B7_
FN:763,_RNCNvNtNtCs2dSEqydACWj_5ruchy8handlers8commands20calculate_file_score0B7_
FN:767,_RNCNvNtNtCs2dSEqydACWj_5ruchy8handlers8commands20calculate_file_scores_0B7_
FN:129,_RNCNvNtNtCs2dSEqydACWj_5ruchy8handlers8commands20read_and_format_file0B7_
FN:219,_RNCNvNtNtCs2dSEqydACWj_5ruchy8handlers8commands21read_and_parse_source0B7_
FN:441,_RNCNvNtNtCs2dSEqydACWj_5ruchy8handlers8commands22handle_runtime_command0B7_
FN:535,_RNCNvNtNtCs2dSEqydACWj_5ruchy8handlers8commands24handle_single_file_score0B7_
FN:374,_RNCNvNtNtCs2dSEqydACWj_5ruchy8handlers8commands26handle_provability_command0B7_
FN:785,_RNCNvNtNtCs2dSEqydACWj_5ruchy8handlers8commands27handle_quality_gate_command0B7_
FNDA:0,_RNCNvNtNtCs2dSEqydACWj_5ruchy8handlers8commands19format_score_outputs_0B7_
FNDA:0,_RNCNvNvNtNtCs2dSEqydACWj_5ruchy8handlers8commands21calculate_max_nesting14nesting_helpers0_0B9_
FNDA:0,_RNCNvNvNtNtCs2dSEqydACWj_5ruchy8handlers8commands21calculate_max_nesting14nesting_helpers_0B9_
FNDA:0,_RNCNvNtNtCs2dSEqydACWj_5ruchy8handlers8commands17count_issue_types0B7_
FNDA:0,_RNCNvNtNtCs2dSEqydACWj_5ruchy8handlers8commands17count_issue_typess_0B7_
FNDA:0,_RNCNvNtNtCs2dSEqydACWj_5ruchy8handlers8commands19analyze_ast_quality0B7_
FNDA:0,_RNCNvNtNtCs2dSEqydACWj_5ruchy8handlers8commands19collect_ruchy_files0B7_
FNDA:0,_RNCNvNtNtCs2dSEqydACWj_5ruchy8handlers8commands19count_lines_in_expr0B7_
FNDA:0,_RNCNvNtNtCs2dSEqydACWj_5ruchy8handlers8commands19format_score_output0B7_
FNDA:0,_RNCNvNtNtCs2dSEqydACWj_5ruchy8handlers8commands21detect_satd_in_source0B7_
FNDA:0,_RNCNvNtNtCs2dSEqydACWj_5ruchy8handlers8commands24handle_single_file_scores_0B7_
FNDA:0,_RNCNvNvNtNtCs2dSEqydACWj_5ruchy8handlers8commands21calculate_max_nesting14nesting_helper0B9_
FNDA:0,_RNvNtNtCs2dSEqydACWj_5ruchy8handlers8commands12write_output
FNDA:0,_RNvNtNtCs2dSEqydACWj_5ruchy8handlers8commands14output_results
FNDA:0,_RNvNtNtCs2dSEqydACWj_5ruchy8handlers8commands15check_satd_gate
FNDA:0,_RNvNtNtCs2dSEqydACWj_5ruchy8handlers8commands15count_ast_nodes
FNDA:0,_RNvNtNtCs2dSEqydACWj_5ruchy8handlers8commands15extract_symbols
FNDA:0,_RNvNtNtCs2dSEqydACWj_5ruchy8handlers8commands15handle_auto_fix
FNDA:0,_RNvNtNtCs2dSEqydACWj_5ruchy8handlers8commands16configure_linter
FNDA:0,_RNvNtNtCs2dSEqydACWj_5ruchy8handlers8commands16get_satd_penalty
FNDA:0,_RNvNtNtCs2dSEqydACWj_5ruchy8handlers8commands16handle_diff_mode
FNDA:0,_RNvNtNtCs2dSEqydACWj_5ruchy8handlers8commands17calculate_average
FNDA:0,_RNvNtNtCs2dSEqydACWj_5ruchy8handlers8commands17count_issue_types
FNDA:0,_RNvNtNtCs2dSEqydACWj_5ruchy8handlers8commands17handle_check_mode
FNDA:0,_RNvNtNtCs2dSEqydACWj_5ruchy8handlers8commands17handle_fmt_output
FNDA:0,_RNvNtNtCs2dSEqydACWj_5ruchy8handlers8commands17handle_write_mode
FNDA:0,_RNvNtNtCs2dSEqydACWj_5ruchy8handlers8commands17parse_source_file
FNDA:0,_RNvNtNtCs2dSEqydACWj_5ruchy8handlers8commands17run_quality_gates
FNDA:0,_RNvNtNtCs2dSEqydACWj_5ruchy8handlers8commands18analyze_complexity
FNDA:0,_RNvNtNtCs2dSEqydACWj_5ruchy8handlers8commands18determine_fmt_mode
FNDA:0,_RNvNtNtCs2dSEqydACWj_5ruchy8handlers8commands18format_json_output
FNDA:0,_RNvNtNtCs2dSEqydACWj_5ruchy8handlers8commands18format_text_output
FNDA:0,_RNvNtNtCs2dSEqydACWj_5ruchy8handlers8commands18get_length_penalty
FNDA:0,_RNvNtNtCs2dSEqydACWj_5ruchy8handlers8commands18handle_ast_command
FNDA:0,_RNvNtNtCs2dSEqydACWj_5ruchy8handlers8commands18handle_fmt_command
FNDA:0,_RNvNtNtCs2dSEqydACWj_5ruchy8handlers8commands18handle_stdout_mode
FNDA:0,_RNvNtNtCs2dSEqydACWj_5ruchy8handlers8commands18handle_strict_mode
FNDA:0,_RNvNtNtCs2dSEqydACWj_5ruchy8handlers8commands18should_fail_strict
FNDA:0,_RNvNtNtCs2dSEqydACWj_5ruchy8handlers8commands19analyze_ast_quality
FNDA:0,_RNvNtNtCs2dSEqydACWj_5ruchy8handlers8commands19calculate_ast_depth
FNDA:0,_RNvNtNtCs2dSEqydACWj_5ruchy8handlers8commands19collect_ruchy_files
FNDA:0,_RNvNtNtCs2dSEqydACWj_5ruchy8handlers8commands19count_lines_in_expr
FNDA:0,_RNvNtNtCs2dSEqydACWj_5ruchy8handlers8commands19format_gate_results
FNDA:0,_RNvNtNtCs2dSEqydACWj_5ruchy8handlers8commands19format_score_output
FNDA:0,_RNvNtNtCs2dSEqydACWj_5ruchy8handlers8commands19get_nesting_penalty
FNDA:0,_RNvNtNtCs2dSEqydACWj_5ruchy8handlers8commands19handle_default_mode
FNDA:0,_RNvNtNtCs2dSEqydACWj_5ruchy8handlers8commands19handle_lint_command
FNDA:0,_RNvNtNtCs2dSEqydACWj_5ruchy8handlers8commands19run_linter_analysis
FNDA:0,_RNvNtNtCs2dSEqydACWj_5ruchy8handlers8commands20calculate_complexity
FNDA:0,_RNvNtNtCs2dSEqydACWj_5ruchy8handlers8commands20calculate_file_score
FNDA:0,_RNvNtNtCs2dSEqydACWj_5ruchy8handlers8commands20handle_score_command
FNDA:0,_RNvNtNtCs2dSEqydACWj_5ruchy8handlers8commands20read_and_format_file
FNDA:0,_RNvNtNtCs2dSEqydACWj_5ruchy8handlers8commands21calculate_max_nesting
FNDA:0,_RNvNtNtCs2dSEqydACWj_5ruchy8handlers8commands21check_complexity_gate
FNDA:0,_RNvNtNtCs2dSEqydACWj_5ruchy8handlers8commands21check_score_threshold
FNDA:0,_RNvNtNtCs2dSEqydACWj_5ruchy8handlers8commands21contains_satd_comment
FNDA:0,_RNvNtNtCs2dSEqydACWj_5ruchy8handlers8commands21detect_satd_in_source
FNDA:0,_RNvNtNtCs2dSEqydACWj_5ruchy8handlers8commands21get_parameter_penalty
FNDA:0,_RNvNtNtCs2dSEqydACWj_5ruchy8handlers8commands21read_and_parse_source
FNDA:0,_RNvNtNtCs2dSEqydACWj_5ruchy8handlers8commands22get_complexity_penalty
FNDA:0,_RNvNtNtCs2dSEqydACWj_5ruchy8handlers8commands22handle_directory_score
FNDA:0,_RNvNtNtCs2dSEqydACWj_5ruchy8handlers8commands22handle_empty_directory
FNDA:0,_RNvNtNtCs2dSEqydACWj_5ruchy8handlers8commands22handle_runtime_command
FNDA:0,_RNvNtNtCs2dSEqydACWj_5ruchy8handlers8commands23calculate_quality_score
FNDA:0,_RNvNtNtCs2dSEqydACWj_5ruchy8handlers8commands23collect_quality_metrics
FNDA:0,_RNvNtNtCs2dSEqydACWj_5ruchy8handlers8commands24handle_single_file_score
FNDA:0,_RNvNtNtCs2dSEqydACWj_5ruchy8handlers8commands25calculate_all_file_scores
FNDA:0,_RNvNtNtCs2dSEqydACWj_5ruchy8handlers8commands25get_documentation_penalty
FNDA:0,_RNvNtNtCs2dSEqydACWj_5ruchy8handlers8commands26count_assertions_recursive
FNDA:0,_RNvNtNtCs2dSEqydACWj_5ruchy8handlers8commands26handle_provability_command
FNDA:0,_RNvNtNtCs2dSEqydACWj_5ruchy8handlers8commands27calculate_provability_score
FNDA:0,_RNvNtNtCs2dSEqydACWj_5ruchy8handlers8commands27handle_quality_gate_command
FNDA:0,_RNvNtNtCs2dSEqydACWj_5ruchy8handlers8commands29format_empty_directory_output
FNDA:0,_RNvNtNtCs2dSEqydACWj_5ruchy8handlers8commands30calculate_score_with_penalties
FNDA:0,_RNvNtNtCs2dSEqydACWj_5ruchy8handlers8commands33calculate_average_function_length
FNDA:0,_RNvNtNtCs2dSEqydACWj_5ruchy8handlers8commands33calculate_complexity_from_metrics
FNDA:0,_RNvNvNtNtCs2dSEqydACWj_5ruchy8handlers8commands20calculate_complexity14count_branches
FNDA:0,_RNvNvNtNtCs2dSEqydACWj_5ruchy8handlers8commands21calculate_max_nesting14nesting_helper
FNDA:0,_RNCNvNtNtCs2dSEqydACWj_5ruchy8handlers8commands18handle_ast_command0B7_
FNDA:0,_RNCNvNtNtCs2dSEqydACWj_5ruchy8handlers8commands20calculate_file_score0B7_
FNDA:0,_RNCNvNtNtCs2dSEqydACWj_5ruchy8handlers8commands20calculate_file_scores_0B7_
FNDA:0,_RNCNvNtNtCs2dSEqydACWj_5ruchy8handlers8commands20read_and_format_file0B7_
FNDA:0,_RNCNvNtNtCs2dSEqydACWj_5ruchy8handlers8commands21read_and_parse_source0B7_
FNDA:0,_RNCNvNtNtCs2dSEqydACWj_5ruchy8handlers8commands22handle_runtime_command0B7_
FNDA:0,_RNCNvNtNtCs2dSEqydACWj_5ruchy8handlers8commands24handle_single_file_score0B7_
FNDA:0,_RNCNvNtNtCs2dSEqydACWj_5ruchy8handlers8commands26handle_provability_command0B7_
FNDA:0,_RNCNvNtNtCs2dSEqydACWj_5ruchy8handlers8commands27handle_quality_gate_command0B7_
FNF:87
FNH:0
DA:12,0
DA:13,0
DA:14,0
DA:15,0
DA:16,0
DA:17,0
DA:18,0
DA:19,0
DA:20,0
DA:21,0
DA:22,0
DA:23,0
DA:25,0
DA:26,0
DA:30,0
DA:32,0
DA:33,0
DA:34,0
DA:35,0
DA:36,0
DA:37,0
DA:38,0
DA:39,0
DA:40,0
DA:41,0
DA:42,0
DA:43,0
DA:44,0
DA:45,0
DA:46,0
DA:47,0
DA:48,0
DA:49,0
DA:50,0
DA:51,0
DA:52,0
DA:53,0
DA:54,0
DA:55,0
DA:56,0
DA:57,0
DA:58,0
DA:59,0
DA:60,0
DA:61,0
DA:62,0
DA:63,0
DA:64,0
DA:65,0
DA:66,0
DA:68,0
DA:69,0
DA:70,0
DA:72,0
DA:73,0
DA:74,0
DA:75,0
DA:76,0
DA:77,0
DA:79,0
DA:80,0
DA:83,0
DA:84,0
DA:85,0
DA:86,0
DA:87,0
DA:88,0
DA:89,0
DA:90,0
DA:91,0
DA:92,0
DA:94,0
DA:97,0
DA:98,0
DA:100,0
DA:101,0
DA:114,0
DA:115,0
DA:116,0
DA:117,0
DA:118,0
DA:119,0
DA:120,0
DA:122,0
DA:125,0
DA:128,0
DA:129,0
DA:131,0
DA:132,0
DA:134,0
DA:135,0
DA:137,0
DA:138,0
DA:141,0
DA:142,0
DA:143,0
DA:144,0
DA:145,0
DA:146,0
DA:147,0
DA:149,0
DA:151,0
DA:152,0
DA:155,0
DA:156,0
DA:159,0
DA:160,0
DA:162,0
DA:164,0
DA:165,0
DA:168,0
DA:171,0
DA:172,0
DA:173,0
DA:174,0
DA:175,0
DA:176,0
DA:178,0
DA:181,0
DA:182,0
DA:183,0
DA:186,0
DA:187,0
DA:188,0
DA:190,0
DA:191,0
DA:192,0
DA:193,0
DA:194,0
DA:196,0
DA:199,0
DA:200,0
DA:201,0
DA:202,0
DA:203,0
DA:205,0
DA:206,0
DA:208,0
DA:209,0
DA:212,0
DA:213,0
DA:214,0
DA:217,0
DA:218,0
DA:219,0
DA:221,0
DA:222,0
DA:224,0
DA:225,0
DA:228,0
DA:231,0
DA:234,0
DA:235,0
DA:236,0
DA:238,0
DA:239,0
DA:240,0
DA:242,0
DA:243,0
DA:246,0
DA:247,0
DA:248,0
DA:249,0
DA:250,0
DA:251,0
DA:252,0
DA:255,0
DA:256,0
DA:257,0
DA:259,0
DA:260,0
DA:261,0
DA:264,0
DA:265,0
DA:266,0
DA:267,0
DA:268,0
DA:271,0
DA:272,0
DA:273,0
DA:274,0
DA:275,0
DA:276,0
DA:277,0
DA:278,0
DA:279,0
DA:281,0
DA:283,0
DA:284,0
DA:285,0
DA:287,0
DA:290,0
DA:291,0
DA:296,0
DA:297,0
DA:298,0
DA:302,0
DA:303,0
DA:304,0
DA:305,0
DA:307,0
DA:309,0
DA:312,0
DA:313,0
DA:314,0
DA:315,0
DA:316,0
DA:317,0
DA:318,0
DA:319,0
DA:320,0
DA:321,0
DA:322,0
DA:323,0
DA:324,0
DA:325,0
DA:326,0
DA:329,0
DA:330,0
DA:331,0
DA:332,0
DA:333,0
DA:336,0
DA:337,0
DA:338,0
DA:339,0
DA:340,0
DA:341,0
DA:342,0
DA:343,0
DA:344,0
DA:345,0
DA:346,0
DA:347,0
DA:348,0
DA:350,0
DA:351,0
DA:353,0
DA:354,0
DA:357,0
DA:359,0
DA:360,0
DA:363,0
DA:364,0
DA:365,0
DA:366,0
DA:367,0
DA:368,0
DA:369,0
DA:370,0
DA:371,0
DA:372,0
DA:373,0
DA:374,0
DA:376,0
DA:377,0
DA:379,0
DA:382,0
DA:383,0
DA:384,0
DA:385,0
DA:386,0
DA:387,0
DA:388,0
DA:389,0
DA:391,0
DA:392,0
DA:393,0
DA:394,0
DA:395,0
DA:396,0
DA:398,0
DA:399,0
DA:400,0
DA:401,0
DA:403,0
DA:404,0
DA:405,0
DA:406,0
DA:408,0
DA:409,0
DA:410,0
DA:411,0
DA:413,0
DA:414,0
DA:415,0
DA:416,0
DA:417,0
DA:419,0
DA:420,0
DA:421,0
DA:422,0
DA:423,0
DA:424,0
DA:426,0
DA:427,0
DA:430,0
DA:431,0
DA:432,0
DA:433,0
DA:434,0
DA:435,0
DA:436,0
DA:437,0
DA:438,0
DA:439,0
DA:440,0
DA:441,0
DA:443,0
DA:444,0
DA:446,0
DA:448,0
DA:449,0
DA:450,0
DA:451,0
DA:452,0
DA:454,0
DA:455,0
DA:456,0
DA:457,0
DA:458,0
DA:460,0
DA:461,0
DA:462,0
DA:463,0
DA:464,0
DA:465,0
DA:467,0
DA:468,0
DA:469,0
DA:470,0
DA:471,0
DA:473,0
DA:474,0
DA:475,0
DA:476,0
DA:477,0
DA:479,0
DA:480,0
DA:481,0
DA:482,0
DA:483,0
DA:484,0
DA:485,0
DA:486,0
DA:487,0
DA:488,0
DA:490,0
DA:491,0
DA:492,0
DA:493,0
DA:494,0
DA:495,0
DA:497,0
DA:498,0
DA:501,0
DA:502,0
DA:503,0
DA:504,0
DA:505,0
DA:506,0
DA:507,0
DA:508,0
DA:509,0
DA:510,0
DA:511,0
DA:512,0
DA:513,0
DA:514,0
DA:515,0
DA:517,0
DA:518,0
DA:520,0
DA:522,0
DA:524,0
DA:527,0
DA:528,0
DA:529,0
DA:530,0
DA:531,0
DA:532,0
DA:533,0
DA:534,0
DA:535,0
DA:537,0
DA:538,0
DA:541,0
DA:543,0
DA:544,0
DA:545,0
DA:546,0
DA:547,0
DA:548,0
DA:549,0
DA:551,0
DA:552,0
DA:553,0
DA:554,0
DA:555,0
DA:556,0
DA:562,0
DA:563,0
DA:564,0
DA:565,0
DA:566,0
DA:567,0
DA:570,0
DA:571,0
DA:572,0
DA:573,0
DA:574,0
DA:575,0
DA:577,0
DA:578,0
DA:581,0
DA:582,0
DA:583,0
DA:584,0
DA:585,0
DA:586,0
DA:587,0
DA:589,0
DA:590,0
DA:593,0
DA:594,0
DA:595,0
DA:598,0
DA:599,0
DA:600,0
DA:601,0
DA:604,0
DA:605,0
DA:608,0
DA:611,0
DA:613,0
DA:614,0
DA:617,0
DA:618,0
DA:619,0
DA:620,0
DA:621,0
DA:622,0
DA:623,0
DA:624,0
DA:625,0
DA:626,0
DA:629,0
DA:630,0
DA:631,0
DA:632,0
DA:633,0
DA:634,0
DA:635,0
DA:636,0
DA:637,0
DA:638,0
DA:640,0
DA:641,0
DA:642,0
DA:643,0
DA:644,0
DA:645,0
DA:646,0
DA:647,0
DA:648,0
DA:650,0
DA:653,0
DA:655,0
DA:657,0
DA:658,0
DA:659,0
DA:660,0
DA:661,0
DA:662,0
DA:663,0
DA:664,0
DA:665,0
DA:669,0
DA:670,0
DA:673,0
DA:674,0
DA:675,0
DA:676,0
DA:677,0
DA:678,0
DA:679,0
DA:682,0
DA:683,0
DA:684,0
DA:685,0
DA:686,0
DA:687,0
DA:688,0
DA:689,0
DA:692,0
DA:693,0
DA:694,0
DA:695,0
DA:696,0
DA:697,0
DA:698,0
DA:699,0
DA:700,0
DA:701,0
DA:703,0
DA:705,0
DA:706,0
DA:707,0
DA:708,0
DA:709,0
DA:710,0
DA:711,0
DA:712,0
DA:713,0
DA:714,0
DA:715,0
DA:717,0
DA:720,0
DA:721,0
DA:722,0
DA:723,0
DA:724,0
DA:725,0
DA:726,0
DA:727,0
DA:728,0
DA:731,0
DA:732,0
DA:733,0
DA:734,0
DA:735,0
DA:736,0
DA:737,0
DA:738,0
DA:741,0
DA:742,0
DA:743,0
DA:744,0
DA:746,0
DA:747,0
DA:748,0
DA:750,0
DA:751,0
DA:752,0
DA:753,0
DA:754,0
DA:757,0
DA:758,0
DA:761,0
DA:762,0
DA:763,0
DA:765,0
DA:766,0
DA:767,0
DA:769,0
DA:770,0
DA:773,0
DA:774,0
DA:775,0
DA:776,0
DA:777,0
DA:778,0
DA:779,0
DA:780,0
DA:781,0
DA:782,0
DA:784,0
DA:785,0
DA:786,0
DA:789,0
DA:792,0
DA:793,0
DA:796,0
DA:797,0
DA:798,0
DA:800,0
DA:801,0
DA:804,0
DA:805,0
DA:806,0
DA:807,0
DA:810,0
DA:811,0
DA:812,0
DA:815,0
DA:816,0
DA:817,0
DA:820,0
DA:821,0
DA:822,0
DA:824,0
DA:825,0
DA:828,0
DA:829,0
DA:830,0
DA:832,0
DA:833,0
DA:835,0
DA:837,0
DA:840,0
DA:841,0
DA:843,0
DA:844,0
DA:846,0
DA:848,0
DA:851,0
DA:852,0
DA:853,0
DA:854,0
DA:856,0
DA:858,0
DA:861,0
DA:862,0
DA:863,0
DA:864,0
DA:865,0
DA:866,0
DA:868,0
DA:870,0
DA:873,0
DA:874,0
DA:875,0
DA:876,0
DA:878,0
DA:879,0
DA:880,0
DA:882,0
DA:883,0
DA:886,0
DA:887,0
DA:888,0
DA:891,0
DA:893,0
DA:894,0
DA:896,0
DA:898,0
DA:899,0
DA:901,0
DA:903,0
DA:904,0
DA:905,0
DA:907,0
DA:908,0
DA:909,0
DA:912,0
DA:913,0
DA:914,0
DA:916,0
DA:918,0
DA:921,0
DA:922,0
DA:925,0
DA:926,0
DA:929,0
DA:932,0
DA:934,0
DA:935,0
DA:938,0
DA:939,0
DA:940,0
DA:941,0
DA:942,0
DA:944,0
DA:946,0
DA:947,0
DA:950,0
DA:953,0
DA:954,0
DA:957,0
DA:958,0
DA:961,0
DA:962,0
DA:963,0
DA:964,0
DA:965,0
DA:966,0
DA:968,0
DA:969,0
DA:972,0
DA:973,0
DA:974,0
DA:975,0
DA:976,0
DA:977,0
DA:978,0
DA:979,0
DA:980,0
DA:981,0
DA:983,0
DA:986,0
DA:987,0
DA:988,0
DA:989,0
DA:990,0
DA:991,0
DA:992,0
DA:993,0
DA:994,0
DA:996,0
DA:999,0
DA:1000,0
DA:1001,0
DA:1002,0
DA:1003,0
DA:1004,0
DA:1005,0
DA:1006,0
DA:1007,0
DA:1009,0
DA:1012,0
DA:1013,0
DA:1014,0
DA:1015,0
DA:1017,0
DA:1019,0
DA:1022,0
DA:1023,0
DA:1024,0
DA:1026,0
DA:1028,0
DA:1031,0
DA:1032,0
DA:1033,0
DA:1036,0
DA:1037,0
DA:1038,0
DA:1039,0
DA:1041,0
DA:1042,0
DA:1043,0
DA:1044,0
DA:1045,0
DA:1047,0
DA:1049,0
DA:1051,0
DA:1055,0
DA:1058,0
DA:1059,0
DA:1061,0
DA:1062,0
DA:1063,0
DA:1064,0
DA:1065,0
DA:1066,0
DA:1067,0
DA:1069,0
DA:1071,0
DA:1072,0
DA:1073,0
DA:1074,0
DA:1075,0
DA:1076,0
DA:1078,0
DA:1080,0
DA:1082,0
DA:1084,0
DA:1086,0
DA:1089,0
DA:1090,0
DA:1091,0
DA:1093,0
DA:1094,0
DA:1095,0
DA:1097,0
DA:1098,0
DA:1100,0
DA:1102,0
DA:1104,0
DA:1105,0
DA:1107,0
DA:1109,0
DA:1112,0
DA:1114,0
DA:1115,0
DA:1117,0
DA:1119,0
DA:1121,0
DA:1122,0
DA:1123,0
DA:1124,0
DA:1125,0
DA:1126,0
DA:1128,0
DA:1143,0
DA:1147,0
DA:1148,0
DA:1149,0
DA:1152,0
DA:1155,0
DA:1156,0
DA:1157,0
DA:1158,0
DA:1160,0
DA:1163,0
DA:1164,0
DA:1167,0
DA:1168,0
DA:1170,0
DA:1172,0
DA:1173,0
DA:1175,0
DA:1176,0
DA:1177,0
DA:1179,0
DA:1180,0
DA:1181,0
DA:1182,0
DA:1183,0
DA:1184,0
DA:1185,0
DA:1188,0
DA:1189,0
DA:1190,0
DA:1191,0
DA:1193,0
DA:1194,0
DA:1195,0
DA:1196,0
DA:1197,0
DA:1198,0
DA:1200,0
DA:1201,0
DA:1202,0
DA:1203,0
DA:1204,0
DA:1206,0
DA:1208,0
DA:1210,0
DA:1214,0
DA:1215,0
DA:1216,0
DA:1217,0
DA:1218,0
DA:1219,0
DA:1221,0
DA:1223,0
DA:1225,0
DA:1228,0
DA:1231,0
DA:1232,0
DA:1234,0
DA:1236,0
DA:1238,0
DA:1240,0
DA:1242,0
DA:1243,0
DA:1244,0
DA:1245,0
DA:1246,0
DA:1248,0
DA:1250,0
DA:1251,0
DA:1252,0
DA:1253,0
DA:1255,0
DA:1257,0
DA:1259,0
DA:1260,0
DA:1261,0
DA:1262,0
DA:1264,0
DA:1265,0
DA:1266,0
DA:1267,0
DA:1269,0
DA:1271,0
DA:1272,0
DA:1273,0
DA:1274,0
DA:1276,0
DA:1278,0
DA:1280,0
DA:1281,0
DA:1283,0
DA:1284,0
DA:1285,0
DA:1286,0
DA:1287,0
DA:1290,0
DA:1292,0
DA:1293,0
DA:1294,0
DA:1295,0
DA:1296,0
DA:1298,0
DA:1299,0
DA:1300,0
DA:1301,0
DA:1302,0
DA:1303,0
DA:1305,0
DA:1306,0
DA:1307,0
DA:1308,0
DA:1310,0
DA:1311,0
DA:1312,0
DA:1313,0
DA:1314,0
DA:1315,0
DA:1317,0
DA:1319,0
DA:1327,0
DA:1328,0
DA:1329,0
DA:1330,0
DA:1331,0
DA:1332,0
DA:1333,0
BRF:0
BRH:0
LF:931
LH:0
end_of_record
SF:/home/noah/src/ruchy/src/bin/handlers/handlers_modules/prove.rs
FN:105,_RNvNtNtNtCs2dSEqydACWj_5ruchy8handlers16handlers_modules5prove11prompt_user
FN:112,_RNvNtNtNtCs2dSEqydACWj_5ruchy8handlers16handlers_modules5prove15read_user_input
FN:52,_RNvNtNtNtCs2dSEqydACWj_5ruchy8handlers16handlers_modules5prove19handle_file_proving
FN:10,_RNvNtNtNtCs2dSEqydACWj_5ruchy8handlers16handlers_modules5prove20handle_prove_command
FN:65,_RNvNtNtNtCs2dSEqydACWj_5ruchy8handlers16handlers_modules5prove23run_interactive_session
FNDA:0,_RNvNtNtNtCs2dSEqydACWj_5ruchy8handlers16handlers_modules5prove11prompt_user
FNDA:0,_RNvNtNtNtCs2dSEqydACWj_5ruchy8handlers16handlers_modules5prove15read_user_input
FNDA:0,_RNvNtNtNtCs2dSEqydACWj_5ruchy8handlers16handlers_modules5prove19handle_file_proving
FNDA:0,_RNvNtNtNtCs2dSEqydACWj_5ruchy8handlers16handlers_modules5prove20handle_prove_command
FNDA:0,_RNvNtNtNtCs2dSEqydACWj_5ruchy8handlers16handlers_modules5prove23run_interactive_session
FNF:5
FNH:0
DA:10,0
DA:11,0
DA:12,0
DA:13,0
DA:14,0
DA:15,0
DA:16,0
DA:17,0
DA:18,0
DA:19,0
DA:20,0
DA:21,0
DA:22,0
DA:23,0
DA:24,0
DA:27,0
DA:28,0
DA:31,0
DA:34,0
DA:35,0
DA:36,0
DA:39,0
DA:40,0
DA:41,0
DA:44,0
DA:45,0
DA:46,0
DA:48,0
DA:49,0
DA:52,0
DA:53,0
DA:54,0
DA:55,0
DA:56,0
DA:57,0
DA:58,0
DA:60,0
DA:61,0
DA:62,0
DA:65,0
DA:66,0
DA:67,0
DA:68,0
DA:69,0
DA:70,0
DA:71,0
DA:72,0
DA:73,0
DA:75,0
DA:79,0
DA:81,0
DA:82,0
DA:83,0
DA:84,0
DA:87,0
DA:88,0
DA:89,0
DA:90,0
DA:93,0
DA:97,0
DA:98,0
DA:99,0
DA:101,0
DA:102,0
DA:105,0
DA:106,0
DA:107,0
DA:108,0
DA:109,0
DA:112,0
DA:113,0
DA:114,0
DA:115,0
DA:116,0
BRF:0
BRH:0
LF:74
LH:0
end_of_record
SF:/home/noah/src/ruchy/src/bin/handlers/handlers_modules/prove_helpers.rs
FN:425,_RNCNvNtNtNtCs2dSEqydACWj_5ruchy8handlers16handlers_modules13prove_helpers27check_verification_failures0B9_
FN:163,_RNvNtNtNtCs2dSEqydACWj_5ruchy8handlers16handlers_modules13prove_helpers12apply_tactic
FN:240,_RNvNtNtNtCs2dSEqydACWj_5ruchy8handlers16handlers_modules13prove_helpers12export_proof
FN:41,_RNvNtNtNtCs2dSEqydACWj_5ruchy8handlers16handlers_modules13prove_helpers15load_proof_file
FN:24,_RNvNtNtNtCs2dSEqydACWj_5ruchy8handlers16handlers_modules13prove_helpers16configure_prover
FN:321,_RNvNtNtNtCs2dSEqydACWj_5ruchy8handlers16handlers_modules13prove_helpers16print_assertions
FN:63,_RNvNtNtNtCs2dSEqydACWj_5ruchy8handlers16handlers_modules13prove_helpers17load_proof_script
FN:9,_RNvNtNtNtCs2dSEqydACWj_5ruchy8handlers16handlers_modules13prove_helpers17parse_smt_backend
FN:80,_RNvNtNtNtCs2dSEqydACWj_5ruchy8handlers16handlers_modules13prove_helpers17print_prover_help
FN:210,_RNvNtNtNtCs2dSEqydACWj_5ruchy8handlers16handlers_modules13prove_helpers17show_prover_state
FN:349,_RNvNtNtNtCs2dSEqydACWj_5ruchy8handlers16handlers_modules13prove_helpers19output_json_results
FN:369,_RNvNtNtNtCs2dSEqydACWj_5ruchy8handlers16handlers_modules13prove_helpers19output_text_results
FN:142,_RNvNtNtNtCs2dSEqydACWj_5ruchy8handlers16handlers_modules13prove_helpers19print_current_goals
FN:393,_RNvNtNtNtCs2dSEqydACWj_5ruchy8handlers16handlers_modules13prove_helpers19print_failed_proofs
FN:413,_RNvNtNtNtCs2dSEqydACWj_5ruchy8handlers16handlers_modules13prove_helpers19print_passed_proofs
FN:227,_RNvNtNtNtCs2dSEqydACWj_5ruchy8handlers16handlers_modules13prove_helpers19show_ml_suggestions
FN:294,_RNvNtNtNtCs2dSEqydACWj_5ruchy8handlers16handlers_modules13prove_helpers20handle_no_assertions
FN:103,_RNvNtNtNtCs2dSEqydACWj_5ruchy8handlers16handlers_modules13prove_helpers21handle_prover_command
FN:189,_RNvNtNtNtCs2dSEqydACWj_5ruchy8handlers16handlers_modules13prove_helpers21process_general_input
FN:265,_RNvNtNtNtCs2dSEqydACWj_5ruchy8handlers16handlers_modules13prove_helpers22verify_proofs_from_ast
FN:154,_RNvNtNtNtCs2dSEqydACWj_5ruchy8handlers16handlers_modules13prove_helpers23print_available_tactics
FN:424,_RNvNtNtNtCs2dSEqydACWj_5ruchy8handlers16handlers_modules13prove_helpers27check_verification_failures
FN:329,_RNvNtNtNtCs2dSEqydACWj_5ruchy8handlers16handlers_modules13prove_helpers27output_verification_results
FN:182,_RNvNtNtNtCs2dSEqydACWj_5ruchy8handlers16handlers_modules13prove_helpers8add_goal
FN:258,_RNCNvNtNtNtCs2dSEqydACWj_5ruchy8handlers16handlers_modules13prove_helpers12export_proof0B9_
FN:49,_RNCNvNtNtNtCs2dSEqydACWj_5ruchy8handlers16handlers_modules13prove_helpers15load_proof_file0B9_
FN:53,_RNCNvNtNtNtCs2dSEqydACWj_5ruchy8handlers16handlers_modules13prove_helpers15load_proof_files_0B9_
FN:73,_RNCNvNtNtNtCs2dSEqydACWj_5ruchy8handlers16handlers_modules13prove_helpers17load_proof_script0B9_
FNDA:0,_RNCNvNtNtNtCs2dSEqydACWj_5ruchy8handlers16handlers_modules13prove_helpers27check_verification_failures0B9_
FNDA:0,_RNvNtNtNtCs2dSEqydACWj_5ruchy8handlers16handlers_modules13prove_helpers12apply_tactic
FNDA:0,_RNvNtNtNtCs2dSEqydACWj_5ruchy8handlers16handlers_modules13prove_helpers12export_proof
FNDA:0,_RNvNtNtNtCs2dSEqydACWj_5ruchy8handlers16handlers_modules13prove_helpers15load_proof_file
FNDA:0,_RNvNtNtNtCs2dSEqydACWj_5ruchy8handlers16handlers_modules13prove_helpers16configure_prover
FNDA:0,_RNvNtNtNtCs2dSEqydACWj_5ruchy8handlers16handlers_modules13prove_helpers16print_assertions
FNDA:0,_RNvNtNtNtCs2dSEqydACWj_5ruchy8handlers16handlers_modules13prove_helpers17load_proof_script
FNDA:0,_RNvNtNtNtCs2dSEqydACWj_5ruchy8handlers16handlers_modules13prove_helpers17parse_smt_backend
FNDA:0,_RNvNtNtNtCs2dSEqydACWj_5ruchy8handlers16handlers_modules13prove_helpers17print_prover_help
FNDA:0,_RNvNtNtNtCs2dSEqydACWj_5ruchy8handlers16handlers_modules13prove_helpers17show_prover_state
FNDA:0,_RNvNtNtNtCs2dSEqydACWj_5ruchy8handlers16handlers_modules13prove_helpers19output_json_results
FNDA:0,_RNvNtNtNtCs2dSEqydACWj_5ruchy8handlers16handlers_modules13prove_helpers19output_text_results
FNDA:0,_RNvNtNtNtCs2dSEqydACWj_5ruchy8handlers16handlers_modules13prove_helpers19print_current_goals
FNDA:0,_RNvNtNtNtCs2dSEqydACWj_5ruchy8handlers16handlers_modules13prove_helpers19print_failed_proofs
FNDA:0,_RNvNtNtNtCs2dSEqydACWj_5ruchy8handlers16handlers_modules13prove_helpers19print_passed_proofs
FNDA:0,_RNvNtNtNtCs2dSEqydACWj_5ruchy8handlers16handlers_modules13prove_helpers19show_ml_suggestions
FNDA:0,_RNvNtNtNtCs2dSEqydACWj_5ruchy8handlers16handlers_modules13prove_helpers20handle_no_assertions
FNDA:0,_RNvNtNtNtCs2dSEqydACWj_5ruchy8handlers16handlers_modules13prove_helpers21handle_prover_command
FNDA:0,_RNvNtNtNtCs2dSEqydACWj_5ruchy8handlers16handlers_modules13prove_helpers21process_general_input
FNDA:0,_RNvNtNtNtCs2dSEqydACWj_5ruchy8handlers16handlers_modules13prove_helpers22verify_proofs_from_ast
FNDA:0,_RNvNtNtNtCs2dSEqydACWj_5ruchy8handlers16handlers_modules13prove_helpers23print_available_tactics
FNDA:0,_RNvNtNtNtCs2dSEqydACWj_5ruchy8handlers16handlers_modules13prove_helpers27check_verification_failures
FNDA:0,_RNvNtNtNtCs2dSEqydACWj_5ruchy8handlers16handlers_modules13prove_helpers27output_verification_results
FNDA:0,_RNvNtNtNtCs2dSEqydACWj_5ruchy8handlers16handlers_modules13prove_helpers8add_goal
FNDA:0,_RNCNvNtNtNtCs2dSEqydACWj_5ruchy8handlers16handlers_modules13prove_helpers12export_proof0B9_
FNDA:0,_RNCNvNtNtNtCs2dSEqydACWj_5ruchy8handlers16handlers_modules13prove_helpers15load_proof_file0B9_
FNDA:0,_RNCNvNtNtNtCs2dSEqydACWj_5ruchy8handlers16handlers_modules13prove_helpers15load_proof_files_0B9_
FNDA:0,_RNCNvNtNtNtCs2dSEqydACWj_5ruchy8handlers16handlers_modules13prove_helpers17load_proof_script0B9_
FNF:28
FNH:0
DA:9,0
DA:10,0
DA:11,0
DA:12,0
DA:13,0
DA:15,0
DA:16,0
DA:17,0
DA:18,0
DA:21,0
DA:24,0
DA:25,0
DA:26,0
DA:27,0
DA:28,0
DA:29,0
DA:30,0
DA:31,0
DA:33,0
DA:34,0
DA:35,0
DA:36,0
DA:37,0
DA:38,0
DA:41,0
DA:44,0
DA:45,0
DA:46,0
DA:48,0
DA:49,0
DA:51,0
DA:52,0
DA:53,0
DA:55,0
DA:56,0
DA:57,0
DA:59,0
DA:60,0
DA:63,0
DA:64,0
DA:65,0
DA:66,0
DA:67,0
DA:68,0
DA:69,0
DA:70,0
DA:72,0
DA:73,0
DA:75,0
DA:76,0
DA:77,0
DA:80,0
DA:81,0
DA:82,0
DA:83,0
DA:84,0
DA:85,0
DA:86,0
DA:87,0
DA:88,0
DA:89,0
DA:90,0
DA:91,0
DA:92,0
DA:93,0
DA:94,0
DA:95,0
DA:96,0
DA:97,0
DA:98,0
DA:99,0
DA:100,0
DA:103,0
DA:104,0
DA:105,0
DA:106,0
DA:107,0
DA:108,0
DA:109,0
DA:110,0
DA:111,0
DA:112,0
DA:114,0
DA:115,0
DA:116,0
DA:118,0
DA:119,0
DA:120,0
DA:122,0
DA:123,0
DA:124,0
DA:126,0
DA:127,0
DA:128,0
DA:130,0
DA:131,0
DA:132,0
DA:135,0
DA:136,0
DA:139,0
DA:142,0
DA:143,0
DA:144,0
DA:145,0
DA:146,0
DA:147,0
DA:148,0
DA:149,0
DA:151,0
DA:154,0
DA:155,0
DA:156,0
DA:157,0
DA:158,0
DA:159,0
DA:160,0
DA:163,0
DA:164,0
DA:165,0
DA:166,0
DA:167,0
DA:168,0
DA:169,0
DA:170,0
DA:171,0
DA:172,0
DA:174,0
DA:175,0
DA:176,0
DA:179,0
DA:182,0
DA:183,0
DA:184,0
DA:185,0
DA:186,0
DA:189,0
DA:190,0
DA:191,0
DA:192,0
DA:193,0
DA:194,0
DA:195,0
DA:196,0
DA:197,0
DA:198,0
DA:199,0
DA:200,0
DA:202,0
DA:203,0
DA:204,0
DA:207,0
DA:210,0
DA:211,0
DA:212,0
DA:213,0
DA:214,0
DA:215,0
DA:216,0
DA:217,0
DA:218,0
DA:220,0
DA:221,0
DA:222,0
DA:223,0
DA:224,0
DA:227,0
DA:228,0
DA:229,0
DA:230,0
DA:231,0
DA:232,0
DA:233,0
DA:234,0
DA:235,0
DA:236,0
DA:237,0
DA:240,0
DA:241,0
DA:242,0
DA:243,0
DA:244,0
DA:245,0
DA:246,0
DA:247,0
DA:248,0
DA:250,0
DA:251,0
DA:252,0
DA:253,0
DA:254,0
DA:257,0
DA:258,0
DA:260,0
DA:261,0
DA:262,0
DA:265,0
DA:266,0
DA:267,0
DA:268,0
DA:269,0
DA:270,0
DA:271,0
DA:274,0
DA:276,0
DA:277,0
DA:278,0
DA:279,0
DA:281,0
DA:282,0
DA:283,0
DA:285,0
DA:287,0
DA:289,0
DA:290,0
DA:291,0
DA:294,0
DA:295,0
DA:296,0
DA:297,0
DA:298,0
DA:299,0
DA:300,0
DA:301,0
DA:303,0
DA:304,0
DA:305,0
DA:306,0
DA:307,0
DA:308,0
DA:309,0
DA:310,0
DA:312,0
DA:313,0
DA:314,0
DA:315,0
DA:317,0
DA:318,0
DA:321,0
DA:322,0
DA:323,0
DA:324,0
DA:325,0
DA:326,0
DA:329,0
DA:330,0
DA:331,0
DA:332,0
DA:333,0
DA:334,0
DA:335,0
DA:336,0
DA:337,0
DA:339,0
DA:340,0
DA:341,0
DA:342,0
DA:343,0
DA:345,0
DA:346,0
DA:349,0
DA:350,0
DA:351,0
DA:352,0
DA:353,0
DA:354,0
DA:355,0
DA:356,0
DA:357,0
DA:358,0
DA:359,0
DA:360,0
DA:361,0
DA:362,0
DA:364,0
DA:365,0
DA:366,0
DA:369,0
DA:370,0
DA:371,0
DA:372,0
DA:373,0
DA:374,0
DA:375,0
DA:376,0
DA:377,0
DA:378,0
DA:379,0
DA:380,0
DA:381,0
DA:382,0
DA:383,0
DA:385,0
DA:386,0
DA:387,0
DA:388,0
DA:390,0
DA:393,0
DA:394,0
DA:395,0
DA:396,0
DA:397,0
DA:398,0
DA:399,0
DA:400,0
DA:401,0
DA:402,0
DA:403,0
DA:404,0
DA:405,0
DA:406,0
DA:407,0
DA:408,0
DA:410,0
DA:413,0
DA:414,0
DA:415,0
DA:416,0
DA:417,0
DA:418,0
DA:419,0
DA:421,0
DA:424,0
DA:425,0
DA:426,0
DA:427,0
DA:428,0
DA:429,0
BRF:0
BRH:0
LF:332
LH:0
end_of_record
SF:/home/noah/src/ruchy/src/bin/handlers/handlers_modules/test.rs
FN:144,_RNCNvNtNtNtCs2dSEqydACWj_5ruchy8handlers16handlers_modules4test19check_test_failures0B9_
FN:21,_RNCNvNtNtNtCs2dSEqydACWj_5ruchy8handlers16handlers_modules4test19handle_test_command0B9_
FN:126,_RNCNvNtNtNtCs2dSEqydACWj_5ruchy8handlers16handlers_modules4test23get_latest_modification0B9_
FN:87,_RNvNtNtNtCs2dSEqydACWj_5ruchy8handlers16handlers_modules4test17handle_watch_mode
FN:143,_RNvNtNtNtCs2dSEqydACWj_5ruchy8handlers16handlers_modules4test19check_test_failures
FN:10,_RNvNtNtNtCs2dSEqydACWj_5ruchy8handlers16handlers_modules4test19handle_test_command
FN:118,_RNvNtNtNtCs2dSEqydACWj_5ruchy8handlers16handlers_modules4test23get_latest_modification
FN:40,_RNvNtNtNtCs2dSEqydACWj_5ruchy8handlers16handlers_modules4test9run_tests
FNDA:0,_RNCNvNtNtNtCs2dSEqydACWj_5ruchy8handlers16handlers_modules4test19check_test_failures0B9_
FNDA:0,_RNCNvNtNtNtCs2dSEqydACWj_5ruchy8handlers16handlers_modules4test19handle_test_command0B9_
FNDA:0,_RNCNvNtNtNtCs2dSEqydACWj_5ruchy8handlers16handlers_modules4test23get_latest_modification0B9_
FNDA:0,_RNvNtNtNtCs2dSEqydACWj_5ruchy8handlers16handlers_modules4test17handle_watch_mode
FNDA:0,_RNvNtNtNtCs2dSEqydACWj_5ruchy8handlers16handlers_modules4test19check_test_failures
FNDA:0,_RNvNtNtNtCs2dSEqydACWj_5ruchy8handlers16handlers_modules4test19handle_test_command
FNDA:0,_RNvNtNtNtCs2dSEqydACWj_5ruchy8handlers16handlers_modules4test23get_latest_modification
FNDA:0,_RNvNtNtNtCs2dSEqydACWj_5ruchy8handlers16handlers_modules4test9run_tests
FNF:8
FNH:0
DA:10,0
DA:11,0
DA:12,0
DA:13,0
DA:14,0
DA:15,0
DA:16,0
DA:17,0
DA:18,0
DA:19,0
DA:20,0
DA:21,0
DA:23,0
DA:24,0
DA:26,0
DA:27,0
DA:28,0
DA:29,0
DA:30,0
DA:31,0
DA:32,0
DA:33,0
DA:34,0
DA:37,0
DA:40,0
DA:41,0
DA:42,0
DA:43,0
DA:44,0
DA:45,0
DA:46,0
DA:47,0
DA:48,0
DA:49,0
DA:51,0
DA:53,0
DA:54,0
DA:55,0
DA:56,0
DA:58,0
DA:61,0
DA:62,0
DA:63,0
DA:66,0
DA:69,0
DA:70,0
DA:71,0
DA:72,0
DA:75,0
DA:76,0
DA:77,0
DA:80,0
DA:82,0
DA:83,0
DA:84,0
DA:87,0
DA:92,0
DA:93,0
DA:94,0
DA:95,0
DA:97,0
DA:100,0
DA:103,0
DA:106,0
DA:108,0
DA:109,0
DA:110,0
DA:111,0
DA:112,0
DA:113,0
DA:118,0
DA:121,0
DA:123,0
DA:124,0
DA:125,0
DA:126,0
DA:127,0
DA:128,0
DA:129,0
DA:130,0
DA:131,0
DA:132,0
DA:133,0
DA:134,0
DA:135,0
DA:137,0
DA:139,0
DA:140,0
DA:143,0
DA:144,0
DA:145,0
DA:146,0
DA:147,0
DA:148,0
BRF:0
BRH:0
LF:97
LH:0
end_of_record
SF:/home/noah/src/ruchy/src/bin/handlers/handlers_modules/test_helpers.rs
FN:230,_RNCNvNtNtNtCs2dSEqydACWj_5ruchy8handlers16handlers_modules12test_helpers20generate_json_outputs_0B9_
FN:65,_RNCNvNtNtNtCs2dSEqydACWj_5ruchy8handlers16handlers_modules12test_helpers19should_include_file0B9_
FN:71,_RNCNvNtNtNtCs2dSEqydACWj_5ruchy8handlers16handlers_modules12test_helpers19should_include_files_0B9_
FN:40,_RNCNvNtNtNtCs2dSEqydACWj_5ruchy8handlers16handlers_modules12test_helpers21validate_and_add_file0B9_
FN:103,_RNvNtNtNtCs2dSEqydACWj_5ruchy8handlers16handlers_modules12test_helpers13execute_tests
FN:80,_RNvNtNtNtCs2dSEqydACWj_5ruchy8handlers16handlers_modules12test_helpers13run_test_file
FN:299,_RNvNtNtNtCs2dSEqydACWj_5ruchy8handlers16handlers_modules12test_helpers16save_html_report
FN:131,_RNvNtNtNtCs2dSEqydACWj_5ruchy8handlers16handlers_modules12test_helpers18handle_test_result
FN:202,_RNvNtNtNtCs2dSEqydACWj_5ruchy8handlers16handlers_modules12test_helpers18print_failed_tests
FN:177,_RNvNtNtNtCs2dSEqydACWj_5ruchy8handlers16handlers_modules12test_helpers18print_test_summary
FN:20,_RNvNtNtNtCs2dSEqydACWj_5ruchy8handlers16handlers_modules12test_helpers19discover_test_files
FN:64,_RNvNtNtNtCs2dSEqydACWj_5ruchy8handlers16handlers_modules12test_helpers19should_include_file
FN:218,_RNvNtNtNtCs2dSEqydACWj_5ruchy8handlers16handlers_modules12test_helpers20generate_json_output
FN:39,_RNvNtNtNtCs2dSEqydACWj_5ruchy8handlers16handlers_modules12test_helpers21validate_and_add_file
FN:281,_RNvNtNtNtCs2dSEqydACWj_5ruchy8handlers16handlers_modules12test_helpers22output_coverage_report
FN:308,_RNvNtNtNtCs2dSEqydACWj_5ruchy8handlers16handlers_modules12test_helpers24check_coverage_threshold
FN:244,_RNvNtNtNtCs2dSEqydACWj_5ruchy8handlers16handlers_modules12test_helpers24generate_coverage_report
FN:49,_RNvNtNtNtCs2dSEqydACWj_5ruchy8handlers16handlers_modules12test_helpers27discover_files_in_directory
FN:84,_RNCNvNtNtNtCs2dSEqydACWj_5ruchy8handlers16handlers_modules12test_helpers13run_test_file0B9_
FN:93,_RNCNvNtNtNtCs2dSEqydACWj_5ruchy8handlers16handlers_modules12test_helpers13run_test_files_0B9_
FNDA:0,_RNCNvNtNtNtCs2dSEqydACWj_5ruchy8handlers16handlers_modules12test_helpers20generate_json_outputs_0B9_
FNDA:0,_RNCNvNtNtNtCs2dSEqydACWj_5ruchy8handlers16handlers_modules12test_helpers19should_include_file0B9_
FNDA:0,_RNCNvNtNtNtCs2dSEqydACWj_5ruchy8handlers16handlers_modules12test_helpers19should_include_files_0B9_
FNDA:0,_RNCNvNtNtNtCs2dSEqydACWj_5ruchy8handlers16handlers_modules12test_helpers21validate_and_add_file0B9_
FNDA:0,_RNvNtNtNtCs2dSEqydACWj_5ruchy8handlers16handlers_modules12test_helpers13execute_tests
FNDA:0,_RNvNtNtNtCs2dSEqydACWj_5ruchy8handlers16handlers_modules12test_helpers13run_test_file
FNDA:0,_RNvNtNtNtCs2dSEqydACWj_5ruchy8handlers16handlers_modules12test_helpers16save_html_report
FNDA:0,_RNvNtNtNtCs2dSEqydACWj_5ruchy8handlers16handlers_modules12test_helpers18handle_test_result
FNDA:0,_RNvNtNtNtCs2dSEqydACWj_5ruchy8handlers16handlers_modules12test_helpers18print_failed_tests
FNDA:0,_RNvNtNtNtCs2dSEqydACWj_5ruchy8handlers16handlers_modules12test_helpers18print_test_summary
FNDA:0,_RNvNtNtNtCs2dSEqydACWj_5ruchy8handlers16handlers_modules12test_helpers19discover_test_files
FNDA:0,_RNvNtNtNtCs2dSEqydACWj_5ruchy8handlers16handlers_modules12test_helpers19should_include_file
FNDA:0,_RNvNtNtNtCs2dSEqydACWj_5ruchy8handlers16handlers_modules12test_helpers20generate_json_output
FNDA:0,_RNvNtNtNtCs2dSEqydACWj_5ruchy8handlers16handlers_modules12test_helpers21validate_and_add_file
FNDA:0,_RNvNtNtNtCs2dSEqydACWj_5ruchy8handlers16handlers_modules12test_helpers22output_coverage_report
FNDA:0,_RNvNtNtNtCs2dSEqydACWj_5ruchy8handlers16handlers_modules12test_helpers24check_coverage_threshold
FNDA:0,_RNvNtNtNtCs2dSEqydACWj_5ruchy8handlers16handlers_modules12test_helpers24generate_coverage_report
FNDA:0,_RNvNtNtNtCs2dSEqydACWj_5ruchy8handlers16handlers_modules12test_helpers27discover_files_in_directory
FNDA:0,_RNCNvNtNtNtCs2dSEqydACWj_5ruchy8handlers16handlers_modules12test_helpers13run_test_file0B9_
FNDA:0,_RNCNvNtNtNtCs2dSEqydACWj_5ruchy8handlers16handlers_modules12test_helpers13run_test_files_0B9_
FNF:20
FNH:0
DA:20,0
DA:21,0
DA:22,0
DA:23,0
DA:25,0
DA:27,0
DA:28,0
DA:29,0
DA:30,0
DA:32,0
DA:35,0
DA:36,0
DA:39,0
DA:40,0
DA:41,0
DA:42,0
DA:43,0
DA:45,0
DA:46,0
DA:49,0
DA:50,0
DA:51,0
DA:52,0
DA:53,0
DA:54,0
DA:55,0
DA:56,0
DA:57,0
DA:58,0
DA:60,0
DA:61,0
DA:64,0
DA:65,0
DA:66,0
DA:67,0
DA:69,0
DA:70,0
DA:71,0
DA:72,0
DA:73,0
DA:75,0
DA:77,0
DA:80,0
DA:83,0
DA:84,0
DA:86,0
DA:87,0
DA:88,0
DA:89,0
DA:91,0
DA:92,0
DA:93,0
DA:95,0
DA:96,0
DA:97,0
DA:99,0
DA:100,0
DA:103,0
DA:104,0
DA:105,0
DA:106,0
DA:107,0
DA:109,0
DA:110,0
DA:111,0
DA:112,0
DA:114,0
DA:115,0
DA:116,0
DA:118,0
DA:119,0
DA:120,0
DA:121,0
DA:122,0
DA:123,0
DA:127,0
DA:128,0
DA:131,0
DA:132,0
DA:133,0
DA:134,0
DA:135,0
DA:136,0
DA:137,0
DA:138,0
DA:140,0
DA:141,0
DA:142,0
DA:143,0
DA:144,0
DA:145,0
DA:146,0
DA:147,0
DA:148,0
DA:149,0
DA:150,0
DA:151,0
DA:152,0
DA:153,0
DA:155,0
DA:156,0
DA:157,0
DA:158,0
DA:159,0
DA:160,0
DA:161,0
DA:162,0
DA:163,0
DA:164,0
DA:165,0
DA:166,0
DA:167,0
DA:168,0
DA:169,0
DA:170,0
DA:171,0
DA:174,0
DA:177,0
DA:178,0
DA:179,0
DA:180,0
DA:181,0
DA:182,0
DA:183,0
DA:184,0
DA:186,0
DA:187,0
DA:189,0
DA:190,0
DA:191,0
DA:193,0
DA:194,0
DA:195,0
DA:196,0
DA:198,0
DA:199,0
DA:202,0
DA:203,0
DA:204,0
DA:205,0
DA:207,0
DA:208,0
DA:209,0
DA:210,0
DA:211,0
DA:212,0
DA:213,0
DA:215,0
DA:218,0
DA:219,0
DA:220,0
DA:221,0
DA:222,0
DA:223,0
DA:225,0
DA:226,0
DA:227,0
DA:228,0
DA:229,0
DA:230,0
DA:231,0
DA:232,0
DA:233,0
DA:234,0
DA:235,0
DA:237,0
DA:240,0
DA:241,0
DA:244,0
DA:245,0
DA:246,0
DA:247,0
DA:248,0
DA:249,0
DA:252,0
DA:255,0
DA:256,0
DA:257,0
DA:258,0
DA:262,0
DA:263,0
DA:264,0
DA:265,0
DA:266,0
DA:267,0
DA:268,0
DA:272,0
DA:275,0
DA:277,0
DA:278,0
DA:281,0
DA:282,0
DA:283,0
DA:284,0
DA:285,0
DA:286,0
DA:287,0
DA:288,0
DA:289,0
DA:291,0
DA:294,0
DA:295,0
DA:296,0
DA:299,0
DA:300,0
DA:301,0
DA:302,0
DA:303,0
DA:304,0
DA:305,0
DA:308,0
DA:309,0
DA:310,0
DA:311,0
DA:312,0
DA:313,0
DA:314,0
DA:315,0
DA:316,0
DA:317,0
DA:319,0
DA:320,0
BRF:0
BRH:0
LF:229
LH:0
end_of_record
SF:/home/noah/src/ruchy/src/bin/handlers/mod.rs
FN:216,_RNCNvNtCs2dSEqydACWj_5ruchy8handlers13transpile_asts_0B5_
FN:1334,_RNCNvNtCs2dSEqydACWj_5ruchy8handlers20validate_replay_file0B5_
FN:264,_RNCNvNtCs2dSEqydACWj_5ruchy8handlers23transpile_for_execution0B5_
FN:202,_RNvNtCs2dSEqydACWj_5ruchy8handlers12parse_source
FN:222,_RNvNtCs2dSEqydACWj_5ruchy8handlers12write_output
FN:254,_RNvNtCs2dSEqydACWj_5ruchy8handlers13log_run_start
FN:209,_RNvNtCs2dSEqydACWj_5ruchy8handlers13transpile_ast
FN:307,_RNvNtCs2dSEqydACWj_5ruchy8handlers14execute_binary
FN:187,_RNvNtCs2dSEqydACWj_5ruchy8handlers16read_source_file
FN:287,_RNvNtCs2dSEqydACWj_5ruchy8handlers17compile_rust_code
FN:1370,_RNvNtCs2dSEqydACWj_5ruchy8handlers17process_directory
FN:1421,_RNvNtCs2dSEqydACWj_5ruchy8handlers17write_test_output
FN:236,_RNvNtCs2dSEqydACWj_5ruchy8handlers18handle_run_command
FN:122,_RNvNtCs2dSEqydACWj_5ruchy8handlers18handle_stdin_input
FN:1490,_RNvNtCs2dSEqydACWj_5ruchy8handlers18process_input_path
FN:508,_RNvNtCs2dSEqydACWj_5ruchy8handlers19handle_check_syntax
FN:29,_RNvNtCs2dSEqydACWj_5ruchy8handlers19handle_eval_command
FN:385,_RNvNtCs2dSEqydACWj_5ruchy8handlers19handle_repl_command
FN:584,_RNvNtCs2dSEqydACWj_5ruchy8handlers19handle_test_command
FN:176,_RNvNtCs2dSEqydACWj_5ruchy8handlers19log_transpile_start
FN:269,_RNvNtCs2dSEqydACWj_5ruchy8handlers19prepare_compilation
FN:1343,_RNvNtCs2dSEqydACWj_5ruchy8handlers19process_single_file
FN:499,_RNvNtCs2dSEqydACWj_5ruchy8handlers20handle_check_command
FN:137,_RNvNtCs2dSEqydACWj_5ruchy8handlers20handle_parse_command
FN:325,_RNvNtCs2dSEqydACWj_5ruchy8handlers20handle_prove_command
FN:1333,_RNvNtCs2dSEqydACWj_5ruchy8handlers20validate_replay_file
FN:1327,_RNvNtCs2dSEqydACWj_5ruchy8handlers21determine_output_path
FN:88,_RNvNtCs2dSEqydACWj_5ruchy8handlers21handle_file_execution
FN:423,_RNvNtCs2dSEqydACWj_5ruchy8handlers22handle_compile_command
FN:733,_RNvNtCs2dSEqydACWj_5ruchy8handlers22handle_complex_command
FN:526,_RNvNtCs2dSEqydACWj_5ruchy8handlers22handle_watch_and_check
FN:1443,_RNvNtCs2dSEqydACWj_5ruchy8handlers23generate_summary_report
FN:619,_RNvNtCs2dSEqydACWj_5ruchy8handlers23handle_coverage_command
FN:1317,_RNvNtCs2dSEqydACWj_5ruchy8handlers23setup_conversion_config
FN:261,_RNvNtCs2dSEqydACWj_5ruchy8handlers23transpile_for_execution
FN:159,_RNvNtCs2dSEqydACWj_5ruchy8handlers24handle_transpile_command
FN:1507,_RNvNtCs2dSEqydACWj_5ruchy8handlers30handle_replay_to_tests_command
FN:353,_RNvNtCs2dSEqydACWj_5ruchy8handlers17print_prover_help
FN:701,_RNvNtCs2dSEqydACWj_5ruchy8handlers19run_ruchy_test_file
FN:661,_RNvNtCs2dSEqydACWj_5ruchy8handlers21handle_watch_and_test
FN:706,_RNvNtCs2dSEqydACWj_5ruchy8handlers22verify_proofs_from_ast
FN:677,_RNvNtCs2dSEqydACWj_5ruchy8handlers25handle_run_enhanced_tests
FN:1383,_RNCNvNtCs2dSEqydACWj_5ruchy8handlers17process_directory0B5_
FN:225,_RNCNvNtCs2dSEqydACWj_5ruchy8handlers12write_output0B5_
FN:197,_RNCNvNtCs2dSEqydACWj_5ruchy8handlers16read_source_file0B5_
FN:241,_RNCNvNtCs2dSEqydACWj_5ruchy8handlers18handle_run_command0B5_
FN:143,_RNCNvNtCs2dSEqydACWj_5ruchy8handlers20handle_parse_command0B5_
FN:90,_RNCNvNtCs2dSEqydACWj_5ruchy8handlers21handle_file_execution0B5_
FNDA:0,_RNCNvNtCs2dSEqydACWj_5ruchy8handlers13transpile_asts_0B5_
FNDA:0,_RNCNvNtCs2dSEqydACWj_5ruchy8handlers20validate_replay_file0B5_
FNDA:0,_RNCNvNtCs2dSEqydACWj_5ruchy8handlers23transpile_for_execution0B5_
FNDA:0,_RNvNtCs2dSEqydACWj_5ruchy8handlers12parse_source
FNDA:0,_RNvNtCs2dSEqydACWj_5ruchy8handlers12write_output
FNDA:0,_RNvNtCs2dSEqydACWj_5ruchy8handlers13log_run_start
FNDA:0,_RNvNtCs2dSEqydACWj_5ruchy8handlers13transpile_ast
FNDA:0,_RNvNtCs2dSEqydACWj_5ruchy8handlers14execute_binary
FNDA:0,_RNvNtCs2dSEqydACWj_5ruchy8handlers16read_source_file
FNDA:0,_RNvNtCs2dSEqydACWj_5ruchy8handlers17compile_rust_code
FNDA:0,_RNvNtCs2dSEqydACWj_5ruchy8handlers17process_directory
FNDA:0,_RNvNtCs2dSEqydACWj_5ruchy8handlers17write_test_output
FNDA:0,_RNvNtCs2dSEqydACWj_5ruchy8handlers18handle_run_command
FNDA:0,_RNvNtCs2dSEqydACWj_5ruchy8handlers18handle_stdin_input
FNDA:0,_RNvNtCs2dSEqydACWj_5ruchy8handlers18process_input_path
FNDA:0,_RNvNtCs2dSEqydACWj_5ruchy8handlers19handle_check_syntax
FNDA:0,_RNvNtCs2dSEqydACWj_5ruchy8handlers19handle_eval_command
FNDA:0,_RNvNtCs2dSEqydACWj_5ruchy8handlers19handle_repl_command
FNDA:0,_RNvNtCs2dSEqydACWj_5ruchy8handlers19handle_test_command
FNDA:0,_RNvNtCs2dSEqydACWj_5ruchy8handlers19log_transpile_start
FNDA:0,_RNvNtCs2dSEqydACWj_5ruchy8handlers19prepare_compilation
FNDA:0,_RNvNtCs2dSEqydACWj_5ruchy8handlers19process_single_file
FNDA:0,_RNvNtCs2dSEqydACWj_5ruchy8handlers20handle_check_command
FNDA:0,_RNvNtCs2dSEqydACWj_5ruchy8handlers20handle_parse_command
FNDA:0,_RNvNtCs2dSEqydACWj_5ruchy8handlers20handle_prove_command
FNDA:0,_RNvNtCs2dSEqydACWj_5ruchy8handlers20validate_replay_file
FNDA:0,_RNvNtCs2dSEqydACWj_5ruchy8handlers21determine_output_path
FNDA:0,_RNvNtCs2dSEqydACWj_5ruchy8handlers21handle_file_execution
FNDA:0,_RNvNtCs2dSEqydACWj_5ruchy8handlers22handle_compile_command
FNDA:0,_RNvNtCs2dSEqydACWj_5ruchy8handlers22handle_complex_command
FNDA:0,_RNvNtCs2dSEqydACWj_5ruchy8handlers22handle_watch_and_check
FNDA:0,_RNvNtCs2dSEqydACWj_5ruchy8handlers23generate_summary_report
FNDA:0,_RNvNtCs2dSEqydACWj_5ruchy8handlers23handle_coverage_command
FNDA:0,_RNvNtCs2dSEqydACWj_5ruchy8handlers23setup_conversion_config
FNDA:0,_RNvNtCs2dSEqydACWj_5ruchy8handlers23transpile_for_execution
FNDA:0,_RNvNtCs2dSEqydACWj_5ruchy8handlers24handle_transpile_command
FNDA:0,_RNvNtCs2dSEqydACWj_5ruchy8handlers30handle_replay_to_tests_command
FNDA:0,_RNvNtCs2dSEqydACWj_5ruchy8handlers17print_prover_help
FNDA:0,_RNvNtCs2dSEqydACWj_5ruchy8handlers19run_ruchy_test_file
FNDA:0,_RNvNtCs2dSEqydACWj_5ruchy8handlers21handle_watch_and_test
FNDA:0,_RNvNtCs2dSEqydACWj_5ruchy8handlers22verify_proofs_from_ast
FNDA:0,_RNvNtCs2dSEqydACWj_5ruchy8handlers25handle_run_enhanced_tests
FNDA:0,_RNCNvNtCs2dSEqydACWj_5ruchy8handlers17process_directory0B5_
FNDA:0,_RNCNvNtCs2dSEqydACWj_5ruchy8handlers12write_output0B5_
FNDA:0,_RNCNvNtCs2dSEqydACWj_5ruchy8handlers16read_source_file0B5_
FNDA:0,_RNCNvNtCs2dSEqydACWj_5ruchy8handlers18handle_run_command0B5_
FNDA:0,_RNCNvNtCs2dSEqydACWj_5ruchy8handlers20handle_parse_command0B5_
FNDA:0,_RNCNvNtCs2dSEqydACWj_5ruchy8handlers21handle_file_execution0B5_
FNF:48
FNH:0
DA:29,0
DA:30,0
DA:31,0
DA:32,0
DA:34,0
DA:35,0
DA:36,0
DA:37,0
DA:38,0
DA:39,0
DA:41,0
DA:42,0
DA:43,0
DA:44,0
DA:45,0
DA:46,0
DA:47,0
DA:48,0
DA:49,0
DA:51,0
DA:52,0
DA:53,0
DA:54,0
DA:56,0
DA:57,0
DA:58,0
DA:59,0
DA:60,0
DA:61,0
DA:62,0
DA:63,0
DA:64,0
DA:65,0
DA:66,0
DA:67,0
DA:68,0
DA:70,0
DA:73,0
DA:88,0
DA:89,0
DA:90,0
DA:93,0
DA:94,0
DA:95,0
DA:97,0
DA:98,0
DA:99,0
DA:100,0
DA:102,0
DA:103,0
DA:104,0
DA:107,0
DA:122,0
DA:123,0
DA:124,0
DA:125,0
DA:126,0
DA:127,0
DA:129,0
DA:130,0
DA:131,0
DA:134,0
DA:137,0
DA:138,0
DA:139,0
DA:140,0
DA:142,0
DA:143,0
DA:145,0
DA:146,0
DA:147,0
DA:148,0
DA:149,0
DA:151,0
DA:152,0
DA:153,0
DA:156,0
DA:159,0
DA:160,0
DA:161,0
DA:162,0
DA:163,0
DA:164,0
DA:165,0
DA:167,0
DA:168,0
DA:169,0
DA:171,0
DA:172,0
DA:173,0
DA:176,0
DA:177,0
DA:178,0
DA:179,0
DA:180,0
DA:181,0
DA:182,0
DA:183,0
DA:184,0
DA:187,0
DA:188,0
DA:189,0
DA:190,0
DA:191,0
DA:192,0
DA:193,0
DA:194,0
DA:196,0
DA:197,0
DA:199,0
DA:202,0
DA:203,0
DA:204,0
DA:205,0
DA:206,0
DA:209,0
DA:210,0
DA:211,0
DA:212,0
DA:213,0
DA:215,0
DA:216,0
DA:217,0
DA:219,0
DA:222,0
DA:223,0
DA:224,0
DA:225,0
DA:226,0
DA:227,0
DA:228,0
DA:229,0
DA:230,0
DA:231,0
DA:232,0
DA:233,0
DA:236,0
DA:237,0
DA:240,0
DA:241,0
DA:242,0
DA:243,0
DA:246,0
DA:247,0
DA:248,0
DA:250,0
DA:251,0
DA:254,0
DA:255,0
DA:256,0
DA:257,0
DA:258,0
DA:261,0
DA:262,0
DA:263,0
DA:264,0
DA:265,0
DA:266,0
DA:269,0
DA:270,0
DA:271,0
DA:272,0
DA:273,0
DA:275,0
DA:276,0
DA:277,0
DA:278,0
DA:281,0
DA:283,0
DA:284,0
DA:287,0
DA:288,0
DA:289,0
DA:290,0
DA:291,0
DA:292,0
DA:293,0
DA:294,0
DA:295,0
DA:297,0
DA:298,0
DA:299,0
DA:300,0
DA:301,0
DA:303,0
DA:304,0
DA:307,0
DA:308,0
DA:309,0
DA:310,0
DA:312,0
DA:313,0
DA:314,0
DA:315,0
DA:317,0
DA:318,0
DA:319,0
DA:321,0
DA:322,0
DA:325,0
DA:326,0
DA:327,0
DA:328,0
DA:329,0
DA:330,0
DA:331,0
DA:332,0
DA:333,0
DA:334,0
DA:335,0
DA:336,0
DA:338,0
DA:339,0
DA:340,0
DA:341,0
DA:342,0
DA:343,0
DA:344,0
DA:345,0
DA:346,0
DA:347,0
DA:348,0
DA:350,0
DA:353,0
DA:354,0
DA:355,0
DA:356,0
DA:357,0
DA:358,0
DA:359,0
DA:360,0
DA:361,0
DA:362,0
DA:363,0
DA:364,0
DA:365,0
DA:366,0
DA:367,0
DA:368,0
DA:369,0
DA:370,0
DA:371,0
DA:372,0
DA:373,0
DA:385,0
DA:388,0
DA:389,0
DA:390,0
DA:391,0
DA:392,0
DA:393,0
DA:396,0
DA:398,0
DA:399,0
DA:401,0
DA:403,0
DA:423,0
DA:424,0
DA:425,0
DA:426,0
DA:427,0
DA:428,0
DA:429,0
DA:430,0
DA:436,0
DA:437,0
DA:438,0
DA:439,0
DA:440,0
DA:442,0
DA:444,0
DA:445,0
DA:446,0
DA:447,0
DA:448,0
DA:449,0
DA:450,0
DA:451,0
DA:453,0
DA:454,0
DA:455,0
DA:456,0
DA:457,0
DA:458,0
DA:465,0
DA:466,0
DA:467,0
DA:470,0
DA:471,0
DA:472,0
DA:473,0
DA:476,0
DA:477,0
DA:478,0
DA:482,0
DA:483,0
DA:499,0
DA:500,0
DA:501,0
DA:503,0
DA:505,0
DA:508,0
DA:511,0
DA:512,0
DA:513,0
DA:515,0
DA:516,0
DA:518,0
DA:519,0
DA:520,0
DA:523,0
DA:526,0
DA:531,0
DA:532,0
DA:533,0
DA:534,0
DA:536,0
DA:539,0
DA:542,0
DA:545,0
DA:547,0
DA:548,0
DA:551,0
DA:552,0
DA:555,0
DA:556,0
DA:557,0
DA:558,0
DA:559,0
DA:561,0
DA:584,0
DA:585,0
DA:586,0
DA:587,0
DA:588,0
DA:589,0
DA:590,0
DA:591,0
DA:592,0
DA:593,0
DA:594,0
DA:596,0
DA:597,0
DA:598,0
DA:599,0
DA:600,0
DA:601,0
DA:602,0
DA:603,0
DA:604,0
DA:605,0
DA:607,0
DA:619,0
DA:620,0
DA:621,0
DA:622,0
DA:623,0
DA:624,0
DA:627,0
DA:628,0
DA:629,0
DA:630,0
DA:631,0
DA:634,0
DA:637,0
DA:640,0
DA:641,0
DA:642,0
DA:643,0
DA:645,0
DA:648,0
DA:649,0
DA:650,0
DA:651,0
DA:652,0
DA:653,0
DA:655,0
DA:657,0
DA:658,0
DA:661,0
DA:662,0
DA:663,0
DA:665,0
DA:666,0
DA:668,0
DA:671,0
DA:673,0
DA:677,0
DA:678,0
DA:679,0
DA:680,0
DA:681,0
DA:682,0
DA:683,0
DA:684,0
DA:685,0
DA:686,0
DA:687,0
DA:688,0
DA:690,0
DA:691,0
DA:692,0
DA:693,0
DA:694,0
DA:695,0
DA:696,0
DA:698,0
DA:701,0
DA:702,0
DA:703,0
DA:706,0
DA:707,0
DA:708,0
DA:709,0
DA:710,0
DA:711,0
DA:712,0
DA:713,0
DA:714,0
DA:715,0
DA:716,0
DA:717,0
DA:718,0
DA:720,0
DA:733,0
DA:734,0
DA:736,0
DA:737,0
DA:738,0
DA:739,0
DA:740,0
DA:741,0
DA:742,0
DA:743,0
DA:745,0
DA:746,0
DA:747,0
DA:748,0
DA:749,0
DA:750,0
DA:751,0
DA:752,0
DA:753,0
DA:757,0
DA:758,0
DA:759,0
DA:760,0
DA:761,0
DA:762,0
DA:763,0
DA:764,0
DA:766,0
DA:767,0
DA:768,0
DA:769,0
DA:770,0
DA:771,0
DA:772,0
DA:773,0
DA:774,0
DA:778,0
DA:779,0
DA:780,0
DA:781,0
DA:782,0
DA:783,0
DA:784,0
DA:785,0
DA:787,0
DA:788,0
DA:789,0
DA:790,0
DA:791,0
DA:792,0
DA:793,0
DA:794,0
DA:795,0
DA:799,0
DA:800,0
DA:801,0
DA:802,0
DA:803,0
DA:804,0
DA:805,0
DA:806,0
DA:807,0
DA:808,0
DA:809,0
DA:810,0
DA:812,0
DA:813,0
DA:814,0
DA:815,0
DA:816,0
DA:817,0
DA:818,0
DA:819,0
DA:820,0
DA:821,0
DA:822,0
DA:823,0
DA:824,0
DA:828,0
DA:829,0
DA:831,0
DA:832,0
DA:833,0
DA:835,0
DA:838,0
DA:839,0
DA:840,0
DA:841,0
DA:842,0
DA:843,0
DA:844,0
DA:845,0
DA:846,0
DA:850,0
DA:851,0
DA:852,0
DA:853,0
DA:854,0
DA:855,0
DA:861,0
DA:862,0
DA:863,0
DA:864,0
DA:865,0
DA:866,0
DA:867,0
DA:868,0
DA:873,0
DA:875,0
DA:876,0
DA:877,0
DA:878,0
DA:879,0
DA:882,0
DA:883,0
DA:885,0
DA:887,0
DA:888,0
DA:889,0
DA:890,0
DA:891,0
DA:892,0
DA:893,0
DA:894,0
DA:895,0
DA:896,0
DA:897,0
DA:898,0
DA:901,0
DA:902,0
DA:906,0
DA:907,0
DA:908,0
DA:909,0
DA:910,0
DA:911,0
DA:912,0
DA:913,0
DA:914,0
DA:915,0
DA:917,0
DA:918,0
DA:919,0
DA:920,0
DA:921,0
DA:922,0
DA:923,0
DA:924,0
DA:925,0
DA:926,0
DA:927,0
DA:930,0
DA:931,0
DA:933,0
DA:934,0
DA:938,0
DA:939,0
DA:1293,0
DA:1317,0
DA:1318,0
DA:1319,0
DA:1320,0
DA:1321,0
DA:1322,0
DA:1323,0
DA:1324,0
DA:1327,0
DA:1328,0
DA:1329,0
DA:1330,0
DA:1333,0
DA:1334,0
DA:1335,0
DA:1337,0
DA:1338,0
DA:1340,0
DA:1343,0
DA:1344,0
DA:1345,0
DA:1346,0
DA:1347,0
DA:1348,0
DA:1351,0
DA:1353,0
DA:1355,0
DA:1356,0
DA:1357,0
DA:1358,0
DA:1359,0
DA:1360,0
DA:1362,0
DA:1363,0
DA:1364,0
DA:1367,0
DA:1370,0
DA:1371,0
DA:1372,0
DA:1373,0
DA:1374,0
DA:1375,0
DA:1379,0
DA:1382,0
DA:1383,0
DA:1384,0
DA:1385,0
DA:1386,0
DA:1387,0
DA:1389,0
DA:1391,0
DA:1392,0
DA:1394,0
DA:1395,0
DA:1396,0
DA:1397,0
DA:1399,0
DA:1401,0
DA:1402,0
DA:1404,0
DA:1405,0
DA:1406,0
DA:1407,0
DA:1408,0
DA:1409,0
DA:1410,0
DA:1411,0
DA:1412,0
DA:1413,0
DA:1417,0
DA:1418,0
DA:1421,0
DA:1422,0
DA:1423,0
DA:1424,0
DA:1425,0
DA:1430,0
DA:1431,0
DA:1432,0
DA:1434,0
DA:1436,0
DA:1437,0
DA:1439,0
DA:1440,0
DA:1443,0
DA:1444,0
DA:1445,0
DA:1446,0
DA:1450,0
DA:1451,0
DA:1452,0
DA:1453,0
DA:1456,0
DA:1457,0
DA:1459,0
DA:1460,0
DA:1461,0
DA:1462,0
DA:1464,0
DA:1465,0
DA:1466,0
DA:1467,0
DA:1469,0
DA:1470,0
DA:1471,0
DA:1472,0
DA:1473,0
DA:1474,0
DA:1475,0
DA:1476,0
DA:1477,0
DA:1478,0
DA:1479,0
DA:1481,0
DA:1482,0
DA:1483,0
DA:1484,0
DA:1486,0
DA:1487,0
DA:1490,0
DA:1491,0
DA:1492,0
DA:1493,0
DA:1494,0
DA:1495,0
DA:1496,0
DA:1497,0
DA:1498,0
DA:1499,0
DA:1501,0
DA:1502,0
DA:1504,0
DA:1507,0
DA:1508,0
DA:1509,0
DA:1510,0
DA:1511,0
DA:1512,0
DA:1513,0
DA:1517,0
DA:1518,0
DA:1520,0
DA:1521,0
DA:1522,0
DA:1523,0
DA:1525,0
DA:1527,0
DA:1529,0
DA:1530,0
DA:1531,0
DA:1532,0
DA:1534,0
DA:1535,0
DA:1537,0
DA:1538,0
BRF:0
BRH:0
LF:746
LH:0
end_of_record
SF:/home/noah/src/ruchy/src/bin/ruchy.rs
FN:1016,_RNvCs2dSEqydACWj_5ruchy12check_syntax
FN:995,_RNvCs2dSEqydACWj_5ruchy8run_file
FN:45,_RNvXCs2dSEqydACWj_5ruchyNtB2_12FormatConfigNtNtCs66KPHxksi63_4core7default7Default7default
FN:930,_RNvCs2dSEqydACWj_5ruchy16try_handle_stdin
FN:966,_RNvCs2dSEqydACWj_5ruchy20handle_test_dispatch
FN:990,_RNvCs2dSEqydACWj_5ruchy23handle_advanced_command
FN:945,_RNvCs2dSEqydACWj_5ruchy23handle_command_dispatch
FN:915,_RNvCs2dSEqydACWj_5ruchy28try_handle_direct_evaluation
FN:897,_RNvCs2dSEqydACWj_5ruchy4main
FNDA:0,_RNvCs2dSEqydACWj_5ruchy12check_syntax
FNDA:0,_RNvCs2dSEqydACWj_5ruchy8run_file
FNDA:0,_RNvXCs2dSEqydACWj_5ruchyNtB2_12FormatConfigNtNtCs66KPHxksi63_4core7default7Default7default
FNDA:0,_RNvCs2dSEqydACWj_5ruchy16try_handle_stdin
FNDA:0,_RNvCs2dSEqydACWj_5ruchy20handle_test_dispatch
FNDA:0,_RNvCs2dSEqydACWj_5ruchy23handle_advanced_command
FNDA:0,_RNvCs2dSEqydACWj_5ruchy23handle_command_dispatch
FNDA:0,_RNvCs2dSEqydACWj_5ruchy28try_handle_direct_evaluation
FNDA:0,_RNvCs2dSEqydACWj_5ruchy4main
FNF:9
FNH:0
DA:45,0
DA:46,0
DA:47,0
DA:48,0
DA:49,0
DA:50,0
DA:51,0
DA:897,0
DA:898,0
DA:901,0
DA:902,0
DA:903,0
DA:906,0
DA:907,0
DA:908,0
DA:911,0
DA:912,0
DA:915,0
DA:917,0
DA:918,0
DA:919,0
DA:922,0
DA:923,0
DA:924,0
DA:926,0
DA:927,0
DA:930,0
DA:932,0
DA:933,0
DA:934,0
DA:936,0
DA:937,0
DA:938,0
DA:939,0
DA:941,0
DA:942,0
DA:945,0
DA:946,0
DA:947,0
DA:948,0
DA:949,0
DA:950,0
DA:951,0
DA:953,0
DA:954,0
DA:955,0
DA:957,0
DA:958,0
DA:959,0
DA:961,0
DA:963,0
DA:966,0
DA:967,0
DA:968,0
DA:969,0
DA:970,0
DA:971,0
DA:972,0
DA:973,0
DA:974,0
DA:975,0
DA:976,0
DA:977,0
DA:978,0
DA:979,0
DA:980,0
DA:981,0
DA:982,0
DA:983,0
DA:984,0
DA:985,0
DA:986,0
DA:988,0
DA:990,0
DA:992,0
DA:993,0
DA:995,0
DA:996,0
DA:999,0
DA:1000,0
DA:1001,0
DA:1003,0
DA:1004,0
DA:1005,0
DA:1006,0
DA:1008,0
DA:1009,0
DA:1010,0
DA:1013,0
DA:1016,0
DA:1018,0
DA:1019,0
DA:1020,0
DA:1022,0
DA:1023,0
DA:1025,0
DA:1026,0
DA:1027,0
DA:1030,0
BRF:0
BRH:0
LF:99
LH:0
end_of_record
SF:/home/noah/src/ruchy/src/frontend/arena.rs
FN:92,_RNCNvMs0_NtNtCs2RUqfoJCtLU_5ruchy8frontend5arenaNtB7_14StringInterner5stats0Bb_
FN:31,_RINvMNtNtCs2RUqfoJCtLU_5ruchy8frontend5arenaNtB3_5Arena5allocpEB7_
FN:118,_RNvMs2_NtNtCs2RUqfoJCtLU_5ruchy8frontend5arenaINtB5_13BumpAllocatorpE13with_capacityB9_
FN:135,_RNvMs2_NtNtCs2RUqfoJCtLU_5ruchy8frontend5arenaINtB5_13BumpAllocatorpE3getB9_
FN:143,_RNvMs2_NtNtCs2RUqfoJCtLU_5ruchy8frontend5arenaINtB5_13BumpAllocatorpE3lenB9_
FN:126,_RNvMs2_NtNtCs2RUqfoJCtLU_5ruchy8frontend5arenaINtB5_13BumpAllocatorpE5allocB9_
FN:153,_RNvMs2_NtNtCs2RUqfoJCtLU_5ruchy8frontend5arenaINtB5_13BumpAllocatorpE5clearB9_
FN:148,_RNvMs2_NtNtCs2RUqfoJCtLU_5ruchy8frontend5arenaINtB5_13BumpAllocatorpE8is_emptyB9_
FN:160,_RNvXININtNtCs2RUqfoJCtLU_5ruchy8frontend5arenas3_0pEINtB5_13BumpAllocatorpENtNtCs66KPHxksi63_4core7default7Default7defaultB9_
FN:41,_RNvMNtNtCs2RUqfoJCtLU_5ruchy8frontend5arenaNtB2_5Arena15total_allocated
FN:23,_RNvMNtNtCs2RUqfoJCtLU_5ruchy8frontend5arenaNtB2_5Arena3new
FN:51,_RNvMNtNtCs2RUqfoJCtLU_5ruchy8frontend5arenaNtB2_5Arena5clear
FN:46,_RNvMNtNtCs2RUqfoJCtLU_5ruchy8frontend5arenaNtB2_5Arena9num_items
FN:70,_RNvMs0_NtNtCs2RUqfoJCtLU_5ruchy8frontend5arenaNtB5_14StringInterner3new
FN:97,_RNvMs0_NtNtCs2RUqfoJCtLU_5ruchy8frontend5arenaNtB5_14StringInterner5clear
FN:90,_RNvMs0_NtNtCs2RUqfoJCtLU_5ruchy8frontend5arenaNtB5_14StringInterner5stats
FN:77,_RNvMs0_NtNtCs2RUqfoJCtLU_5ruchy8frontend5arenaNtB5_14StringInterner6intern
FN:103,_RNvXs1_NtNtCs2RUqfoJCtLU_5ruchy8frontend5arenaNtB5_14StringInternerNtNtCs66KPHxksi63_4core7default7Default7default
FN:58,_RNvXs_NtNtCs2RUqfoJCtLU_5ruchy8frontend5arenaNtB4_5ArenaNtNtCs66KPHxksi63_4core7default7Default7default
FNDA:0,_RNCNvMs0_NtNtCs2RUqfoJCtLU_5ruchy8frontend5arenaNtB7_14StringInterner5stats0Bb_
FNDA:0,_RINvMNtNtCs2RUqfoJCtLU_5ruchy8frontend5arenaNtB3_5Arena5allocpEB7_
FNDA:0,_RNvMs2_NtNtCs2RUqfoJCtLU_5ruchy8frontend5arenaINtB5_13BumpAllocatorpE13with_capacityB9_
FNDA:0,_RNvMs2_NtNtCs2RUqfoJCtLU_5ruchy8frontend5arenaINtB5_13BumpAllocatorpE3getB9_
FNDA:0,_RNvMs2_NtNtCs2RUqfoJCtLU_5ruchy8frontend5arenaINtB5_13BumpAllocatorpE3lenB9_
FNDA:0,_RNvMs2_NtNtCs2RUqfoJCtLU_5ruchy8frontend5arenaINtB5_13BumpAllocatorpE5allocB9_
FNDA:0,_RNvMs2_NtNtCs2RUqfoJCtLU_5ruchy8frontend5arenaINtB5_13BumpAllocatorpE5clearB9_
FNDA:0,_RNvMs2_NtNtCs2RUqfoJCtLU_5ruchy8frontend5arenaINtB5_13BumpAllocatorpE8is_emptyB9_
FNDA:0,_RNvXININtNtCs2RUqfoJCtLU_5ruchy8frontend5arenas3_0pEINtB5_13BumpAllocatorpENtNtCs66KPHxksi63_4core7default7Default7defaultB9_
FNDA:0,_RNvMNtNtCs2RUqfoJCtLU_5ruchy8frontend5arenaNtB2_5Arena15total_allocated
FNDA:36,_RNvMNtNtCs2RUqfoJCtLU_5ruchy8frontend5arenaNtB2_5Arena3new
FNDA:0,_RNvMNtNtCs2RUqfoJCtLU_5ruchy8frontend5arenaNtB2_5Arena5clear
FNDA:0,_RNvMNtNtCs2RUqfoJCtLU_5ruchy8frontend5arenaNtB2_5Arena9num_items
FNDA:36,_RNvMs0_NtNtCs2RUqfoJCtLU_5ruchy8frontend5arenaNtB5_14StringInterner3new
FNDA:0,_RNvMs0_NtNtCs2RUqfoJCtLU_5ruchy8frontend5arenaNtB5_14StringInterner5clear
FNDA:0,_RNvMs0_NtNtCs2RUqfoJCtLU_5ruchy8frontend5arenaNtB5_14StringInterner5stats
FNDA:0,_RNvMs0_NtNtCs2RUqfoJCtLU_5ruchy8frontend5arenaNtB5_14StringInterner6intern
FNDA:0,_RNvXs1_NtNtCs2RUqfoJCtLU_5ruchy8frontend5arenaNtB5_14StringInternerNtNtCs66KPHxksi63_4core7default7Default7default
FNDA:0,_RNvXs_NtNtCs2RUqfoJCtLU_5ruchy8frontend5arenaNtB4_5ArenaNtNtCs66KPHxksi63_4core7default7Default7default
FNF:19
FNH:2
DA:23,36
DA:24,36
DA:25,36
DA:26,36
DA:27,36
DA:28,36
DA:31,0
DA:32,0
DA:33,0
DA:34,0
DA:35,0
DA:36,0
DA:37,0
DA:38,0
DA:41,0
DA:42,0
DA:43,0
DA:46,0
DA:47,0
DA:48,0
DA:51,0
DA:52,0
DA:53,0
DA:54,0
DA:58,0
DA:59,0
DA:60,0
DA:70,36
DA:71,36
DA:72,36
DA:73,36
DA:74,36
DA:77,0
DA:78,0
DA:80,0
DA:81,0
DA:83,0
DA:84,0
DA:85,0
DA:87,0
DA:90,0
DA:91,0
DA:92,0
DA:93,0
DA:94,0
DA:97,0
DA:98,0
DA:99,0
DA:103,0
DA:104,0
DA:105,0
DA:118,0
DA:119,0
DA:120,0
DA:121,0
DA:122,0
DA:123,0
DA:126,0
DA:127,0
DA:128,0
DA:129,0
DA:130,0
DA:131,0
DA:132,0
DA:135,0
DA:136,0
DA:137,0
DA:139,0
DA:140,0
DA:143,0
DA:144,0
DA:145,0
DA:148,0
DA:149,0
DA:150,0
DA:153,0
DA:154,0
DA:155,0
DA:156,0
DA:160,0
DA:161,0
DA:162,0
BRF:0
BRH:0
LF:83
LH:11
end_of_record
SF:/home/noah/src/ruchy/src/frontend/ast.rs
FN:564,_RNCNvMs2_NtNtCs2RUqfoJCtLU_5ruchy8frontend3astNtB7_7Pattern12primary_name0Bb_
FN:575,_RNCNvMs2_NtNtCs2RUqfoJCtLU_5ruchy8frontend3astNtB7_7Pattern12primary_names0_0Bb_
FN:575,_RNCNvMs2_NtNtCs2RUqfoJCtLU_5ruchy8frontend3astNtB7_7Pattern12primary_names1_0Bb_
FN:586,_RNCNvMs2_NtNtCs2RUqfoJCtLU_5ruchy8frontend3astNtB7_7Pattern12primary_names2_0Bb_
FN:570,_RNCNvMs2_NtNtCs2RUqfoJCtLU_5ruchy8frontend3astNtB7_7Pattern12primary_names_0Bb_
FN:15,_RNvMNtNtCs2RUqfoJCtLU_5ruchy8frontend3astNtB2_4Span3new
FN:20,_RNvMNtNtCs2RUqfoJCtLU_5ruchy8frontend3astNtB2_4Span5merge
FN:358,_RNvMs0_NtNtCs2RUqfoJCtLU_5ruchy8frontend3astNtB5_7Literal10from_value
FN:438,_RNvMs1_NtNtCs2RUqfoJCtLU_5ruchy8frontend3astNtB5_5Param4name
FN:556,_RNvMs2_NtNtCs2RUqfoJCtLU_5ruchy8frontend3astNtB5_7Pattern12primary_name
FN:664,_RNvMs3_NtNtCs2RUqfoJCtLU_5ruchy8frontend3astNtB5_10ImportItem13is_url_import
FN:54,_RNvMs_NtNtCs2RUqfoJCtLU_5ruchy8frontend3astNtB4_4Expr15with_attributes
FN:45,_RNvMs_NtNtCs2RUqfoJCtLU_5ruchy8frontend3astNtB4_4Expr3new
FN:681,_RNvXs4_NtNtCs2RUqfoJCtLU_5ruchy8frontend3astNtB5_8BinaryOpNtNtCs66KPHxksi63_4core3fmt7Display3fmt
FN:707,_RNvXs5_NtNtCs2RUqfoJCtLU_5ruchy8frontend3astNtB5_7UnaryOpNtNtCs66KPHxksi63_4core3fmt7Display3fmt
FNDA:0,_RNCNvMs2_NtNtCs2RUqfoJCtLU_5ruchy8frontend3astNtB7_7Pattern12primary_name0Bb_
FNDA:0,_RNCNvMs2_NtNtCs2RUqfoJCtLU_5ruchy8frontend3astNtB7_7Pattern12primary_names0_0Bb_
FNDA:0,_RNCNvMs2_NtNtCs2RUqfoJCtLU_5ruchy8frontend3astNtB7_7Pattern12primary_names1_0Bb_
FNDA:0,_RNCNvMs2_NtNtCs2RUqfoJCtLU_5ruchy8frontend3astNtB7_7Pattern12primary_names2_0Bb_
FNDA:0,_RNCNvMs2_NtNtCs2RUqfoJCtLU_5ruchy8frontend3astNtB7_7Pattern12primary_names_0Bb_
FNDA:115,_RNvMNtNtCs2RUqfoJCtLU_5ruchy8frontend3astNtB2_4Span3new
FNDA:25,_RNvMNtNtCs2RUqfoJCtLU_5ruchy8frontend3astNtB2_4Span5merge
FNDA:0,_RNvMs0_NtNtCs2RUqfoJCtLU_5ruchy8frontend3astNtB5_7Literal10from_value
FNDA:0,_RNvMs1_NtNtCs2RUqfoJCtLU_5ruchy8frontend3astNtB5_5Param4name
FNDA:0,_RNvMs2_NtNtCs2RUqfoJCtLU_5ruchy8frontend3astNtB5_7Pattern12primary_name
FNDA:0,_RNvMs3_NtNtCs2RUqfoJCtLU_5ruchy8frontend3astNtB5_10ImportItem13is_url_import
FNDA:0,_RNvMs_NtNtCs2RUqfoJCtLU_5ruchy8frontend3astNtB4_4Expr15with_attributes
FNDA:87,_RNvMs_NtNtCs2RUqfoJCtLU_5ruchy8frontend3astNtB4_4Expr3new
FNDA:0,_RNvXs4_NtNtCs2RUqfoJCtLU_5ruchy8frontend3astNtB5_8BinaryOpNtNtCs66KPHxksi63_4core3fmt7Display3fmt
FNDA:0,_RNvXs5_NtNtCs2RUqfoJCtLU_5ruchy8frontend3astNtB5_7UnaryOpNtNtCs66KPHxksi63_4core3fmt7Display3fmt
FNF:15
FNH:3
DA:15,115
DA:16,115
DA:17,115
DA:20,25
DA:21,25
DA:22,25
DA:23,25
DA:24,25
DA:25,25
DA:45,87
DA:46,87
DA:47,87
DA:48,87
DA:49,87
DA:50,87
DA:51,87
DA:54,0
DA:55,0
DA:56,0
DA:57,0
DA:58,0
DA:59,0
DA:60,0
DA:358,0
DA:360,0
DA:361,0
DA:362,0
DA:363,0
DA:364,0
DA:365,0
DA:366,0
DA:367,0
DA:369,0
DA:438,0
DA:439,0
DA:440,0
DA:556,0
DA:557,0
DA:558,0
DA:559,0
DA:560,0
DA:562,0
DA:563,0
DA:564,0
DA:566,0
DA:568,0
DA:569,0
DA:570,0
DA:572,0
DA:574,0
DA:575,0
DA:577,0
DA:580,0
DA:581,0
DA:582,0
DA:584,0
DA:585,0
DA:586,0
DA:588,0
DA:589,0
DA:590,0
DA:591,0
DA:592,0
DA:593,0
DA:595,0
DA:664,0
DA:665,0
DA:666,0
DA:681,0
DA:682,0
DA:683,0
DA:684,0
DA:685,0
DA:686,0
DA:687,0
DA:688,0
DA:689,0
DA:690,0
DA:691,0
DA:692,0
DA:693,0
DA:694,0
DA:695,0
DA:696,0
DA:697,0
DA:698,0
DA:699,0
DA:700,0
DA:701,0
DA:703,0
DA:707,0
DA:708,0
DA:709,0
DA:710,0
DA:711,0
DA:712,0
DA:714,0
BRF:0
BRH:0
LF:102
LH:16
end_of_record
SF:/home/noah/src/ruchy/src/frontend/diagnostics.rs
FN:34,_RNvMNtNtCs2RUqfoJCtLU_5ruchy8frontend11diagnosticsNtB2_10Diagnostic13with_filename
FN:39,_RNvMNtNtCs2RUqfoJCtLU_5ruchy8frontend11diagnosticsNtB2_10Diagnostic14add_suggestion
FN:74,_RNvMNtNtCs2RUqfoJCtLU_5ruchy8frontend11diagnosticsNtB2_10Diagnostic14format_colored
FN:44,_RNvMNtNtCs2RUqfoJCtLU_5ruchy8frontend11diagnosticsNtB2_10Diagnostic18get_source_context
FN:25,_RNvMNtNtCs2RUqfoJCtLU_5ruchy8frontend11diagnosticsNtB2_10Diagnostic3new
FN:167,_RNvNtNtCs2RUqfoJCtLU_5ruchy8frontend11diagnostics17suggest_for_error
FN:161,_RNvXs_NtNtCs2RUqfoJCtLU_5ruchy8frontend11diagnosticsNtB4_10DiagnosticNtNtCs66KPHxksi63_4core3fmt7Display3fmt
FNDA:0,_RNvMNtNtCs2RUqfoJCtLU_5ruchy8frontend11diagnosticsNtB2_10Diagnostic13with_filename
FNDA:0,_RNvMNtNtCs2RUqfoJCtLU_5ruchy8frontend11diagnosticsNtB2_10Diagnostic14add_suggestion
FNDA:0,_RNvMNtNtCs2RUqfoJCtLU_5ruchy8frontend11diagnosticsNtB2_10Diagnostic14format_colored
FNDA:0,_RNvMNtNtCs2RUqfoJCtLU_5ruchy8frontend11diagnosticsNtB2_10Diagnostic18get_source_context
FNDA:0,_RNvMNtNtCs2RUqfoJCtLU_5ruchy8frontend11diagnosticsNtB2_10Diagnostic3new
FNDA:0,_RNvNtNtCs2RUqfoJCtLU_5ruchy8frontend11diagnostics17suggest_for_error
FNDA:0,_RNvXs_NtNtCs2RUqfoJCtLU_5ruchy8frontend11diagnosticsNtB4_10DiagnosticNtNtCs66KPHxksi63_4core3fmt7Display3fmt
FNF:7
FNH:0
DA:25,0
DA:26,0
DA:27,0
DA:28,0
DA:29,0
DA:30,0
DA:31,0
DA:32,0
DA:34,0
DA:35,0
DA:36,0
DA:37,0
DA:39,0
DA:40,0
DA:41,0
DA:44,0
DA:45,0
DA:48,0
DA:49,0
DA:50,0
DA:52,0
DA:53,0
DA:54,0
DA:55,0
DA:56,0
DA:57,0
DA:58,0
DA:59,0
DA:63,0
DA:66,0
DA:67,0
DA:68,0
DA:70,0
DA:71,0
DA:74,0
DA:75,0
DA:78,0
DA:79,0
DA:80,0
DA:81,0
DA:82,0
DA:84,0
DA:85,0
DA:88,0
DA:89,0
DA:90,0
DA:91,0
DA:92,0
DA:93,0
DA:94,0
DA:95,0
DA:96,0
DA:97,0
DA:98,0
DA:99,0
DA:100,0
DA:101,0
DA:102,0
DA:103,0
DA:104,0
DA:105,0
DA:106,0
DA:109,0
DA:110,0
DA:112,0
DA:113,0
DA:114,0
DA:117,0
DA:118,0
DA:119,0
DA:120,0
DA:123,0
DA:124,0
DA:125,0
DA:126,0
DA:127,0
DA:130,0
DA:131,0
DA:132,0
DA:133,0
DA:134,0
DA:135,0
DA:136,0
DA:137,0
DA:138,0
DA:139,0
DA:140,0
DA:141,0
DA:145,0
DA:146,0
DA:147,0
DA:148,0
DA:149,0
DA:150,0
DA:151,0
DA:153,0
DA:155,0
DA:156,0
DA:157,0
DA:161,0
DA:162,0
DA:163,0
DA:167,0
DA:168,0
DA:171,0
DA:172,0
DA:173,0
DA:174,0
DA:175,0
DA:176,0
DA:177,0
DA:178,0
DA:179,0
DA:180,0
DA:183,0
DA:184,0
DA:185,0
DA:186,0
DA:187,0
DA:188,0
DA:189,0
DA:190,0
DA:191,0
DA:192,0
DA:195,0
DA:196,0
DA:197,0
DA:198,0
DA:199,0
DA:200,0
DA:201,0
DA:202,0
DA:203,0
DA:204,0
DA:205,0
DA:206,0
DA:207,0
DA:208,0
DA:209,0
DA:210,0
DA:211,0
DA:212,0
DA:213,0
DA:214,0
DA:215,0
DA:216,0
DA:217,0
DA:218,0
DA:219,0
DA:220,0
DA:221,0
DA:222,0
DA:223,0
DA:224,0
DA:226,0
DA:227,0
BRF:0
BRH:0
LF:156
LH:0
end_of_record
SF:/home/noah/src/ruchy/src/frontend/error_recovery.rs
FN:741,_RNCNvMs1_NtNtCs2RUqfoJCtLU_5ruchy8frontend14error_recoveryNtB7_14RecoveryParser11synchronize0Bb_
FN:765,_RNCNvMs1_NtNtCs2RUqfoJCtLU_5ruchy8frontend14error_recoveryNtB7_14RecoveryParser14synchronize_to0Bb_
FN:151,_RNvMs0_NtNtCs2RUqfoJCtLU_5ruchy8frontend14error_recoveryNtB5_10ParseError12with_context
FN:135,_RNvMs0_NtNtCs2RUqfoJCtLU_5ruchy8frontend14error_recoveryNtB5_10ParseError13missing_token
FN:165,_RNvMs0_NtNtCs2RUqfoJCtLU_5ruchy8frontend14error_recoveryNtB5_10ParseError13with_severity
FN:118,_RNvMs0_NtNtCs2RUqfoJCtLU_5ruchy8frontend14error_recoveryNtB5_10ParseError16unexpected_token
FN:104,_RNvMs0_NtNtCs2RUqfoJCtLU_5ruchy8frontend14error_recoveryNtB5_10ParseError3new
FN:172,_RNvMs0_NtNtCs2RUqfoJCtLU_5ruchy8frontend14error_recoveryNtB5_10ParseError9with_code
FN:158,_RNvMs0_NtNtCs2RUqfoJCtLU_5ruchy8frontend14error_recoveryNtB5_10ParseError9with_hint
FN:773,_RNvMs1_NtNtCs2RUqfoJCtLU_5ruchy8frontend14error_recoveryNtB5_14RecoveryParser10precedence
FN:718,_RNvMs1_NtNtCs2RUqfoJCtLU_5ruchy8frontend14error_recoveryNtB5_14RecoveryParser11synchronize
FN:685,_RNvMs1_NtNtCs2RUqfoJCtLU_5ruchy8frontend14error_recoveryNtB5_14RecoveryParser12record_error
FN:755,_RNvMs1_NtNtCs2RUqfoJCtLU_5ruchy8frontend14error_recoveryNtB5_14RecoveryParser14synchronize_to
FN:672,_RNvMs1_NtNtCs2RUqfoJCtLU_5ruchy8frontend14error_recoveryNtB5_14RecoveryParser17create_ghost_node
FN:699,_RNvMs1_NtNtCs2RUqfoJCtLU_5ruchy8frontend14error_recoveryNtB5_14RecoveryParser17expect_or_recover
FN:398,_RNvMs1_NtNtCs2RUqfoJCtLU_5ruchy8frontend14error_recoveryNtB5_14RecoveryParser17parse_if_recovery
FN:438,_RNvMs1_NtNtCs2RUqfoJCtLU_5ruchy8frontend14error_recoveryNtB5_14RecoveryParser18parse_let_recovery
FN:790,_RNvMs1_NtNtCs2RUqfoJCtLU_5ruchy8frontend14error_recoveryNtB5_14RecoveryParser18token_to_binary_op
FN:239,_RNvMs1_NtNtCs2RUqfoJCtLU_5ruchy8frontend14error_recoveryNtB5_14RecoveryParser19parse_expr_recovery
FN:563,_RNvMs1_NtNtCs2RUqfoJCtLU_5ruchy8frontend14error_recoveryNtB5_14RecoveryParser19parse_list_recovery
FN:646,_RNvMs1_NtNtCs2RUqfoJCtLU_5ruchy8frontend14error_recoveryNtB5_14RecoveryParser19parse_type_recovery
FN:208,_RNvMs1_NtNtCs2RUqfoJCtLU_5ruchy8frontend14error_recoveryNtB5_14RecoveryParser19parse_with_recovery
FN:528,_RNvMs1_NtNtCs2RUqfoJCtLU_5ruchy8frontend14error_recoveryNtB5_14RecoveryParser20parse_block_recovery
FN:588,_RNvMs1_NtNtCs2RUqfoJCtLU_5ruchy8frontend14error_recoveryNtB5_14RecoveryParser20parse_paren_recovery
FN:595,_RNvMs1_NtNtCs2RUqfoJCtLU_5ruchy8frontend14error_recoveryNtB5_14RecoveryParser21parse_params_recovery
FN:313,_RNvMs1_NtNtCs2RUqfoJCtLU_5ruchy8frontend14error_recoveryNtB5_14RecoveryParser21parse_prefix_recovery
FN:486,_RNvMs1_NtNtCs2RUqfoJCtLU_5ruchy8frontend14error_recoveryNtB5_14RecoveryParser23parse_function_recovery
FN:243,_RNvMs1_NtNtCs2RUqfoJCtLU_5ruchy8frontend14error_recoveryNtB5_14RecoveryParser35parse_expr_with_precedence_recovery
FN:197,_RNvMs1_NtNtCs2RUqfoJCtLU_5ruchy8frontend14error_recoveryNtB5_14RecoveryParser3new
FN:62,_RNvXNtNtCs2RUqfoJCtLU_5ruchy8frontend14error_recoveryNtB2_10ParseErrorNtNtCs66KPHxksi63_4core3fmt7Display3fmt
FNDA:0,_RNCNvMs1_NtNtCs2RUqfoJCtLU_5ruchy8frontend14error_recoveryNtB7_14RecoveryParser11synchronize0Bb_
FNDA:0,_RNCNvMs1_NtNtCs2RUqfoJCtLU_5ruchy8frontend14error_recoveryNtB7_14RecoveryParser14synchronize_to0Bb_
FNDA:0,_RNvMs0_NtNtCs2RUqfoJCtLU_5ruchy8frontend14error_recoveryNtB5_10ParseError12with_context
FNDA:0,_RNvMs0_NtNtCs2RUqfoJCtLU_5ruchy8frontend14error_recoveryNtB5_10ParseError13missing_token
FNDA:0,_RNvMs0_NtNtCs2RUqfoJCtLU_5ruchy8frontend14error_recoveryNtB5_10ParseError13with_severity
FNDA:0,_RNvMs0_NtNtCs2RUqfoJCtLU_5ruchy8frontend14error_recoveryNtB5_10ParseError16unexpected_token
FNDA:0,_RNvMs0_NtNtCs2RUqfoJCtLU_5ruchy8frontend14error_recoveryNtB5_10ParseError3new
FNDA:0,_RNvMs0_NtNtCs2RUqfoJCtLU_5ruchy8frontend14error_recoveryNtB5_10ParseError9with_code
FNDA:0,_RNvMs0_NtNtCs2RUqfoJCtLU_5ruchy8frontend14error_recoveryNtB5_10ParseError9with_hint
FNDA:0,_RNvMs1_NtNtCs2RUqfoJCtLU_5ruchy8frontend14error_recoveryNtB5_14RecoveryParser10precedence
FNDA:0,_RNvMs1_NtNtCs2RUqfoJCtLU_5ruchy8frontend14error_recoveryNtB5_14RecoveryParser11synchronize
FNDA:0,_RNvMs1_NtNtCs2RUqfoJCtLU_5ruchy8frontend14error_recoveryNtB5_14RecoveryParser12record_error
FNDA:0,_RNvMs1_NtNtCs2RUqfoJCtLU_5ruchy8frontend14error_recoveryNtB5_14RecoveryParser14synchronize_to
FNDA:0,_RNvMs1_NtNtCs2RUqfoJCtLU_5ruchy8frontend14error_recoveryNtB5_14RecoveryParser17create_ghost_node
FNDA:0,_RNvMs1_NtNtCs2RUqfoJCtLU_5ruchy8frontend14error_recoveryNtB5_14RecoveryParser17expect_or_recover
FNDA:0,_RNvMs1_NtNtCs2RUqfoJCtLU_5ruchy8frontend14error_recoveryNtB5_14RecoveryParser17parse_if_recovery
FNDA:0,_RNvMs1_NtNtCs2RUqfoJCtLU_5ruchy8frontend14error_recoveryNtB5_14RecoveryParser18parse_let_recovery
FNDA:0,_RNvMs1_NtNtCs2RUqfoJCtLU_5ruchy8frontend14error_recoveryNtB5_14RecoveryParser18token_to_binary_op
FNDA:0,_RNvMs1_NtNtCs2RUqfoJCtLU_5ruchy8frontend14error_recoveryNtB5_14RecoveryParser19parse_expr_recovery
FNDA:0,_RNvMs1_NtNtCs2RUqfoJCtLU_5ruchy8frontend14error_recoveryNtB5_14RecoveryParser19parse_list_recovery
FNDA:0,_RNvMs1_NtNtCs2RUqfoJCtLU_5ruchy8frontend14error_recoveryNtB5_14RecoveryParser19parse_type_recovery
FNDA:0,_RNvMs1_NtNtCs2RUqfoJCtLU_5ruchy8frontend14error_recoveryNtB5_14RecoveryParser19parse_with_recovery
FNDA:0,_RNvMs1_NtNtCs2RUqfoJCtLU_5ruchy8frontend14error_recoveryNtB5_14RecoveryParser20parse_block_recovery
FNDA:0,_RNvMs1_NtNtCs2RUqfoJCtLU_5ruchy8frontend14error_recoveryNtB5_14RecoveryParser20parse_paren_recovery
FNDA:0,_RNvMs1_NtNtCs2RUqfoJCtLU_5ruchy8frontend14error_recoveryNtB5_14RecoveryParser21parse_params_recovery
FNDA:0,_RNvMs1_NtNtCs2RUqfoJCtLU_5ruchy8frontend14error_recoveryNtB5_14RecoveryParser21parse_prefix_recovery
FNDA:0,_RNvMs1_NtNtCs2RUqfoJCtLU_5ruchy8frontend14error_recoveryNtB5_14RecoveryParser23parse_function_recovery
FNDA:0,_RNvMs1_NtNtCs2RUqfoJCtLU_5ruchy8frontend14error_recoveryNtB5_14RecoveryParser35parse_expr_with_precedence_recovery
FNDA:0,_RNvMs1_NtNtCs2RUqfoJCtLU_5ruchy8frontend14error_recoveryNtB5_14RecoveryParser3new
FNDA:0,_RNvXNtNtCs2RUqfoJCtLU_5ruchy8frontend14error_recoveryNtB2_10ParseErrorNtNtCs66KPHxksi63_4core3fmt7Display3fmt
FNF:30
FNH:0
DA:62,0
DA:64,0
DA:67,0
DA:68,0
DA:69,0
DA:72,0
DA:75,0
DA:76,0
DA:77,0
DA:78,0
DA:79,0
DA:80,0
DA:83,0
DA:84,0
DA:85,0
DA:86,0
DA:87,0
DA:88,0
DA:89,0
DA:92,0
DA:93,0
DA:94,0
DA:96,0
DA:97,0
DA:104,0
DA:105,0
DA:106,0
DA:107,0
DA:108,0
DA:109,0
DA:110,0
DA:111,0
DA:112,0
DA:113,0
DA:114,0
DA:115,0
DA:118,0
DA:119,0
DA:120,0
DA:121,0
DA:122,0
DA:123,0
DA:124,0
DA:125,0
DA:126,0
DA:127,0
DA:128,0
DA:129,0
DA:130,0
DA:131,0
DA:132,0
DA:135,0
DA:136,0
DA:137,0
DA:138,0
DA:139,0
DA:140,0
DA:141,0
DA:142,0
DA:143,0
DA:144,0
DA:145,0
DA:146,0
DA:147,0
DA:151,0
DA:152,0
DA:153,0
DA:154,0
DA:158,0
DA:159,0
DA:160,0
DA:161,0
DA:165,0
DA:166,0
DA:167,0
DA:168,0
DA:172,0
DA:173,0
DA:174,0
DA:175,0
DA:197,0
DA:198,0
DA:199,0
DA:200,0
DA:201,0
DA:202,0
DA:203,0
DA:204,0
DA:205,0
DA:208,0
DA:209,0
DA:210,0
DA:211,0
DA:212,0
DA:213,0
DA:214,0
DA:215,0
DA:217,0
DA:218,0
DA:219,0
DA:220,0
DA:221,0
DA:222,0
DA:224,0
DA:226,0
DA:227,0
DA:228,0
DA:230,0
DA:231,0
DA:232,0
DA:233,0
DA:234,0
DA:237,0
DA:239,0
DA:240,0
DA:241,0
DA:243,0
DA:244,0
DA:246,0
DA:249,0
DA:250,0
DA:251,0
DA:252,0
DA:253,0
DA:255,0
DA:256,0
DA:258,0
DA:259,0
DA:262,0
DA:263,0
DA:264,0
DA:266,0
DA:267,0
DA:268,0
DA:269,0
DA:270,0
DA:272,0
DA:273,0
DA:274,0
DA:275,0
DA:276,0
DA:277,0
DA:279,0
DA:283,0
DA:285,0
DA:288,0
DA:289,0
DA:290,0
DA:291,0
DA:293,0
DA:296,0
DA:297,0
DA:298,0
DA:299,0
DA:300,0
DA:301,0
DA:302,0
DA:303,0
DA:306,0
DA:310,0
DA:311,0
DA:313,0
DA:316,0
DA:317,0
DA:318,0
DA:319,0
DA:320,0
DA:321,0
DA:323,0
DA:324,0
DA:326,0
DA:327,0
DA:328,0
DA:329,0
DA:330,0
DA:331,0
DA:333,0
DA:334,0
DA:335,0
DA:336,0
DA:337,0
DA:339,0
DA:340,0
DA:341,0
DA:342,0
DA:343,0
DA:345,0
DA:346,0
DA:347,0
DA:348,0
DA:349,0
DA:351,0
DA:352,0
DA:353,0
DA:354,0
DA:355,0
DA:357,0
DA:358,0
DA:359,0
DA:360,0
DA:361,0
DA:362,0
DA:363,0
DA:366,0
DA:367,0
DA:368,0
DA:369,0
DA:370,0
DA:373,0
DA:374,0
DA:376,0
DA:377,0
DA:378,0
DA:379,0
DA:382,0
DA:383,0
DA:386,0
DA:387,0
DA:388,0
DA:390,0
DA:394,0
DA:395,0
DA:396,0
DA:398,0
DA:399,0
DA:401,0
DA:402,0
DA:404,0
DA:405,0
DA:406,0
DA:408,0
DA:411,0
DA:412,0
DA:414,0
DA:415,0
DA:416,0
DA:417,0
DA:419,0
DA:422,0
DA:423,0
DA:425,0
DA:428,0
DA:429,0
DA:430,0
DA:431,0
DA:432,0
DA:433,0
DA:434,0
DA:436,0
DA:438,0
DA:439,0
DA:441,0
DA:442,0
DA:444,0
DA:445,0
DA:446,0
DA:448,0
DA:451,0
DA:453,0
DA:454,0
DA:456,0
DA:457,0
DA:458,0
DA:460,0
DA:463,0
DA:464,0
DA:465,0
DA:466,0
DA:467,0
DA:470,0
DA:473,0
DA:474,0
DA:475,0
DA:476,0
DA:477,0
DA:478,0
DA:479,0
DA:480,0
DA:481,0
DA:482,0
DA:484,0
DA:486,0
DA:487,0
DA:489,0
DA:490,0
DA:492,0
DA:493,0
DA:494,0
DA:496,0
DA:499,0
DA:500,0
DA:501,0
DA:503,0
DA:504,0
DA:505,0
DA:507,0
DA:510,0
DA:511,0
DA:513,0
DA:514,0
DA:515,0
DA:516,0
DA:517,0
DA:518,0
DA:519,0
DA:520,0
DA:521,0
DA:522,0
DA:523,0
DA:524,0
DA:526,0
DA:528,0
DA:529,0
DA:530,0
DA:531,0
DA:532,0
DA:533,0
DA:535,0
DA:536,0
DA:537,0
DA:538,0
DA:540,0
DA:541,0
DA:542,0
DA:543,0
DA:547,0
DA:548,0
DA:549,0
DA:552,0
DA:554,0
DA:555,0
DA:557,0
DA:560,0
DA:561,0
DA:563,0
DA:564,0
DA:565,0
DA:567,0
DA:568,0
DA:569,0
DA:570,0
DA:571,0
DA:572,0
DA:575,0
DA:576,0
DA:577,0
DA:578,0
DA:582,0
DA:583,0
DA:585,0
DA:586,0
DA:588,0
DA:589,0
DA:590,0
DA:591,0
DA:592,0
DA:593,0
DA:595,0
DA:596,0
DA:598,0
DA:599,0
DA:600,0
DA:603,0
DA:604,0
DA:605,0
DA:606,0
DA:608,0
DA:609,0
DA:612,0
DA:613,0
DA:614,0
DA:617,0
DA:618,0
DA:619,0
DA:620,0
DA:623,0
DA:624,0
DA:625,0
DA:626,0
DA:627,0
DA:628,0
DA:629,0
DA:631,0
DA:632,0
DA:633,0
DA:634,0
DA:635,0
DA:637,0
DA:638,0
DA:643,0
DA:644,0
DA:646,0
DA:647,0
DA:649,0
DA:651,0
DA:652,0
DA:653,0
DA:655,0
DA:658,0
DA:659,0
DA:660,0
DA:661,0
DA:662,0
DA:663,0
DA:665,0
DA:668,0
DA:669,0
DA:672,0
DA:673,0
DA:674,0
DA:675,0
DA:676,0
DA:677,0
DA:678,0
DA:679,0
DA:680,0
DA:682,0
DA:685,0
DA:686,0
DA:688,0
DA:689,0
DA:690,0
DA:691,0
DA:692,0
DA:693,0
DA:694,0
DA:695,0
DA:696,0
DA:699,0
DA:700,0
DA:701,0
DA:702,0
DA:703,0
DA:704,0
DA:707,0
DA:708,0
DA:709,0
DA:711,0
DA:712,0
DA:715,0
DA:718,0
DA:719,0
DA:722,0
DA:723,0
DA:724,0
DA:725,0
DA:726,0
DA:727,0
DA:728,0
DA:729,0
DA:730,0
DA:732,0
DA:735,0
DA:736,0
DA:738,0
DA:739,0
DA:741,0
DA:742,0
DA:743,0
DA:744,0
DA:745,0
DA:746,0
DA:747,0
DA:748,0
DA:751,0
DA:752,0
DA:755,0
DA:756,0
DA:759,0
DA:760,0
DA:762,0
DA:763,0
DA:765,0
DA:766,0
DA:767,0
DA:768,0
DA:769,0
DA:771,0
DA:773,0
DA:774,0
DA:775,0
DA:776,0
DA:777,0
DA:778,0
DA:779,0
DA:780,0
DA:781,0
DA:782,0
DA:783,0
DA:784,0
DA:785,0
DA:786,0
DA:788,0
DA:790,0
DA:791,0
DA:792,0
DA:793,0
DA:794,0
DA:795,0
DA:796,0
DA:797,0
DA:798,0
DA:799,0
DA:800,0
DA:801,0
DA:802,0
DA:803,0
DA:804,0
DA:805,0
DA:806,0
DA:807,0
DA:808,0
DA:809,0
DA:810,0
DA:812,0
BRF:0
BRH:0
LF:517
LH:0
end_of_record
SF:/home/noah/src/ruchy/src/frontend/lexer.rs
FN:513,_RNCNvMs_NtNtCs2RUqfoJCtLU_5ruchy8frontend5lexerNtB6_11TokenStream17peek_nth_is_colon0Ba_
FN:516,_RNCNvMs_NtNtCs2RUqfoJCtLU_5ruchy8frontend5lexerNtB6_11TokenStream17peek_nth_is_colons_0Ba_
FN:474,_RNCNvMs_NtNtCs2RUqfoJCtLU_5ruchy8frontend5lexerNtB6_11TokenStream4next0Ba_
FN:81,_RNCNvNvNvXs0_NtNtCs2RUqfoJCtLU_5ruchy8frontend5lexerNtBb_5TokenNtCs3jGFQHOVNM9_5logos5Logos3lex14goto21_ctx21_x8callback0Bf_
FN:81,_RNCNvNvNvXs0_NtNtCs2RUqfoJCtLU_5ruchy8frontend5lexerNtBb_5TokenNtCs3jGFQHOVNM9_5logos5Logos3lex8goto21_x8callback0Bf_
FN:406,_RNvMNtNtCs2RUqfoJCtLU_5ruchy8frontend5lexerNtB2_5Token11is_unary_op
FN:381,_RNvMNtNtCs2RUqfoJCtLU_5ruchy8frontend5lexerNtB2_5Token12is_binary_op
FN:414,_RNvMNtNtCs2RUqfoJCtLU_5ruchy8frontend5lexerNtB2_5Token16is_assignment_op
FN:463,_RNvMs_NtNtCs2RUqfoJCtLU_5ruchy8frontend5lexerNtB4_11TokenStream12set_position
FN:511,_RNvMs_NtNtCs2RUqfoJCtLU_5ruchy8frontend5lexerNtB4_11TokenStream17peek_nth_is_colon
FN:446,_RNvMs_NtNtCs2RUqfoJCtLU_5ruchy8frontend5lexerNtB4_11TokenStream3new
FN:469,_RNvMs_NtNtCs2RUqfoJCtLU_5ruchy8frontend5lexerNtB4_11TokenStream4next
FN:481,_RNvMs_NtNtCs2RUqfoJCtLU_5ruchy8frontend5lexerNtB4_11TokenStream4peek
FN:525,_RNvMs_NtNtCs2RUqfoJCtLU_5ruchy8frontend5lexerNtB4_11TokenStream6expect
FN:534,_RNvMs_NtNtCs2RUqfoJCtLU_5ruchy8frontend5lexerNtB4_11TokenStream7advance
FN:488,_RNvMs_NtNtCs2RUqfoJCtLU_5ruchy8frontend5lexerNtB4_11TokenStream8peek_nth
FN:455,_RNvMs_NtNtCs2RUqfoJCtLU_5ruchy8frontend5lexerNtB4_11TokenStream8position
FN:43,_RNvNtNtCs2RUqfoJCtLU_5ruchy8frontend5lexer15process_escapes
FN:7,_RNvNtNtCs2RUqfoJCtLU_5ruchy8frontend5lexer20process_basic_escape
FN:21,_RNvNtNtCs2RUqfoJCtLU_5ruchy8frontend5lexer22process_unicode_escape
FN:72,_RNvNvXs0_NtNtCs2RUqfoJCtLU_5ruchy8frontend5lexerNtB7_5TokenNtCs3jGFQHOVNM9_5logos5Logos3lex12goto9_ctx8_x
FN:72,_RNvNvXs0_NtNtCs2RUqfoJCtLU_5ruchy8frontend5lexerNtB7_5TokenNtCs3jGFQHOVNM9_5logos5Logos3lex14goto65_ctx64_x
FN:72,_RNvNvXs0_NtNtCs2RUqfoJCtLU_5ruchy8frontend5lexerNtB7_5TokenNtCs3jGFQHOVNM9_5logos5Logos3lex14goto79_ctx78_x
FN:72,_RNvNvXs0_NtNtCs2RUqfoJCtLU_5ruchy8frontend5lexerNtB7_5TokenNtCs3jGFQHOVNM9_5logos5Logos3lex16goto287_ctx162_x
FN:72,_RNvNvXs0_NtNtCs2RUqfoJCtLU_5ruchy8frontend5lexerNtB7_5TokenNtCs3jGFQHOVNM9_5logos5Logos3lex16goto299_ctx162_x
FN:72,_RNvNvXs0_NtNtCs2RUqfoJCtLU_5ruchy8frontend5lexerNtB7_5TokenNtCs3jGFQHOVNM9_5logos5Logos3lex16goto301_ctx162_x
FN:72,_RNvNvXs0_NtNtCs2RUqfoJCtLU_5ruchy8frontend5lexerNtB7_5TokenNtCs3jGFQHOVNM9_5logos5Logos3lex16goto312_ctx162_x
FN:72,_RNvNvXs0_NtNtCs2RUqfoJCtLU_5ruchy8frontend5lexerNtB7_5TokenNtCs3jGFQHOVNM9_5logos5Logos3lex16goto335_ctx162_x
FN:72,_RNvNvXs0_NtNtCs2RUqfoJCtLU_5ruchy8frontend5lexerNtB7_5TokenNtCs3jGFQHOVNM9_5logos5Logos3lex16goto337_ctx162_x
FN:72,_RNvNvXs0_NtNtCs2RUqfoJCtLU_5ruchy8frontend5lexerNtB7_5TokenNtCs3jGFQHOVNM9_5logos5Logos3lex16goto339_ctx162_x
FN:72,_RNvNvXs0_NtNtCs2RUqfoJCtLU_5ruchy8frontend5lexerNtB7_5TokenNtCs3jGFQHOVNM9_5logos5Logos3lex16goto374_ctx162_x
FN:72,_RNvNvXs0_NtNtCs2RUqfoJCtLU_5ruchy8frontend5lexerNtB7_5TokenNtCs3jGFQHOVNM9_5logos5Logos3lex16goto376_ctx162_x
FN:72,_RNvNvXs0_NtNtCs2RUqfoJCtLU_5ruchy8frontend5lexerNtB7_5TokenNtCs3jGFQHOVNM9_5logos5Logos3lex16goto378_ctx162_x
FN:72,_RNvNvXs0_NtNtCs2RUqfoJCtLU_5ruchy8frontend5lexerNtB7_5TokenNtCs3jGFQHOVNM9_5logos5Logos3lex16goto380_ctx162_x
FN:72,_RNvNvXs0_NtNtCs2RUqfoJCtLU_5ruchy8frontend5lexerNtB7_5TokenNtCs3jGFQHOVNM9_5logos5Logos3lex16goto390_ctx162_x
FN:72,_RNvNvXs0_NtNtCs2RUqfoJCtLU_5ruchy8frontend5lexerNtB7_5TokenNtCs3jGFQHOVNM9_5logos5Logos3lex16goto392_ctx162_x
FN:72,_RNvNvXs0_NtNtCs2RUqfoJCtLU_5ruchy8frontend5lexerNtB7_5TokenNtCs3jGFQHOVNM9_5logos5Logos3lex16goto426_ctx162_x
FN:72,_RNvNvXs0_NtNtCs2RUqfoJCtLU_5ruchy8frontend5lexerNtB7_5TokenNtCs3jGFQHOVNM9_5logos5Logos3lex16goto428_ctx162_x
FN:72,_RNvNvXs0_NtNtCs2RUqfoJCtLU_5ruchy8frontend5lexerNtB7_5TokenNtCs3jGFQHOVNM9_5logos5Logos3lex16goto430_ctx162_x
FN:72,_RNvNvXs0_NtNtCs2RUqfoJCtLU_5ruchy8frontend5lexerNtB7_5TokenNtCs3jGFQHOVNM9_5logos5Logos3lex16goto439_ctx162_x
FN:72,_RNvNvXs0_NtNtCs2RUqfoJCtLU_5ruchy8frontend5lexerNtB7_5TokenNtCs3jGFQHOVNM9_5logos5Logos3lex16goto441_ctx162_x
FN:72,_RNvNvXs0_NtNtCs2RUqfoJCtLU_5ruchy8frontend5lexerNtB7_5TokenNtCs3jGFQHOVNM9_5logos5Logos3lex16goto443_ctx162_x
FN:72,_RNvNvXs0_NtNtCs2RUqfoJCtLU_5ruchy8frontend5lexerNtB7_5TokenNtCs3jGFQHOVNM9_5logos5Logos3lex16goto469_ctx163_x
FN:72,_RNvNvXs0_NtNtCs2RUqfoJCtLU_5ruchy8frontend5lexerNtB7_5TokenNtCs3jGFQHOVNM9_5logos5Logos3lex16goto471_ctx163_x
FN:72,_RNvNvXs0_NtNtCs2RUqfoJCtLU_5ruchy8frontend5lexerNtB7_5TokenNtCs3jGFQHOVNM9_5logos5Logos3lex16goto482_ctx162_x
FN:72,_RNvNvXs0_NtNtCs2RUqfoJCtLU_5ruchy8frontend5lexerNtB7_5TokenNtCs3jGFQHOVNM9_5logos5Logos3lex16goto484_ctx162_x
FN:72,_RNvNvXs0_NtNtCs2RUqfoJCtLU_5ruchy8frontend5lexerNtB7_5TokenNtCs3jGFQHOVNM9_5logos5Logos3lex16goto486_ctx162_x
FN:72,_RNvNvXs0_NtNtCs2RUqfoJCtLU_5ruchy8frontend5lexerNtB7_5TokenNtCs3jGFQHOVNM9_5logos5Logos3lex16goto488_ctx162_x
FN:72,_RNvNvXs0_NtNtCs2RUqfoJCtLU_5ruchy8frontend5lexerNtB7_5TokenNtCs3jGFQHOVNM9_5logos5Logos3lex16goto528_ctx162_x
FN:72,_RNvNvXs0_NtNtCs2RUqfoJCtLU_5ruchy8frontend5lexerNtB7_5TokenNtCs3jGFQHOVNM9_5logos5Logos3lex16goto530_ctx162_x
FN:72,_RNvNvXs0_NtNtCs2RUqfoJCtLU_5ruchy8frontend5lexerNtB7_5TokenNtCs3jGFQHOVNM9_5logos5Logos3lex16goto542_ctx162_x
FN:72,_RNvNvXs0_NtNtCs2RUqfoJCtLU_5ruchy8frontend5lexerNtB7_5TokenNtCs3jGFQHOVNM9_5logos5Logos3lex16goto544_ctx162_x
FN:72,_RNvNvXs0_NtNtCs2RUqfoJCtLU_5ruchy8frontend5lexerNtB7_5TokenNtCs3jGFQHOVNM9_5logos5Logos3lex16goto546_ctx162_x
FNDA:0,_RNCNvMs_NtNtCs2RUqfoJCtLU_5ruchy8frontend5lexerNtB6_11TokenStream17peek_nth_is_colon0Ba_
FNDA:0,_RNCNvMs_NtNtCs2RUqfoJCtLU_5ruchy8frontend5lexerNtB6_11TokenStream17peek_nth_is_colons_0Ba_
FNDA:115,_RNCNvMs_NtNtCs2RUqfoJCtLU_5ruchy8frontend5lexerNtB6_11TokenStream4next0Ba_
FNDA:51,_RNCNvNvNvXs0_NtNtCs2RUqfoJCtLU_5ruchy8frontend5lexerNtBb_5TokenNtCs3jGFQHOVNM9_5logos5Logos3lex14goto21_ctx21_x8callback0Bf_
FNDA:0,_RNCNvNvNvXs0_NtNtCs2RUqfoJCtLU_5ruchy8frontend5lexerNtBb_5TokenNtCs3jGFQHOVNM9_5logos5Logos3lex8goto21_x8callback0Bf_
FNDA:0,_RNvMNtNtCs2RUqfoJCtLU_5ruchy8frontend5lexerNtB2_5Token11is_unary_op
FNDA:0,_RNvMNtNtCs2RUqfoJCtLU_5ruchy8frontend5lexerNtB2_5Token12is_binary_op
FNDA:1,_RNvMNtNtCs2RUqfoJCtLU_5ruchy8frontend5lexerNtB2_5Token16is_assignment_op
FNDA:0,_RNvMs_NtNtCs2RUqfoJCtLU_5ruchy8frontend5lexerNtB4_11TokenStream12set_position
FNDA:0,_RNvMs_NtNtCs2RUqfoJCtLU_5ruchy8frontend5lexerNtB4_11TokenStream17peek_nth_is_colon
FNDA:36,_RNvMs_NtNtCs2RUqfoJCtLU_5ruchy8frontend5lexerNtB4_11TokenStream3new
FNDA:455,_RNvMs_NtNtCs2RUqfoJCtLU_5ruchy8frontend5lexerNtB4_11TokenStream4next
FNDA:449,_RNvMs_NtNtCs2RUqfoJCtLU_5ruchy8frontend5lexerNtB4_11TokenStream4peek
FNDA:50,_RNvMs_NtNtCs2RUqfoJCtLU_5ruchy8frontend5lexerNtB4_11TokenStream6expect
FNDA:65,_RNvMs_NtNtCs2RUqfoJCtLU_5ruchy8frontend5lexerNtB4_11TokenStream7advance
FNDA:0,_RNvMs_NtNtCs2RUqfoJCtLU_5ruchy8frontend5lexerNtB4_11TokenStream8peek_nth
FNDA:0,_RNvMs_NtNtCs2RUqfoJCtLU_5ruchy8frontend5lexerNtB4_11TokenStream8position
FNDA:2,_RNvNtNtCs2RUqfoJCtLU_5ruchy8frontend5lexer15process_escapes
FNDA:0,_RNvNtNtCs2RUqfoJCtLU_5ruchy8frontend5lexer20process_basic_escape
FNDA:0,_RNvNtNtCs2RUqfoJCtLU_5ruchy8frontend5lexer22process_unicode_escape
FNDA:0,_RNvNvXs0_NtNtCs2RUqfoJCtLU_5ruchy8frontend5lexerNtB7_5TokenNtCs3jGFQHOVNM9_5logos5Logos3lex12goto9_ctx8_x
FNDA:9,_RNvNvXs0_NtNtCs2RUqfoJCtLU_5ruchy8frontend5lexerNtB7_5TokenNtCs3jGFQHOVNM9_5logos5Logos3lex14goto65_ctx64_x
FNDA:0,_RNvNvXs0_NtNtCs2RUqfoJCtLU_5ruchy8frontend5lexerNtB7_5TokenNtCs3jGFQHOVNM9_5logos5Logos3lex14goto79_ctx78_x
FNDA:0,_RNvNvXs0_NtNtCs2RUqfoJCtLU_5ruchy8frontend5lexerNtB7_5TokenNtCs3jGFQHOVNM9_5logos5Logos3lex16goto287_ctx162_x
FNDA:0,_RNvNvXs0_NtNtCs2RUqfoJCtLU_5ruchy8frontend5lexerNtB7_5TokenNtCs3jGFQHOVNM9_5logos5Logos3lex16goto299_ctx162_x
FNDA:0,_RNvNvXs0_NtNtCs2RUqfoJCtLU_5ruchy8frontend5lexerNtB7_5TokenNtCs3jGFQHOVNM9_5logos5Logos3lex16goto301_ctx162_x
FNDA:0,_RNvNvXs0_NtNtCs2RUqfoJCtLU_5ruchy8frontend5lexerNtB7_5TokenNtCs3jGFQHOVNM9_5logos5Logos3lex16goto312_ctx162_x
FNDA:0,_RNvNvXs0_NtNtCs2RUqfoJCtLU_5ruchy8frontend5lexerNtB7_5TokenNtCs3jGFQHOVNM9_5logos5Logos3lex16goto335_ctx162_x
FNDA:0,_RNvNvXs0_NtNtCs2RUqfoJCtLU_5ruchy8frontend5lexerNtB7_5TokenNtCs3jGFQHOVNM9_5logos5Logos3lex16goto337_ctx162_x
FNDA:0,_RNvNvXs0_NtNtCs2RUqfoJCtLU_5ruchy8frontend5lexerNtB7_5TokenNtCs3jGFQHOVNM9_5logos5Logos3lex16goto339_ctx162_x
FNDA:0,_RNvNvXs0_NtNtCs2RUqfoJCtLU_5ruchy8frontend5lexerNtB7_5TokenNtCs3jGFQHOVNM9_5logos5Logos3lex16goto374_ctx162_x
FNDA:0,_RNvNvXs0_NtNtCs2RUqfoJCtLU_5ruchy8frontend5lexerNtB7_5TokenNtCs3jGFQHOVNM9_5logos5Logos3lex16goto376_ctx162_x
FNDA:0,_RNvNvXs0_NtNtCs2RUqfoJCtLU_5ruchy8frontend5lexerNtB7_5TokenNtCs3jGFQHOVNM9_5logos5Logos3lex16goto378_ctx162_x
FNDA:0,_RNvNvXs0_NtNtCs2RUqfoJCtLU_5ruchy8frontend5lexerNtB7_5TokenNtCs3jGFQHOVNM9_5logos5Logos3lex16goto380_ctx162_x
FNDA:0,_RNvNvXs0_NtNtCs2RUqfoJCtLU_5ruchy8frontend5lexerNtB7_5TokenNtCs3jGFQHOVNM9_5logos5Logos3lex16goto390_ctx162_x
FNDA:0,_RNvNvXs0_NtNtCs2RUqfoJCtLU_5ruchy8frontend5lexerNtB7_5TokenNtCs3jGFQHOVNM9_5logos5Logos3lex16goto392_ctx162_x
FNDA:0,_RNvNvXs0_NtNtCs2RUqfoJCtLU_5ruchy8frontend5lexerNtB7_5TokenNtCs3jGFQHOVNM9_5logos5Logos3lex16goto426_ctx162_x
FNDA:0,_RNvNvXs0_NtNtCs2RUqfoJCtLU_5ruchy8frontend5lexerNtB7_5TokenNtCs3jGFQHOVNM9_5logos5Logos3lex16goto428_ctx162_x
FNDA:0,_RNvNvXs0_NtNtCs2RUqfoJCtLU_5ruchy8frontend5lexerNtB7_5TokenNtCs3jGFQHOVNM9_5logos5Logos3lex16goto430_ctx162_x
FNDA:0,_RNvNvXs0_NtNtCs2RUqfoJCtLU_5ruchy8frontend5lexerNtB7_5TokenNtCs3jGFQHOVNM9_5logos5Logos3lex16goto439_ctx162_x
FNDA:0,_RNvNvXs0_NtNtCs2RUqfoJCtLU_5ruchy8frontend5lexerNtB7_5TokenNtCs3jGFQHOVNM9_5logos5Logos3lex16goto441_ctx162_x
FNDA:0,_RNvNvXs0_NtNtCs2RUqfoJCtLU_5ruchy8frontend5lexerNtB7_5TokenNtCs3jGFQHOVNM9_5logos5Logos3lex16goto443_ctx162_x
FNDA:0,_RNvNvXs0_NtNtCs2RUqfoJCtLU_5ruchy8frontend5lexerNtB7_5TokenNtCs3jGFQHOVNM9_5logos5Logos3lex16goto469_ctx163_x
FNDA:0,_RNvNvXs0_NtNtCs2RUqfoJCtLU_5ruchy8frontend5lexerNtB7_5TokenNtCs3jGFQHOVNM9_5logos5Logos3lex16goto471_ctx163_x
FNDA:0,_RNvNvXs0_NtNtCs2RUqfoJCtLU_5ruchy8frontend5lexerNtB7_5TokenNtCs3jGFQHOVNM9_5logos5Logos3lex16goto482_ctx162_x
FNDA:0,_RNvNvXs0_NtNtCs2RUqfoJCtLU_5ruchy8frontend5lexerNtB7_5TokenNtCs3jGFQHOVNM9_5logos5Logos3lex16goto484_ctx162_x
FNDA:0,_RNvNvXs0_NtNtCs2RUqfoJCtLU_5ruchy8frontend5lexerNtB7_5TokenNtCs3jGFQHOVNM9_5logos5Logos3lex16goto486_ctx162_x
FNDA:0,_RNvNvXs0_NtNtCs2RUqfoJCtLU_5ruchy8frontend5lexerNtB7_5TokenNtCs3jGFQHOVNM9_5logos5Logos3lex16goto488_ctx162_x
FNDA:0,_RNvNvXs0_NtNtCs2RUqfoJCtLU_5ruchy8frontend5lexerNtB7_5TokenNtCs3jGFQHOVNM9_5logos5Logos3lex16goto528_ctx162_x
FNDA:0,_RNvNvXs0_NtNtCs2RUqfoJCtLU_5ruchy8frontend5lexerNtB7_5TokenNtCs3jGFQHOVNM9_5logos5Logos3lex16goto530_ctx162_x
FNDA:1,_RNvNvXs0_NtNtCs2RUqfoJCtLU_5ruchy8frontend5lexerNtB7_5TokenNtCs3jGFQHOVNM9_5logos5Logos3lex16goto542_ctx162_x
FNDA:0,_RNvNvXs0_NtNtCs2RUqfoJCtLU_5ruchy8frontend5lexerNtB7_5TokenNtCs3jGFQHOVNM9_5logos5Logos3lex16goto544_ctx162_x
FNDA:0,_RNvNvXs0_NtNtCs2RUqfoJCtLU_5ruchy8frontend5lexerNtB7_5TokenNtCs3jGFQHOVNM9_5logos5Logos3lex16goto546_ctx162_x
FNF:20
FNH:10
DA:7,0
DA:8,0
DA:9,0
DA:10,0
DA:11,0
DA:12,0
DA:13,0
DA:14,0
DA:15,0
DA:16,0
DA:18,0
DA:21,0
DA:22,0
DA:24,0
DA:25,0
DA:26,0
DA:27,0
DA:28,0
DA:29,0
DA:32,0
DA:33,0
DA:34,0
DA:35,0
DA:36,0
DA:39,0
DA:40,0
DA:43,2
DA:44,2
DA:45,2
DA:47,11
DA:48,9
DA:49,0
DA:50,0
DA:51,0
DA:52,0
DA:53,0
DA:54,0
DA:55,0
DA:56,0
DA:57,0
DA:58,0
DA:59,0
DA:60,0
DA:61,0
DA:64,9
DA:65,9
DA:66,9
DA:69,2
DA:70,2
DA:72,10
DA:81,51
DA:381,0
DA:382,0
DA:383,0
DA:403,0
DA:406,0
DA:407,0
DA:408,0
DA:411,0
DA:414,1
DA:415,1
DA:416,1
DA:429,1
DA:446,36
DA:447,36
DA:448,36
DA:449,36
DA:450,36
DA:451,36
DA:455,0
DA:456,0
DA:457,0
DA:458,0
DA:459,0
DA:460,0
DA:463,0
DA:464,0
DA:465,0
DA:466,0
DA:469,455
DA:470,455
DA:471,115
DA:472,340
DA:474,340
DA:475,115
DA:476,115
DA:477,115
DA:478,115
DA:479,455
DA:481,449
DA:482,449
DA:483,340
DA:484,340
DA:485,449
DA:486,449
DA:488,0
DA:490,0
DA:491,0
DA:492,0
DA:495,0
DA:496,0
DA:499,0
DA:502,0
DA:503,0
DA:505,0
DA:507,0
DA:509,0
DA:511,0
DA:512,0
DA:513,0
DA:515,0
DA:516,0
DA:518,0
DA:525,50
DA:526,50
DA:527,50
DA:528,0
DA:529,0
DA:531,50
DA:534,65
DA:535,65
DA:536,65
BRF:0
BRH:0
LF:125
LH:46
end_of_record
SF:/home/noah/src/ruchy/src/frontend/parser/actors.rs
FN:12,_RNvNtNtNtCs2RUqfoJCtLU_5ruchy8frontend6parser6actors11parse_actor
FN:42,_RNvNtNtNtCs2RUqfoJCtLU_5ruchy8frontend6parser6actors16parse_actor_body
FN:31,_RNvNtNtNtCs2RUqfoJCtLU_5ruchy8frontend6parser6actors16parse_actor_name
FN:163,_RNvNtNtNtCs2RUqfoJCtLU_5ruchy8frontend6parser6actors16parse_field_name
FN:60,_RNvNtNtNtCs2RUqfoJCtLU_5ruchy8frontend6parser6actors17parse_state_block
FN:183,_RNvNtNtNtCs2RUqfoJCtLU_5ruchy8frontend6parser6actors18parse_handler_body
FN:94,_RNvNtNtNtCs2RUqfoJCtLU_5ruchy8frontend6parser6actors19parse_receive_block
FN:174,_RNvNtNtNtCs2RUqfoJCtLU_5ruchy8frontend6parser6actors21parse_optional_params
FN:83,_RNvNtNtNtCs2RUqfoJCtLU_5ruchy8frontend6parser6actors21parse_receive_handler
FN:119,_RNvNtNtNtCs2RUqfoJCtLU_5ruchy8frontend6parser6actors24parse_individual_handler
FN:141,_RNvNtNtNtCs2RUqfoJCtLU_5ruchy8frontend6parser6actors24parse_inline_state_field
FN:192,_RNvNtNtNtCs2RUqfoJCtLU_5ruchy8frontend6parser6actors26consume_optional_separator
FNDA:0,_RNvNtNtNtCs2RUqfoJCtLU_5ruchy8frontend6parser6actors11parse_actor
FNDA:0,_RNvNtNtNtCs2RUqfoJCtLU_5ruchy8frontend6parser6actors16parse_actor_body
FNDA:0,_RNvNtNtNtCs2RUqfoJCtLU_5ruchy8frontend6parser6actors16parse_actor_name
FNDA:0,_RNvNtNtNtCs2RUqfoJCtLU_5ruchy8frontend6parser6actors16parse_field_name
FNDA:0,_RNvNtNtNtCs2RUqfoJCtLU_5ruchy8frontend6parser6actors17parse_state_block
FNDA:0,_RNvNtNtNtCs2RUqfoJCtLU_5ruchy8frontend6parser6actors18parse_handler_body
FNDA:0,_RNvNtNtNtCs2RUqfoJCtLU_5ruchy8frontend6parser6actors19parse_receive_block
FNDA:0,_RNvNtNtNtCs2RUqfoJCtLU_5ruchy8frontend6parser6actors21parse_optional_params
FNDA:0,_RNvNtNtNtCs2RUqfoJCtLU_5ruchy8frontend6parser6actors21parse_receive_handler
FNDA:0,_RNvNtNtNtCs2RUqfoJCtLU_5ruchy8frontend6parser6actors24parse_individual_handler
FNDA:0,_RNvNtNtNtCs2RUqfoJCtLU_5ruchy8frontend6parser6actors24parse_inline_state_field
FNDA:0,_RNvNtNtNtCs2RUqfoJCtLU_5ruchy8frontend6parser6actors26consume_optional_separator
FNF:12
FNH:0
DA:12,0
DA:13,0
DA:14,0
DA:15,0
DA:17,0
DA:18,0
DA:20,0
DA:21,0
DA:22,0
DA:23,0
DA:24,0
DA:25,0
DA:26,0
DA:27,0
DA:28,0
DA:31,0
DA:32,0
DA:33,0
DA:34,0
DA:35,0
DA:37,0
DA:39,0
DA:42,0
DA:43,0
DA:44,0
DA:46,0
DA:47,0
DA:48,0
DA:49,0
DA:50,0
DA:52,0
DA:56,0
DA:57,0
DA:60,0
DA:61,0
DA:62,0
DA:64,0
DA:65,0
DA:66,0
DA:67,0
DA:69,0
DA:70,0
DA:71,0
DA:72,0
DA:73,0
DA:75,0
DA:78,0
DA:79,0
DA:80,0
DA:83,0
DA:84,0
DA:86,0
DA:87,0
DA:89,0
DA:91,0
DA:94,0
DA:95,0
DA:97,0
DA:98,0
DA:99,0
DA:100,0
DA:101,0
DA:103,0
DA:104,0
DA:105,0
DA:106,0
DA:107,0
DA:109,0
DA:110,0
DA:111,0
DA:114,0
DA:115,0
DA:116,0
DA:119,0
DA:120,0
DA:121,0
DA:124,0
DA:125,0
DA:126,0
DA:127,0
DA:129,0
DA:131,0
DA:132,0
DA:133,0
DA:134,0
DA:135,0
DA:137,0
DA:138,0
DA:141,0
DA:142,0
DA:143,0
DA:144,0
DA:147,0
DA:148,0
DA:149,0
DA:150,0
DA:152,0
DA:153,0
DA:154,0
DA:155,0
DA:156,0
DA:158,0
DA:159,0
DA:160,0
DA:163,0
DA:164,0
DA:165,0
DA:166,0
DA:167,0
DA:169,0
DA:171,0
DA:174,0
DA:175,0
DA:176,0
DA:178,0
DA:180,0
DA:183,0
DA:184,0
DA:185,0
DA:187,0
DA:189,0
DA:192,0
DA:193,0
DA:194,0
DA:196,0
DA:197,0
DA:198,0
DA:199,0
BRF:0
BRH:0
LF:128
LH:0
end_of_record
SF:/home/noah/src/ruchy/src/frontend/parser/collections.rs
FN:409,_RNvNtNtNtCs2RUqfoJCtLU_5ruchy8frontend6parser11collections10parse_list
FN:850,_RNvNtNtNtCs2RUqfoJCtLU_5ruchy8frontend6parser11collections14is_end_bracket
FN:874,_RNvNtNtNtCs2RUqfoJCtLU_5ruchy8frontend6parser11collections15is_row_boundary
FN:802,_RNvNtNtNtCs2RUqfoJCtLU_5ruchy8frontend6parser11collections15parse_dataframe
FN:900,_RNvNtNtNtCs2RUqfoJCtLU_5ruchy8frontend6parser11collections17add_non_empty_row
FN:563,_RNvNtNtNtCs2RUqfoJCtLU_5ruchy8frontend6parser11collections17parse_method_call
FN:445,_RNvNtNtNtCs2RUqfoJCtLU_5ruchy8frontend6parser11collections18parse_list_element
FN:598,_RNvNtNtNtCs2RUqfoJCtLU_5ruchy8frontend6parser11collections19create_field_access
FN:544,_RNvNtNtNtCs2RUqfoJCtLU_5ruchy8frontend6parser11collections19parse_dot_operation
FN:488,_RNvNtNtNtCs2RUqfoJCtLU_5ruchy8frontend6parser11collections20parse_condition_expr
FN:527,_RNvNtNtNtCs2RUqfoJCtLU_5ruchy8frontend6parser11collections20parse_condition_term
FN:890,_RNvNtNtNtCs2RUqfoJCtLU_5ruchy8frontend6parser11collections21consume_row_separator
FN:685,_RNvNtNtNtCs2RUqfoJCtLU_5ruchy8frontend6parser11collections22parse_dataframe_header
FN:581,_RNvNtNtNtCs2RUqfoJCtLU_5ruchy8frontend6parser11collections22parse_method_arguments
FN:880,_RNvNtNtNtCs2RUqfoJCtLU_5ruchy8frontend6parser11collections23consume_value_separator
FN:797,_RNvNtNtNtCs2RUqfoJCtLU_5ruchy8frontend6parser11collections23create_dataframe_result
FN:830,_RNvNtNtNtCs2RUqfoJCtLU_5ruchy8frontend6parser11collections24parse_all_dataframe_rows
FN:608,_RNvNtNtNtCs2RUqfoJCtLU_5ruchy8frontend6parser11collections24parse_list_comprehension
FN:855,_RNvNtNtNtCs2RUqfoJCtLU_5ruchy8frontend6parser11collections26parse_single_dataframe_row
FN:907,_RNvNtNtNtCs2RUqfoJCtLU_5ruchy8frontend6parser11collections26populate_dataframe_columns
FN:693,_RNvNtNtNtCs2RUqfoJCtLU_5ruchy8frontend6parser11collections27parse_dataframe_column_name
FN:820,_RNvNtNtNtCs2RUqfoJCtLU_5ruchy8frontend6parser11collections27parse_legacy_dataframe_rows
FN:704,_RNvNtNtNtCs2RUqfoJCtLU_5ruchy8frontend6parser11collections29parse_dataframe_column_values
FN:751,_RNvNtNtNtCs2RUqfoJCtLU_5ruchy8frontend6parser11collections29parse_single_dataframe_column
FN:772,_RNvNtNtNtCs2RUqfoJCtLU_5ruchy8frontend6parser11collections32is_dataframe_legacy_syntax_token
FN:735,_RNvNtNtNtCs2RUqfoJCtLU_5ruchy8frontend6parser11collections34parse_dataframe_column_definitions
FN:779,_RNvNtNtNtCs2RUqfoJCtLU_5ruchy8frontend6parser11collections36handle_dataframe_column_continuation
FN:725,_RNvNtNtNtCs2RUqfoJCtLU_5ruchy8frontend6parser11collections37handle_dataframe_legacy_syntax_column
FN:36,_RNvNtNtNtCs2RUqfoJCtLU_5ruchy8frontend6parser11collections11parse_block
FN:244,_RNvNtNtNtCs2RUqfoJCtLU_5ruchy8frontend6parser11collections16parse_object_key
FN:114,_RNvNtNtNtCs2RUqfoJCtLU_5ruchy8frontend6parser11collections17is_let_expression
FN:208,_RNvNtNtNtCs2RUqfoJCtLU_5ruchy8frontend6parser11collections17is_object_literal
FN:165,_RNvNtNtNtCs2RUqfoJCtLU_5ruchy8frontend6parser11collections19create_block_result
FN:256,_RNvNtNtNtCs2RUqfoJCtLU_5ruchy8frontend6parser11collections19token_to_object_key
FN:99,_RNvNtNtNtCs2RUqfoJCtLU_5ruchy8frontend6parser11collections21try_parse_let_binding
FN:154,_RNvNtNtNtCs2RUqfoJCtLU_5ruchy8frontend6parser11collections22create_body_expression
FN:51,_RNvNtNtNtCs2RUqfoJCtLU_5ruchy8frontend6parser11collections23parse_block_expressions
FN:325,_RNvNtNtNtCs2RUqfoJCtLU_5ruchy8frontend6parser11collections25parse_object_literal_body
FN:347,_RNvNtNtNtCs2RUqfoJCtLU_5ruchy8frontend6parser11collections25parse_object_spread_field
FN:338,_RNvNtNtNtCs2RUqfoJCtLU_5ruchy8frontend6parser11collections25parse_single_object_field
FN:174,_RNvNtNtNtCs2RUqfoJCtLU_5ruchy8frontend6parser11collections26consume_optional_semicolon
FN:137,_RNvNtNtNtCs2RUqfoJCtLU_5ruchy8frontend6parser11collections26parse_remaining_block_body
FN:69,_RNvNtNtNtCs2RUqfoJCtLU_5ruchy8frontend6parser11collections27parse_next_block_expression
FN:355,_RNvNtNtNtCs2RUqfoJCtLU_5ruchy8frontend6parser11collections28parse_object_key_value_field
FN:371,_RNvNtNtNtCs2RUqfoJCtLU_5ruchy8frontend6parser11collections29handle_object_field_separator
FN:78,_RNvNtNtNtCs2RUqfoJCtLU_5ruchy8frontend6parser11collections29parse_potential_let_statement
FN:119,_RNvNtNtNtCs2RUqfoJCtLU_5ruchy8frontend6parser11collections31create_let_statement_expression
FNDA:0,_RNvNtNtNtCs2RUqfoJCtLU_5ruchy8frontend6parser11collections10parse_list
FNDA:0,_RNvNtNtNtCs2RUqfoJCtLU_5ruchy8frontend6parser11collections14is_end_bracket
FNDA:0,_RNvNtNtNtCs2RUqfoJCtLU_5ruchy8frontend6parser11collections15is_row_boundary
FNDA:0,_RNvNtNtNtCs2RUqfoJCtLU_5ruchy8frontend6parser11collections15parse_dataframe
FNDA:0,_RNvNtNtNtCs2RUqfoJCtLU_5ruchy8frontend6parser11collections17add_non_empty_row
FNDA:0,_RNvNtNtNtCs2RUqfoJCtLU_5ruchy8frontend6parser11collections17parse_method_call
FNDA:0,_RNvNtNtNtCs2RUqfoJCtLU_5ruchy8frontend6parser11collections18parse_list_element
FNDA:0,_RNvNtNtNtCs2RUqfoJCtLU_5ruchy8frontend6parser11collections19create_field_access
FNDA:0,_RNvNtNtNtCs2RUqfoJCtLU_5ruchy8frontend6parser11collections19parse_dot_operation
FNDA:0,_RNvNtNtNtCs2RUqfoJCtLU_5ruchy8frontend6parser11collections20parse_condition_expr
FNDA:0,_RNvNtNtNtCs2RUqfoJCtLU_5ruchy8frontend6parser11collections20parse_condition_term
FNDA:0,_RNvNtNtNtCs2RUqfoJCtLU_5ruchy8frontend6parser11collections21consume_row_separator
FNDA:0,_RNvNtNtNtCs2RUqfoJCtLU_5ruchy8frontend6parser11collections22parse_dataframe_header
FNDA:0,_RNvNtNtNtCs2RUqfoJCtLU_5ruchy8frontend6parser11collections22parse_method_arguments
FNDA:0,_RNvNtNtNtCs2RUqfoJCtLU_5ruchy8frontend6parser11collections23consume_value_separator
FNDA:0,_RNvNtNtNtCs2RUqfoJCtLU_5ruchy8frontend6parser11collections23create_dataframe_result
FNDA:0,_RNvNtNtNtCs2RUqfoJCtLU_5ruchy8frontend6parser11collections24parse_all_dataframe_rows
FNDA:0,_RNvNtNtNtCs2RUqfoJCtLU_5ruchy8frontend6parser11collections24parse_list_comprehension
FNDA:0,_RNvNtNtNtCs2RUqfoJCtLU_5ruchy8frontend6parser11collections26parse_single_dataframe_row
FNDA:0,_RNvNtNtNtCs2RUqfoJCtLU_5ruchy8frontend6parser11collections26populate_dataframe_columns
FNDA:0,_RNvNtNtNtCs2RUqfoJCtLU_5ruchy8frontend6parser11collections27parse_dataframe_column_name
FNDA:0,_RNvNtNtNtCs2RUqfoJCtLU_5ruchy8frontend6parser11collections27parse_legacy_dataframe_rows
FNDA:0,_RNvNtNtNtCs2RUqfoJCtLU_5ruchy8frontend6parser11collections29parse_dataframe_column_values
FNDA:0,_RNvNtNtNtCs2RUqfoJCtLU_5ruchy8frontend6parser11collections29parse_single_dataframe_column
FNDA:0,_RNvNtNtNtCs2RUqfoJCtLU_5ruchy8frontend6parser11collections32is_dataframe_legacy_syntax_token
FNDA:0,_RNvNtNtNtCs2RUqfoJCtLU_5ruchy8frontend6parser11collections34parse_dataframe_column_definitions
FNDA:0,_RNvNtNtNtCs2RUqfoJCtLU_5ruchy8frontend6parser11collections36handle_dataframe_column_continuation
FNDA:0,_RNvNtNtNtCs2RUqfoJCtLU_5ruchy8frontend6parser11collections37handle_dataframe_legacy_syntax_column
FNDA:0,_RNvNtNtNtCs2RUqfoJCtLU_5ruchy8frontend6parser11collections11parse_block
FNDA:0,_RNvNtNtNtCs2RUqfoJCtLU_5ruchy8frontend6parser11collections16parse_object_key
FNDA:0,_RNvNtNtNtCs2RUqfoJCtLU_5ruchy8frontend6parser11collections17is_let_expression
FNDA:0,_RNvNtNtNtCs2RUqfoJCtLU_5ruchy8frontend6parser11collections17is_object_literal
FNDA:0,_RNvNtNtNtCs2RUqfoJCtLU_5ruchy8frontend6parser11collections19create_block_result
FNDA:0,_RNvNtNtNtCs2RUqfoJCtLU_5ruchy8frontend6parser11collections19token_to_object_key
FNDA:0,_RNvNtNtNtCs2RUqfoJCtLU_5ruchy8frontend6parser11collections21try_parse_let_binding
FNDA:0,_RNvNtNtNtCs2RUqfoJCtLU_5ruchy8frontend6parser11collections22create_body_expression
FNDA:0,_RNvNtNtNtCs2RUqfoJCtLU_5ruchy8frontend6parser11collections23parse_block_expressions
FNDA:0,_RNvNtNtNtCs2RUqfoJCtLU_5ruchy8frontend6parser11collections25parse_object_literal_body
FNDA:0,_RNvNtNtNtCs2RUqfoJCtLU_5ruchy8frontend6parser11collections25parse_object_spread_field
FNDA:0,_RNvNtNtNtCs2RUqfoJCtLU_5ruchy8frontend6parser11collections25parse_single_object_field
FNDA:0,_RNvNtNtNtCs2RUqfoJCtLU_5ruchy8frontend6parser11collections26consume_optional_semicolon
FNDA:0,_RNvNtNtNtCs2RUqfoJCtLU_5ruchy8frontend6parser11collections26parse_remaining_block_body
FNDA:0,_RNvNtNtNtCs2RUqfoJCtLU_5ruchy8frontend6parser11collections27parse_next_block_expression
FNDA:0,_RNvNtNtNtCs2RUqfoJCtLU_5ruchy8frontend6parser11collections28parse_object_key_value_field
FNDA:0,_RNvNtNtNtCs2RUqfoJCtLU_5ruchy8frontend6parser11collections29handle_object_field_separator
FNDA:0,_RNvNtNtNtCs2RUqfoJCtLU_5ruchy8frontend6parser11collections29parse_potential_let_statement
FNDA:0,_RNvNtNtNtCs2RUqfoJCtLU_5ruchy8frontend6parser11collections31create_let_statement_expression
FNF:47
FNH:0
DA:36,0
DA:37,0
DA:40,0
DA:41,0
DA:42,0
DA:44,0
DA:45,0
DA:47,0
DA:48,0
DA:51,0
DA:52,0
DA:54,0
DA:55,0
DA:56,0
DA:58,0
DA:60,0
DA:61,0
DA:62,0
DA:65,0
DA:66,0
DA:69,0
DA:70,0
DA:71,0
DA:73,0
DA:75,0
DA:78,0
DA:79,0
DA:80,0
DA:82,0
DA:83,0
DA:85,0
DA:86,0
DA:89,0
DA:93,0
DA:94,0
DA:96,0
DA:99,0
DA:100,0
DA:101,0
DA:102,0
DA:104,0
DA:105,0
DA:106,0
DA:107,0
DA:108,0
DA:109,0
DA:110,0
DA:111,0
DA:114,0
DA:115,0
DA:116,0
DA:119,0
DA:120,0
DA:122,0
DA:124,0
DA:125,0
DA:126,0
DA:127,0
DA:128,0
DA:129,0
DA:130,0
DA:131,0
DA:132,0
DA:133,0
DA:134,0
DA:137,0
DA:138,0
DA:140,0
DA:141,0
DA:143,0
DA:145,0
DA:146,0
DA:147,0
DA:150,0
DA:151,0
DA:154,0
DA:155,0
DA:156,0
DA:157,0
DA:158,0
DA:160,0
DA:162,0
DA:165,0
DA:166,0
DA:167,0
DA:169,0
DA:171,0
DA:174,0
DA:175,0
DA:176,0
DA:177,0
DA:178,0
DA:208,0
DA:216,0
DA:217,0
DA:218,0
DA:221,0
DA:222,0
DA:223,0
DA:226,0
DA:229,0
DA:230,0
DA:231,0
DA:232,0
DA:235,0
DA:236,0
DA:238,0
DA:240,0
DA:244,0
DA:245,0
DA:246,0
DA:247,0
DA:248,0
DA:250,0
DA:252,0
DA:256,0
DA:257,0
DA:258,0
DA:259,0
DA:261,0
DA:262,0
DA:263,0
DA:264,0
DA:265,0
DA:266,0
DA:267,0
DA:268,0
DA:269,0
DA:270,0
DA:271,0
DA:272,0
DA:273,0
DA:274,0
DA:275,0
DA:276,0
DA:277,0
DA:278,0
DA:279,0
DA:280,0
DA:281,0
DA:282,0
DA:283,0
DA:284,0
DA:285,0
DA:286,0
DA:287,0
DA:288,0
DA:289,0
DA:290,0
DA:291,0
DA:292,0
DA:293,0
DA:294,0
DA:295,0
DA:296,0
DA:297,0
DA:299,0
DA:325,0
DA:326,0
DA:328,0
DA:329,0
DA:330,0
DA:333,0
DA:334,0
DA:335,0
DA:338,0
DA:339,0
DA:340,0
DA:342,0
DA:344,0
DA:347,0
DA:348,0
DA:349,0
DA:350,0
DA:351,0
DA:352,0
DA:355,0
DA:356,0
DA:359,0
DA:360,0
DA:361,0
DA:362,0
DA:365,0
DA:366,0
DA:367,0
DA:368,0
DA:371,0
DA:372,0
DA:373,0
DA:374,0
DA:375,0
DA:376,0
DA:378,0
DA:380,0
DA:409,0
DA:410,0
DA:413,0
DA:414,0
DA:415,0
DA:416,0
DA:419,0
DA:422,0
DA:423,0
DA:424,0
DA:427,0
DA:429,0
DA:430,0
DA:432,0
DA:433,0
DA:434,0
DA:436,0
DA:439,0
DA:441,0
DA:442,0
DA:445,0
DA:447,0
DA:448,0
DA:449,0
DA:450,0
DA:451,0
DA:452,0
DA:453,0
DA:454,0
DA:457,0
DA:459,0
DA:488,0
DA:490,0
DA:494,0
DA:497,0
DA:498,0
DA:507,0
DA:508,0
DA:509,0
DA:510,0
DA:511,0
DA:512,0
DA:513,0
DA:514,0
DA:515,0
DA:516,0
DA:519,0
DA:523,0
DA:524,0
DA:527,0
DA:529,0
DA:532,0
DA:533,0
DA:534,0
DA:535,0
DA:536,0
DA:540,0
DA:541,0
DA:544,0
DA:545,0
DA:547,0
DA:548,0
DA:551,0
DA:552,0
DA:555,0
DA:556,0
DA:558,0
DA:560,0
DA:563,0
DA:564,0
DA:566,0
DA:568,0
DA:570,0
DA:571,0
DA:572,0
DA:573,0
DA:574,0
DA:575,0
DA:576,0
DA:577,0
DA:578,0
DA:581,0
DA:582,0
DA:584,0
DA:585,0
DA:587,0
DA:588,0
DA:589,0
DA:590,0
DA:594,0
DA:595,0
DA:598,0
DA:599,0
DA:600,0
DA:601,0
DA:602,0
DA:603,0
DA:604,0
DA:606,0
DA:608,0
DA:609,0
DA:610,0
DA:611,0
DA:612,0
DA:616,0
DA:619,0
DA:620,0
DA:621,0
DA:622,0
DA:624,0
DA:627,0
DA:630,0
DA:633,0
DA:634,0
DA:637,0
DA:638,0
DA:640,0
DA:643,0
DA:645,0
DA:646,0
DA:647,0
DA:648,0
DA:649,0
DA:650,0
DA:651,0
DA:652,0
DA:653,0
DA:654,0
DA:685,0
DA:686,0
DA:687,0
DA:688,0
DA:689,0
DA:690,0
DA:693,0
DA:694,0
DA:695,0
DA:696,0
DA:697,0
DA:699,0
DA:701,0
DA:704,0
DA:705,0
DA:707,0
DA:709,0
DA:712,0
DA:716,0
DA:717,0
DA:718,0
DA:721,0
DA:722,0
DA:725,0
DA:728,0
DA:729,0
DA:730,0
DA:731,0
DA:732,0
DA:735,0
DA:736,0
DA:739,0
DA:740,0
DA:742,0
DA:743,0
DA:744,0
DA:747,0
DA:748,0
DA:751,0
DA:752,0
DA:753,0
DA:754,0
DA:755,0
DA:756,0
DA:758,0
DA:759,0
DA:760,0
DA:761,0
DA:762,0
DA:763,0
DA:764,0
DA:765,0
DA:766,0
DA:768,0
DA:769,0
DA:772,0
DA:773,0
DA:774,0
DA:775,0
DA:776,0
DA:779,0
DA:780,0
DA:781,0
DA:782,0
DA:783,0
DA:784,0
DA:785,0
DA:786,0
DA:788,0
DA:789,0
DA:790,0
DA:792,0
DA:794,0
DA:797,0
DA:798,0
DA:799,0
DA:802,0
DA:803,0
DA:806,0
DA:807,0
DA:808,0
DA:809,0
DA:812,0
DA:814,0
DA:815,0
DA:816,0
DA:820,0
DA:821,0
DA:822,0
DA:823,0
DA:824,0
DA:825,0
DA:826,0
DA:827,0
DA:830,0
DA:831,0
DA:834,0
DA:835,0
DA:836,0
DA:838,0
DA:839,0
DA:841,0
DA:842,0
DA:843,0
DA:846,0
DA:847,0
DA:850,0
DA:851,0
DA:852,0
DA:855,0
DA:856,0
DA:859,0
DA:860,0
DA:861,0
DA:863,0
DA:865,0
DA:866,0
DA:867,0
DA:870,0
DA:871,0
DA:874,0
DA:875,0
DA:876,0
DA:877,0
DA:880,0
DA:881,0
DA:882,0
DA:883,0
DA:885,0
DA:887,0
DA:890,0
DA:891,0
DA:892,0
DA:893,0
DA:895,0
DA:897,0
DA:900,0
DA:901,0
DA:902,0
DA:903,0
DA:904,0
DA:907,0
DA:908,0
DA:909,0
DA:910,0
DA:911,0
DA:912,0
DA:915,0
BRF:0
BRH:0
LF:470
LH:0
end_of_record
SF:/home/noah/src/ruchy/src/frontend/parser/core.rs
FN:19,_RNvMNtNtNtCs2RUqfoJCtLU_5ruchy8frontend6parser4coreNtB2_6Parser10get_errors
FN:102,_RNvMNtNtNtCs2RUqfoJCtLU_5ruchy8frontend6parser4coreNtB2_6Parser10parse_expr
FN:124,_RNvMNtNtNtCs2RUqfoJCtLU_5ruchy8frontend6parser4coreNtB2_6Parser26parse_expr_with_precedence
FN:11,_RNvMNtNtNtCs2RUqfoJCtLU_5ruchy8frontend6parser4coreNtB2_6Parser3new
FN:56,_RNvMNtNtNtCs2RUqfoJCtLU_5ruchy8frontend6parser4coreNtB2_6Parser5parse
FNDA:0,_RNvMNtNtNtCs2RUqfoJCtLU_5ruchy8frontend6parser4coreNtB2_6Parser10get_errors
FNDA:0,_RNvMNtNtNtCs2RUqfoJCtLU_5ruchy8frontend6parser4coreNtB2_6Parser10parse_expr
FNDA:0,_RNvMNtNtNtCs2RUqfoJCtLU_5ruchy8frontend6parser4coreNtB2_6Parser26parse_expr_with_precedence
FNDA:36,_RNvMNtNtNtCs2RUqfoJCtLU_5ruchy8frontend6parser4coreNtB2_6Parser3new
FNDA:36,_RNvMNtNtNtCs2RUqfoJCtLU_5ruchy8frontend6parser4coreNtB2_6Parser5parse
FNF:5
FNH:2
DA:11,36
DA:12,36
DA:13,36
DA:14,36
DA:15,36
DA:19,0
DA:20,0
DA:21,0
DA:56,36
DA:58,36
DA:60,72
DA:61,37
DA:62,37
DA:63,36
DA:64,36
DA:67,36
DA:68,0
DA:69,36
DA:72,35
DA:73,0
DA:74,35
DA:75,35
DA:77,0
DA:78,0
DA:79,0
DA:80,0
DA:81,0
DA:83,36
DA:102,0
DA:103,0
DA:104,0
DA:124,0
DA:125,0
DA:126,0
BRF:0
BRH:0
LF:34
LH:18
end_of_record
SF:/home/noah/src/ruchy/src/frontend/parser/expressions.rs
FN:1793,_RNCNvNtNtNtCs2RUqfoJCtLU_5ruchy8frontend6parser11expressions19parse_struct_fields0B9_
FN:1862,_RNCNvNtNtNtCs2RUqfoJCtLU_5ruchy8frontend6parser11expressions22parse_trait_definition0B9_
FN:2464,_RNCNvNtNtNtCs2RUqfoJCtLU_5ruchy8frontend6parser11expressions23create_actor_expression0B9_
FN:2471,_RNCNvNtNtNtCs2RUqfoJCtLU_5ruchy8frontend6parser11expressions23create_actor_expressions_0B9_
FN:1736,_RNCNvNtNtNtCs2RUqfoJCtLU_5ruchy8frontend6parser11expressions23parse_lambda_expressions_0B9_
FN:2126,_RNCNvNtNtNtCs2RUqfoJCtLU_5ruchy8frontend6parser11expressions24create_dataframe_columns0B9_
FN:1520,_RNCNvNtNtNtCs2RUqfoJCtLU_5ruchy8frontend6parser11expressions14parse_for_loop0B9_
FN:1528,_RNCNvNtNtNtCs2RUqfoJCtLU_5ruchy8frontend6parser11expressions14parse_for_loops0_0B9_
FN:1524,_RNCNvNtNtNtCs2RUqfoJCtLU_5ruchy8frontend6parser11expressions14parse_for_loops_0B9_
FN:1471,_RNCNvNtNtNtCs2RUqfoJCtLU_5ruchy8frontend6parser11expressions16parse_while_loop0B9_
FN:1479,_RNCNvNtNtNtCs2RUqfoJCtLU_5ruchy8frontend6parser11expressions16parse_while_loops0_0B9_
FN:1483,_RNCNvNtNtNtCs2RUqfoJCtLU_5ruchy8frontend6parser11expressions16parse_while_loops1_0B9_
FN:1497,_RNCNvNtNtNtCs2RUqfoJCtLU_5ruchy8frontend6parser11expressions16parse_while_loops2_0B9_
FN:1501,_RNCNvNtNtNtCs2RUqfoJCtLU_5ruchy8frontend6parser11expressions16parse_while_loops3_0B9_
FN:1475,_RNCNvNtNtNtCs2RUqfoJCtLU_5ruchy8frontend6parser11expressions16parse_while_loops_0B9_
FN:1006,_RNCNvNtNtNtCs2RUqfoJCtLU_5ruchy8frontend6parser11expressions17parse_else_branch0B9_
FN:1618,_RNCNvNtNtNtCs2RUqfoJCtLU_5ruchy8frontend6parser11expressions18parse_list_literal0B9_
FN:2486,_RNCNvNtNtNtCs2RUqfoJCtLU_5ruchy8frontend6parser11expressions18token_to_binary_op0B9_
FN:2488,_RNCNvNtNtNtCs2RUqfoJCtLU_5ruchy8frontend6parser11expressions18token_to_binary_ops0_0B9_
FN:2487,_RNCNvNtNtNtCs2RUqfoJCtLU_5ruchy8frontend6parser11expressions18token_to_binary_ops_0B9_
FN:1020,_RNCNvNtNtNtCs2RUqfoJCtLU_5ruchy8frontend6parser11expressions22parse_match_expression0B9_
FN:1031,_RNCNvNtNtNtCs2RUqfoJCtLU_5ruchy8frontend6parser11expressions22parse_match_expressions0_0B9_
FN:1024,_RNCNvNtNtNtCs2RUqfoJCtLU_5ruchy8frontend6parser11expressions22parse_match_expressions_0B9_
FN:1085,_RNCNvNtNtNtCs2RUqfoJCtLU_5ruchy8frontend6parser11expressions22parse_single_match_arms_0B9_
FN:942,_RNCNvNtNtNtCs2RUqfoJCtLU_5ruchy8frontend6parser11expressions23parse_if_let_expression0B9_
FN:950,_RNCNvNtNtNtCs2RUqfoJCtLU_5ruchy8frontend6parser11expressions23parse_if_let_expressions0_0B9_
FN:954,_RNCNvNtNtNtCs2RUqfoJCtLU_5ruchy8frontend6parser11expressions23parse_if_let_expressions1_0B9_
FN:946,_RNCNvNtNtNtCs2RUqfoJCtLU_5ruchy8frontend6parser11expressions23parse_if_let_expressions_0B9_
FN:1729,_RNCNvNtNtNtCs2RUqfoJCtLU_5ruchy8frontend6parser11expressions23parse_lambda_expression0B9_
FN:975,_RNCNvNtNtNtCs2RUqfoJCtLU_5ruchy8frontend6parser11expressions27parse_regular_if_expression0B9_
FN:979,_RNCNvNtNtNtCs2RUqfoJCtLU_5ruchy8frontend6parser11expressions27parse_regular_if_expressions_0B9_
FN:5,_RNvNtNtNtCs2RUqfoJCtLU_5ruchy8frontend6parser11expressions12parse_prefix
FN:2542,_RNvNtNtNtCs2RUqfoJCtLU_5ruchy8frontend6parser11expressions14get_precedence
FN:1512,_RNvNtNtNtCs2RUqfoJCtLU_5ruchy8frontend6parser11expressions14parse_for_loop
FN:1938,_RNvNtNtNtCs2RUqfoJCtLU_5ruchy8frontend6parser11expressions14skip_impl_body
FN:2152,_RNvNtNtNtCs2RUqfoJCtLU_5ruchy8frontend6parser11expressions15parse_enum_name
FN:244,_RNvNtNtNtCs2RUqfoJCtLU_5ruchy8frontend6parser11expressions15parse_pub_token
FN:2631,_RNvNtNtNtCs2RUqfoJCtLU_5ruchy8frontend6parser11expressions15parse_try_block
FN:359,_RNvNtNtNtCs2RUqfoJCtLU_5ruchy8frontend6parser11expressions15parse_try_catch
FN:2347,_RNvNtNtNtCs2RUqfoJCtLU_5ruchy8frontend6parser11expressions16parse_actor_body
FN:2335,_RNvNtNtNtCs2RUqfoJCtLU_5ruchy8frontend6parser11expressions16parse_actor_name
FN:2668,_RNvNtNtNtCs2RUqfoJCtLU_5ruchy8frontend6parser11expressions16parse_catch_body
FN:1877,_RNvNtNtNtCs2RUqfoJCtLU_5ruchy8frontend6parser11expressions16parse_impl_block
FN:1040,_RNvNtNtNtCs2RUqfoJCtLU_5ruchy8frontend6parser11expressions16parse_match_arms
FN:1438,_RNvNtNtNtCs2RUqfoJCtLU_5ruchy8frontend6parser11expressions16parse_or_pattern
FN:1462,_RNvNtNtNtCs2RUqfoJCtLU_5ruchy8frontend6parser11expressions16parse_while_loop
FN:261,_RNvNtNtNtCs2RUqfoJCtLU_5ruchy8frontend6parser11expressions17parse_break_token
FN:996,_RNvNtNtNtCs2RUqfoJCtLU_5ruchy8frontend6parser11expressions17parse_else_branch
FN:1546,_RNvNtNtNtCs2RUqfoJCtLU_5ruchy8frontend6parser11expressions17parse_for_pattern
FN:1898,_RNvNtNtNtCs2RUqfoJCtLU_5ruchy8frontend6parser11expressions17parse_impl_header
FN:574,_RNvNtNtNtCs2RUqfoJCtLU_5ruchy8frontend6parser11expressions17parse_let_pattern
FN:403,_RNvNtNtNtCs2RUqfoJCtLU_5ruchy8frontend6parser11expressions17parse_module_body
FN:1765,_RNvNtNtNtCs2RUqfoJCtLU_5ruchy8frontend6parser11expressions17parse_struct_name
FN:452,_RNvNtNtNtCs2RUqfoJCtLU_5ruchy8frontend6parser11expressions18parse_import_token
FN:462,_RNvNtNtNtCs2RUqfoJCtLU_5ruchy8frontend6parser11expressions18parse_lambda_token
FN:1584,_RNvNtNtNtCs2RUqfoJCtLU_5ruchy8frontend6parser11expressions18parse_list_literal
FN:856,_RNvNtNtNtCs2RUqfoJCtLU_5ruchy8frontend6parser11expressions18parse_list_pattern
FN:291,_RNvNtNtNtCs2RUqfoJCtLU_5ruchy8frontend6parser11expressions18parse_return_token
FN:2244,_RNvNtNtNtCs2RUqfoJCtLU_5ruchy8frontend6parser11expressions18parse_variant_name
FN:2483,_RNvNtNtNtCs2RUqfoJCtLU_5ruchy8frontend6parser11expressions18token_to_binary_op
FN:1574,_RNvNtNtNtCs2RUqfoJCtLU_5ruchy8frontend6parser11expressions19parse_array_element
FN:2637,_RNvNtNtNtCs2RUqfoJCtLU_5ruchy8frontend6parser11expressions19parse_catch_clauses
FN:2654,_RNvNtNtNtCs2RUqfoJCtLU_5ruchy8frontend6parser11expressions19parse_catch_pattern
FN:2179,_RNvNtNtNtCs2RUqfoJCtLU_5ruchy8frontend6parser11expressions19parse_enum_variants
FN:2674,_RNvNtNtNtCs2RUqfoJCtLU_5ruchy8frontend6parser11expressions19parse_finally_block
FN:924,_RNvNtNtNtCs2RUqfoJCtLU_5ruchy8frontend6parser11expressions19parse_if_expression
FN:616,_RNvNtNtNtCs2RUqfoJCtLU_5ruchy8frontend6parser11expressions19parse_let_in_clause
FN:536,_RNvNtNtNtCs2RUqfoJCtLU_5ruchy8frontend6parser11expressions19parse_let_statement
FN:81,_RNvNtNtNtCs2RUqfoJCtLU_5ruchy8frontend6parser11expressions19parse_literal_token
FN:1102,_RNvNtNtNtCs2RUqfoJCtLU_5ruchy8frontend6parser11expressions19parse_match_pattern
FN:1776,_RNvNtNtNtCs2RUqfoJCtLU_5ruchy8frontend6parser11expressions19parse_struct_fields
FN:763,_RNvNtNtNtCs2RUqfoJCtLU_5ruchy8frontend6parser11expressions19parse_tuple_pattern
FN:1987,_RNvNtNtNtCs2RUqfoJCtLU_5ruchy8frontend6parser11expressions19parse_use_statement
FN:684,_RNvNtNtNtCs2RUqfoJCtLU_5ruchy8frontend6parser11expressions19parse_var_statement
FN:2608,_RNvNtNtNtCs2RUqfoJCtLU_5ruchy8frontend6parser11expressions20extract_fstring_expr
FN:2532,_RNvNtNtNtCs2RUqfoJCtLU_5ruchy8frontend6parser11expressions20map_bitwise_operator
FN:2521,_RNvNtNtNtCs2RUqfoJCtLU_5ruchy8frontend6parser11expressions20map_logical_operator
FN:276,_RNvNtNtNtCs2RUqfoJCtLU_5ruchy8frontend6parser11expressions20parse_continue_token
FN:2291,_RNvNtNtNtCs2RUqfoJCtLU_5ruchy8frontend6parser11expressions20parse_generic_params
FN:563,_RNvNtNtNtCs2RUqfoJCtLU_5ruchy8frontend6parser11expressions20parse_let_mutability
FN:1226,_RNvNtNtNtCs2RUqfoJCtLU_5ruchy8frontend6parser11expressions20parse_option_pattern
FN:1254,_RNvNtNtNtCs2RUqfoJCtLU_5ruchy8frontend6parser11expressions20parse_result_pattern
FN:1120,_RNvNtNtNtCs2RUqfoJCtLU_5ruchy8frontend6parser11expressions20parse_single_pattern
FN:2195,_RNvNtNtNtCs2RUqfoJCtLU_5ruchy8frontend6parser11expressions20parse_single_variant
FN:811,_RNvNtNtNtCs2RUqfoJCtLU_5ruchy8frontend6parser11expressions20parse_struct_pattern
FN:2271,_RNvNtNtNtCs2RUqfoJCtLU_5ruchy8frontend6parser11expressions20parse_variant_fields
FN:628,_RNvNtNtNtCs2RUqfoJCtLU_5ruchy8frontend6parser11expressions21create_let_expression
FN:2138,_RNvNtNtNtCs2RUqfoJCtLU_5ruchy8frontend6parser11expressions21parse_enum_definition
FN:1147,_RNvNtNtNtCs2RUqfoJCtLU_5ruchy8frontend6parser11expressions21parse_literal_pattern
FN:2434,_RNvNtNtNtCs2RUqfoJCtLU_5ruchy8frontend6parser11expressions22parse_actor_bare_field
FN:2314,_RNvNtNtNtCs2RUqfoJCtLU_5ruchy8frontend6parser11expressions22parse_actor_definition
FN:2061,_RNvNtNtNtCs2RUqfoJCtLU_5ruchy8frontend6parser11expressions22parse_dataframe_header
FN:115,_RNvNtNtNtCs2RUqfoJCtLU_5ruchy8frontend6parser11expressions22parse_identifier_token
FN:1953,_RNvNtNtNtCs2RUqfoJCtLU_5ruchy8frontend6parser11expressions22parse_import_statement
FN:1679,_RNvNtNtNtCs2RUqfoJCtLU_5ruchy8frontend6parser11expressions22parse_lambda_from_expr
FN:1666,_RNvNtNtNtCs2RUqfoJCtLU_5ruchy8frontend6parser11expressions22parse_lambda_no_params
FN:1015,_RNvNtNtNtCs2RUqfoJCtLU_5ruchy8frontend6parser11expressions22parse_match_expression
FN:1068,_RNvNtNtNtCs2RUqfoJCtLU_5ruchy8frontend6parser11expressions22parse_single_match_arm
FN:1815,_RNvNtNtNtCs2RUqfoJCtLU_5ruchy8frontend6parser11expressions22parse_trait_definition
FN:1140,_RNvNtNtNtCs2RUqfoJCtLU_5ruchy8frontend6parser11expressions22parse_wildcard_pattern
FN:2456,_RNvNtNtNtCs2RUqfoJCtLU_5ruchy8frontend6parser11expressions23create_actor_expression
FN:2493,_RNvNtNtNtCs2RUqfoJCtLU_5ruchy8frontend6parser11expressions23map_arithmetic_operator
FN:2507,_RNvNtNtNtCs2RUqfoJCtLU_5ruchy8frontend6parser11expressions23map_comparison_operator
FN:2377,_RNvNtNtNtCs2RUqfoJCtLU_5ruchy8frontend6parser11expressions23parse_actor_state_field
FN:307,_RNvNtNtNtCs2RUqfoJCtLU_5ruchy8frontend6parser11expressions23parse_constructor_token
FN:2070,_RNvNtNtNtCs2RUqfoJCtLU_5ruchy8frontend6parser11expressions23parse_dataframe_columns
FN:2048,_RNvNtNtNtCs2RUqfoJCtLU_5ruchy8frontend6parser11expressions23parse_dataframe_literal
FN:937,_RNvNtNtNtCs2RUqfoJCtLU_5ruchy8frontend6parser11expressions23parse_if_let_expression
FN:1707,_RNvNtNtNtCs2RUqfoJCtLU_5ruchy8frontend6parser11expressions23parse_lambda_expression
FN:2171,_RNvNtNtNtCs2RUqfoJCtLU_5ruchy8frontend6parser11expressions23parse_optional_generics
FN:200,_RNvNtNtNtCs2RUqfoJCtLU_5ruchy8frontend6parser11expressions23parse_parentheses_token
FN:1749,_RNvNtNtNtCs2RUqfoJCtLU_5ruchy8frontend6parser11expressions23parse_struct_definition
FN:2125,_RNvNtNtNtCs2RUqfoJCtLU_5ruchy8frontend6parser11expressions24create_dataframe_columns
FN:346,_RNvNtNtNtCs2RUqfoJCtLU_5ruchy8frontend6parser11expressions24parse_control_flow_token
FN:2560,_RNvNtNtNtCs2RUqfoJCtLU_5ruchy8frontend6parser11expressions24parse_fstring_into_parts
FN:1326,_RNvNtNtNtCs2RUqfoJCtLU_5ruchy8frontend6parser11expressions24parse_match_list_pattern
FN:380,_RNvNtNtNtCs2RUqfoJCtLU_5ruchy8frontend6parser11expressions24parse_module_declaration
FN:2404,_RNvNtNtNtCs2RUqfoJCtLU_5ruchy8frontend6parser11expressions25parse_actor_receive_block
FN:1369,_RNvNtNtNtCs2RUqfoJCtLU_5ruchy8frontend6parser11expressions25parse_constructor_pattern
FN:605,_RNvNtNtNtCs2RUqfoJCtLU_5ruchy8frontend6parser11expressions25parse_let_type_annotation
FN:1300,_RNvNtNtNtCs2RUqfoJCtLU_5ruchy8frontend6parser11expressions25parse_match_tuple_pattern
FN:1916,_RNvNtNtNtCs2RUqfoJCtLU_5ruchy8frontend6parser11expressions25parse_optional_identifier
FN:1927,_RNvNtNtNtCs2RUqfoJCtLU_5ruchy8frontend6parser11expressions25parse_required_identifier
FN:1800,_RNvNtNtNtCs2RUqfoJCtLU_5ruchy8frontend6parser11expressions25parse_single_struct_field
FN:1403,_RNvNtNtNtCs2RUqfoJCtLU_5ruchy8frontend6parser11expressions26create_constructor_pattern
FN:441,_RNvNtNtNtCs2RUqfoJCtLU_5ruchy8frontend6parser11expressions26parse_data_structure_token
FN:472,_RNvNtNtNtCs2RUqfoJCtLU_5ruchy8frontend6parser11expressions26parse_function_block_token
FN:176,_RNvNtNtNtCs2RUqfoJCtLU_5ruchy8frontend6parser11expressions26parse_unary_operator_token
FN:2222,_RNvNtNtNtCs2RUqfoJCtLU_5ruchy8frontend6parser11expressions26parse_variant_discriminant
FN:527,_RNvNtNtNtCs2RUqfoJCtLU_5ruchy8frontend6parser11expressions27parse_collection_enum_token
FN:1382,_RNvNtNtNtCs2RUqfoJCtLU_5ruchy8frontend6parser11expressions27parse_constructor_arguments
FN:2097,_RNvNtNtNtCs2RUqfoJCtLU_5ruchy8frontend6parser11expressions27parse_dataframe_column_name
FN:972,_RNvNtNtNtCs2RUqfoJCtLU_5ruchy8frontend6parser11expressions27parse_regular_if_expression
FN:2685,_RNvNtNtNtCs2RUqfoJCtLU_5ruchy8frontend6parser11expressions28validate_try_catch_structure
FN:515,_RNvNtNtNtCs2RUqfoJCtLU_5ruchy8frontend6parser11expressions29parse_control_statement_token
FN:2115,_RNvNtNtNtCs2RUqfoJCtLU_5ruchy8frontend6parser11expressions29parse_dataframe_column_values
FN:1623,_RNvNtNtNtCs2RUqfoJCtLU_5ruchy8frontend6parser11expressions29parse_list_comprehension_body
FN:2088,_RNvNtNtNtCs2RUqfoJCtLU_5ruchy8frontend6parser11expressions29parse_single_dataframe_column
FN:492,_RNvNtNtNtCs2RUqfoJCtLU_5ruchy8frontend6parser11expressions30parse_special_definition_token
FN:482,_RNvNtNtNtCs2RUqfoJCtLU_5ruchy8frontend6parser11expressions32parse_variable_declaration_token
FN:1282,_RNvNtNtNtCs2RUqfoJCtLU_5ruchy8frontend6parser11expressions39parse_identifier_or_constructor_pattern
FNDA:0,_RNCNvNtNtNtCs2RUqfoJCtLU_5ruchy8frontend6parser11expressions19parse_struct_fields0B9_
FNDA:0,_RNCNvNtNtNtCs2RUqfoJCtLU_5ruchy8frontend6parser11expressions22parse_trait_definition0B9_
FNDA:0,_RNCNvNtNtNtCs2RUqfoJCtLU_5ruchy8frontend6parser11expressions23create_actor_expression0B9_
FNDA:0,_RNCNvNtNtNtCs2RUqfoJCtLU_5ruchy8frontend6parser11expressions23create_actor_expressions_0B9_
FNDA:0,_RNCNvNtNtNtCs2RUqfoJCtLU_5ruchy8frontend6parser11expressions23parse_lambda_expressions_0B9_
FNDA:0,_RNCNvNtNtNtCs2RUqfoJCtLU_5ruchy8frontend6parser11expressions24create_dataframe_columns0B9_
FNDA:0,_RNCNvNtNtNtCs2RUqfoJCtLU_5ruchy8frontend6parser11expressions14parse_for_loop0B9_
FNDA:0,_RNCNvNtNtNtCs2RUqfoJCtLU_5ruchy8frontend6parser11expressions14parse_for_loops0_0B9_
FNDA:0,_RNCNvNtNtNtCs2RUqfoJCtLU_5ruchy8frontend6parser11expressions14parse_for_loops_0B9_
FNDA:0,_RNCNvNtNtNtCs2RUqfoJCtLU_5ruchy8frontend6parser11expressions16parse_while_loop0B9_
FNDA:0,_RNCNvNtNtNtCs2RUqfoJCtLU_5ruchy8frontend6parser11expressions16parse_while_loops0_0B9_
FNDA:0,_RNCNvNtNtNtCs2RUqfoJCtLU_5ruchy8frontend6parser11expressions16parse_while_loops1_0B9_
FNDA:0,_RNCNvNtNtNtCs2RUqfoJCtLU_5ruchy8frontend6parser11expressions16parse_while_loops2_0B9_
FNDA:0,_RNCNvNtNtNtCs2RUqfoJCtLU_5ruchy8frontend6parser11expressions16parse_while_loops3_0B9_
FNDA:0,_RNCNvNtNtNtCs2RUqfoJCtLU_5ruchy8frontend6parser11expressions16parse_while_loops_0B9_
FNDA:0,_RNCNvNtNtNtCs2RUqfoJCtLU_5ruchy8frontend6parser11expressions17parse_else_branch0B9_
FNDA:0,_RNCNvNtNtNtCs2RUqfoJCtLU_5ruchy8frontend6parser11expressions18parse_list_literal0B9_
FNDA:1,_RNCNvNtNtNtCs2RUqfoJCtLU_5ruchy8frontend6parser11expressions18token_to_binary_op0B9_
FNDA:1,_RNCNvNtNtNtCs2RUqfoJCtLU_5ruchy8frontend6parser11expressions18token_to_binary_ops0_0B9_
FNDA:1,_RNCNvNtNtNtCs2RUqfoJCtLU_5ruchy8frontend6parser11expressions18token_to_binary_ops_0B9_
FNDA:0,_RNCNvNtNtNtCs2RUqfoJCtLU_5ruchy8frontend6parser11expressions22parse_match_expression0B9_
FNDA:0,_RNCNvNtNtNtCs2RUqfoJCtLU_5ruchy8frontend6parser11expressions22parse_match_expressions0_0B9_
FNDA:0,_RNCNvNtNtNtCs2RUqfoJCtLU_5ruchy8frontend6parser11expressions22parse_match_expressions_0B9_
FNDA:0,_RNCNvNtNtNtCs2RUqfoJCtLU_5ruchy8frontend6parser11expressions22parse_single_match_arms_0B9_
FNDA:0,_RNCNvNtNtNtCs2RUqfoJCtLU_5ruchy8frontend6parser11expressions23parse_if_let_expression0B9_
FNDA:0,_RNCNvNtNtNtCs2RUqfoJCtLU_5ruchy8frontend6parser11expressions23parse_if_let_expressions0_0B9_
FNDA:0,_RNCNvNtNtNtCs2RUqfoJCtLU_5ruchy8frontend6parser11expressions23parse_if_let_expressions1_0B9_
FNDA:0,_RNCNvNtNtNtCs2RUqfoJCtLU_5ruchy8frontend6parser11expressions23parse_if_let_expressions_0B9_
FNDA:0,_RNCNvNtNtNtCs2RUqfoJCtLU_5ruchy8frontend6parser11expressions23parse_lambda_expression0B9_
FNDA:0,_RNCNvNtNtNtCs2RUqfoJCtLU_5ruchy8frontend6parser11expressions27parse_regular_if_expression0B9_
FNDA:0,_RNCNvNtNtNtCs2RUqfoJCtLU_5ruchy8frontend6parser11expressions27parse_regular_if_expressions_0B9_
FNDA:63,_RNvNtNtNtCs2RUqfoJCtLU_5ruchy8frontend6parser11expressions12parse_prefix
FNDA:1,_RNvNtNtNtCs2RUqfoJCtLU_5ruchy8frontend6parser11expressions14get_precedence
FNDA:0,_RNvNtNtNtCs2RUqfoJCtLU_5ruchy8frontend6parser11expressions14parse_for_loop
FNDA:0,_RNvNtNtNtCs2RUqfoJCtLU_5ruchy8frontend6parser11expressions14skip_impl_body
FNDA:0,_RNvNtNtNtCs2RUqfoJCtLU_5ruchy8frontend6parser11expressions15parse_enum_name
FNDA:0,_RNvNtNtNtCs2RUqfoJCtLU_5ruchy8frontend6parser11expressions15parse_pub_token
FNDA:0,_RNvNtNtNtCs2RUqfoJCtLU_5ruchy8frontend6parser11expressions15parse_try_block
FNDA:0,_RNvNtNtNtCs2RUqfoJCtLU_5ruchy8frontend6parser11expressions15parse_try_catch
FNDA:0,_RNvNtNtNtCs2RUqfoJCtLU_5ruchy8frontend6parser11expressions16parse_actor_body
FNDA:0,_RNvNtNtNtCs2RUqfoJCtLU_5ruchy8frontend6parser11expressions16parse_actor_name
FNDA:0,_RNvNtNtNtCs2RUqfoJCtLU_5ruchy8frontend6parser11expressions16parse_catch_body
FNDA:0,_RNvNtNtNtCs2RUqfoJCtLU_5ruchy8frontend6parser11expressions16parse_impl_block
FNDA:0,_RNvNtNtNtCs2RUqfoJCtLU_5ruchy8frontend6parser11expressions16parse_match_arms
FNDA:0,_RNvNtNtNtCs2RUqfoJCtLU_5ruchy8frontend6parser11expressions16parse_or_pattern
FNDA:0,_RNvNtNtNtCs2RUqfoJCtLU_5ruchy8frontend6parser11expressions16parse_while_loop
FNDA:0,_RNvNtNtNtCs2RUqfoJCtLU_5ruchy8frontend6parser11expressions17parse_break_token
FNDA:0,_RNvNtNtNtCs2RUqfoJCtLU_5ruchy8frontend6parser11expressions17parse_else_branch
FNDA:0,_RNvNtNtNtCs2RUqfoJCtLU_5ruchy8frontend6parser11expressions17parse_for_pattern
FNDA:0,_RNvNtNtNtCs2RUqfoJCtLU_5ruchy8frontend6parser11expressions17parse_impl_header
FNDA:25,_RNvNtNtNtCs2RUqfoJCtLU_5ruchy8frontend6parser11expressions17parse_let_pattern
FNDA:0,_RNvNtNtNtCs2RUqfoJCtLU_5ruchy8frontend6parser11expressions17parse_module_body
FNDA:0,_RNvNtNtNtCs2RUqfoJCtLU_5ruchy8frontend6parser11expressions17parse_struct_name
FNDA:0,_RNvNtNtNtCs2RUqfoJCtLU_5ruchy8frontend6parser11expressions18parse_import_token
FNDA:0,_RNvNtNtNtCs2RUqfoJCtLU_5ruchy8frontend6parser11expressions18parse_lambda_token
FNDA:0,_RNvNtNtNtCs2RUqfoJCtLU_5ruchy8frontend6parser11expressions18parse_list_literal
FNDA:0,_RNvNtNtNtCs2RUqfoJCtLU_5ruchy8frontend6parser11expressions18parse_list_pattern
FNDA:0,_RNvNtNtNtCs2RUqfoJCtLU_5ruchy8frontend6parser11expressions18parse_return_token
FNDA:0,_RNvNtNtNtCs2RUqfoJCtLU_5ruchy8frontend6parser11expressions18parse_variant_name
FNDA:2,_RNvNtNtNtCs2RUqfoJCtLU_5ruchy8frontend6parser11expressions18token_to_binary_op
FNDA:0,_RNvNtNtNtCs2RUqfoJCtLU_5ruchy8frontend6parser11expressions19parse_array_element
FNDA:0,_RNvNtNtNtCs2RUqfoJCtLU_5ruchy8frontend6parser11expressions19parse_catch_clauses
FNDA:0,_RNvNtNtNtCs2RUqfoJCtLU_5ruchy8frontend6parser11expressions19parse_catch_pattern
FNDA:0,_RNvNtNtNtCs2RUqfoJCtLU_5ruchy8frontend6parser11expressions19parse_enum_variants
FNDA:0,_RNvNtNtNtCs2RUqfoJCtLU_5ruchy8frontend6parser11expressions19parse_finally_block
FNDA:0,_RNvNtNtNtCs2RUqfoJCtLU_5ruchy8frontend6parser11expressions19parse_if_expression
FNDA:25,_RNvNtNtNtCs2RUqfoJCtLU_5ruchy8frontend6parser11expressions19parse_let_in_clause
FNDA:25,_RNvNtNtNtCs2RUqfoJCtLU_5ruchy8frontend6parser11expressions19parse_let_statement
FNDA:31,_RNvNtNtNtCs2RUqfoJCtLU_5ruchy8frontend6parser11expressions19parse_literal_token
FNDA:0,_RNvNtNtNtCs2RUqfoJCtLU_5ruchy8frontend6parser11expressions19parse_match_pattern
FNDA:0,_RNvNtNtNtCs2RUqfoJCtLU_5ruchy8frontend6parser11expressions19parse_struct_fields
FNDA:0,_RNvNtNtNtCs2RUqfoJCtLU_5ruchy8frontend6parser11expressions19parse_tuple_pattern
FNDA:0,_RNvNtNtNtCs2RUqfoJCtLU_5ruchy8frontend6parser11expressions19parse_use_statement
FNDA:0,_RNvNtNtNtCs2RUqfoJCtLU_5ruchy8frontend6parser11expressions19parse_var_statement
FNDA:0,_RNvNtNtNtCs2RUqfoJCtLU_5ruchy8frontend6parser11expressions20extract_fstring_expr
FNDA:1,_RNvNtNtNtCs2RUqfoJCtLU_5ruchy8frontend6parser11expressions20map_bitwise_operator
FNDA:1,_RNvNtNtNtCs2RUqfoJCtLU_5ruchy8frontend6parser11expressions20map_logical_operator
FNDA:0,_RNvNtNtNtCs2RUqfoJCtLU_5ruchy8frontend6parser11expressions20parse_continue_token
FNDA:0,_RNvNtNtNtCs2RUqfoJCtLU_5ruchy8frontend6parser11expressions20parse_generic_params
FNDA:25,_RNvNtNtNtCs2RUqfoJCtLU_5ruchy8frontend6parser11expressions20parse_let_mutability
FNDA:0,_RNvNtNtNtCs2RUqfoJCtLU_5ruchy8frontend6parser11expressions20parse_option_pattern
FNDA:0,_RNvNtNtNtCs2RUqfoJCtLU_5ruchy8frontend6parser11expressions20parse_result_pattern
FNDA:0,_RNvNtNtNtCs2RUqfoJCtLU_5ruchy8frontend6parser11expressions20parse_single_pattern
FNDA:0,_RNvNtNtNtCs2RUqfoJCtLU_5ruchy8frontend6parser11expressions20parse_single_variant
FNDA:0,_RNvNtNtNtCs2RUqfoJCtLU_5ruchy8frontend6parser11expressions20parse_struct_pattern
FNDA:0,_RNvNtNtNtCs2RUqfoJCtLU_5ruchy8frontend6parser11expressions20parse_variant_fields
FNDA:25,_RNvNtNtNtCs2RUqfoJCtLU_5ruchy8frontend6parser11expressions21create_let_expression
FNDA:0,_RNvNtNtNtCs2RUqfoJCtLU_5ruchy8frontend6parser11expressions21parse_enum_definition
FNDA:0,_RNvNtNtNtCs2RUqfoJCtLU_5ruchy8frontend6parser11expressions21parse_literal_pattern
FNDA:0,_RNvNtNtNtCs2RUqfoJCtLU_5ruchy8frontend6parser11expressions22parse_actor_bare_field
FNDA:0,_RNvNtNtNtCs2RUqfoJCtLU_5ruchy8frontend6parser11expressions22parse_actor_definition
FNDA:0,_RNvNtNtNtCs2RUqfoJCtLU_5ruchy8frontend6parser11expressions22parse_dataframe_header
FNDA:5,_RNvNtNtNtCs2RUqfoJCtLU_5ruchy8frontend6parser11expressions22parse_identifier_token
FNDA:0,_RNvNtNtNtCs2RUqfoJCtLU_5ruchy8frontend6parser11expressions22parse_import_statement
FNDA:0,_RNvNtNtNtCs2RUqfoJCtLU_5ruchy8frontend6parser11expressions22parse_lambda_from_expr
FNDA:0,_RNvNtNtNtCs2RUqfoJCtLU_5ruchy8frontend6parser11expressions22parse_lambda_no_params
FNDA:0,_RNvNtNtNtCs2RUqfoJCtLU_5ruchy8frontend6parser11expressions22parse_match_expression
FNDA:0,_RNvNtNtNtCs2RUqfoJCtLU_5ruchy8frontend6parser11expressions22parse_single_match_arm
FNDA:0,_RNvNtNtNtCs2RUqfoJCtLU_5ruchy8frontend6parser11expressions22parse_trait_definition
FNDA:0,_RNvNtNtNtCs2RUqfoJCtLU_5ruchy8frontend6parser11expressions22parse_wildcard_pattern
FNDA:0,_RNvNtNtNtCs2RUqfoJCtLU_5ruchy8frontend6parser11expressions23create_actor_expression
FNDA:2,_RNvNtNtNtCs2RUqfoJCtLU_5ruchy8frontend6parser11expressions23map_arithmetic_operator
FNDA:1,_RNvNtNtNtCs2RUqfoJCtLU_5ruchy8frontend6parser11expressions23map_comparison_operator
FNDA:0,_RNvNtNtNtCs2RUqfoJCtLU_5ruchy8frontend6parser11expressions23parse_actor_state_field
FNDA:0,_RNvNtNtNtCs2RUqfoJCtLU_5ruchy8frontend6parser11expressions23parse_constructor_token
FNDA:0,_RNvNtNtNtCs2RUqfoJCtLU_5ruchy8frontend6parser11expressions23parse_dataframe_columns
FNDA:0,_RNvNtNtNtCs2RUqfoJCtLU_5ruchy8frontend6parser11expressions23parse_dataframe_literal
FNDA:0,_RNvNtNtNtCs2RUqfoJCtLU_5ruchy8frontend6parser11expressions23parse_if_let_expression
FNDA:0,_RNvNtNtNtCs2RUqfoJCtLU_5ruchy8frontend6parser11expressions23parse_lambda_expression
FNDA:0,_RNvNtNtNtCs2RUqfoJCtLU_5ruchy8frontend6parser11expressions23parse_optional_generics
FNDA:1,_RNvNtNtNtCs2RUqfoJCtLU_5ruchy8frontend6parser11expressions23parse_parentheses_token
FNDA:0,_RNvNtNtNtCs2RUqfoJCtLU_5ruchy8frontend6parser11expressions23parse_struct_definition
FNDA:0,_RNvNtNtNtCs2RUqfoJCtLU_5ruchy8frontend6parser11expressions24create_dataframe_columns
FNDA:0,_RNvNtNtNtCs2RUqfoJCtLU_5ruchy8frontend6parser11expressions24parse_control_flow_token
FNDA:0,_RNvNtNtNtCs2RUqfoJCtLU_5ruchy8frontend6parser11expressions24parse_fstring_into_parts
FNDA:0,_RNvNtNtNtCs2RUqfoJCtLU_5ruchy8frontend6parser11expressions24parse_match_list_pattern
FNDA:0,_RNvNtNtNtCs2RUqfoJCtLU_5ruchy8frontend6parser11expressions24parse_module_declaration
FNDA:0,_RNvNtNtNtCs2RUqfoJCtLU_5ruchy8frontend6parser11expressions25parse_actor_receive_block
FNDA:0,_RNvNtNtNtCs2RUqfoJCtLU_5ruchy8frontend6parser11expressions25parse_constructor_pattern
FNDA:25,_RNvNtNtNtCs2RUqfoJCtLU_5ruchy8frontend6parser11expressions25parse_let_type_annotation
FNDA:0,_RNvNtNtNtCs2RUqfoJCtLU_5ruchy8frontend6parser11expressions25parse_match_tuple_pattern
FNDA:0,_RNvNtNtNtCs2RUqfoJCtLU_5ruchy8frontend6parser11expressions25parse_optional_identifier
FNDA:0,_RNvNtNtNtCs2RUqfoJCtLU_5ruchy8frontend6parser11expressions25parse_required_identifier
FNDA:0,_RNvNtNtNtCs2RUqfoJCtLU_5ruchy8frontend6parser11expressions25parse_single_struct_field
FNDA:0,_RNvNtNtNtCs2RUqfoJCtLU_5ruchy8frontend6parser11expressions26create_constructor_pattern
FNDA:0,_RNvNtNtNtCs2RUqfoJCtLU_5ruchy8frontend6parser11expressions26parse_data_structure_token
FNDA:0,_RNvNtNtNtCs2RUqfoJCtLU_5ruchy8frontend6parser11expressions26parse_function_block_token
FNDA:0,_RNvNtNtNtCs2RUqfoJCtLU_5ruchy8frontend6parser11expressions26parse_unary_operator_token
FNDA:0,_RNvNtNtNtCs2RUqfoJCtLU_5ruchy8frontend6parser11expressions26parse_variant_discriminant
FNDA:0,_RNvNtNtNtCs2RUqfoJCtLU_5ruchy8frontend6parser11expressions27parse_collection_enum_token
FNDA:0,_RNvNtNtNtCs2RUqfoJCtLU_5ruchy8frontend6parser11expressions27parse_constructor_arguments
FNDA:0,_RNvNtNtNtCs2RUqfoJCtLU_5ruchy8frontend6parser11expressions27parse_dataframe_column_name
FNDA:0,_RNvNtNtNtCs2RUqfoJCtLU_5ruchy8frontend6parser11expressions27parse_regular_if_expression
FNDA:0,_RNvNtNtNtCs2RUqfoJCtLU_5ruchy8frontend6parser11expressions28validate_try_catch_structure
FNDA:0,_RNvNtNtNtCs2RUqfoJCtLU_5ruchy8frontend6parser11expressions29parse_control_statement_token
FNDA:0,_RNvNtNtNtCs2RUqfoJCtLU_5ruchy8frontend6parser11expressions29parse_dataframe_column_values
FNDA:0,_RNvNtNtNtCs2RUqfoJCtLU_5ruchy8frontend6parser11expressions29parse_list_comprehension_body
FNDA:0,_RNvNtNtNtCs2RUqfoJCtLU_5ruchy8frontend6parser11expressions29parse_single_dataframe_column
FNDA:0,_RNvNtNtNtCs2RUqfoJCtLU_5ruchy8frontend6parser11expressions30parse_special_definition_token
FNDA:25,_RNvNtNtNtCs2RUqfoJCtLU_5ruchy8frontend6parser11expressions32parse_variable_declaration_token
FNDA:0,_RNvNtNtNtCs2RUqfoJCtLU_5ruchy8frontend6parser11expressions39parse_identifier_or_constructor_pattern
FNF:141
FNH:20
DA:5,63
DA:6,63
DA:7,1
DA:10,62
DA:11,62
DA:13,62
DA:17,31
DA:21,5
DA:25,0
DA:29,0
DA:33,25
DA:37,0
DA:41,0
DA:45,0
DA:49,1
DA:53,0
DA:57,0
DA:61,0
DA:65,0
DA:69,0
DA:73,0
DA:75,0
DA:77,63
DA:81,31
DA:82,31
DA:83,27
DA:84,27
DA:85,27
DA:87,0
DA:88,0
DA:89,0
DA:91,2
DA:92,2
DA:93,2
DA:95,0
DA:96,0
DA:98,0
DA:99,0
DA:101,0
DA:102,0
DA:103,0
DA:105,2
DA:106,2
DA:107,2
DA:109,0
DA:111,31
DA:115,5
DA:116,5
DA:117,5
DA:118,5
DA:121,5
DA:122,0
DA:124,0
DA:125,0
DA:127,0
DA:128,0
DA:129,0
DA:130,0
DA:131,0
DA:136,0
DA:137,0
DA:140,5
DA:141,0
DA:142,0
DA:143,0
DA:144,0
DA:145,0
DA:146,0
DA:147,0
DA:148,0
DA:149,0
DA:150,0
DA:151,0
DA:152,0
DA:153,0
DA:155,5
DA:157,0
DA:161,0
DA:163,5
DA:167,0
DA:168,0
DA:170,0
DA:172,5
DA:176,0
DA:177,0
DA:179,0
DA:180,0
DA:181,0
DA:182,0
DA:183,0
DA:184,0
DA:187,0
DA:188,0
DA:189,0
DA:190,0
DA:191,0
DA:192,0
DA:194,0
DA:196,0
DA:200,1
DA:201,1
DA:203,1
DA:204,1
DA:205,1
DA:208,0
DA:211,0
DA:213,0
DA:215,0
DA:216,0
DA:219,0
DA:220,0
DA:221,0
DA:223,0
DA:226,0
DA:227,0
DA:230,0
DA:233,0
DA:234,0
DA:236,0
DA:240,1
DA:244,0
DA:245,0
DA:247,0
DA:249,0
DA:250,0
DA:251,0
DA:252,0
DA:253,0
DA:254,0
DA:256,0
DA:257,0
DA:261,0
DA:262,0
DA:264,0
DA:265,0
DA:266,0
DA:267,0
DA:269,0
DA:271,0
DA:272,0
DA:276,0
DA:277,0
DA:279,0
DA:280,0
DA:281,0
DA:282,0
DA:284,0
DA:286,0
DA:287,0
DA:291,0
DA:292,0
DA:294,0
DA:295,0
DA:297,0
DA:300,0
DA:302,0
DA:303,0
DA:307,0
DA:308,0
DA:309,0
DA:310,0
DA:311,0
DA:312,0
DA:313,0
DA:314,0
DA:315,0
DA:318,0
DA:321,0
DA:322,0
DA:324,0
DA:325,0
DA:326,0
DA:327,0
DA:328,0
DA:329,0
DA:330,0
DA:331,0
DA:334,0
DA:335,0
DA:336,0
DA:337,0
DA:338,0
DA:339,0
DA:341,0
DA:342,0
DA:346,0
DA:347,0
DA:348,0
DA:349,0
DA:350,0
DA:351,0
DA:352,0
DA:353,0
DA:355,0
DA:359,0
DA:360,0
DA:362,0
DA:363,0
DA:364,0
DA:366,0
DA:368,0
DA:369,0
DA:370,0
DA:371,0
DA:372,0
DA:373,0
DA:374,0
DA:375,0
DA:376,0
DA:380,0
DA:381,0
DA:384,0
DA:385,0
DA:386,0
DA:387,0
DA:389,0
DA:393,0
DA:394,0
DA:396,0
DA:397,0
DA:398,0
DA:399,0
DA:400,0
DA:403,0
DA:404,0
DA:405,0
DA:407,0
DA:409,0
DA:410,0
DA:411,0
DA:413,0
DA:417,0
DA:418,0
DA:419,0
DA:420,0
DA:423,0
DA:426,0
DA:429,0
DA:430,0
DA:431,0
DA:434,0
DA:436,0
DA:437,0
DA:441,0
DA:442,0
DA:443,0
DA:444,0
DA:445,0
DA:446,0
DA:448,0
DA:452,0
DA:453,0
DA:454,0
DA:455,0
DA:456,0
DA:458,0
DA:462,0
DA:463,0
DA:464,0
DA:465,0
DA:466,0
DA:468,0
DA:472,0
DA:473,0
DA:474,0
DA:475,0
DA:476,0
DA:478,0
DA:482,25
DA:483,25
DA:484,25
DA:485,0
DA:486,0
DA:488,25
DA:492,0
DA:493,0
DA:496,0
DA:497,0
DA:501,0
DA:502,0
DA:503,0
DA:504,0
DA:505,0
DA:508,0
DA:509,0
DA:511,0
DA:515,0
DA:516,0
DA:517,0
DA:518,0
DA:519,0
DA:520,0
DA:521,0
DA:523,0
DA:527,0
DA:528,0
DA:529,0
DA:530,0
DA:531,0
DA:533,0
DA:536,25
DA:537,25
DA:540,25
DA:543,25
DA:546,25
DA:549,25
DA:552,25
DA:555,25
DA:558,25
DA:559,25
DA:563,25
DA:564,25
DA:565,0
DA:566,0
DA:568,25
DA:570,25
DA:574,25
DA:575,25
DA:576,25
DA:577,25
DA:578,25
DA:579,25
DA:583,0
DA:584,0
DA:588,0
DA:592,0
DA:596,0
DA:598,0
DA:599,0
DA:601,25
DA:605,25
DA:606,25
DA:607,0
DA:608,0
DA:610,25
DA:612,25
DA:616,25
DA:617,25
DA:618,0
DA:619,0
DA:622,25
DA:624,25
DA:628,25
DA:629,25
DA:630,25
DA:631,25
DA:632,25
DA:633,25
DA:634,25
DA:635,25
DA:636,25
DA:638,25
DA:639,25
DA:640,25
DA:641,25
DA:642,25
DA:643,25
DA:644,25
DA:645,25
DA:646,25
DA:647,25
DA:648,25
DA:649,25
DA:653,0
DA:654,0
DA:655,0
DA:656,0
DA:657,0
DA:658,0
DA:659,0
DA:660,0
DA:661,0
DA:662,0
DA:668,0
DA:669,0
DA:670,0
DA:671,0
DA:672,0
DA:673,0
DA:674,0
DA:675,0
DA:676,0
DA:677,0
DA:680,25
DA:684,0
DA:685,0
DA:688,0
DA:691,0
DA:692,0
DA:693,0
DA:694,0
DA:695,0
DA:699,0
DA:700,0
DA:704,0
DA:708,0
DA:710,0
DA:714,0
DA:715,0
DA:716,0
DA:718,0
DA:722,0
DA:725,0
DA:728,0
DA:730,0
DA:733,0
DA:734,0
DA:736,0
DA:737,0
DA:738,0
DA:739,0
DA:740,0
DA:741,0
DA:742,0
DA:743,0
DA:744,0
DA:745,0
DA:749,0
DA:750,0
DA:751,0
DA:752,0
DA:753,0
DA:754,0
DA:755,0
DA:756,0
DA:757,0
DA:758,0
DA:761,0
DA:763,0
DA:764,0
DA:765,0
DA:767,0
DA:769,0
DA:770,0
DA:771,0
DA:772,0
DA:773,0
DA:777,0
DA:781,0
DA:785,0
DA:788,0
DA:789,0
DA:791,0
DA:793,0
DA:796,0
DA:797,0
DA:799,0
DA:800,0
DA:801,0
DA:802,0
DA:803,0
DA:804,0
DA:807,0
DA:808,0
DA:809,0
DA:811,0
DA:812,0
DA:814,0
DA:815,0
DA:817,0
DA:818,0
DA:819,0
DA:820,0
DA:821,0
DA:823,0
DA:824,0
DA:825,0
DA:826,0
DA:827,0
DA:829,0
DA:830,0
DA:833,0
DA:834,0
DA:835,0
DA:836,0
DA:837,0
DA:838,0
DA:839,0
DA:840,0
DA:841,0
DA:842,0
DA:843,0
DA:844,0
DA:845,0
DA:849,0
DA:850,0
DA:851,0
DA:852,0
DA:853,0
DA:854,0
DA:856,0
DA:857,0
DA:858,0
DA:860,0
DA:861,0
DA:862,0
DA:863,0
DA:864,0
DA:867,0
DA:868,0
DA:869,0
DA:870,0
DA:871,0
DA:872,0
DA:873,0
DA:875,0
DA:880,0
DA:882,0
DA:883,0
DA:884,0
DA:885,0
DA:887,0
DA:892,0
DA:896,0
DA:899,0
DA:900,0
DA:902,0
DA:904,0
DA:906,0
DA:907,0
DA:909,0
DA:910,0
DA:911,0
DA:912,0
DA:913,0
DA:914,0
DA:917,0
DA:918,0
DA:919,0
DA:924,0
DA:925,0
DA:928,0
DA:929,0
DA:931,0
DA:933,0
DA:937,0
DA:938,0
DA:941,0
DA:942,0
DA:945,0
DA:946,0
DA:949,0
DA:950,0
DA:953,0
DA:954,0
DA:957,0
DA:959,0
DA:960,0
DA:961,0
DA:962,0
DA:963,0
DA:964,0
DA:965,0
DA:966,0
DA:967,0
DA:968,0
DA:972,0
DA:974,0
DA:975,0
DA:978,0
DA:979,0
DA:982,0
DA:984,0
DA:985,0
DA:986,0
DA:987,0
DA:988,0
DA:989,0
DA:990,0
DA:991,0
DA:992,0
DA:996,0
DA:997,0
DA:998,0
DA:1001,0
DA:1003,0
DA:1005,0
DA:1006,0
DA:1009,0
DA:1011,0
DA:1015,0
DA:1016,0
DA:1019,0
DA:1020,0
DA:1023,0
DA:1024,0
DA:1027,0
DA:1030,0
DA:1031,0
DA:1033,0
DA:1034,0
DA:1035,0
DA:1036,0
DA:1037,0
DA:1040,0
DA:1041,0
DA:1043,0
DA:1045,0
DA:1046,0
DA:1049,0
DA:1050,0
DA:1051,0
DA:1054,0
DA:1055,0
DA:1056,0
DA:1059,0
DA:1060,0
DA:1061,0
DA:1063,0
DA:1064,0
DA:1068,0
DA:1069,0
DA:1070,0
DA:1073,0
DA:1076,0
DA:1077,0
DA:1078,0
DA:1080,0
DA:1084,0
DA:1085,0
DA:1088,0
DA:1090,0
DA:1092,0
DA:1093,0
DA:1094,0
DA:1095,0
DA:1096,0
DA:1097,0
DA:1098,0
DA:1102,0
DA:1103,0
DA:1104,0
DA:1105,0
DA:1108,0
DA:1111,0
DA:1112,0
DA:1114,0
DA:1116,0
DA:1120,0
DA:1121,0
DA:1122,0
DA:1125,0
DA:1126,0
DA:1128,0
DA:1129,0
DA:1130,0
DA:1131,0
DA:1132,0
DA:1133,0
DA:1134,0
DA:1136,0
DA:1140,0
DA:1141,0
DA:1142,0
DA:1143,0
DA:1147,0
DA:1148,0
DA:1149,0
DA:1152,0
DA:1153,0
DA:1154,0
DA:1155,0
DA:1158,0
DA:1160,0
DA:1163,0
DA:1164,0
DA:1165,0
DA:1167,0
DA:1168,0
DA:1169,0
DA:1170,0
DA:1171,0
DA:1173,0
DA:1177,0
DA:1180,0
DA:1181,0
DA:1182,0
DA:1184,0
DA:1185,0
DA:1186,0
DA:1187,0
DA:1188,0
DA:1190,0
DA:1194,0
DA:1198,0
DA:1199,0
DA:1200,0
DA:1201,0
DA:1203,0
DA:1204,0
DA:1205,0
DA:1206,0
DA:1208,0
DA:1209,0
DA:1210,0
DA:1211,0
DA:1213,0
DA:1214,0
DA:1215,0
DA:1216,0
DA:1218,0
DA:1221,0
DA:1222,0
DA:1226,0
DA:1227,0
DA:1228,0
DA:1231,0
DA:1233,0
DA:1234,0
DA:1235,0
DA:1237,0
DA:1241,0
DA:1242,0
DA:1243,0
DA:1245,0
DA:1248,0
DA:1250,0
DA:1254,0
DA:1255,0
DA:1256,0
DA:1259,0
DA:1261,0
DA:1262,0
DA:1263,0
DA:1265,0
DA:1269,0
DA:1270,0
DA:1271,0
DA:1273,0
DA:1276,0
DA:1278,0
DA:1282,0
DA:1283,0
DA:1284,0
DA:1287,0
DA:1288,0
DA:1291,0
DA:1292,0
DA:1294,0
DA:1296,0
DA:1300,0
DA:1301,0
DA:1304,0
DA:1305,0
DA:1306,0
DA:1307,0
DA:1310,0
DA:1312,0
DA:1313,0
DA:1314,0
DA:1315,0
DA:1316,0
DA:1317,0
DA:1320,0
DA:1321,0
DA:1322,0
DA:1326,0
DA:1327,0
DA:1330,0
DA:1331,0
DA:1332,0
DA:1333,0
DA:1336,0
DA:1340,0
DA:1341,0
DA:1342,0
DA:1343,0
DA:1344,0
DA:1345,0
DA:1346,0
DA:1347,0
DA:1348,0
DA:1349,0
DA:1351,0
DA:1353,0
DA:1354,0
DA:1355,0
DA:1356,0
DA:1357,0
DA:1359,0
DA:1363,0
DA:1364,0
DA:1365,0
DA:1369,0
DA:1370,0
DA:1373,0
DA:1375,0
DA:1378,0
DA:1379,0
DA:1382,0
DA:1384,0
DA:1385,0
DA:1386,0
DA:1388,0
DA:1391,0
DA:1392,0
DA:1393,0
DA:1394,0
DA:1395,0
DA:1396,0
DA:1399,0
DA:1400,0
DA:1403,0
DA:1404,0
DA:1405,0
DA:1407,0
DA:1409,0
DA:1411,0
DA:1413,0
DA:1415,0
DA:1417,0
DA:1419,0
DA:1423,0
DA:1425,0
DA:1427,0
DA:1431,0
DA:1434,0
DA:1438,0
DA:1439,0
DA:1441,0
DA:1442,0
DA:1445,0
DA:1446,0
DA:1450,0
DA:1451,0
DA:1453,0
DA:1455,0
DA:1462,0
DA:1463,0
DA:1466,0
DA:1467,0
DA:1470,0
DA:1471,0
DA:1474,0
DA:1475,0
DA:1478,0
DA:1479,0
DA:1482,0
DA:1483,0
DA:1485,0
DA:1486,0
DA:1487,0
DA:1488,0
DA:1489,0
DA:1490,0
DA:1491,0
DA:1492,0
DA:1496,0
DA:1497,0
DA:1500,0
DA:1501,0
DA:1503,0
DA:1504,0
DA:1505,0
DA:1506,0
DA:1508,0
DA:1512,0
DA:1513,0
DA:1516,0
DA:1519,0
DA:1520,0
DA:1523,0
DA:1524,0
DA:1527,0
DA:1528,0
DA:1531,0
DA:1533,0
DA:1534,0
DA:1535,0
DA:1536,0
DA:1537,0
DA:1538,0
DA:1539,0
DA:1540,0
DA:1541,0
DA:1542,0
DA:1546,0
DA:1547,0
DA:1548,0
DA:1551,0
DA:1552,0
DA:1553,0
DA:1554,0
DA:1555,0
DA:1558,0
DA:1559,0
DA:1563,0
DA:1567,0
DA:1569,0
DA:1571,0
DA:1574,0
DA:1575,0
DA:1576,0
DA:1577,0
DA:1578,0
DA:1580,0
DA:1582,0
DA:1584,0
DA:1586,0
DA:1589,0
DA:1590,0
DA:1591,0
DA:1592,0
DA:1595,0
DA:1598,0
DA:1599,0
DA:1600,0
DA:1603,0
DA:1606,0
DA:1607,0
DA:1610,0
DA:1611,0
DA:1612,0
DA:1614,0
DA:1617,0
DA:1618,0
DA:1620,0
DA:1621,0
DA:1623,0
DA:1624,0
DA:1625,0
DA:1626,0
DA:1627,0
DA:1629,0
DA:1632,0
DA:1633,0
DA:1634,0
DA:1635,0
DA:1637,0
DA:1640,0
DA:1643,0
DA:1646,0
DA:1647,0
DA:1648,0
DA:1650,0
DA:1653,0
DA:1655,0
DA:1656,0
DA:1657,0
DA:1658,0
DA:1659,0
DA:1660,0
DA:1661,0
DA:1662,0
DA:1663,0
DA:1664,0
DA:1666,0
DA:1668,0
DA:1671,0
DA:1673,0
DA:1674,0
DA:1675,0
DA:1676,0
DA:1677,0
DA:1679,0
DA:1681,0
DA:1684,0
DA:1685,0
DA:1686,0
DA:1687,0
DA:1688,0
DA:1689,0
DA:1690,0
DA:1691,0
DA:1692,0
DA:1693,0
DA:1694,0
DA:1695,0
DA:1699,0
DA:1701,0
DA:1702,0
DA:1703,0
DA:1704,0
DA:1705,0
DA:1707,0
DA:1709,0
DA:1711,0
DA:1714,0
DA:1715,0
DA:1716,0
DA:1717,0
DA:1720,0
DA:1721,0
DA:1722,0
DA:1724,0
DA:1728,0
DA:1729,0
DA:1732,0
DA:1735,0
DA:1736,0
DA:1737,0
DA:1738,0
DA:1739,0
DA:1740,0
DA:1741,0
DA:1743,0
DA:1744,0
DA:1746,0
DA:1747,0
DA:1749,0
DA:1751,0
DA:1752,0
DA:1753,0
DA:1754,0
DA:1756,0
DA:1757,0
DA:1758,0
DA:1759,0
DA:1760,0
DA:1761,0
DA:1762,0
DA:1765,0
DA:1766,0
DA:1767,0
DA:1768,0
DA:1769,0
DA:1771,0
DA:1773,0
DA:1776,0
DA:1777,0
DA:1778,0
DA:1780,0
DA:1781,0
DA:1782,0
DA:1784,0
DA:1785,0
DA:1786,0
DA:1789,0
DA:1792,0
DA:1793,0
DA:1794,0
DA:1796,0
DA:1797,0
DA:1800,0
DA:1801,0
DA:1802,0
DA:1803,0
DA:1804,0
DA:1806,0
DA:1809,0
DA:1810,0
DA:1812,0
DA:1813,0
DA:1815,0
DA:1817,0
DA:1820,0
DA:1821,0
DA:1822,0
DA:1823,0
DA:1825,0
DA:1829,0
DA:1831,0
DA:1834,0
DA:1836,0
DA:1839,0
DA:1840,0
DA:1841,0
DA:1842,0
DA:1844,0
DA:1849,0
DA:1852,0
DA:1853,0
DA:1854,0
DA:1855,0
DA:1858,0
DA:1861,0
DA:1862,0
DA:1863,0
DA:1864,0
DA:1865,0
DA:1867,0
DA:1869,0
DA:1870,0
DA:1871,0
DA:1872,0
DA:1873,0
DA:1874,0
DA:1875,0
DA:1877,0
DA:1878,0
DA:1881,0
DA:1884,0
DA:1885,0
DA:1886,0
DA:1888,0
DA:1889,0
DA:1890,0
DA:1891,0
DA:1892,0
DA:1893,0
DA:1894,0
DA:1895,0
DA:1898,0
DA:1900,0
DA:1903,0
DA:1904,0
DA:1905,0
DA:1906,0
DA:1907,0
DA:1909,0
DA:1911,0
DA:1913,0
DA:1916,0
DA:1917,0
DA:1918,0
DA:1919,0
DA:1920,0
DA:1922,0
DA:1924,0
DA:1927,0
DA:1928,0
DA:1929,0
DA:1930,0
DA:1931,0
DA:1933,0
DA:1935,0
DA:1938,0
DA:1939,0
DA:1940,0
DA:1941,0
DA:1942,0
DA:1943,0
DA:1944,0
DA:1946,0
DA:1947,0
DA:1948,0
DA:1950,0
DA:1951,0
DA:1953,0
DA:1955,0
DA:1958,0
DA:1961,0
DA:1962,0
DA:1963,0
DA:1964,0
DA:1965,0
DA:1969,0
DA:1970,0
DA:1971,0
DA:1972,0
DA:1973,0
DA:1974,0
DA:1975,0
DA:1979,0
DA:1981,0
DA:1982,0
DA:1983,0
DA:1984,0
DA:1985,0
DA:1987,0
DA:1989,0
DA:1992,0
DA:1995,0
DA:1996,0
DA:1997,0
DA:1998,0
DA:1999,0
DA:2003,0
DA:2004,0
DA:2007,0
DA:2008,0
DA:2009,0
DA:2012,0
DA:2013,0
DA:2014,0
DA:2015,0
DA:2018,0
DA:2019,0
DA:2020,0
DA:2022,0
DA:2026,0
DA:2028,0
DA:2029,0
DA:2030,0
DA:2031,0
DA:2032,0
DA:2033,0
DA:2034,0
DA:2039,0
DA:2040,0
DA:2042,0
DA:2043,0
DA:2044,0
DA:2045,0
DA:2046,0
DA:2048,0
DA:2050,0
DA:2051,0
DA:2052,0
DA:2055,0
DA:2056,0
DA:2057,0
DA:2061,0
DA:2062,0
DA:2063,0
DA:2064,0
DA:2065,0
DA:2066,0
DA:2070,0
DA:2071,0
DA:2073,0
DA:2074,0
DA:2075,0
DA:2078,0
DA:2079,0
DA:2080,0
DA:2083,0
DA:2084,0
DA:2088,0
DA:2089,0
DA:2090,0
DA:2091,0
DA:2092,0
DA:2093,0
DA:2097,0
DA:2098,0
DA:2099,0
DA:2100,0
DA:2101,0
DA:2102,0
DA:2104,0
DA:2105,0
DA:2106,0
DA:2107,0
DA:2109,0
DA:2111,0
DA:2115,0
DA:2116,0
DA:2117,0
DA:2119,0
DA:2121,0
DA:2125,0
DA:2126,0
DA:2127,0
DA:2128,0
DA:2129,0
DA:2131,0
DA:2132,0
DA:2133,0
DA:2134,0
DA:2135,0
DA:2136,0
DA:2138,0
DA:2139,0
DA:2140,0
DA:2141,0
DA:2142,0
DA:2144,0
DA:2145,0
DA:2146,0
DA:2147,0
DA:2148,0
DA:2149,0
DA:2150,0
DA:2152,0
DA:2153,0
DA:2154,0
DA:2155,0
DA:2156,0
DA:2157,0
DA:2160,0
DA:2161,0
DA:2164,0
DA:2165,0
DA:2167,0
DA:2169,0
DA:2171,0
DA:2172,0
DA:2173,0
DA:2175,0
DA:2177,0
DA:2179,0
DA:2180,0
DA:2181,0
DA:2183,0
DA:2184,0
DA:2186,0
DA:2187,0
DA:2188,0
DA:2191,0
DA:2192,0
DA:2193,0
DA:2195,0
DA:2196,0
DA:2199,0
DA:2200,0
DA:2201,0
DA:2203,0
DA:2207,0
DA:2208,0
DA:2210,0
DA:2213,0
DA:2214,0
DA:2215,0
DA:2216,0
DA:2217,0
DA:2218,0
DA:2222,0
DA:2223,0
DA:2224,0
DA:2225,0
DA:2226,0
DA:2227,0
DA:2230,0
DA:2231,0
DA:2232,0
DA:2233,0
DA:2234,0
DA:2235,0
DA:2237,0
DA:2240,0
DA:2242,0
DA:2244,0
DA:2245,0
DA:2246,0
DA:2247,0
DA:2248,0
DA:2249,0
DA:2252,0
DA:2253,0
DA:2256,0
DA:2257,0
DA:2260,0
DA:2261,0
DA:2264,0
DA:2265,0
DA:2267,0
DA:2269,0
DA:2271,0
DA:2272,0
DA:2273,0
DA:2274,0
DA:2276,0
DA:2277,0
DA:2279,0
DA:2280,0
DA:2282,0
DA:2283,0
DA:2284,0
DA:2287,0
DA:2288,0
DA:2289,0
DA:2291,0
DA:2293,0
DA:2294,0
DA:2296,0
DA:2297,0
DA:2298,0
DA:2299,0
DA:2302,0
DA:2303,0
DA:2304,0
DA:2306,0
DA:2310,0
DA:2311,0
DA:2312,0
DA:2314,0
DA:2316,0
DA:2319,0
DA:2322,0
DA:2325,0
DA:2327,0
DA:2330,0
DA:2331,0
DA:2335,0
DA:2336,0
DA:2337,0
DA:2338,0
DA:2339,0
DA:2341,0
DA:2343,0
DA:2347,0
DA:2348,0
DA:2349,0
DA:2351,0
DA:2352,0
DA:2354,0
DA:2355,0
DA:2358,0
DA:2359,0
DA:2362,0
DA:2363,0
DA:2365,0
DA:2366,0
DA:2367,0
DA:2368,0
DA:2372,0
DA:2373,0
DA:2377,0
DA:2378,0
DA:2380,0
DA:2381,0
DA:2382,0
DA:2385,0
DA:2386,0
DA:2389,0
DA:2390,0
DA:2391,0
DA:2393,0
DA:2396,0
DA:2398,0
DA:2400,0
DA:2404,0
DA:2405,0
DA:2406,0
DA:2408,0
DA:2410,0
DA:2411,0
DA:2412,0
DA:2413,0
DA:2416,0
DA:2417,0
DA:2420,0
DA:2421,0
DA:2422,0
DA:2424,0
DA:2428,0
DA:2429,0
DA:2430,0
DA:2434,0
DA:2435,0
DA:2436,0
DA:2437,0
DA:2440,0
DA:2441,0
DA:2444,0
DA:2445,0
DA:2446,0
DA:2448,0
DA:2450,0
DA:2452,0
DA:2456,0
DA:2457,0
DA:2458,0
DA:2459,0
DA:2460,0
DA:2461,0
DA:2463,0
DA:2464,0
DA:2465,0
DA:2467,0
DA:2470,0
DA:2471,0
DA:2472,0
DA:2473,0
DA:2474,0
DA:2476,0
DA:2477,0
DA:2478,0
DA:2479,0
DA:2480,0
DA:2481,0
DA:2483,2
DA:2485,2
DA:2486,2
DA:2487,2
DA:2488,2
DA:2489,2
DA:2493,2
DA:2494,2
DA:2495,1
DA:2496,0
DA:2497,0
DA:2498,0
DA:2499,0
DA:2500,0
DA:2501,1
DA:2503,2
DA:2507,1
DA:2508,1
DA:2509,0
DA:2510,0
DA:2511,0
DA:2512,0
DA:2513,0
DA:2514,0
DA:2515,1
DA:2517,1
DA:2521,1
DA:2522,1
DA:2523,0
DA:2524,0
DA:2525,0
DA:2526,1
DA:2528,1
DA:2532,1
DA:2533,1
DA:2534,0
DA:2535,0
DA:2536,0
DA:2537,0
DA:2538,1
DA:2540,1
DA:2542,1
DA:2543,1
DA:2544,0
DA:2545,0
DA:2546,0
DA:2547,0
DA:2548,0
DA:2549,0
DA:2550,0
DA:2551,0
DA:2552,0
DA:2553,1
DA:2554,0
DA:2555,0
DA:2557,1
DA:2560,0
DA:2563,0
DA:2564,0
DA:2565,0
DA:2567,0
DA:2568,0
DA:2569,0
DA:2570,0
DA:2571,0
DA:2572,0
DA:2573,0
DA:2575,0
DA:2576,0
DA:2577,0
DA:2578,0
DA:2581,0
DA:2582,0
DA:2583,0
DA:2584,0
DA:2586,0
DA:2587,0
DA:2588,0
DA:2589,0
DA:2590,0
DA:2591,0
DA:2592,0
DA:2594,0
DA:2595,0
DA:2596,0
DA:2600,0
DA:2601,0
DA:2602,0
DA:2604,0
DA:2605,0
DA:2608,0
DA:2609,0
DA:2610,0
DA:2612,0
DA:2613,0
DA:2614,0
DA:2615,0
DA:2616,0
DA:2617,0
DA:2618,0
DA:2619,0
DA:2620,0
DA:2621,0
DA:2622,0
DA:2623,0
DA:2624,0
DA:2627,0
DA:2628,0
DA:2631,0
DA:2632,0
DA:2633,0
DA:2634,0
DA:2637,0
DA:2639,0
DA:2641,0
DA:2642,0
DA:2644,0
DA:2645,0
DA:2647,0
DA:2650,0
DA:2651,0
DA:2654,0
DA:2655,0
DA:2656,0
DA:2657,0
DA:2658,0
DA:2659,0
DA:2661,0
DA:2663,0
DA:2664,0
DA:2665,0
DA:2668,0
DA:2669,0
DA:2670,0
DA:2671,0
DA:2674,0
DA:2675,0
DA:2676,0
DA:2677,0
DA:2678,0
DA:2680,0
DA:2682,0
DA:2685,0
DA:2686,0
DA:2687,0
DA:2688,0
DA:2689,0
DA:2690,0
DA:2691,0
DA:2692,0
DA:2693,0
BRF:0
BRH:0
LF:1635
LH:123
end_of_record
SF:/home/noah/src/ruchy/src/frontend/parser/functions.rs
FN:444,_RNCNvNtNtNtCs2RUqfoJCtLU_5ruchy8frontend6parser9functions23extract_groupby_columns0B9_
FN:147,_RNvNtNtNtCs2RUqfoJCtLU_5ruchy8frontend6parser9functions12parse_lambda
FN:185,_RNvNtNtNtCs2RUqfoJCtLU_5ruchy8frontend6parser9functions17parse_pipe_lambda
FN:124,_RNvNtNtNtCs2RUqfoJCtLU_5ruchy8frontend6parser9functions18parse_empty_lambda
FN:229,_RNvNtNtNtCs2RUqfoJCtLU_5ruchy8frontend6parser9functions19create_simple_param
FN:68,_RNvNtNtNtCs2RUqfoJCtLU_5ruchy8frontend6parser9functions19parse_lambda_params
FN:207,_RNvNtNtNtCs2RUqfoJCtLU_5ruchy8frontend6parser9functions19parse_simple_params
FN:173,_RNvNtNtNtCs2RUqfoJCtLU_5ruchy8frontend6parser9functions22parse_backslash_lambda
FN:249,_RNvNtNtNtCs2RUqfoJCtLU_5ruchy8frontend6parser9functions10parse_call
FN:12,_RNvNtNtNtCs2RUqfoJCtLU_5ruchy8frontend6parser9functions14parse_function
FN:282,_RNvNtNtNtCs2RUqfoJCtLU_5ruchy8frontend6parser9functions17parse_method_call
FN:455,_RNvNtNtNtCs2RUqfoJCtLU_5ruchy8frontend6parser9functions18create_method_call
FN:468,_RNvNtNtNtCs2RUqfoJCtLU_5ruchy8frontend6parser9functions19create_field_access
FN:388,_RNvNtNtNtCs2RUqfoJCtLU_5ruchy8frontend6parser9functions19is_dataframe_method
FN:415,_RNvNtNtNtCs2RUqfoJCtLU_5ruchy8frontend6parser9functions22extract_select_columns
FN:373,_RNvNtNtNtCs2RUqfoJCtLU_5ruchy8frontend6parser9functions22parse_method_arguments
FN:442,_RNvNtNtNtCs2RUqfoJCtLU_5ruchy8frontend6parser9functions23extract_groupby_columns
FN:397,_RNvNtNtNtCs2RUqfoJCtLU_5ruchy8frontend6parser9functions23handle_dataframe_method
FN:359,_RNvNtNtNtCs2RUqfoJCtLU_5ruchy8frontend6parser9functions24parse_method_call_access
FN:321,_RNvNtNtNtCs2RUqfoJCtLU_5ruchy8frontend6parser9functions26parse_optional_method_call
FN:348,_RNvNtNtNtCs2RUqfoJCtLU_5ruchy8frontend6parser9functions28parse_method_or_field_access
FN:16,_RNvNtNtNtCs2RUqfoJCtLU_5ruchy8frontend6parser9functions30parse_function_with_visibility
FN:479,_RNvNtNtNtCs2RUqfoJCtLU_5ruchy8frontend6parser9functions37parse_optional_method_or_field_access
FNDA:0,_RNCNvNtNtNtCs2RUqfoJCtLU_5ruchy8frontend6parser9functions23extract_groupby_columns0B9_
FNDA:0,_RNvNtNtNtCs2RUqfoJCtLU_5ruchy8frontend6parser9functions12parse_lambda
FNDA:0,_RNvNtNtNtCs2RUqfoJCtLU_5ruchy8frontend6parser9functions17parse_pipe_lambda
FNDA:0,_RNvNtNtNtCs2RUqfoJCtLU_5ruchy8frontend6parser9functions18parse_empty_lambda
FNDA:0,_RNvNtNtNtCs2RUqfoJCtLU_5ruchy8frontend6parser9functions19create_simple_param
FNDA:0,_RNvNtNtNtCs2RUqfoJCtLU_5ruchy8frontend6parser9functions19parse_lambda_params
FNDA:0,_RNvNtNtNtCs2RUqfoJCtLU_5ruchy8frontend6parser9functions19parse_simple_params
FNDA:0,_RNvNtNtNtCs2RUqfoJCtLU_5ruchy8frontend6parser9functions22parse_backslash_lambda
FNDA:0,_RNvNtNtNtCs2RUqfoJCtLU_5ruchy8frontend6parser9functions10parse_call
FNDA:0,_RNvNtNtNtCs2RUqfoJCtLU_5ruchy8frontend6parser9functions14parse_function
FNDA:0,_RNvNtNtNtCs2RUqfoJCtLU_5ruchy8frontend6parser9functions17parse_method_call
FNDA:0,_RNvNtNtNtCs2RUqfoJCtLU_5ruchy8frontend6parser9functions18create_method_call
FNDA:0,_RNvNtNtNtCs2RUqfoJCtLU_5ruchy8frontend6parser9functions19create_field_access
FNDA:0,_RNvNtNtNtCs2RUqfoJCtLU_5ruchy8frontend6parser9functions19is_dataframe_method
FNDA:0,_RNvNtNtNtCs2RUqfoJCtLU_5ruchy8frontend6parser9functions22extract_select_columns
FNDA:0,_RNvNtNtNtCs2RUqfoJCtLU_5ruchy8frontend6parser9functions22parse_method_arguments
FNDA:0,_RNvNtNtNtCs2RUqfoJCtLU_5ruchy8frontend6parser9functions23extract_groupby_columns
FNDA:0,_RNvNtNtNtCs2RUqfoJCtLU_5ruchy8frontend6parser9functions23handle_dataframe_method
FNDA:0,_RNvNtNtNtCs2RUqfoJCtLU_5ruchy8frontend6parser9functions24parse_method_call_access
FNDA:0,_RNvNtNtNtCs2RUqfoJCtLU_5ruchy8frontend6parser9functions26parse_optional_method_call
FNDA:0,_RNvNtNtNtCs2RUqfoJCtLU_5ruchy8frontend6parser9functions28parse_method_or_field_access
FNDA:0,_RNvNtNtNtCs2RUqfoJCtLU_5ruchy8frontend6parser9functions30parse_function_with_visibility
FNDA:0,_RNvNtNtNtCs2RUqfoJCtLU_5ruchy8frontend6parser9functions37parse_optional_method_or_field_access
FNF:23
FNH:0
DA:12,0
DA:13,0
DA:14,0
DA:16,0
DA:17,0
DA:22,0
DA:25,0
DA:26,0
DA:27,0
DA:28,0
DA:30,0
DA:34,0
DA:35,0
DA:37,0
DA:41,0
DA:44,0
DA:45,0
DA:46,0
DA:48,0
DA:52,0
DA:54,0
DA:55,0
DA:56,0
DA:57,0
DA:58,0
DA:59,0
DA:60,0
DA:61,0
DA:62,0
DA:63,0
DA:64,0
DA:65,0
DA:66,0
DA:68,0
DA:69,0
DA:74,0
DA:75,0
DA:76,0
DA:79,0
DA:80,0
DA:81,0
DA:82,0
DA:84,0
DA:88,0
DA:89,0
DA:90,0
DA:93,0
DA:94,0
DA:95,0
DA:96,0
DA:99,0
DA:100,0
DA:101,0
DA:102,0
DA:103,0
DA:104,0
DA:105,0
DA:108,0
DA:109,0
DA:110,0
DA:111,0
DA:115,0
DA:116,0
DA:124,0
DA:125,0
DA:130,0
DA:132,0
DA:133,0
DA:134,0
DA:135,0
DA:136,0
DA:137,0
DA:138,0
DA:139,0
DA:147,0
DA:148,0
DA:149,0
DA:150,0
DA:151,0
DA:154,0
DA:155,0
DA:157,0
DA:161,0
DA:163,0
DA:164,0
DA:165,0
DA:166,0
DA:167,0
DA:168,0
DA:169,0
DA:170,0
DA:173,0
DA:174,0
DA:176,0
DA:179,0
DA:181,0
DA:182,0
DA:185,0
DA:186,0
DA:189,0
DA:190,0
DA:191,0
DA:192,0
DA:195,0
DA:198,0
DA:199,0
DA:200,0
DA:201,0
DA:203,0
DA:204,0
DA:207,0
DA:208,0
DA:211,0
DA:212,0
DA:213,0
DA:216,0
DA:217,0
DA:218,0
DA:219,0
DA:220,0
DA:221,0
DA:223,0
DA:225,0
DA:226,0
DA:229,0
DA:230,0
DA:231,0
DA:232,0
DA:233,0
DA:234,0
DA:235,0
DA:236,0
DA:237,0
DA:238,0
DA:239,0
DA:240,0
DA:249,0
DA:250,0
DA:252,0
DA:253,0
DA:254,0
DA:256,0
DA:257,0
DA:258,0
DA:259,0
DA:263,0
DA:265,0
DA:266,0
DA:267,0
DA:268,0
DA:269,0
DA:270,0
DA:271,0
DA:272,0
DA:273,0
DA:282,0
DA:284,0
DA:285,0
DA:286,0
DA:287,0
DA:288,0
DA:289,0
DA:290,0
DA:291,0
DA:292,0
DA:293,0
DA:296,0
DA:297,0
DA:298,0
DA:299,0
DA:300,0
DA:302,0
DA:304,0
DA:305,0
DA:306,0
DA:307,0
DA:308,0
DA:309,0
DA:310,0
DA:311,0
DA:312,0
DA:313,0
DA:316,0
DA:319,0
DA:321,0
DA:323,0
DA:324,0
DA:325,0
DA:326,0
DA:327,0
DA:329,0
DA:331,0
DA:332,0
DA:333,0
DA:334,0
DA:335,0
DA:336,0
DA:337,0
DA:338,0
DA:339,0
DA:340,0
DA:343,0
DA:346,0
DA:348,0
DA:350,0
DA:351,0
DA:354,0
DA:356,0
DA:359,0
DA:360,0
DA:361,0
DA:362,0
DA:365,0
DA:366,0
DA:368,0
DA:370,0
DA:373,0
DA:374,0
DA:375,0
DA:376,0
DA:378,0
DA:379,0
DA:380,0
DA:381,0
DA:384,0
DA:385,0
DA:388,0
DA:389,0
DA:390,0
DA:391,0
DA:392,0
DA:394,0
DA:397,0
DA:398,0
DA:399,0
DA:400,0
DA:401,0
DA:404,0
DA:405,0
DA:406,0
DA:407,0
DA:408,0
DA:409,0
DA:410,0
DA:411,0
DA:412,0
DA:415,0
DA:416,0
DA:417,0
DA:418,0
DA:420,0
DA:421,0
DA:422,0
DA:424,0
DA:425,0
DA:426,0
DA:427,0
DA:428,0
DA:432,0
DA:433,0
DA:434,0
DA:435,0
DA:438,0
DA:439,0
DA:442,0
DA:443,0
DA:444,0
DA:445,0
DA:446,0
DA:448,0
DA:450,0
DA:451,0
DA:452,0
DA:455,0
DA:456,0
DA:457,0
DA:458,0
DA:459,0
DA:460,0
DA:461,0
DA:462,0
DA:463,0
DA:464,0
DA:465,0
DA:468,0
DA:469,0
DA:470,0
DA:471,0
DA:472,0
DA:473,0
DA:474,0
DA:475,0
DA:476,0
DA:477,0
DA:479,0
DA:481,0
DA:484,0
DA:486,0
DA:487,0
DA:488,0
DA:490,0
DA:491,0
DA:492,0
DA:493,0
DA:497,0
DA:500,0
DA:501,0
DA:502,0
DA:503,0
DA:504,0
DA:505,0
DA:506,0
DA:507,0
DA:508,0
DA:511,0
DA:512,0
DA:513,0
DA:514,0
DA:515,0
DA:516,0
DA:517,0
DA:518,0
DA:520,0
BRF:0
BRH:0
LF:324
LH:0
end_of_record
SF:/home/noah/src/ruchy/src/frontend/parser/mod.rs
FN:63,_RNvMNtNtCs2RUqfoJCtLU_5ruchy8frontend6parserNtB2_11ParserState10get_errors
FN:52,_RNvMNtNtCs2RUqfoJCtLU_5ruchy8frontend6parserNtB2_11ParserState3new
FN:213,_RNvNtNtCs2RUqfoJCtLU_5ruchy8frontend6parser13is_colon_next
FN:259,_RNvNtNtCs2RUqfoJCtLU_5ruchy8frontend6parser17create_slice_expr
FN:245,_RNvNtNtCs2RUqfoJCtLU_5ruchy8frontend6parser18parse_index_access
FN:519,_RNvNtNtCs2RUqfoJCtLU_5ruchy8frontend6parser19try_range_operators
FN:81,_RNvNtNtCs2RUqfoJCtLU_5ruchy8frontend6parser20parse_expr_recursive
FN:308,_RNvNtNtCs2RUqfoJCtLU_5ruchy8frontend6parser20try_binary_operators
FN:296,_RNvNtNtCs2RUqfoJCtLU_5ruchy8frontend6parser21create_post_decrement
FN:285,_RNvNtNtCs2RUqfoJCtLU_5ruchy8frontend6parser21create_post_increment
FN:194,_RNvNtNtCs2RUqfoJCtLU_5ruchy8frontend6parser21handle_array_indexing
FN:227,_RNvNtNtCs2RUqfoJCtLU_5ruchy8frontend6parser22parse_slice_with_start
FN:474,_RNvNtNtCs2RUqfoJCtLU_5ruchy8frontend6parser22try_pipeline_operators
FN:337,_RNvNtNtCs2RUqfoJCtLU_5ruchy8frontend6parser22try_type_cast_operator
FN:218,_RNvNtNtCs2RUqfoJCtLU_5ruchy8frontend6parser23parse_empty_start_slice
FN:370,_RNvNtNtCs2RUqfoJCtLU_5ruchy8frontend6parser23try_new_actor_operators
FN:138,_RNvNtNtCs2RUqfoJCtLU_5ruchy8frontend6parser24handle_postfix_operators
FN:236,_RNvNtNtCs2RUqfoJCtLU_5ruchy8frontend6parser24parse_optional_slice_end
FN:414,_RNvNtNtCs2RUqfoJCtLU_5ruchy8frontend6parser24try_assignment_operators
FN:273,_RNvNtNtCs2RUqfoJCtLU_5ruchy8frontend6parser24try_parse_struct_literal
FN:457,_RNvNtNtCs2RUqfoJCtLU_5ruchy8frontend6parser26get_compound_assignment_op
FN:107,_RNvNtNtCs2RUqfoJCtLU_5ruchy8frontend6parser26try_handle_infix_operators
FN:85,_RNvNtNtCs2RUqfoJCtLU_5ruchy8frontend6parser36parse_expr_with_precedence_recursive
FN:69,_RNvMNtNtCs2RUqfoJCtLU_5ruchy8frontend6parserNtB2_11ParserState11arena_stats
FN:75,_RNvMNtNtCs2RUqfoJCtLU_5ruchy8frontend6parserNtB2_11ParserState14interner_stats
FNDA:0,_RNvMNtNtCs2RUqfoJCtLU_5ruchy8frontend6parserNtB2_11ParserState10get_errors
FNDA:36,_RNvMNtNtCs2RUqfoJCtLU_5ruchy8frontend6parserNtB2_11ParserState3new
FNDA:0,_RNvNtNtCs2RUqfoJCtLU_5ruchy8frontend6parser13is_colon_next
FNDA:0,_RNvNtNtCs2RUqfoJCtLU_5ruchy8frontend6parser17create_slice_expr
FNDA:0,_RNvNtNtCs2RUqfoJCtLU_5ruchy8frontend6parser18parse_index_access
FNDA:1,_RNvNtNtCs2RUqfoJCtLU_5ruchy8frontend6parser19try_range_operators
FNDA:62,_RNvNtNtCs2RUqfoJCtLU_5ruchy8frontend6parser20parse_expr_recursive
FNDA:2,_RNvNtNtCs2RUqfoJCtLU_5ruchy8frontend6parser20try_binary_operators
FNDA:0,_RNvNtNtCs2RUqfoJCtLU_5ruchy8frontend6parser21create_post_decrement
FNDA:1,_RNvNtNtCs2RUqfoJCtLU_5ruchy8frontend6parser21create_post_increment
FNDA:0,_RNvNtNtCs2RUqfoJCtLU_5ruchy8frontend6parser21handle_array_indexing
FNDA:0,_RNvNtNtCs2RUqfoJCtLU_5ruchy8frontend6parser22parse_slice_with_start
FNDA:1,_RNvNtNtCs2RUqfoJCtLU_5ruchy8frontend6parser22try_pipeline_operators
FNDA:2,_RNvNtNtCs2RUqfoJCtLU_5ruchy8frontend6parser22try_type_cast_operator
FNDA:0,_RNvNtNtCs2RUqfoJCtLU_5ruchy8frontend6parser23parse_empty_start_slice
FNDA:2,_RNvNtNtCs2RUqfoJCtLU_5ruchy8frontend6parser23try_new_actor_operators
FNDA:62,_RNvNtNtCs2RUqfoJCtLU_5ruchy8frontend6parser24handle_postfix_operators
FNDA:0,_RNvNtNtCs2RUqfoJCtLU_5ruchy8frontend6parser24parse_optional_slice_end
FNDA:1,_RNvNtNtCs2RUqfoJCtLU_5ruchy8frontend6parser24try_assignment_operators
FNDA:0,_RNvNtNtCs2RUqfoJCtLU_5ruchy8frontend6parser24try_parse_struct_literal
FNDA:0,_RNvNtNtCs2RUqfoJCtLU_5ruchy8frontend6parser26get_compound_assignment_op
FNDA:62,_RNvNtNtCs2RUqfoJCtLU_5ruchy8frontend6parser26try_handle_infix_operators
FNDA:63,_RNvNtNtCs2RUqfoJCtLU_5ruchy8frontend6parser36parse_expr_with_precedence_recursive
FNDA:0,_RNvMNtNtCs2RUqfoJCtLU_5ruchy8frontend6parserNtB2_11ParserState11arena_stats
FNDA:0,_RNvMNtNtCs2RUqfoJCtLU_5ruchy8frontend6parserNtB2_11ParserState14interner_stats
FNF:25
FNH:12
DA:52,36
DA:53,36
DA:54,36
DA:55,36
DA:56,36
DA:57,36
DA:58,36
DA:59,36
DA:60,36
DA:63,0
DA:64,0
DA:65,0
DA:69,0
DA:70,0
DA:71,0
DA:75,0
DA:76,0
DA:77,0
DA:81,62
DA:82,62
DA:83,62
DA:85,63
DA:86,63
DA:87,63
DA:88,63
DA:89,63
DA:93,62
DA:96,62
DA:97,0
DA:98,0
DA:99,61
DA:103,61
DA:104,63
DA:107,62
DA:108,62
DA:109,62
DA:110,62
DA:111,62
DA:113,62
DA:114,60
DA:116,2
DA:119,2
DA:120,2
DA:121,2
DA:122,2
DA:123,2
DA:124,2
DA:125,2
DA:126,2
DA:128,10
DA:129,9
DA:130,0
DA:131,8
DA:134,1
DA:135,62
DA:138,62
DA:139,62
DA:140,125
DA:141,63
DA:142,63
DA:144,0
DA:145,0
DA:146,0
DA:149,0
DA:150,0
DA:151,0
DA:154,0
DA:155,0
DA:158,0
DA:159,0
DA:162,0
DA:163,0
DA:164,0
DA:165,0
DA:167,1
DA:168,1
DA:169,1
DA:170,1
DA:171,1
DA:172,0
DA:173,0
DA:174,0
DA:175,0
DA:176,0
DA:177,0
DA:178,0
DA:179,0
DA:180,0
DA:181,0
DA:182,0
DA:183,0
DA:184,0
DA:185,0
DA:186,0
DA:187,62
DA:190,62
DA:191,62
DA:194,0
DA:195,0
DA:198,0
DA:199,0
DA:200,0
DA:202,0
DA:205,0
DA:206,0
DA:208,0
DA:210,0
DA:213,0
DA:214,0
DA:215,0
DA:218,0
DA:219,0
DA:220,0
DA:221,0
DA:223,0
DA:224,0
DA:227,0
DA:228,0
DA:229,0
DA:230,0
DA:232,0
DA:233,0
DA:236,0
DA:237,0
DA:238,0
DA:240,0
DA:242,0
DA:245,0
DA:246,0
DA:248,0
DA:249,0
DA:250,0
DA:251,0
DA:252,0
DA:253,0
DA:254,0
DA:255,0
DA:256,0
DA:259,0
DA:260,0
DA:261,0
DA:262,0
DA:263,0
DA:264,0
DA:265,0
DA:266,0
DA:267,0
DA:268,0
DA:269,0
DA:273,0
DA:274,0
DA:275,0
DA:276,0
DA:277,0
DA:278,0
DA:279,0
DA:280,0
DA:281,0
DA:282,0
DA:285,1
DA:286,1
DA:287,1
DA:288,1
DA:289,1
DA:290,1
DA:291,1
DA:292,1
DA:293,1
DA:296,0
DA:297,0
DA:298,0
DA:299,0
DA:300,0
DA:301,0
DA:302,0
DA:303,0
DA:304,0
DA:308,2
DA:309,2
DA:310,2
DA:311,2
DA:312,2
DA:313,2
DA:314,2
DA:315,1
DA:316,1
DA:317,0
DA:318,1
DA:320,1
DA:321,1
DA:322,0
DA:323,0
DA:324,0
DA:325,0
DA:326,0
DA:327,0
DA:328,0
DA:329,0
DA:330,0
DA:332,1
DA:334,2
DA:337,2
DA:338,2
DA:339,2
DA:340,2
DA:341,2
DA:342,2
DA:343,2
DA:344,2
DA:345,0
DA:347,0
DA:350,0
DA:351,0
DA:352,0
DA:353,0
DA:354,0
DA:356,0
DA:359,0
DA:360,0
DA:361,0
DA:362,0
DA:363,0
DA:364,0
DA:365,0
DA:366,0
DA:367,2
DA:370,2
DA:371,2
DA:372,2
DA:373,2
DA:374,2
DA:375,2
DA:376,2
DA:379,0
DA:380,0
DA:381,0
DA:382,0
DA:383,0
DA:384,0
DA:385,0
DA:386,0
DA:387,0
DA:388,0
DA:392,0
DA:393,0
DA:394,0
DA:395,0
DA:396,0
DA:397,0
DA:398,0
DA:399,0
DA:400,0
DA:401,0
DA:403,2
DA:406,0
DA:407,0
DA:408,0
DA:409,0
DA:410,0
DA:411,2
DA:414,1
DA:415,1
DA:416,1
DA:417,1
DA:418,1
DA:419,1
DA:420,1
DA:421,1
DA:422,0
DA:424,0
DA:425,0
DA:426,0
DA:427,0
DA:429,0
DA:430,0
DA:432,0
DA:433,0
DA:434,0
DA:435,0
DA:436,0
DA:437,0
DA:438,0
DA:439,0
DA:440,0
DA:442,0
DA:443,0
DA:444,0
DA:445,0
DA:446,0
DA:447,0
DA:448,0
DA:449,0
DA:450,0
DA:451,0
DA:453,0
DA:454,1
DA:457,0
DA:458,0
DA:459,0
DA:460,0
DA:461,0
DA:462,0
DA:463,0
DA:464,0
DA:465,0
DA:466,0
DA:467,0
DA:468,0
DA:469,0
DA:471,0
DA:474,1
DA:475,1
DA:476,1
DA:477,1
DA:478,1
DA:479,1
DA:480,1
DA:481,1
DA:482,0
DA:484,0
DA:485,0
DA:486,0
DA:487,0
DA:489,0
DA:490,0
DA:492,0
DA:493,0
DA:494,0
DA:495,0
DA:496,0
DA:497,0
DA:498,0
DA:499,0
DA:500,0
DA:501,0
DA:503,0
DA:504,0
DA:505,0
DA:506,0
DA:507,0
DA:508,0
DA:509,0
DA:510,0
DA:511,0
DA:512,0
DA:513,0
DA:515,0
DA:516,1
DA:519,1
DA:520,1
DA:521,1
DA:522,1
DA:523,1
DA:524,1
DA:525,1
DA:526,1
DA:527,0
DA:529,0
DA:530,0
DA:531,0
DA:532,0
DA:534,0
DA:535,0
DA:536,0
DA:537,0
DA:538,0
DA:539,0
DA:540,0
DA:541,0
DA:542,0
DA:543,0
DA:544,0
DA:545,0
DA:546,1
BRF:0
BRH:0
LF:374
LH:124
end_of_record
SF:/home/noah/src/ruchy/src/frontend/parser/operator_precedence.rs
FN:44,_RNvNtNtNtCs2RUqfoJCtLU_5ruchy8frontend6parser19operator_precedence17get_operator_info
FN:112,_RNvNtNtNtCs2RUqfoJCtLU_5ruchy8frontend6parser19operator_precedence18is_prefix_operator
FN:98,_RNvNtNtNtCs2RUqfoJCtLU_5ruchy8frontend6parser19operator_precedence19is_postfix_operator
FN:126,_RNvNtNtNtCs2RUqfoJCtLU_5ruchy8frontend6parser19operator_precedence22get_postfix_precedence
FN:136,_RNvNtNtNtCs2RUqfoJCtLU_5ruchy8frontend6parser19operator_precedence23should_continue_parsing
FNDA:0,_RNvNtNtNtCs2RUqfoJCtLU_5ruchy8frontend6parser19operator_precedence17get_operator_info
FNDA:0,_RNvNtNtNtCs2RUqfoJCtLU_5ruchy8frontend6parser19operator_precedence18is_prefix_operator
FNDA:0,_RNvNtNtNtCs2RUqfoJCtLU_5ruchy8frontend6parser19operator_precedence19is_postfix_operator
FNDA:0,_RNvNtNtNtCs2RUqfoJCtLU_5ruchy8frontend6parser19operator_precedence22get_postfix_precedence
FNDA:0,_RNvNtNtNtCs2RUqfoJCtLU_5ruchy8frontend6parser19operator_precedence23should_continue_parsing
FNF:5
FNH:0
DA:44,0
DA:47,0
DA:60,0
DA:63,0
DA:66,0
DA:67,0
DA:70,0
DA:74,0
DA:78,0
DA:79,0
DA:80,0
DA:81,0
DA:84,0
DA:87,0
DA:89,0
DA:91,0
DA:93,0
DA:95,0
DA:98,0
DA:99,0
DA:100,0
DA:109,0
DA:112,0
DA:113,0
DA:114,0
DA:123,0
DA:126,0
DA:127,0
DA:128,0
DA:129,0
DA:130,0
DA:131,0
DA:133,0
DA:136,0
DA:137,0
DA:138,0
DA:140,0
DA:142,0
BRF:0
BRH:0
LF:38
LH:0
end_of_record
SF:/home/noah/src/ruchy/src/frontend/parser/types.rs
FN:5,_RNvNtNtNtCs2RUqfoJCtLU_5ruchy8frontend6parser5types20parse_struct_literal
FNDA:0,_RNvNtNtNtCs2RUqfoJCtLU_5ruchy8frontend6parser5types20parse_struct_literal
FNF:1
FNH:0
DA:5,0
DA:6,0
DA:7,0
DA:8,0
DA:9,0
DA:10,0
DA:12,0
DA:13,0
DA:15,0
DA:16,0
DA:17,0
DA:18,0
DA:20,0
DA:24,0
DA:25,0
DA:27,0
DA:30,0
DA:31,0
DA:32,0
DA:33,0
DA:37,0
DA:39,0
DA:40,0
DA:41,0
DA:42,0
DA:43,0
BRF:0
BRH:0
LF:26
LH:0
end_of_record
SF:/home/noah/src/ruchy/src/frontend/parser/utils.rs
FN:211,_RNvNtNtNtCs2RUqfoJCtLU_5ruchy8frontend6parser5utils10parse_type
FN:46,_RNvNtNtNtCs2RUqfoJCtLU_5ruchy8frontend6parser5utils12parse_params
FN:248,_RNvNtNtNtCs2RUqfoJCtLU_5ruchy8frontend6parser5utils13parse_fn_type
FN:267,_RNvNtNtNtCs2RUqfoJCtLU_5ruchy8frontend6parser5utils15parse_list_type
FN:408,_RNvNtNtNtCs2RUqfoJCtLU_5ruchy8frontend6parser5utils15parse_type_list
FN:698,_RNvNtNtNtCs2RUqfoJCtLU_5ruchy8frontend6parser5utils16parse_attributes
FN:316,_RNvNtNtNtCs2RUqfoJCtLU_5ruchy8frontend6parser5utils16parse_named_type
FN:279,_RNvNtNtNtCs2RUqfoJCtLU_5ruchy8frontend6parser5utils16parse_paren_type
FN:393,_RNvNtNtNtCs2RUqfoJCtLU_5ruchy8frontend6parser5utils18parse_generic_type
FN:64,_RNvNtNtNtCs2RUqfoJCtLU_5ruchy8frontend6parser5utils18parse_single_param
FN:90,_RNvNtNtNtCs2RUqfoJCtLU_5ruchy8frontend6parser5utils19parse_param_pattern
FN:330,_RNvNtNtNtCs2RUqfoJCtLU_5ruchy8frontend6parser5utils20parse_qualified_name
FN:226,_RNvNtNtNtCs2RUqfoJCtLU_5ruchy8frontend6parser5utils20parse_reference_type
FN:80,_RNvNtNtNtCs2RUqfoJCtLU_5ruchy8frontend6parser5utils21check_and_consume_mut
FN:184,_RNvNtNtNtCs2RUqfoJCtLU_5ruchy8frontend6parser5utils21parse_type_parameters
FN:120,_RNvNtNtNtCs2RUqfoJCtLU_5ruchy8frontend6parser5utils23parse_reference_pattern
FN:169,_RNvNtNtNtCs2RUqfoJCtLU_5ruchy8frontend6parser5utils26should_continue_param_list
FN:159,_RNvNtNtNtCs2RUqfoJCtLU_5ruchy8frontend6parser5utils28parse_optional_default_value
FN:145,_RNvNtNtNtCs2RUqfoJCtLU_5ruchy8frontend6parser5utils30parse_optional_type_annotation
FN:777,_RINvNtNtNtCs2RUqfoJCtLU_5ruchy8frontend6parser5utils20handle_escaped_bracepEB8_
FN:787,_RINvNtNtNtCs2RUqfoJCtLU_5ruchy8frontend6parser5utils20handle_interpolationpEB8_
FN:803,_RINvNtNtNtCs2RUqfoJCtLU_5ruchy8frontend6parser5utils23extract_expression_textpEB8_
FN:969,_RNvMNtNtNtCs2RUqfoJCtLU_5ruchy8frontend6parser5utilsNtB2_11ExprContext7default
FN:1130,_RNvNtNtNtCs2RUqfoJCtLU_5ruchy8frontend6parser5utils12parse_export
FN:479,_RNvNtNtNtCs2RUqfoJCtLU_5ruchy8frontend6parser5utils12parse_import
FN:1031,_RNvNtNtNtCs2RUqfoJCtLU_5ruchy8frontend6parser5utils12parse_module
FN:894,_RNvNtNtNtCs2RUqfoJCtLU_5ruchy8frontend6parser5utils13handle_escape
FN:869,_RNvNtNtNtCs2RUqfoJCtLU_5ruchy8frontend6parser5utils13should_escape
FN:496,_RNvNtNtNtCs2RUqfoJCtLU_5ruchy8frontend6parser5utils16parse_url_import
FN:911,_RNvNtNtNtCs2RUqfoJCtLU_5ruchy8frontend6parser5utils16should_terminate
FN:884,_RNvNtNtNtCs2RUqfoJCtLU_5ruchy8frontend6parser5utils17handle_open_brace
FN:517,_RNvNtNtNtCs2RUqfoJCtLU_5ruchy8frontend6parser5utils17parse_module_path
FN:817,_RNvNtNtNtCs2RUqfoJCtLU_5ruchy8frontend6parser5utils17process_character
FN:904,_RNvNtNtNtCs2RUqfoJCtLU_5ruchy8frontend6parser5utils17reset_escape_flag
FN:953,_RNvNtNtNtCs2RUqfoJCtLU_5ruchy8frontend6parser5utils18finalize_text_part
FN:889,_RNvNtNtNtCs2RUqfoJCtLU_5ruchy8frontend6parser5utils18handle_close_brace
FN:561,_RNvNtNtNtCs2RUqfoJCtLU_5ruchy8frontend6parser5utils18parse_import_items
FN:550,_RNvNtNtNtCs2RUqfoJCtLU_5ruchy8frontend6parser5utils18parse_path_segment
FN:899,_RNvNtNtNtCs2RUqfoJCtLU_5ruchy8frontend6parser5utils19handle_regular_char
FN:639,_RNvNtNtNtCs2RUqfoJCtLU_5ruchy8frontend6parser5utils19parse_simple_import
FN:7,_RNvNtNtNtCs2RUqfoJCtLU_5ruchy8frontend6parser5utils19validate_url_import
FN:864,_RNvNtNtNtCs2RUqfoJCtLU_5ruchy8frontend6parser5utils20should_process_brace
FN:879,_RNvNtNtNtCs2RUqfoJCtLU_5ruchy8frontend6parser5utils21handle_char_delimiter
FN:619,_RNvNtNtNtCs2RUqfoJCtLU_5ruchy8frontend6parser5utils21handle_item_separator
FN:542,_RNvNtNtNtCs2RUqfoJCtLU_5ruchy8frontend6parser5utils21is_import_items_start
FN:572,_RNvNtNtNtCs2RUqfoJCtLU_5ruchy8frontend6parser5utils21parse_wildcard_import
FN:939,_RNvNtNtNtCs2RUqfoJCtLU_5ruchy8frontend6parser5utils22split_format_specifier
FN:874,_RNvNtNtNtCs2RUqfoJCtLU_5ruchy8frontend6parser5utils23handle_string_delimiter
FN:916,_RNvNtNtNtCs2RUqfoJCtLU_5ruchy8frontend6parser5utils23parse_interpolated_expr
FN:681,_RNvNtNtNtCs2RUqfoJCtLU_5ruchy8frontend6parser5utils24create_import_expression
FN:578,_RNvNtNtNtCs2RUqfoJCtLU_5ruchy8frontend6parser5utils24parse_braced_import_list
FN:859,_RNvNtNtNtCs2RUqfoJCtLU_5ruchy8frontend6parser5utils25should_process_char_quote
FN:752,_RNvNtNtNtCs2RUqfoJCtLU_5ruchy8frontend6parser5utils26parse_string_interpolation
FN:631,_RNvNtNtNtCs2RUqfoJCtLU_5ruchy8frontend6parser5utils26validate_braced_list_token
FN:854,_RNvNtNtNtCs2RUqfoJCtLU_5ruchy8frontend6parser5utils27should_process_string_quote
FN:603,_RNvNtNtNtCs2RUqfoJCtLU_5ruchy8frontend6parser5utils28parse_import_item_with_alias
FN:648,_RNvNtNtNtCs2RUqfoJCtLU_5ruchy8frontend6parser5utils30parse_simple_import_with_alias
FN:663,_RNvNtNtNtCs2RUqfoJCtLU_5ruchy8frontend6parser5utils33parse_simple_import_without_alias
FNDA:0,_RNvNtNtNtCs2RUqfoJCtLU_5ruchy8frontend6parser5utils10parse_type
FNDA:0,_RNvNtNtNtCs2RUqfoJCtLU_5ruchy8frontend6parser5utils12parse_params
FNDA:0,_RNvNtNtNtCs2RUqfoJCtLU_5ruchy8frontend6parser5utils13parse_fn_type
FNDA:0,_RNvNtNtNtCs2RUqfoJCtLU_5ruchy8frontend6parser5utils15parse_list_type
FNDA:0,_RNvNtNtNtCs2RUqfoJCtLU_5ruchy8frontend6parser5utils15parse_type_list
FNDA:37,_RNvNtNtNtCs2RUqfoJCtLU_5ruchy8frontend6parser5utils16parse_attributes
FNDA:0,_RNvNtNtNtCs2RUqfoJCtLU_5ruchy8frontend6parser5utils16parse_named_type
FNDA:0,_RNvNtNtNtCs2RUqfoJCtLU_5ruchy8frontend6parser5utils16parse_paren_type
FNDA:0,_RNvNtNtNtCs2RUqfoJCtLU_5ruchy8frontend6parser5utils18parse_generic_type
FNDA:0,_RNvNtNtNtCs2RUqfoJCtLU_5ruchy8frontend6parser5utils18parse_single_param
FNDA:0,_RNvNtNtNtCs2RUqfoJCtLU_5ruchy8frontend6parser5utils19parse_param_pattern
FNDA:0,_RNvNtNtNtCs2RUqfoJCtLU_5ruchy8frontend6parser5utils20parse_qualified_name
FNDA:0,_RNvNtNtNtCs2RUqfoJCtLU_5ruchy8frontend6parser5utils20parse_reference_type
FNDA:0,_RNvNtNtNtCs2RUqfoJCtLU_5ruchy8frontend6parser5utils21check_and_consume_mut
FNDA:0,_RNvNtNtNtCs2RUqfoJCtLU_5ruchy8frontend6parser5utils21parse_type_parameters
FNDA:0,_RNvNtNtNtCs2RUqfoJCtLU_5ruchy8frontend6parser5utils23parse_reference_pattern
FNDA:0,_RNvNtNtNtCs2RUqfoJCtLU_5ruchy8frontend6parser5utils26should_continue_param_list
FNDA:0,_RNvNtNtNtCs2RUqfoJCtLU_5ruchy8frontend6parser5utils28parse_optional_default_value
FNDA:0,_RNvNtNtNtCs2RUqfoJCtLU_5ruchy8frontend6parser5utils30parse_optional_type_annotation
FNDA:0,_RINvNtNtNtCs2RUqfoJCtLU_5ruchy8frontend6parser5utils20handle_escaped_bracepEB8_
FNDA:0,_RINvNtNtNtCs2RUqfoJCtLU_5ruchy8frontend6parser5utils20handle_interpolationpEB8_
FNDA:0,_RINvNtNtNtCs2RUqfoJCtLU_5ruchy8frontend6parser5utils23extract_expression_textpEB8_
FNDA:0,_RNvMNtNtNtCs2RUqfoJCtLU_5ruchy8frontend6parser5utilsNtB2_11ExprContext7default
FNDA:0,_RNvNtNtNtCs2RUqfoJCtLU_5ruchy8frontend6parser5utils12parse_export
FNDA:0,_RNvNtNtNtCs2RUqfoJCtLU_5ruchy8frontend6parser5utils12parse_import
FNDA:0,_RNvNtNtNtCs2RUqfoJCtLU_5ruchy8frontend6parser5utils12parse_module
FNDA:0,_RNvNtNtNtCs2RUqfoJCtLU_5ruchy8frontend6parser5utils13handle_escape
FNDA:0,_RNvNtNtNtCs2RUqfoJCtLU_5ruchy8frontend6parser5utils13should_escape
FNDA:0,_RNvNtNtNtCs2RUqfoJCtLU_5ruchy8frontend6parser5utils16parse_url_import
FNDA:0,_RNvNtNtNtCs2RUqfoJCtLU_5ruchy8frontend6parser5utils16should_terminate
FNDA:0,_RNvNtNtNtCs2RUqfoJCtLU_5ruchy8frontend6parser5utils17handle_open_brace
FNDA:0,_RNvNtNtNtCs2RUqfoJCtLU_5ruchy8frontend6parser5utils17parse_module_path
FNDA:0,_RNvNtNtNtCs2RUqfoJCtLU_5ruchy8frontend6parser5utils17process_character
FNDA:0,_RNvNtNtNtCs2RUqfoJCtLU_5ruchy8frontend6parser5utils17reset_escape_flag
FNDA:0,_RNvNtNtNtCs2RUqfoJCtLU_5ruchy8frontend6parser5utils18finalize_text_part
FNDA:0,_RNvNtNtNtCs2RUqfoJCtLU_5ruchy8frontend6parser5utils18handle_close_brace
FNDA:0,_RNvNtNtNtCs2RUqfoJCtLU_5ruchy8frontend6parser5utils18parse_import_items
FNDA:0,_RNvNtNtNtCs2RUqfoJCtLU_5ruchy8frontend6parser5utils18parse_path_segment
FNDA:0,_RNvNtNtNtCs2RUqfoJCtLU_5ruchy8frontend6parser5utils19handle_regular_char
FNDA:0,_RNvNtNtNtCs2RUqfoJCtLU_5ruchy8frontend6parser5utils19parse_simple_import
FNDA:0,_RNvNtNtNtCs2RUqfoJCtLU_5ruchy8frontend6parser5utils19validate_url_import
FNDA:0,_RNvNtNtNtCs2RUqfoJCtLU_5ruchy8frontend6parser5utils20should_process_brace
FNDA:0,_RNvNtNtNtCs2RUqfoJCtLU_5ruchy8frontend6parser5utils21handle_char_delimiter
FNDA:0,_RNvNtNtNtCs2RUqfoJCtLU_5ruchy8frontend6parser5utils21handle_item_separator
FNDA:0,_RNvNtNtNtCs2RUqfoJCtLU_5ruchy8frontend6parser5utils21is_import_items_start
FNDA:0,_RNvNtNtNtCs2RUqfoJCtLU_5ruchy8frontend6parser5utils21parse_wildcard_import
FNDA:0,_RNvNtNtNtCs2RUqfoJCtLU_5ruchy8frontend6parser5utils22split_format_specifier
FNDA:0,_RNvNtNtNtCs2RUqfoJCtLU_5ruchy8frontend6parser5utils23handle_string_delimiter
FNDA:0,_RNvNtNtNtCs2RUqfoJCtLU_5ruchy8frontend6parser5utils23parse_interpolated_expr
FNDA:0,_RNvNtNtNtCs2RUqfoJCtLU_5ruchy8frontend6parser5utils24create_import_expression
FNDA:0,_RNvNtNtNtCs2RUqfoJCtLU_5ruchy8frontend6parser5utils24parse_braced_import_list
FNDA:0,_RNvNtNtNtCs2RUqfoJCtLU_5ruchy8frontend6parser5utils25should_process_char_quote
FNDA:0,_RNvNtNtNtCs2RUqfoJCtLU_5ruchy8frontend6parser5utils26parse_string_interpolation
FNDA:0,_RNvNtNtNtCs2RUqfoJCtLU_5ruchy8frontend6parser5utils26validate_braced_list_token
FNDA:0,_RNvNtNtNtCs2RUqfoJCtLU_5ruchy8frontend6parser5utils27should_process_string_quote
FNDA:0,_RNvNtNtNtCs2RUqfoJCtLU_5ruchy8frontend6parser5utils28parse_import_item_with_alias
FNDA:0,_RNvNtNtNtCs2RUqfoJCtLU_5ruchy8frontend6parser5utils30parse_simple_import_with_alias
FNDA:0,_RNvNtNtNtCs2RUqfoJCtLU_5ruchy8frontend6parser5utils33parse_simple_import_without_alias
FNF:58
FNH:1
DA:7,0
DA:11,0
DA:12,0
DA:13,0
DA:14,0
DA:17,0
DA:18,0
DA:19,0
DA:22,0
DA:23,0
DA:24,0
DA:27,0
DA:28,0
DA:29,0
DA:31,0
DA:32,0
DA:46,0
DA:47,0
DA:49,0
DA:50,0
DA:51,0
DA:52,0
DA:54,0
DA:55,0
DA:56,0
DA:59,0
DA:60,0
DA:61,0
DA:64,0
DA:65,0
DA:66,0
DA:67,0
DA:68,0
DA:70,0
DA:71,0
DA:72,0
DA:73,0
DA:74,0
DA:75,0
DA:76,0
DA:77,0
DA:80,0
DA:81,0
DA:82,0
DA:83,0
DA:85,0
DA:87,0
DA:90,0
DA:91,0
DA:92,0
DA:93,0
DA:94,0
DA:95,0
DA:96,0
DA:100,0
DA:101,0
DA:105,0
DA:109,0
DA:113,0
DA:115,0
DA:117,0
DA:120,0
DA:121,0
DA:123,0
DA:124,0
DA:125,0
DA:126,0
DA:128,0
DA:129,0
DA:130,0
DA:131,0
DA:132,0
DA:134,0
DA:138,0
DA:139,0
DA:142,0
DA:145,0
DA:146,0
DA:147,0
DA:148,0
DA:151,0
DA:152,0
DA:153,0
DA:154,0
DA:156,0
DA:159,0
DA:160,0
DA:161,0
DA:162,0
DA:164,0
DA:166,0
DA:169,0
DA:170,0
DA:171,0
DA:172,0
DA:174,0
DA:176,0
DA:184,0
DA:185,0
DA:187,0
DA:190,0
DA:191,0
DA:192,0
DA:193,0
DA:196,0
DA:197,0
DA:198,0
DA:199,0
DA:200,0
DA:201,0
DA:204,0
DA:205,0
DA:206,0
DA:211,0
DA:212,0
DA:214,0
DA:215,0
DA:216,0
DA:217,0
DA:218,0
DA:220,0
DA:221,0
DA:223,0
DA:226,0
DA:227,0
DA:229,0
DA:230,0
DA:231,0
DA:233,0
DA:236,0
DA:238,0
DA:239,0
DA:240,0
DA:241,0
DA:242,0
DA:243,0
DA:244,0
DA:245,0
DA:248,0
DA:249,0
DA:250,0
DA:252,0
DA:253,0
DA:254,0
DA:255,0
DA:257,0
DA:258,0
DA:259,0
DA:260,0
DA:261,0
DA:262,0
DA:263,0
DA:264,0
DA:267,0
DA:268,0
DA:269,0
DA:270,0
DA:272,0
DA:273,0
DA:274,0
DA:275,0
DA:276,0
DA:279,0
DA:280,0
DA:282,0
DA:284,0
DA:285,0
DA:286,0
DA:287,0
DA:288,0
DA:290,0
DA:291,0
DA:293,0
DA:295,0
DA:296,0
DA:298,0
DA:299,0
DA:300,0
DA:301,0
DA:302,0
DA:303,0
DA:304,0
DA:307,0
DA:308,0
DA:309,0
DA:310,0
DA:313,0
DA:316,0
DA:317,0
DA:319,0
DA:320,0
DA:322,0
DA:323,0
DA:324,0
DA:325,0
DA:327,0
DA:330,0
DA:331,0
DA:332,0
DA:333,0
DA:334,0
DA:335,0
DA:339,0
DA:340,0
DA:343,0
DA:344,0
DA:347,0
DA:348,0
DA:351,0
DA:352,0
DA:355,0
DA:356,0
DA:359,0
DA:360,0
DA:363,0
DA:364,0
DA:366,0
DA:369,0
DA:370,0
DA:372,0
DA:373,0
DA:375,0
DA:376,0
DA:377,0
DA:378,0
DA:379,0
DA:380,0
DA:381,0
DA:384,0
DA:385,0
DA:386,0
DA:389,0
DA:390,0
DA:393,0
DA:394,0
DA:395,0
DA:396,0
DA:398,0
DA:399,0
DA:400,0
DA:401,0
DA:402,0
DA:403,0
DA:404,0
DA:405,0
DA:408,0
DA:409,0
DA:411,0
DA:412,0
DA:414,0
DA:415,0
DA:416,0
DA:418,0
DA:420,0
DA:421,0
DA:479,0
DA:480,0
DA:483,0
DA:484,0
DA:485,0
DA:486,0
DA:489,0
DA:490,0
DA:492,0
DA:493,0
DA:496,0
DA:498,0
DA:499,0
DA:500,0
DA:503,0
DA:505,0
DA:507,0
DA:508,0
DA:509,0
DA:510,0
DA:511,0
DA:512,0
DA:513,0
DA:514,0
DA:517,0
DA:518,0
DA:521,0
DA:522,0
DA:523,0
DA:526,0
DA:527,0
DA:530,0
DA:531,0
DA:532,0
DA:534,0
DA:536,0
DA:538,0
DA:539,0
DA:542,0
DA:543,0
DA:544,0
DA:547,0
DA:550,0
DA:551,0
DA:552,0
DA:553,0
DA:554,0
DA:556,0
DA:558,0
DA:561,0
DA:562,0
DA:563,0
DA:564,0
DA:565,0
DA:567,0
DA:569,0
DA:572,0
DA:573,0
DA:574,0
DA:575,0
DA:578,0
DA:579,0
DA:581,0
DA:582,0
DA:583,0
DA:584,0
DA:585,0
DA:587,0
DA:588,0
DA:590,0
DA:591,0
DA:592,0
DA:594,0
DA:598,0
DA:599,0
DA:600,0
DA:603,0
DA:604,0
DA:605,0
DA:606,0
DA:607,0
DA:608,0
DA:609,0
DA:611,0
DA:614,0
DA:616,0
DA:619,0
DA:620,0
DA:621,0
DA:622,0
DA:623,0
DA:624,0
DA:626,0
DA:628,0
DA:631,0
DA:632,0
DA:633,0
DA:634,0
DA:635,0
DA:636,0
DA:639,0
DA:640,0
DA:641,0
DA:643,0
DA:645,0
DA:648,0
DA:649,0
DA:650,0
DA:651,0
DA:652,0
DA:653,0
DA:654,0
DA:655,0
DA:656,0
DA:658,0
DA:660,0
DA:663,0
DA:664,0
DA:665,0
DA:666,0
DA:668,0
DA:671,0
DA:672,0
DA:673,0
DA:674,0
DA:675,0
DA:676,0
DA:678,0
DA:681,0
DA:682,0
DA:685,0
DA:686,0
DA:687,0
DA:689,0
DA:690,0
DA:698,37
DA:699,37
DA:701,37
DA:702,0
DA:704,0
DA:705,0
DA:706,0
DA:707,0
DA:709,0
DA:710,0
DA:711,0
DA:712,0
DA:714,0
DA:717,0
DA:718,0
DA:719,0
DA:721,0
DA:722,0
DA:723,0
DA:724,0
DA:726,0
DA:727,0
DA:728,0
DA:729,0
DA:732,0
DA:736,0
DA:737,0
DA:739,0
DA:741,0
DA:742,0
DA:743,0
DA:744,0
DA:745,0
DA:748,37
DA:749,37
DA:752,0
DA:753,0
DA:754,0
DA:755,0
DA:757,0
DA:758,0
DA:759,0
DA:760,0
DA:761,0
DA:762,0
DA:763,0
DA:764,0
DA:765,0
DA:766,0
DA:767,0
DA:768,0
DA:772,0
DA:773,0
DA:774,0
DA:777,0
DA:778,0
DA:779,0
DA:780,0
DA:781,0
DA:782,0
DA:783,0
DA:784,0
DA:787,0
DA:788,0
DA:789,0
DA:790,0
DA:791,0
DA:792,0
DA:793,0
DA:794,0
DA:795,0
DA:797,0
DA:798,0
DA:799,0
DA:800,0
DA:803,0
DA:804,0
DA:805,0
DA:807,0
DA:808,0
DA:809,0
DA:810,0
DA:813,0
DA:814,0
DA:817,0
DA:818,0
DA:819,0
DA:820,0
DA:821,0
DA:822,0
DA:823,0
DA:824,0
DA:825,0
DA:826,0
DA:827,0
DA:828,0
DA:829,0
DA:830,0
DA:831,0
DA:832,0
DA:833,0
DA:834,0
DA:835,0
DA:836,0
DA:838,0
DA:839,0
DA:840,0
DA:841,0
DA:842,0
DA:843,0
DA:844,0
DA:845,0
DA:849,0
DA:850,0
DA:851,0
DA:854,0
DA:855,0
DA:856,0
DA:859,0
DA:860,0
DA:861,0
DA:864,0
DA:865,0
DA:866,0
DA:869,0
DA:870,0
DA:871,0
DA:874,0
DA:875,0
DA:876,0
DA:879,0
DA:880,0
DA:881,0
DA:884,0
DA:885,0
DA:886,0
DA:889,0
DA:890,0
DA:891,0
DA:894,0
DA:895,0
DA:896,0
DA:899,0
DA:900,0
DA:901,0
DA:904,0
DA:905,0
DA:906,0
DA:907,0
DA:908,0
DA:911,0
DA:912,0
DA:913,0
DA:916,0
DA:917,0
DA:919,0
DA:920,0
DA:921,0
DA:922,0
DA:923,0
DA:924,0
DA:925,0
DA:926,0
DA:928,0
DA:933,0
DA:936,0
DA:939,0
DA:940,0
DA:941,0
DA:942,0
DA:943,0
DA:945,0
DA:948,0
DA:950,0
DA:953,0
DA:954,0
DA:955,0
DA:956,0
DA:957,0
DA:969,0
DA:970,0
DA:971,0
DA:972,0
DA:973,0
DA:974,0
DA:975,0
DA:976,0
DA:1031,0
DA:1032,0
DA:1035,0
DA:1036,0
DA:1037,0
DA:1038,0
DA:1040,0
DA:1044,0
DA:1047,0
DA:1049,0
DA:1050,0
DA:1051,0
DA:1055,0
DA:1056,0
DA:1057,0
DA:1059,0
DA:1060,0
DA:1062,0
DA:1063,0
DA:1064,0
DA:1067,0
DA:1068,0
DA:1070,0
DA:1075,0
DA:1077,0
DA:1078,0
DA:1130,0
DA:1131,0
DA:1133,0
DA:1136,0
DA:1138,0
DA:1140,0
DA:1141,0
DA:1142,0
DA:1143,0
DA:1145,0
DA:1146,0
DA:1147,0
DA:1148,0
DA:1151,0
DA:1155,0
DA:1156,0
DA:1157,0
DA:1158,0
DA:1159,0
DA:1160,0
DA:1161,0
DA:1164,0
DA:1165,0
BRF:0
BRH:0
LF:626
LH:5
end_of_record
SF:/home/noah/src/ruchy/src/lib.rs
FN:126,_RNCNvCs2RUqfoJCtLU_5ruchy15get_parse_error0B3_
FN:124,_RNvCs2RUqfoJCtLU_5ruchy15get_parse_error
FN:117,_RNvCs2RUqfoJCtLU_5ruchy15is_valid_syntax
FN:106,_RNvCs2RUqfoJCtLU_5ruchy7compile
FN:144,_RNvCs2RUqfoJCtLU_5ruchy8run_repl
FNDA:0,_RNCNvCs2RUqfoJCtLU_5ruchy15get_parse_error0B3_
FNDA:0,_RNvCs2RUqfoJCtLU_5ruchy15get_parse_error
FNDA:0,_RNvCs2RUqfoJCtLU_5ruchy15is_valid_syntax
FNDA:0,_RNvCs2RUqfoJCtLU_5ruchy7compile
FNDA:0,_RNvCs2RUqfoJCtLU_5ruchy8run_repl
FNF:5
FNH:0
DA:106,0
DA:107,0
DA:108,0
DA:109,0
DA:111,0
DA:112,0
DA:113,0
DA:117,0
DA:118,0
DA:119,0
DA:120,0
DA:124,0
DA:125,0
DA:126,0
DA:127,0
DA:144,0
DA:145,0
DA:146,0
DA:147,0
BRF:0
BRH:0
LF:20
LH:0
end_of_record
SF:/home/noah/src/ruchy/src/lints/mod.rs
FN:90,_RNCNvMs0_NtCs2RUqfoJCtLU_5ruchy5lintsNtB7_14ComplexityRule20calculate_complexitys_0B9_
FN:84,_RNCNvMs0_NtCs2RUqfoJCtLU_5ruchy5lintsNtB7_14ComplexityRule20calculate_complexity0B9_
FN:73,_RNvMs0_NtCs2RUqfoJCtLU_5ruchy5lintsNtB5_14ComplexityRule20calculate_complexity
FN:41,_RNvMs_NtCs2RUqfoJCtLU_5ruchy5lintsNtB4_11RuchyLinter3new
FN:54,_RNvMs_NtCs2RUqfoJCtLU_5ruchy5lintsNtB4_11RuchyLinter4lint
FN:50,_RNvMs_NtCs2RUqfoJCtLU_5ruchy5lintsNtB4_11RuchyLinter8add_rule
FN:35,_RNvXNtCs2RUqfoJCtLU_5ruchy5lintsNtB2_11RuchyLinterNtNtCs66KPHxksi63_4core7default7Default7default
FN:112,_RNvXs1_NtCs2RUqfoJCtLU_5ruchy5lintsNtB5_14ComplexityRuleNtB5_8LintRule16check_expression
FN:108,_RNvXs1_NtCs2RUqfoJCtLU_5ruchy5lintsNtB5_14ComplexityRuleNtB5_8LintRule4name
FN:142,_RNvXs2_NtCs2RUqfoJCtLU_5ruchy5lintsNtB5_16NoDebugPrintRuleNtB5_8LintRule16check_expression
FN:138,_RNvXs2_NtCs2RUqfoJCtLU_5ruchy5lintsNtB5_16NoDebugPrintRuleNtB5_8LintRule4name
FNDA:0,_RNCNvMs0_NtCs2RUqfoJCtLU_5ruchy5lintsNtB7_14ComplexityRule20calculate_complexitys_0B9_
FNDA:0,_RNCNvMs0_NtCs2RUqfoJCtLU_5ruchy5lintsNtB7_14ComplexityRule20calculate_complexity0B9_
FNDA:0,_RNvMs0_NtCs2RUqfoJCtLU_5ruchy5lintsNtB5_14ComplexityRule20calculate_complexity
FNDA:0,_RNvMs_NtCs2RUqfoJCtLU_5ruchy5lintsNtB4_11RuchyLinter3new
FNDA:0,_RNvMs_NtCs2RUqfoJCtLU_5ruchy5lintsNtB4_11RuchyLinter4lint
FNDA:0,_RNvMs_NtCs2RUqfoJCtLU_5ruchy5lintsNtB4_11RuchyLinter8add_rule
FNDA:0,_RNvXNtCs2RUqfoJCtLU_5ruchy5lintsNtB2_11RuchyLinterNtNtCs66KPHxksi63_4core7default7Default7default
FNDA:0,_RNvXs1_NtCs2RUqfoJCtLU_5ruchy5lintsNtB5_14ComplexityRuleNtB5_8LintRule16check_expression
FNDA:0,_RNvXs1_NtCs2RUqfoJCtLU_5ruchy5lintsNtB5_14ComplexityRuleNtB5_8LintRule4name
FNDA:0,_RNvXs2_NtCs2RUqfoJCtLU_5ruchy5lintsNtB5_16NoDebugPrintRuleNtB5_8LintRule16check_expression
FNDA:0,_RNvXs2_NtCs2RUqfoJCtLU_5ruchy5lintsNtB5_16NoDebugPrintRuleNtB5_8LintRule4name
FNF:11
FNH:0
DA:35,0
DA:36,0
DA:37,0
DA:41,0
DA:42,0
DA:43,0
DA:44,0
DA:47,0
DA:48,0
DA:50,0
DA:51,0
DA:52,0
DA:54,0
DA:55,0
DA:57,0
DA:58,0
DA:59,0
DA:61,0
DA:62,0
DA:73,0
DA:74,0
DA:76,0
DA:77,0
DA:78,0
DA:80,0
DA:81,0
DA:82,0
DA:83,0
DA:84,0
DA:86,0
DA:87,0
DA:88,0
DA:89,0
DA:90,0
DA:91,0
DA:93,0
DA:94,0
DA:96,0
DA:97,0
DA:99,0
DA:100,0
DA:102,0
DA:104,0
DA:108,0
DA:109,0
DA:110,0
DA:112,0
DA:113,0
DA:114,0
DA:115,0
DA:117,0
DA:120,0
DA:121,0
DA:122,0
DA:123,0
DA:124,0
DA:125,0
DA:126,0
DA:127,0
DA:128,0
DA:130,0
DA:131,0
DA:138,0
DA:139,0
DA:140,0
DA:142,0
DA:143,0
DA:144,0
DA:145,0
DA:146,0
DA:147,0
DA:148,0
DA:149,0
DA:150,0
DA:151,0
DA:152,0
DA:153,0
DA:154,0
DA:156,0
DA:159,0
DA:162,0
DA:164,0
BRF:0
BRH:0
LF:84
LH:0
end_of_record
SF:/home/noah/src/ruchy/src/middleend/environment.rs
FN:113,_RNCNvMNtNtCs2RUqfoJCtLU_5ruchy9middleend11environmentNtB4_7TypeEnv10generalize0B8_
FN:106,_RNvMNtNtCs2RUqfoJCtLU_5ruchy9middleend11environmentNtB2_7TypeEnv10generalize
FN:120,_RNvMNtNtCs2RUqfoJCtLU_5ruchy9middleend11environmentNtB2_7TypeEnv11instantiate
FN:14,_RNvMNtNtCs2RUqfoJCtLU_5ruchy9middleend11environmentNtB2_7TypeEnv3new
FN:76,_RNvMNtNtCs2RUqfoJCtLU_5ruchy9middleend11environmentNtB2_7TypeEnv6lookup
FN:22,_RNvMNtNtCs2RUqfoJCtLU_5ruchy9middleend11environmentNtB2_7TypeEnv8standard
FN:90,_RNvMNtNtCs2RUqfoJCtLU_5ruchy9middleend11environmentNtB2_7TypeEnv9free_vars
FN:126,_RNvXs_NtNtCs2RUqfoJCtLU_5ruchy9middleend11environmentNtB4_7TypeEnvNtNtCs66KPHxksi63_4core7default7Default7default
FN:70,_RINvMNtNtCs2RUqfoJCtLU_5ruchy9middleend11environmentNtB3_7TypeEnv4bindNtNtCs8Ty2CzGA6U3_5alloc6string6StringEB7_
FN:70,_RINvMNtNtCs2RUqfoJCtLU_5ruchy9middleend11environmentNtB3_7TypeEnv4bindRNtNtCs8Ty2CzGA6U3_5alloc6string6StringEB7_
FN:70,_RINvMNtNtCs2RUqfoJCtLU_5ruchy9middleend11environmentNtB3_7TypeEnv4bindReEB7_
FN:82,_RINvMNtNtCs2RUqfoJCtLU_5ruchy9middleend11environmentNtB3_7TypeEnv6extendNtNtCs8Ty2CzGA6U3_5alloc6string6StringEB7_
FN:82,_RINvMNtNtCs2RUqfoJCtLU_5ruchy9middleend11environmentNtB3_7TypeEnv6extendRNtNtCs8Ty2CzGA6U3_5alloc6string6StringEB7_
FN:82,_RINvMNtNtCs2RUqfoJCtLU_5ruchy9middleend11environmentNtB3_7TypeEnv6extendReEB7_
FNDA:0,_RNCNvMNtNtCs2RUqfoJCtLU_5ruchy9middleend11environmentNtB4_7TypeEnv10generalize0B8_
FNDA:0,_RNvMNtNtCs2RUqfoJCtLU_5ruchy9middleend11environmentNtB2_7TypeEnv10generalize
FNDA:0,_RNvMNtNtCs2RUqfoJCtLU_5ruchy9middleend11environmentNtB2_7TypeEnv11instantiate
FNDA:0,_RNvMNtNtCs2RUqfoJCtLU_5ruchy9middleend11environmentNtB2_7TypeEnv3new
FNDA:0,_RNvMNtNtCs2RUqfoJCtLU_5ruchy9middleend11environmentNtB2_7TypeEnv6lookup
FNDA:0,_RNvMNtNtCs2RUqfoJCtLU_5ruchy9middleend11environmentNtB2_7TypeEnv8standard
FNDA:0,_RNvMNtNtCs2RUqfoJCtLU_5ruchy9middleend11environmentNtB2_7TypeEnv9free_vars
FNDA:0,_RNvXs_NtNtCs2RUqfoJCtLU_5ruchy9middleend11environmentNtB4_7TypeEnvNtNtCs66KPHxksi63_4core7default7Default7default
FNDA:0,_RINvMNtNtCs2RUqfoJCtLU_5ruchy9middleend11environmentNtB3_7TypeEnv4bindNtNtCs8Ty2CzGA6U3_5alloc6string6StringEB7_
FNDA:0,_RINvMNtNtCs2RUqfoJCtLU_5ruchy9middleend11environmentNtB3_7TypeEnv4bindRNtNtCs8Ty2CzGA6U3_5alloc6string6StringEB7_
FNDA:0,_RINvMNtNtCs2RUqfoJCtLU_5ruchy9middleend11environmentNtB3_7TypeEnv4bindReEB7_
FNDA:0,_RINvMNtNtCs2RUqfoJCtLU_5ruchy9middleend11environmentNtB3_7TypeEnv6extendNtNtCs8Ty2CzGA6U3_5alloc6string6StringEB7_
FNDA:0,_RINvMNtNtCs2RUqfoJCtLU_5ruchy9middleend11environmentNtB3_7TypeEnv6extendRNtNtCs8Ty2CzGA6U3_5alloc6string6StringEB7_
FNDA:0,_RINvMNtNtCs2RUqfoJCtLU_5ruchy9middleend11environmentNtB3_7TypeEnv6extendReEB7_
FNF:10
FNH:0
DA:14,0
DA:15,0
DA:16,0
DA:17,0
DA:18,0
DA:22,0
DA:23,0
DA:26,0
DA:28,0
DA:29,0
DA:30,0
DA:31,0
DA:32,0
DA:33,0
DA:34,0
DA:38,0
DA:40,0
DA:41,0
DA:42,0
DA:43,0
DA:46,0
DA:48,0
DA:49,0
DA:50,0
DA:51,0
DA:55,0
DA:57,0
DA:58,0
DA:59,0
DA:60,0
DA:61,0
DA:62,0
DA:63,0
DA:66,0
DA:67,0
DA:70,0
DA:71,0
DA:72,0
DA:76,0
DA:77,0
DA:78,0
DA:82,0
DA:83,0
DA:84,0
DA:85,0
DA:86,0
DA:90,0
DA:91,0
DA:92,0
DA:94,0
DA:95,0
DA:96,0
DA:97,0
DA:98,0
DA:101,0
DA:102,0
DA:106,0
DA:107,0
DA:108,0
DA:111,0
DA:112,0
DA:113,0
DA:114,0
DA:116,0
DA:117,0
DA:120,0
DA:121,0
DA:122,0
DA:126,0
DA:127,0
DA:128,0
BRF:0
BRH:0
LF:72
LH:0
end_of_record
SF:/home/noah/src/ruchy/src/middleend/infer.rs
FN:675,_RNCNvMNtNtCs2RUqfoJCtLU_5ruchy9middleend5inferNtB4_16InferenceContext22infer_column_selection0B8_
FN:1628,_RNCNvMNtNtCs2RUqfoJCtLU_5ruchy9middleend5inferNtB4_16InferenceContext25infer_dataframe_operation0B8_
FN:495,_RNvMNtNtCs2RUqfoJCtLU_5ruchy9middleend5inferNtB2_16InferenceContext10infer_call
FN:202,_RNvMNtNtCs2RUqfoJCtLU_5ruchy9middleend5inferNtB2_16InferenceContext10infer_expr
FN:752,_RNvMNtNtCs2RUqfoJCtLU_5ruchy9middleend5inferNtB2_16InferenceContext10infer_list
FN:1002,_RNvMNtNtCs2RUqfoJCtLU_5ruchy9middleend5inferNtB2_16InferenceContext10infer_loop
FN:1561,_RNvMNtNtCs2RUqfoJCtLU_5ruchy9middleend5inferNtB2_16InferenceContext10infer_send
FN:350,_RNvMNtNtCs2RUqfoJCtLU_5ruchy9middleend5inferNtB2_16InferenceContext11infer_await
FN:739,_RNvMNtNtCs2RUqfoJCtLU_5ruchy9middleend5inferNtB2_16InferenceContext11infer_block
FN:513,_RNvMNtNtCs2RUqfoJCtLU_5ruchy9middleend5inferNtB2_16InferenceContext11infer_macro
FN:806,_RNvMNtNtCs2RUqfoJCtLU_5ruchy9middleend5inferNtB2_16InferenceContext11infer_match
FN:1011,_RNvMNtNtCs2RUqfoJCtLU_5ruchy9middleend5inferNtB2_16InferenceContext11infer_range
FN:1554,_RNvMNtNtCs2RUqfoJCtLU_5ruchy9middleend5inferNtB2_16InferenceContext11infer_slice
FN:337,_RNvMNtNtCs2RUqfoJCtLU_5ruchy9middleend5inferNtB2_16InferenceContext11infer_throw
FN:312,_RNvMNtNtCs2RUqfoJCtLU_5ruchy9middleend5inferNtB2_16InferenceContext11infer_unary
FN:989,_RNvMNtNtCs2RUqfoJCtLU_5ruchy9middleend5inferNtB2_16InferenceContext11infer_while
FN:1046,_RNvMNtNtCs2RUqfoJCtLU_5ruchy9middleend5inferNtB2_16InferenceContext12infer_assign
FN:256,_RNvMNtNtCs2RUqfoJCtLU_5ruchy9middleend5inferNtB2_16InferenceContext12infer_binary
FN:461,_RNvMNtNtCs2RUqfoJCtLU_5ruchy9middleend5inferNtB2_16InferenceContext12infer_lambda
FN:238,_RNvMNtNtCs2RUqfoJCtLU_5ruchy9middleend5inferNtB2_16InferenceContext13infer_literal
FN:837,_RNvMNtNtCs2RUqfoJCtLU_5ruchy9middleend5inferNtB2_16InferenceContext13infer_pattern
FN:413,_RNvMNtNtCs2RUqfoJCtLU_5ruchy9middleend5inferNtB2_16InferenceContext14infer_function
FN:1023,_RNvMNtNtCs2RUqfoJCtLU_5ruchy9middleend5inferNtB2_16InferenceContext14infer_pipeline
FN:1582,_RNvMNtNtCs2RUqfoJCtLU_5ruchy9middleend5inferNtB2_16InferenceContext15infer_dataframe
FN:1492,_RNvMNtNtCs2RUqfoJCtLU_5ruchy9middleend5inferNtB2_16InferenceContext15infer_result_ok
FN:249,_RNvMNtNtCs2RUqfoJCtLU_5ruchy9middleend5inferNtB2_16InferenceContext16infer_identifier
FN:1328,_RNvMNtNtCs2RUqfoJCtLU_5ruchy9middleend5inferNtB2_16InferenceContext16infer_other_expr
FN:1498,_RNvMNtNtCs2RUqfoJCtLU_5ruchy9middleend5inferNtB2_16InferenceContext16infer_result_err
FN:725,_RNvMNtNtCs2RUqfoJCtLU_5ruchy9middleend5inferNtB2_16InferenceContext16validate_no_args
FN:1665,_RNvMNtNtCs2RUqfoJCtLU_5ruchy9middleend5inferNtB2_16InferenceContext17infer_async_block
FN:582,_RNvMNtNtCs2RUqfoJCtLU_5ruchy9middleend5inferNtB2_16InferenceContext17infer_list_method
FN:540,_RNvMNtNtCs2RUqfoJCtLU_5ruchy9middleend5inferNtB2_16InferenceContext17infer_method_call
FN:101,_RNvMNtNtCs2RUqfoJCtLU_5ruchy9middleend5inferNtB2_16InferenceContext17solve_constraints
FN:1521,_RNvMNtNtCs2RUqfoJCtLU_5ruchy9middleend5inferNtB2_16InferenceContext18infer_field_access
FN:1526,_RNvMNtNtCs2RUqfoJCtLU_5ruchy9middleend5inferNtB2_16InferenceContext18infer_index_access
FN:1287,_RNvMNtNtCs2RUqfoJCtLU_5ruchy9middleend5inferNtB2_16InferenceContext19infer_function_expr
FN:624,_RNvMNtNtCs2RUqfoJCtLU_5ruchy9middleend5inferNtB2_16InferenceContext19infer_string_method
FN:732,_RNvMNtNtCs2RUqfoJCtLU_5ruchy9middleend5inferNtB2_16InferenceContext19validate_single_arg
FN:1081,_RNvMNtNtCs2RUqfoJCtLU_5ruchy9middleend5inferNtB2_16InferenceContext20infer_binary_op_type
FN:687,_RNvMNtNtCs2RUqfoJCtLU_5ruchy9middleend5inferNtB2_16InferenceContext20infer_generic_method
FN:1504,_RNvMNtNtCs2RUqfoJCtLU_5ruchy9middleend5inferNtB2_16InferenceContext20infer_object_literal
FN:1313,_RNvMNtNtCs2RUqfoJCtLU_5ruchy9middleend5inferNtB2_16InferenceContext20infer_operation_expr
FN:1460,_RNvMNtNtCs2RUqfoJCtLU_5ruchy9middleend5inferNtB2_16InferenceContext20infer_remaining_expr
FN:564,_RNvMNtNtCs2RUqfoJCtLU_5ruchy9middleend5inferNtB2_16InferenceContext21add_method_constraint
FN:1298,_RNvMNtNtCs2RUqfoJCtLU_5ruchy9middleend5inferNtB2_16InferenceContext21infer_collection_expr
FN:1060,_RNvMNtNtCs2RUqfoJCtLU_5ruchy9middleend5inferNtB2_16InferenceContext21infer_compound_assign
FN:88,_RNvMNtNtCs2RUqfoJCtLU_5ruchy9middleend5inferNtB2_16InferenceContext21solve_all_constraints
FN:112,_RNvMNtNtCs2RUqfoJCtLU_5ruchy9middleend5inferNtB2_16InferenceContext21solve_type_constraint
FN:667,_RNvMNtNtCs2RUqfoJCtLU_5ruchy9middleend5inferNtB2_16InferenceContext22infer_column_selection
FN:644,_RNvMNtNtCs2RUqfoJCtLU_5ruchy9middleend5inferNtB2_16InferenceContext22infer_dataframe_method
FN:1431,_RNvMNtNtCs2RUqfoJCtLU_5ruchy9middleend5inferNtB2_16InferenceContext22infer_other_actor_expr
FN:1418,_RNvMNtNtCs2RUqfoJCtLU_5ruchy9middleend5inferNtB2_16InferenceContext22infer_other_async_expr
FN:1162,_RNvMNtNtCs2RUqfoJCtLU_5ruchy9middleend5inferNtB2_16InferenceContext23ast_type_to_mono_static
FN:1258,_RNvMNtNtCs2RUqfoJCtLU_5ruchy9middleend5inferNtB2_16InferenceContext23infer_control_flow_expr
FN:1403,_RNvMNtNtCs2RUqfoJCtLU_5ruchy9middleend5inferNtB2_16InferenceContext23infer_other_option_expr
FN:769,_RNvMNtNtCs2RUqfoJCtLU_5ruchy9middleend5inferNtB2_16InferenceContext24infer_list_comprehension
FN:1607,_RNvMNtNtCs2RUqfoJCtLU_5ruchy9middleend5inferNtB2_16InferenceContext25infer_dataframe_operation
FN:1148,_RNvMNtNtCs2RUqfoJCtLU_5ruchy9middleend5inferNtB2_16InferenceContext25infer_increment_decrement
FN:706,_RNvMNtNtCs2RUqfoJCtLU_5ruchy9middleend5inferNtB2_16InferenceContext26build_method_function_type
FN:1480,_RNvMNtNtCs2RUqfoJCtLU_5ruchy9middleend5inferNtB2_16InferenceContext26infer_string_interpolation
FN:1445,_RNvMNtNtCs2RUqfoJCtLU_5ruchy9middleend5inferNtB2_16InferenceContext27infer_other_assignment_expr
FN:1386,_RNvMNtNtCs2RUqfoJCtLU_5ruchy9middleend5inferNtB2_16InferenceContext27infer_other_definition_expr
FN:157,_RNvMNtNtCs2RUqfoJCtLU_5ruchy9middleend5inferNtB2_16InferenceContext28check_method_call_constraint
FN:1381,_RNvMNtNtCs2RUqfoJCtLU_5ruchy9middleend5inferNtB2_16InferenceContext29infer_other_control_flow_expr
FN:1391,_RNvMNtNtCs2RUqfoJCtLU_5ruchy9middleend5inferNtB2_16InferenceContext31infer_other_literal_access_expr
FN:40,_RNvMNtNtCs2RUqfoJCtLU_5ruchy9middleend5inferNtB2_16InferenceContext3new
FN:1248,_RNvMNtNtCs2RUqfoJCtLU_5ruchy9middleend5inferNtB2_16InferenceContext5apply
FN:68,_RNvMNtNtCs2RUqfoJCtLU_5ruchy9middleend5inferNtB2_16InferenceContext5infer
FN:1242,_RNvMNtNtCs2RUqfoJCtLU_5ruchy9middleend5inferNtB2_16InferenceContext5solve
FN:367,_RNvMNtNtCs2RUqfoJCtLU_5ruchy9middleend5inferNtB2_16InferenceContext8infer_if
FN:52,_RNvMNtNtCs2RUqfoJCtLU_5ruchy9middleend5inferNtB2_16InferenceContext8with_env
FN:1567,_RNvMNtNtCs2RUqfoJCtLU_5ruchy9middleend5inferNtB2_16InferenceContext9infer_ask
FN:971,_RNvMNtNtCs2RUqfoJCtLU_5ruchy9middleend5inferNtB2_16InferenceContext9infer_for
FN:391,_RNvMNtNtCs2RUqfoJCtLU_5ruchy9middleend5inferNtB2_16InferenceContext9infer_let
FN:1675,_RNvXs_NtNtCs2RUqfoJCtLU_5ruchy9middleend5inferNtB4_16InferenceContextNtNtCs66KPHxksi63_4core7default7Default7default
FN:570,_RNCNvMNtNtCs2RUqfoJCtLU_5ruchy9middleend5inferNtB4_16InferenceContext21add_method_constraint0B8_
FN:1302,_RNCNvMNtNtCs2RUqfoJCtLU_5ruchy9middleend5inferNtB4_16InferenceContext21infer_collection_expr0B8_
FN:488,_RNCNvMNtNtCs2RUqfoJCtLU_5ruchy9middleend5inferNtB4_16InferenceContext12infer_lambda0B8_
FN:443,_RNCNvMNtNtCs2RUqfoJCtLU_5ruchy9middleend5inferNtB4_16InferenceContext14infer_function0B8_
FN:1208,_RNCNvMNtNtCs2RUqfoJCtLU_5ruchy9middleend5inferNtB4_16InferenceContext23ast_type_to_mono_static0B8_
FNDA:0,_RNCNvMNtNtCs2RUqfoJCtLU_5ruchy9middleend5inferNtB4_16InferenceContext22infer_column_selection0B8_
FNDA:0,_RNCNvMNtNtCs2RUqfoJCtLU_5ruchy9middleend5inferNtB4_16InferenceContext25infer_dataframe_operation0B8_
FNDA:0,_RNvMNtNtCs2RUqfoJCtLU_5ruchy9middleend5inferNtB2_16InferenceContext10infer_call
FNDA:0,_RNvMNtNtCs2RUqfoJCtLU_5ruchy9middleend5inferNtB2_16InferenceContext10infer_expr
FNDA:0,_RNvMNtNtCs2RUqfoJCtLU_5ruchy9middleend5inferNtB2_16InferenceContext10infer_list
FNDA:0,_RNvMNtNtCs2RUqfoJCtLU_5ruchy9middleend5inferNtB2_16InferenceContext10infer_loop
FNDA:0,_RNvMNtNtCs2RUqfoJCtLU_5ruchy9middleend5inferNtB2_16InferenceContext10infer_send
FNDA:0,_RNvMNtNtCs2RUqfoJCtLU_5ruchy9middleend5inferNtB2_16InferenceContext11infer_await
FNDA:0,_RNvMNtNtCs2RUqfoJCtLU_5ruchy9middleend5inferNtB2_16InferenceContext11infer_block
FNDA:0,_RNvMNtNtCs2RUqfoJCtLU_5ruchy9middleend5inferNtB2_16InferenceContext11infer_macro
FNDA:0,_RNvMNtNtCs2RUqfoJCtLU_5ruchy9middleend5inferNtB2_16InferenceContext11infer_match
FNDA:0,_RNvMNtNtCs2RUqfoJCtLU_5ruchy9middleend5inferNtB2_16InferenceContext11infer_range
FNDA:0,_RNvMNtNtCs2RUqfoJCtLU_5ruchy9middleend5inferNtB2_16InferenceContext11infer_slice
FNDA:0,_RNvMNtNtCs2RUqfoJCtLU_5ruchy9middleend5inferNtB2_16InferenceContext11infer_throw
FNDA:0,_RNvMNtNtCs2RUqfoJCtLU_5ruchy9middleend5inferNtB2_16InferenceContext11infer_unary
FNDA:0,_RNvMNtNtCs2RUqfoJCtLU_5ruchy9middleend5inferNtB2_16InferenceContext11infer_while
FNDA:0,_RNvMNtNtCs2RUqfoJCtLU_5ruchy9middleend5inferNtB2_16InferenceContext12infer_assign
FNDA:0,_RNvMNtNtCs2RUqfoJCtLU_5ruchy9middleend5inferNtB2_16InferenceContext12infer_binary
FNDA:0,_RNvMNtNtCs2RUqfoJCtLU_5ruchy9middleend5inferNtB2_16InferenceContext12infer_lambda
FNDA:0,_RNvMNtNtCs2RUqfoJCtLU_5ruchy9middleend5inferNtB2_16InferenceContext13infer_literal
FNDA:0,_RNvMNtNtCs2RUqfoJCtLU_5ruchy9middleend5inferNtB2_16InferenceContext13infer_pattern
FNDA:0,_RNvMNtNtCs2RUqfoJCtLU_5ruchy9middleend5inferNtB2_16InferenceContext14infer_function
FNDA:0,_RNvMNtNtCs2RUqfoJCtLU_5ruchy9middleend5inferNtB2_16InferenceContext14infer_pipeline
FNDA:0,_RNvMNtNtCs2RUqfoJCtLU_5ruchy9middleend5inferNtB2_16InferenceContext15infer_dataframe
FNDA:0,_RNvMNtNtCs2RUqfoJCtLU_5ruchy9middleend5inferNtB2_16InferenceContext15infer_result_ok
FNDA:0,_RNvMNtNtCs2RUqfoJCtLU_5ruchy9middleend5inferNtB2_16InferenceContext16infer_identifier
FNDA:0,_RNvMNtNtCs2RUqfoJCtLU_5ruchy9middleend5inferNtB2_16InferenceContext16infer_other_expr
FNDA:0,_RNvMNtNtCs2RUqfoJCtLU_5ruchy9middleend5inferNtB2_16InferenceContext16infer_result_err
FNDA:0,_RNvMNtNtCs2RUqfoJCtLU_5ruchy9middleend5inferNtB2_16InferenceContext16validate_no_args
FNDA:0,_RNvMNtNtCs2RUqfoJCtLU_5ruchy9middleend5inferNtB2_16InferenceContext17infer_async_block
FNDA:0,_RNvMNtNtCs2RUqfoJCtLU_5ruchy9middleend5inferNtB2_16InferenceContext17infer_list_method
FNDA:0,_RNvMNtNtCs2RUqfoJCtLU_5ruchy9middleend5inferNtB2_16InferenceContext17infer_method_call
FNDA:0,_RNvMNtNtCs2RUqfoJCtLU_5ruchy9middleend5inferNtB2_16InferenceContext17solve_constraints
FNDA:0,_RNvMNtNtCs2RUqfoJCtLU_5ruchy9middleend5inferNtB2_16InferenceContext18infer_field_access
FNDA:0,_RNvMNtNtCs2RUqfoJCtLU_5ruchy9middleend5inferNtB2_16InferenceContext18infer_index_access
FNDA:0,_RNvMNtNtCs2RUqfoJCtLU_5ruchy9middleend5inferNtB2_16InferenceContext19infer_function_expr
FNDA:0,_RNvMNtNtCs2RUqfoJCtLU_5ruchy9middleend5inferNtB2_16InferenceContext19infer_string_method
FNDA:0,_RNvMNtNtCs2RUqfoJCtLU_5ruchy9middleend5inferNtB2_16InferenceContext19validate_single_arg
FNDA:0,_RNvMNtNtCs2RUqfoJCtLU_5ruchy9middleend5inferNtB2_16InferenceContext20infer_binary_op_type
FNDA:0,_RNvMNtNtCs2RUqfoJCtLU_5ruchy9middleend5inferNtB2_16InferenceContext20infer_generic_method
FNDA:0,_RNvMNtNtCs2RUqfoJCtLU_5ruchy9middleend5inferNtB2_16InferenceContext20infer_object_literal
FNDA:0,_RNvMNtNtCs2RUqfoJCtLU_5ruchy9middleend5inferNtB2_16InferenceContext20infer_operation_expr
FNDA:0,_RNvMNtNtCs2RUqfoJCtLU_5ruchy9middleend5inferNtB2_16InferenceContext20infer_remaining_expr
FNDA:0,_RNvMNtNtCs2RUqfoJCtLU_5ruchy9middleend5inferNtB2_16InferenceContext21add_method_constraint
FNDA:0,_RNvMNtNtCs2RUqfoJCtLU_5ruchy9middleend5inferNtB2_16InferenceContext21infer_collection_expr
FNDA:0,_RNvMNtNtCs2RUqfoJCtLU_5ruchy9middleend5inferNtB2_16InferenceContext21infer_compound_assign
FNDA:0,_RNvMNtNtCs2RUqfoJCtLU_5ruchy9middleend5inferNtB2_16InferenceContext21solve_all_constraints
FNDA:0,_RNvMNtNtCs2RUqfoJCtLU_5ruchy9middleend5inferNtB2_16InferenceContext21solve_type_constraint
FNDA:0,_RNvMNtNtCs2RUqfoJCtLU_5ruchy9middleend5inferNtB2_16InferenceContext22infer_column_selection
FNDA:0,_RNvMNtNtCs2RUqfoJCtLU_5ruchy9middleend5inferNtB2_16InferenceContext22infer_dataframe_method
FNDA:0,_RNvMNtNtCs2RUqfoJCtLU_5ruchy9middleend5inferNtB2_16InferenceContext22infer_other_actor_expr
FNDA:0,_RNvMNtNtCs2RUqfoJCtLU_5ruchy9middleend5inferNtB2_16InferenceContext22infer_other_async_expr
FNDA:0,_RNvMNtNtCs2RUqfoJCtLU_5ruchy9middleend5inferNtB2_16InferenceContext23ast_type_to_mono_static
FNDA:0,_RNvMNtNtCs2RUqfoJCtLU_5ruchy9middleend5inferNtB2_16InferenceContext23infer_control_flow_expr
FNDA:0,_RNvMNtNtCs2RUqfoJCtLU_5ruchy9middleend5inferNtB2_16InferenceContext23infer_other_option_expr
FNDA:0,_RNvMNtNtCs2RUqfoJCtLU_5ruchy9middleend5inferNtB2_16InferenceContext24infer_list_comprehension
FNDA:0,_RNvMNtNtCs2RUqfoJCtLU_5ruchy9middleend5inferNtB2_16InferenceContext25infer_dataframe_operation
FNDA:0,_RNvMNtNtCs2RUqfoJCtLU_5ruchy9middleend5inferNtB2_16InferenceContext25infer_increment_decrement
FNDA:0,_RNvMNtNtCs2RUqfoJCtLU_5ruchy9middleend5inferNtB2_16InferenceContext26build_method_function_type
FNDA:0,_RNvMNtNtCs2RUqfoJCtLU_5ruchy9middleend5inferNtB2_16InferenceContext26infer_string_interpolation
FNDA:0,_RNvMNtNtCs2RUqfoJCtLU_5ruchy9middleend5inferNtB2_16InferenceContext27infer_other_assignment_expr
FNDA:0,_RNvMNtNtCs2RUqfoJCtLU_5ruchy9middleend5inferNtB2_16InferenceContext27infer_other_definition_expr
FNDA:0,_RNvMNtNtCs2RUqfoJCtLU_5ruchy9middleend5inferNtB2_16InferenceContext28check_method_call_constraint
FNDA:0,_RNvMNtNtCs2RUqfoJCtLU_5ruchy9middleend5inferNtB2_16InferenceContext29infer_other_control_flow_expr
FNDA:0,_RNvMNtNtCs2RUqfoJCtLU_5ruchy9middleend5inferNtB2_16InferenceContext31infer_other_literal_access_expr
FNDA:0,_RNvMNtNtCs2RUqfoJCtLU_5ruchy9middleend5inferNtB2_16InferenceContext3new
FNDA:0,_RNvMNtNtCs2RUqfoJCtLU_5ruchy9middleend5inferNtB2_16InferenceContext5apply
FNDA:0,_RNvMNtNtCs2RUqfoJCtLU_5ruchy9middleend5inferNtB2_16InferenceContext5infer
FNDA:0,_RNvMNtNtCs2RUqfoJCtLU_5ruchy9middleend5inferNtB2_16InferenceContext5solve
FNDA:0,_RNvMNtNtCs2RUqfoJCtLU_5ruchy9middleend5inferNtB2_16InferenceContext8infer_if
FNDA:0,_RNvMNtNtCs2RUqfoJCtLU_5ruchy9middleend5inferNtB2_16InferenceContext8with_env
FNDA:0,_RNvMNtNtCs2RUqfoJCtLU_5ruchy9middleend5inferNtB2_16InferenceContext9infer_ask
FNDA:0,_RNvMNtNtCs2RUqfoJCtLU_5ruchy9middleend5inferNtB2_16InferenceContext9infer_for
FNDA:0,_RNvMNtNtCs2RUqfoJCtLU_5ruchy9middleend5inferNtB2_16InferenceContext9infer_let
FNDA:0,_RNvXs_NtNtCs2RUqfoJCtLU_5ruchy9middleend5inferNtB4_16InferenceContextNtNtCs66KPHxksi63_4core7default7Default7default
FNDA:0,_RNCNvMNtNtCs2RUqfoJCtLU_5ruchy9middleend5inferNtB4_16InferenceContext21add_method_constraint0B8_
FNDA:0,_RNCNvMNtNtCs2RUqfoJCtLU_5ruchy9middleend5inferNtB4_16InferenceContext21infer_collection_expr0B8_
FNDA:0,_RNCNvMNtNtCs2RUqfoJCtLU_5ruchy9middleend5inferNtB4_16InferenceContext12infer_lambda0B8_
FNDA:0,_RNCNvMNtNtCs2RUqfoJCtLU_5ruchy9middleend5inferNtB4_16InferenceContext14infer_function0B8_
FNDA:0,_RNCNvMNtNtCs2RUqfoJCtLU_5ruchy9middleend5inferNtB4_16InferenceContext23ast_type_to_mono_static0B8_
FNF:80
FNH:0
DA:40,0
DA:41,0
DA:42,0
DA:43,0
DA:44,0
DA:45,0
DA:46,0
DA:47,0
DA:48,0
DA:49,0
DA:52,0
DA:53,0
DA:54,0
DA:55,0
DA:56,0
DA:57,0
DA:58,0
DA:59,0
DA:60,0
DA:61,0
DA:68,0
DA:70,0
DA:71,0
DA:72,0
DA:74,0
DA:75,0
DA:76,0
DA:78,0
DA:81,0
DA:84,0
DA:85,0
DA:88,0
DA:90,0
DA:93,0
DA:94,0
DA:97,0
DA:98,0
DA:101,0
DA:102,0
DA:103,0
DA:104,0
DA:105,0
DA:106,0
DA:107,0
DA:108,0
DA:109,0
DA:112,0
DA:113,0
DA:114,0
DA:115,0
DA:117,0
DA:119,0
DA:120,0
DA:122,0
DA:123,0
DA:124,0
DA:125,0
DA:127,0
DA:128,0
DA:129,0
DA:133,0
DA:135,0
DA:137,0
DA:139,0
DA:141,0
DA:142,0
DA:143,0
DA:147,0
DA:149,0
DA:153,0
DA:154,0
DA:157,0
DA:158,0
DA:159,0
DA:160,0
DA:161,0
DA:162,0
DA:163,0
DA:165,0
DA:166,0
DA:167,0
DA:170,0
DA:171,0
DA:172,0
DA:175,0
DA:176,0
DA:177,0
DA:180,0
DA:181,0
DA:184,0
DA:190,0
DA:193,0
DA:202,0
DA:203,0
DA:205,0
DA:206,0
DA:207,0
DA:211,0
DA:213,0
DA:215,0
DA:220,0
DA:225,0
DA:230,0
DA:234,0
DA:236,0
DA:238,0
DA:239,0
DA:240,0
DA:241,0
DA:242,0
DA:243,0
DA:244,0
DA:245,0
DA:247,0
DA:249,0
DA:250,0
DA:251,0
DA:252,0
DA:254,0
DA:256,0
DA:257,0
DA:258,0
DA:260,0
DA:268,0
DA:270,0
DA:271,0
DA:274,0
DA:275,0
DA:276,0
DA:286,0
DA:287,0
DA:291,0
DA:292,0
DA:293,0
DA:298,0
DA:305,0
DA:306,0
DA:307,0
DA:310,0
DA:312,0
DA:313,0
DA:315,0
DA:317,0
DA:318,0
DA:322,0
DA:323,0
DA:326,0
DA:327,0
DA:331,0
DA:334,0
DA:337,0
DA:339,0
DA:347,0
DA:348,0
DA:350,0
DA:352,0
DA:356,0
DA:357,0
DA:359,0
DA:360,0
DA:361,0
DA:364,0
DA:365,0
DA:367,0
DA:368,0
DA:369,0
DA:370,0
DA:371,0
DA:372,0
DA:374,0
DA:375,0
DA:377,0
DA:379,0
DA:380,0
DA:382,0
DA:383,0
DA:386,0
DA:387,0
DA:389,0
DA:391,0
DA:392,0
DA:393,0
DA:394,0
DA:395,0
DA:396,0
DA:397,0
DA:399,0
DA:402,0
DA:405,0
DA:406,0
DA:407,0
DA:408,0
DA:410,0
DA:411,0
DA:413,0
DA:414,0
DA:415,0
DA:416,0
DA:417,0
DA:418,0
DA:419,0
DA:420,0
DA:422,0
DA:423,0
DA:425,0
DA:426,0
DA:427,0
DA:429,0
DA:432,0
DA:434,0
DA:435,0
DA:439,0
DA:440,0
DA:441,0
DA:442,0
DA:443,0
DA:444,0
DA:445,0
DA:446,0
DA:449,0
DA:450,0
DA:452,0
DA:454,0
DA:458,0
DA:459,0
DA:461,0
DA:462,0
DA:465,0
DA:466,0
DA:467,0
DA:468,0
DA:470,0
DA:474,0
DA:477,0
DA:478,0
DA:482,0
DA:485,0
DA:488,0
DA:489,0
DA:490,0
DA:492,0
DA:493,0
DA:495,0
DA:496,0
DA:499,0
DA:500,0
DA:502,0
DA:503,0
DA:504,0
DA:508,0
DA:510,0
DA:511,0
DA:513,0
DA:515,0
DA:516,0
DA:520,0
DA:521,0
DA:522,0
DA:524,0
DA:526,0
DA:529,0
DA:530,0
DA:533,0
DA:535,0
DA:540,0
DA:541,0
DA:542,0
DA:543,0
DA:544,0
DA:545,0
DA:546,0
DA:547,0
DA:550,0
DA:551,0
DA:552,0
DA:554,0
DA:556,0
DA:557,0
DA:559,0
DA:561,0
DA:564,0
DA:565,0
DA:566,0
DA:567,0
DA:568,0
DA:569,0
DA:570,0
DA:571,0
DA:573,0
DA:574,0
DA:575,0
DA:576,0
DA:577,0
DA:578,0
DA:579,0
DA:582,0
DA:583,0
DA:584,0
DA:585,0
DA:586,0
DA:587,0
DA:588,0
DA:589,0
DA:590,0
DA:591,0
DA:592,0
DA:594,0
DA:595,0
DA:596,0
DA:597,0
DA:598,0
DA:600,0
DA:601,0
DA:602,0
DA:604,0
DA:605,0
DA:606,0
DA:608,0
DA:609,0
DA:610,0
DA:612,0
DA:613,0
DA:614,0
DA:616,0
DA:619,0
DA:621,0
DA:624,0
DA:625,0
DA:626,0
DA:627,0
DA:628,0
DA:629,0
DA:630,0
DA:631,0
DA:632,0
DA:633,0
DA:635,0
DA:636,0
DA:637,0
DA:639,0
DA:641,0
DA:644,0
DA:645,0
DA:646,0
DA:647,0
DA:648,0
DA:649,0
DA:650,0
DA:651,0
DA:652,0
DA:653,0
DA:654,0
DA:655,0
DA:657,0
DA:660,0
DA:661,0
DA:662,0
DA:664,0
DA:667,0
DA:668,0
DA:669,0
DA:670,0
DA:671,0
DA:672,0
DA:673,0
DA:674,0
DA:675,0
DA:676,0
DA:677,0
DA:678,0
DA:679,0
DA:680,0
DA:682,0
DA:684,0
DA:687,0
DA:688,0
DA:689,0
DA:690,0
DA:691,0
DA:692,0
DA:693,0
DA:694,0
DA:695,0
DA:696,0
DA:698,0
DA:699,0
DA:701,0
DA:703,0
DA:706,0
DA:707,0
DA:708,0
DA:709,0
DA:710,0
DA:711,0
DA:712,0
DA:714,0
DA:715,0
DA:716,0
DA:720,0
DA:721,0
DA:722,0
DA:725,0
DA:726,0
DA:727,0
DA:728,0
DA:729,0
DA:730,0
DA:732,0
DA:733,0
DA:734,0
DA:735,0
DA:736,0
DA:737,0
DA:739,0
DA:740,0
DA:741,0
DA:742,0
DA:744,0
DA:745,0
DA:746,0
DA:749,0
DA:750,0
DA:752,0
DA:753,0
DA:755,0
DA:756,0
DA:757,0
DA:760,0
DA:761,0
DA:762,0
DA:763,0
DA:766,0
DA:767,0
DA:769,0
DA:770,0
DA:771,0
DA:772,0
DA:773,0
DA:774,0
DA:775,0
DA:777,0
DA:778,0
DA:779,0
DA:780,0
DA:783,0
DA:784,0
DA:785,0
DA:786,0
DA:789,0
DA:790,0
DA:791,0
DA:792,0
DA:795,0
DA:798,0
DA:801,0
DA:802,0
DA:803,0
DA:804,0
DA:806,0
DA:807,0
DA:808,0
DA:809,0
DA:810,0
DA:811,0
DA:813,0
DA:814,0
DA:815,0
DA:818,0
DA:820,0
DA:822,0
DA:823,0
DA:828,0
DA:829,0
DA:831,0
DA:834,0
DA:835,0
DA:837,0
DA:838,0
DA:839,0
DA:840,0
DA:841,0
DA:842,0
DA:844,0
DA:846,0
DA:847,0
DA:849,0
DA:852,0
DA:854,0
DA:855,0
DA:856,0
DA:857,0
DA:859,0
DA:860,0
DA:862,0
DA:864,0
DA:866,0
DA:867,0
DA:870,0
DA:871,0
DA:872,0
DA:873,0
DA:874,0
DA:875,0
DA:878,0
DA:880,0
DA:881,0
DA:884,0
DA:885,0
DA:886,0
DA:887,0
DA:888,0
DA:891,0
DA:893,0
DA:894,0
DA:897,0
DA:898,0
DA:899,0
DA:900,0
DA:905,0
DA:906,0
DA:907,0
DA:909,0
DA:911,0
DA:912,0
DA:913,0
DA:914,0
DA:915,0
DA:917,0
DA:918,0
DA:920,0
DA:923,0
DA:924,0
DA:927,0
DA:928,0
DA:929,0
DA:930,0
DA:931,0
DA:933,0
DA:935,0
DA:937,0
DA:938,0
DA:939,0
DA:940,0
DA:943,0
DA:944,0
DA:946,0
DA:948,0
DA:949,0
DA:951,0
DA:955,0
DA:957,0
DA:960,0
DA:961,0
DA:963,0
DA:966,0
DA:969,0
DA:971,0
DA:972,0
DA:975,0
DA:976,0
DA:977,0
DA:980,0
DA:981,0
DA:982,0
DA:983,0
DA:986,0
DA:987,0
DA:989,0
DA:991,0
DA:992,0
DA:995,0
DA:996,0
DA:999,0
DA:1000,0
DA:1002,0
DA:1004,0
DA:1005,0
DA:1008,0
DA:1009,0
DA:1011,0
DA:1012,0
DA:1013,0
DA:1016,0
DA:1017,0
DA:1020,0
DA:1021,0
DA:1023,0
DA:1024,0
DA:1025,0
DA:1026,0
DA:1027,0
DA:1028,0
DA:1030,0
DA:1032,0
DA:1035,0
DA:1036,0
DA:1037,0
DA:1039,0
DA:1040,0
DA:1043,0
DA:1044,0
DA:1046,0
DA:1048,0
DA:1051,0
DA:1054,0
DA:1057,0
DA:1058,0
DA:1060,0
DA:1061,0
DA:1062,0
DA:1063,0
DA:1064,0
DA:1065,0
DA:1067,0
DA:1068,0
DA:1072,0
DA:1075,0
DA:1078,0
DA:1079,0
DA:1081,0
DA:1082,0
DA:1083,0
DA:1084,0
DA:1085,0
DA:1086,0
DA:1087,0
DA:1095,0
DA:1096,0
DA:1097,0
DA:1098,0
DA:1099,0
DA:1101,0
DA:1102,0
DA:1103,0
DA:1107,0
DA:1108,0
DA:1109,0
DA:1111,0
DA:1112,0
DA:1122,0
DA:1123,0
DA:1127,0
DA:1128,0
DA:1129,0
DA:1134,0
DA:1141,0
DA:1142,0
DA:1143,0
DA:1146,0
DA:1148,0
DA:1150,0
DA:1154,0
DA:1155,0
DA:1157,0
DA:1158,0
DA:1160,0
DA:1162,0
DA:1165,0
DA:1166,0
DA:1167,0
DA:1168,0
DA:1169,0
DA:1170,0
DA:1171,0
DA:1172,0
DA:1174,0
DA:1177,0
DA:1178,0
DA:1179,0
DA:1180,0
DA:1182,0
DA:1185,0
DA:1186,0
DA:1187,0
DA:1188,0
DA:1189,0
DA:1191,0
DA:1192,0
DA:1193,0
DA:1196,0
DA:1199,0
DA:1200,0
DA:1202,0
DA:1203,0
DA:1205,0
DA:1206,0
DA:1207,0
DA:1208,0
DA:1210,0
DA:1211,0
DA:1213,0
DA:1214,0
DA:1216,0
DA:1217,0
DA:1218,0
DA:1219,0
DA:1221,0
DA:1223,0
DA:1224,0
DA:1226,0
DA:1227,0
DA:1228,0
DA:1229,0
DA:1230,0
DA:1231,0
DA:1233,0
DA:1235,0
DA:1238,0
DA:1242,0
DA:1243,0
DA:1244,0
DA:1248,0
DA:1249,0
DA:1250,0
DA:1258,0
DA:1259,0
DA:1260,0
DA:1261,0
DA:1263,0
DA:1264,0
DA:1265,0
DA:1266,0
DA:1267,0
DA:1268,0
DA:1269,0
DA:1270,0
DA:1272,0
DA:1274,0
DA:1275,0
DA:1277,0
DA:1278,0
DA:1279,0
DA:1280,0
DA:1282,0
DA:1284,0
DA:1287,0
DA:1288,0
DA:1289,0
DA:1290,0
DA:1292,0
DA:1293,0
DA:1295,0
DA:1298,0
DA:1299,0
DA:1300,0
DA:1301,0
DA:1302,0
DA:1303,0
DA:1305,0
DA:1306,0
DA:1308,0
DA:1310,0
DA:1313,0
DA:1314,0
DA:1315,0
DA:1316,0
DA:1317,0
DA:1318,0
DA:1319,0
DA:1321,0
DA:1323,0
DA:1328,0
DA:1329,0
DA:1331,0
DA:1332,0
DA:1333,0
DA:1334,0
DA:1338,0
DA:1345,0
DA:1351,0
DA:1355,0
DA:1359,0
DA:1365,0
DA:1372,0
DA:1376,0
DA:1378,0
DA:1381,0
DA:1382,0
DA:1383,0
DA:1386,0
DA:1387,0
DA:1388,0
DA:1391,0
DA:1392,0
DA:1393,0
DA:1394,0
DA:1395,0
DA:1396,0
DA:1397,0
DA:1398,0
DA:1400,0
DA:1403,0
DA:1404,0
DA:1405,0
DA:1406,0
DA:1407,0
DA:1410,0
DA:1411,0
DA:1413,0
DA:1415,0
DA:1418,0
DA:1419,0
DA:1420,0
DA:1421,0
DA:1422,0
DA:1423,0
DA:1424,0
DA:1426,0
DA:1428,0
DA:1431,0
DA:1432,0
DA:1433,0
DA:1434,0
DA:1436,0
DA:1437,0
DA:1439,0
DA:1440,0
DA:1442,0
DA:1445,0
DA:1446,0
DA:1447,0
DA:1448,0
DA:1449,0
DA:1451,0
DA:1452,0
DA:1453,0
DA:1455,0
DA:1457,0
DA:1460,0
DA:1461,0
DA:1462,0
DA:1463,0
DA:1465,0
DA:1466,0
DA:1467,0
DA:1468,0
DA:1469,0
DA:1470,0
DA:1471,0
DA:1472,0
DA:1473,0
DA:1475,0
DA:1477,0
DA:1480,0
DA:1481,0
DA:1482,0
DA:1483,0
DA:1484,0
DA:1485,0
DA:1486,0
DA:1487,0
DA:1489,0
DA:1490,0
DA:1492,0
DA:1493,0
DA:1494,0
DA:1495,0
DA:1496,0
DA:1498,0
DA:1499,0
DA:1500,0
DA:1501,0
DA:1502,0
DA:1504,0
DA:1505,0
DA:1506,0
DA:1507,0
DA:1508,0
DA:1509,0
DA:1510,0
DA:1511,0
DA:1513,0
DA:1514,0
DA:1518,0
DA:1519,0
DA:1521,0
DA:1522,0
DA:1523,0
DA:1524,0
DA:1526,0
DA:1527,0
DA:1528,0
DA:1531,0
DA:1532,0
DA:1534,0
DA:1535,0
DA:1536,0
DA:1539,0
DA:1540,0
DA:1542,0
DA:1543,0
DA:1547,0
DA:1548,0
DA:1550,0
DA:1552,0
DA:1554,0
DA:1555,0
DA:1558,0
DA:1559,0
DA:1561,0
DA:1562,0
DA:1563,0
DA:1564,0
DA:1565,0
DA:1567,0
DA:1568,0
DA:1569,0
DA:1570,0
DA:1571,0
DA:1572,0
DA:1573,0
DA:1574,0
DA:1575,0
DA:1576,0
DA:1577,0
DA:1578,0
DA:1579,0
DA:1580,0
DA:1582,0
DA:1583,0
DA:1584,0
DA:1585,0
DA:1586,0
DA:1588,0
DA:1590,0
DA:1591,0
DA:1593,0
DA:1595,0
DA:1596,0
DA:1597,0
DA:1599,0
DA:1601,0
DA:1604,0
DA:1605,0
DA:1607,0
DA:1608,0
DA:1609,0
DA:1610,0
DA:1611,0
DA:1614,0
DA:1617,0
DA:1618,0
DA:1619,0
DA:1622,0
DA:1624,0
DA:1626,0
DA:1627,0
DA:1628,0
DA:1629,0
DA:1630,0
DA:1631,0
DA:1633,0
DA:1637,0
DA:1641,0
DA:1645,0
DA:1649,0
DA:1653,0
DA:1657,0
DA:1659,0
DA:1661,0
DA:1663,0
DA:1665,0
DA:1667,0
DA:1670,0
DA:1671,0
DA:1675,0
DA:1676,0
DA:1677,0
BRF:0
BRH:0
LF:975
LH:0
end_of_record
SF:/home/noah/src/ruchy/src/middleend/mir/builder.rs
FN:107,_RNCNvMNtNtNtCs2RUqfoJCtLU_5ruchy9middleend3mir7builderNtB4_10MirBuilder9block_mut0Ba_
FN:60,_RNvMNtNtNtCs2RUqfoJCtLU_5ruchy9middleend3mir7builderNtB2_10MirBuilder11alloc_local
FN:140,_RNvMNtNtNtCs2RUqfoJCtLU_5ruchy9middleend3mir7builderNtB2_10MirBuilder12storage_dead
FN:135,_RNvMNtNtNtCs2RUqfoJCtLU_5ruchy9middleend3mir7builderNtB2_10MirBuilder12storage_live
FN:111,_RNvMNtNtNtCs2RUqfoJCtLU_5ruchy9middleend3mir7builderNtB2_10MirBuilder14push_statement
FN:118,_RNvMNtNtNtCs2RUqfoJCtLU_5ruchy9middleend3mir7builderNtB2_10MirBuilder14set_terminator
FN:34,_RNvMNtNtNtCs2RUqfoJCtLU_5ruchy9middleend3mir7builderNtB2_10MirBuilder14start_function
FN:125,_RNvMNtNtNtCs2RUqfoJCtLU_5ruchy9middleend3mir7builderNtB2_10MirBuilder15finish_function
FN:24,_RNvMNtNtNtCs2RUqfoJCtLU_5ruchy9middleend3mir7builderNtB2_10MirBuilder3new
FN:145,_RNvMNtNtNtCs2RUqfoJCtLU_5ruchy9middleend3mir7builderNtB2_10MirBuilder4goto
FN:130,_RNvMNtNtNtCs2RUqfoJCtLU_5ruchy9middleend3mir7builderNtB2_10MirBuilder6assign
FN:150,_RNvMNtNtNtCs2RUqfoJCtLU_5ruchy9middleend3mir7builderNtB2_10MirBuilder6branch
FN:191,_RNvMNtNtNtCs2RUqfoJCtLU_5ruchy9middleend3mir7builderNtB2_10MirBuilder6switch
FN:168,_RNvMNtNtNtCs2RUqfoJCtLU_5ruchy9middleend3mir7builderNtB2_10MirBuilder7return_
FN:50,_RNvMNtNtNtCs2RUqfoJCtLU_5ruchy9middleend3mir7builderNtB2_10MirBuilder9add_param
FN:104,_RNvMNtNtNtCs2RUqfoJCtLU_5ruchy9middleend3mir7builderNtB2_10MirBuilder9block_mut
FN:173,_RNvMNtNtNtCs2RUqfoJCtLU_5ruchy9middleend3mir7builderNtB2_10MirBuilder9call_term
FN:83,_RNvMNtNtNtCs2RUqfoJCtLU_5ruchy9middleend3mir7builderNtB2_10MirBuilder9get_local
FN:88,_RNvMNtNtNtCs2RUqfoJCtLU_5ruchy9middleend3mir7builderNtB2_10MirBuilder9new_block
FN:231,_RNvMs_NtNtNtCs2RUqfoJCtLU_5ruchy9middleend3mir7builderNtB4_10MirBuilder4call
FN:244,_RNvMs_NtNtNtCs2RUqfoJCtLU_5ruchy9middleend3mir7builderNtB4_10MirBuilder4cast
FN:269,_RNvMs_NtNtNtCs2RUqfoJCtLU_5ruchy9middleend3mir7builderNtB4_10MirBuilder4copy
FN:257,_RNvMs_NtNtNtCs2RUqfoJCtLU_5ruchy9middleend3mir7builderNtB4_10MirBuilder4ref_
FN:263,_RNvMs_NtNtNtCs2RUqfoJCtLU_5ruchy9middleend3mir7builderNtB4_10MirBuilder5move_
FN:275,_RNvMs_NtNtNtCs2RUqfoJCtLU_5ruchy9middleend3mir7builderNtB4_10MirBuilder6const_
FN:225,_RNvMs_NtNtNtCs2RUqfoJCtLU_5ruchy9middleend3mir7builderNtB4_10MirBuilder8unary_op
FN:212,_RNvMs_NtNtNtCs2RUqfoJCtLU_5ruchy9middleend3mir7builderNtB4_10MirBuilder9binary_op
FN:282,_RNvXs0_NtNtNtCs2RUqfoJCtLU_5ruchy9middleend3mir7builderNtB5_10MirBuilderNtNtCs66KPHxksi63_4core7default7Default7default
FNDA:0,_RNCNvMNtNtNtCs2RUqfoJCtLU_5ruchy9middleend3mir7builderNtB4_10MirBuilder9block_mut0Ba_
FNDA:0,_RNvMNtNtNtCs2RUqfoJCtLU_5ruchy9middleend3mir7builderNtB2_10MirBuilder11alloc_local
FNDA:0,_RNvMNtNtNtCs2RUqfoJCtLU_5ruchy9middleend3mir7builderNtB2_10MirBuilder12storage_dead
FNDA:0,_RNvMNtNtNtCs2RUqfoJCtLU_5ruchy9middleend3mir7builderNtB2_10MirBuilder12storage_live
FNDA:0,_RNvMNtNtNtCs2RUqfoJCtLU_5ruchy9middleend3mir7builderNtB2_10MirBuilder14push_statement
FNDA:0,_RNvMNtNtNtCs2RUqfoJCtLU_5ruchy9middleend3mir7builderNtB2_10MirBuilder14set_terminator
FNDA:0,_RNvMNtNtNtCs2RUqfoJCtLU_5ruchy9middleend3mir7builderNtB2_10MirBuilder14start_function
FNDA:0,_RNvMNtNtNtCs2RUqfoJCtLU_5ruchy9middleend3mir7builderNtB2_10MirBuilder15finish_function
FNDA:0,_RNvMNtNtNtCs2RUqfoJCtLU_5ruchy9middleend3mir7builderNtB2_10MirBuilder3new
FNDA:0,_RNvMNtNtNtCs2RUqfoJCtLU_5ruchy9middleend3mir7builderNtB2_10MirBuilder4goto
FNDA:0,_RNvMNtNtNtCs2RUqfoJCtLU_5ruchy9middleend3mir7builderNtB2_10MirBuilder6assign
FNDA:0,_RNvMNtNtNtCs2RUqfoJCtLU_5ruchy9middleend3mir7builderNtB2_10MirBuilder6branch
FNDA:0,_RNvMNtNtNtCs2RUqfoJCtLU_5ruchy9middleend3mir7builderNtB2_10MirBuilder6switch
FNDA:0,_RNvMNtNtNtCs2RUqfoJCtLU_5ruchy9middleend3mir7builderNtB2_10MirBuilder7return_
FNDA:0,_RNvMNtNtNtCs2RUqfoJCtLU_5ruchy9middleend3mir7builderNtB2_10MirBuilder9add_param
FNDA:0,_RNvMNtNtNtCs2RUqfoJCtLU_5ruchy9middleend3mir7builderNtB2_10MirBuilder9block_mut
FNDA:0,_RNvMNtNtNtCs2RUqfoJCtLU_5ruchy9middleend3mir7builderNtB2_10MirBuilder9call_term
FNDA:0,_RNvMNtNtNtCs2RUqfoJCtLU_5ruchy9middleend3mir7builderNtB2_10MirBuilder9get_local
FNDA:0,_RNvMNtNtNtCs2RUqfoJCtLU_5ruchy9middleend3mir7builderNtB2_10MirBuilder9new_block
FNDA:0,_RNvMs_NtNtNtCs2RUqfoJCtLU_5ruchy9middleend3mir7builderNtB4_10MirBuilder4call
FNDA:0,_RNvMs_NtNtNtCs2RUqfoJCtLU_5ruchy9middleend3mir7builderNtB4_10MirBuilder4cast
FNDA:0,_RNvMs_NtNtNtCs2RUqfoJCtLU_5ruchy9middleend3mir7builderNtB4_10MirBuilder4copy
FNDA:0,_RNvMs_NtNtNtCs2RUqfoJCtLU_5ruchy9middleend3mir7builderNtB4_10MirBuilder4ref_
FNDA:0,_RNvMs_NtNtNtCs2RUqfoJCtLU_5ruchy9middleend3mir7builderNtB4_10MirBuilder5move_
FNDA:0,_RNvMs_NtNtNtCs2RUqfoJCtLU_5ruchy9middleend3mir7builderNtB4_10MirBuilder6const_
FNDA:0,_RNvMs_NtNtNtCs2RUqfoJCtLU_5ruchy9middleend3mir7builderNtB4_10MirBuilder8unary_op
FNDA:0,_RNvMs_NtNtNtCs2RUqfoJCtLU_5ruchy9middleend3mir7builderNtB4_10MirBuilder9binary_op
FNDA:0,_RNvXs0_NtNtNtCs2RUqfoJCtLU_5ruchy9middleend3mir7builderNtB5_10MirBuilderNtNtCs66KPHxksi63_4core7default7Default7default
FNF:28
FNH:0
DA:24,0
DA:25,0
DA:26,0
DA:27,0
DA:28,0
DA:29,0
DA:30,0
DA:31,0
DA:34,0
DA:35,0
DA:36,0
DA:37,0
DA:38,0
DA:39,0
DA:40,0
DA:41,0
DA:42,0
DA:43,0
DA:44,0
DA:45,0
DA:46,0
DA:47,0
DA:50,0
DA:51,0
DA:52,0
DA:53,0
DA:54,0
DA:55,0
DA:56,0
DA:57,0
DA:60,0
DA:61,0
DA:62,0
DA:64,0
DA:65,0
DA:66,0
DA:67,0
DA:68,0
DA:69,0
DA:71,0
DA:72,0
DA:73,0
DA:75,0
DA:76,0
DA:77,0
DA:79,0
DA:80,0
DA:83,0
DA:84,0
DA:85,0
DA:88,0
DA:89,0
DA:90,0
DA:92,0
DA:93,0
DA:94,0
DA:95,0
DA:96,0
DA:97,0
DA:98,0
DA:100,0
DA:101,0
DA:104,0
DA:105,0
DA:106,0
DA:107,0
DA:108,0
DA:111,0
DA:112,0
DA:113,0
DA:114,0
DA:115,0
DA:118,0
DA:119,0
DA:120,0
DA:121,0
DA:122,0
DA:125,0
DA:126,0
DA:127,0
DA:130,0
DA:131,0
DA:132,0
DA:135,0
DA:136,0
DA:137,0
DA:140,0
DA:141,0
DA:142,0
DA:145,0
DA:146,0
DA:147,0
DA:150,0
DA:151,0
DA:152,0
DA:153,0
DA:154,0
DA:155,0
DA:156,0
DA:157,0
DA:158,0
DA:159,0
DA:160,0
DA:161,0
DA:162,0
DA:163,0
DA:165,0
DA:168,0
DA:169,0
DA:170,0
DA:173,0
DA:174,0
DA:175,0
DA:176,0
DA:177,0
DA:178,0
DA:179,0
DA:180,0
DA:181,0
DA:182,0
DA:183,0
DA:184,0
DA:185,0
DA:186,0
DA:188,0
DA:191,0
DA:192,0
DA:193,0
DA:194,0
DA:195,0
DA:196,0
DA:197,0
DA:198,0
DA:199,0
DA:200,0
DA:201,0
DA:202,0
DA:203,0
DA:204,0
DA:206,0
DA:212,0
DA:213,0
DA:214,0
DA:215,0
DA:216,0
DA:217,0
DA:218,0
DA:219,0
DA:220,0
DA:221,0
DA:222,0
DA:225,0
DA:226,0
DA:227,0
DA:228,0
DA:231,0
DA:232,0
DA:233,0
DA:234,0
DA:235,0
DA:236,0
DA:237,0
DA:238,0
DA:239,0
DA:240,0
DA:241,0
DA:244,0
DA:245,0
DA:246,0
DA:247,0
DA:248,0
DA:249,0
DA:250,0
DA:251,0
DA:252,0
DA:253,0
DA:254,0
DA:257,0
DA:258,0
DA:259,0
DA:260,0
DA:263,0
DA:264,0
DA:265,0
DA:266,0
DA:269,0
DA:270,0
DA:271,0
DA:272,0
DA:275,0
DA:276,0
DA:277,0
DA:278,0
DA:282,0
DA:283,0
DA:284,0
BRF:0
BRH:0
LF:197
LH:0
end_of_record
SF:/home/noah/src/ruchy/src/middleend/mir/lower.rs
FN:353,_RNCNvMNtNtNtCs2RUqfoJCtLU_5ruchy9middleend3mir5lowerNtB4_15LoweringContext15ast_to_mir_type0Ba_
FN:366,_RNCNvMNtNtNtCs2RUqfoJCtLU_5ruchy9middleend3mir5lowerNtB4_15LoweringContext15ast_to_mir_types_0Ba_
FN:68,_RNCNvMNtNtNtCs2RUqfoJCtLU_5ruchy9middleend3mir5lowerNtB4_15LoweringContext14lower_function0Ba_
FN:91,_RNCNvMNtNtNtCs2RUqfoJCtLU_5ruchy9middleend3mir5lowerNtB4_15LoweringContext14lower_functions_0Ba_
FN:119,_RNCNvMNtNtNtCs2RUqfoJCtLU_5ruchy9middleend3mir5lowerNtB4_15LoweringContext15lower_main_expr0Ba_
FN:134,_RNCNvMNtNtNtCs2RUqfoJCtLU_5ruchy9middleend3mir5lowerNtB4_15LoweringContext21lower_expr_to_operand0Ba_
FN:43,_RNvMNtNtNtCs2RUqfoJCtLU_5ruchy9middleend3mir5lowerNtB2_15LoweringContext10lower_expr
FN:267,_RNvMNtNtNtCs2RUqfoJCtLU_5ruchy9middleend3mir5lowerNtB2_15LoweringContext13lower_literal
FN:60,_RNvMNtNtNtCs2RUqfoJCtLU_5ruchy9middleend3mir5lowerNtB2_15LoweringContext14lower_function
FN:304,_RNvMNtNtNtCs2RUqfoJCtLU_5ruchy9middleend3mir5lowerNtB2_15LoweringContext14lower_unary_op
FN:315,_RNvMNtNtNtCs2RUqfoJCtLU_5ruchy9middleend3mir5lowerNtB2_15LoweringContext15ast_to_mir_type
FN:279,_RNvMNtNtNtCs2RUqfoJCtLU_5ruchy9middleend3mir5lowerNtB2_15LoweringContext15lower_binary_op
FN:103,_RNvMNtNtNtCs2RUqfoJCtLU_5ruchy9middleend3mir5lowerNtB2_15LoweringContext15lower_main_expr
FN:131,_RNvMNtNtNtCs2RUqfoJCtLU_5ruchy9middleend3mir5lowerNtB2_15LoweringContext21lower_expr_to_operand
FN:402,_RNvMNtNtNtCs2RUqfoJCtLU_5ruchy9middleend3mir5lowerNtB2_15LoweringContext23infer_unary_result_type
FN:377,_RNvMNtNtNtCs2RUqfoJCtLU_5ruchy9middleend3mir5lowerNtB2_15LoweringContext24infer_binary_result_type
FN:27,_RNvMNtNtNtCs2RUqfoJCtLU_5ruchy9middleend3mir5lowerNtB2_15LoweringContext3new
FN:412,_RNvXs_NtNtNtCs2RUqfoJCtLU_5ruchy9middleend3mir5lowerNtB4_15LoweringContextNtNtCs66KPHxksi63_4core7default7Default7default
FNDA:0,_RNCNvMNtNtNtCs2RUqfoJCtLU_5ruchy9middleend3mir5lowerNtB4_15LoweringContext15ast_to_mir_type0Ba_
FNDA:0,_RNCNvMNtNtNtCs2RUqfoJCtLU_5ruchy9middleend3mir5lowerNtB4_15LoweringContext15ast_to_mir_types_0Ba_
FNDA:0,_RNCNvMNtNtNtCs2RUqfoJCtLU_5ruchy9middleend3mir5lowerNtB4_15LoweringContext14lower_function0Ba_
FNDA:0,_RNCNvMNtNtNtCs2RUqfoJCtLU_5ruchy9middleend3mir5lowerNtB4_15LoweringContext14lower_functions_0Ba_
FNDA:0,_RNCNvMNtNtNtCs2RUqfoJCtLU_5ruchy9middleend3mir5lowerNtB4_15LoweringContext15lower_main_expr0Ba_
FNDA:0,_RNCNvMNtNtNtCs2RUqfoJCtLU_5ruchy9middleend3mir5lowerNtB4_15LoweringContext21lower_expr_to_operand0Ba_
FNDA:0,_RNvMNtNtNtCs2RUqfoJCtLU_5ruchy9middleend3mir5lowerNtB2_15LoweringContext10lower_expr
FNDA:0,_RNvMNtNtNtCs2RUqfoJCtLU_5ruchy9middleend3mir5lowerNtB2_15LoweringContext13lower_literal
FNDA:0,_RNvMNtNtNtCs2RUqfoJCtLU_5ruchy9middleend3mir5lowerNtB2_15LoweringContext14lower_function
FNDA:0,_RNvMNtNtNtCs2RUqfoJCtLU_5ruchy9middleend3mir5lowerNtB2_15LoweringContext14lower_unary_op
FNDA:0,_RNvMNtNtNtCs2RUqfoJCtLU_5ruchy9middleend3mir5lowerNtB2_15LoweringContext15ast_to_mir_type
FNDA:0,_RNvMNtNtNtCs2RUqfoJCtLU_5ruchy9middleend3mir5lowerNtB2_15LoweringContext15lower_binary_op
FNDA:0,_RNvMNtNtNtCs2RUqfoJCtLU_5ruchy9middleend3mir5lowerNtB2_15LoweringContext15lower_main_expr
FNDA:0,_RNvMNtNtNtCs2RUqfoJCtLU_5ruchy9middleend3mir5lowerNtB2_15LoweringContext21lower_expr_to_operand
FNDA:0,_RNvMNtNtNtCs2RUqfoJCtLU_5ruchy9middleend3mir5lowerNtB2_15LoweringContext23infer_unary_result_type
FNDA:0,_RNvMNtNtNtCs2RUqfoJCtLU_5ruchy9middleend3mir5lowerNtB2_15LoweringContext24infer_binary_result_type
FNDA:0,_RNvMNtNtNtCs2RUqfoJCtLU_5ruchy9middleend3mir5lowerNtB2_15LoweringContext3new
FNDA:0,_RNvXs_NtNtNtCs2RUqfoJCtLU_5ruchy9middleend3mir5lowerNtB4_15LoweringContextNtNtCs66KPHxksi63_4core7default7Default7default
FNF:18
FNH:0
DA:27,0
DA:28,0
DA:29,0
DA:30,0
DA:31,0
DA:32,0
DA:33,0
DA:43,0
DA:44,0
DA:46,0
DA:47,0
DA:48,0
DA:49,0
DA:51,0
DA:54,0
DA:57,0
DA:60,0
DA:61,0
DA:62,0
DA:63,0
DA:64,0
DA:65,0
DA:66,0
DA:67,0
DA:68,0
DA:70,0
DA:73,0
DA:74,0
DA:75,0
DA:76,0
DA:79,0
DA:80,0
DA:83,0
DA:86,0
DA:88,0
DA:89,0
DA:90,0
DA:91,0
DA:93,0
DA:94,0
DA:96,0
DA:97,0
DA:98,0
DA:99,0
DA:100,0
DA:103,0
DA:104,0
DA:106,0
DA:107,0
DA:110,0
DA:113,0
DA:114,0
DA:116,0
DA:117,0
DA:118,0
DA:119,0
DA:121,0
DA:122,0
DA:124,0
DA:125,0
DA:126,0
DA:127,0
DA:128,0
DA:131,0
DA:132,0
DA:133,0
DA:134,0
DA:136,0
DA:137,0
DA:138,0
DA:139,0
DA:140,0
DA:142,0
DA:145,0
DA:146,0
DA:147,0
DA:148,0
DA:151,0
DA:152,0
DA:154,0
DA:155,0
DA:156,0
DA:158,0
DA:159,0
DA:160,0
DA:162,0
DA:163,0
DA:165,0
DA:166,0
DA:169,0
DA:172,0
DA:175,0
DA:176,0
DA:177,0
DA:178,0
DA:181,0
DA:182,0
DA:185,0
DA:188,0
DA:189,0
DA:190,0
DA:192,0
DA:194,0
DA:195,0
DA:196,0
DA:199,0
DA:202,0
DA:203,0
DA:204,0
DA:207,0
DA:208,0
DA:209,0
DA:211,0
DA:213,0
DA:216,0
DA:217,0
DA:220,0
DA:221,0
DA:222,0
DA:223,0
DA:224,0
DA:227,0
DA:229,0
DA:230,0
DA:231,0
DA:233,0
DA:234,0
DA:238,0
DA:239,0
DA:242,0
DA:243,0
DA:245,0
DA:247,0
DA:248,0
DA:249,0
DA:252,0
DA:253,0
DA:254,0
DA:256,0
DA:261,0
DA:264,0
DA:267,0
DA:268,0
DA:269,0
DA:270,0
DA:271,0
DA:272,0
DA:273,0
DA:274,0
DA:276,0
DA:279,0
DA:280,0
DA:281,0
DA:282,0
DA:283,0
DA:284,0
DA:285,0
DA:286,0
DA:287,0
DA:288,0
DA:289,0
DA:290,0
DA:291,0
DA:292,0
DA:293,0
DA:294,0
DA:295,0
DA:296,0
DA:297,0
DA:298,0
DA:299,0
DA:301,0
DA:304,0
DA:305,0
DA:306,0
DA:307,0
DA:308,0
DA:309,0
DA:311,0
DA:315,0
DA:317,0
DA:318,0
DA:319,0
DA:320,0
DA:321,0
DA:322,0
DA:323,0
DA:324,0
DA:325,0
DA:326,0
DA:327,0
DA:328,0
DA:329,0
DA:330,0
DA:331,0
DA:332,0
DA:333,0
DA:334,0
DA:336,0
DA:337,0
DA:338,0
DA:339,0
DA:341,0
DA:343,0
DA:345,0
DA:348,0
DA:350,0
DA:352,0
DA:353,0
DA:354,0
DA:356,0
DA:359,0
DA:363,0
DA:365,0
DA:366,0
DA:367,0
DA:369,0
DA:371,0
DA:374,0
DA:377,0
DA:378,0
DA:388,0
DA:396,0
DA:397,0
DA:399,0
DA:402,0
DA:403,0
DA:404,0
DA:405,0
DA:406,0
DA:408,0
DA:412,0
DA:413,0
DA:414,0
BRF:0
BRH:0
LF:240
LH:0
end_of_record
SF:/home/noah/src/ruchy/src/middleend/mir/optimize.rs
FN:227,_RNCNvMs_NtNtNtCs2RUqfoJCtLU_5ruchy9middleend3mir8optimizeNtB6_19DeadCodeElimination18remove_dead_blocks0Bc_
FN:233,_RNCNvMs_NtNtNtCs2RUqfoJCtLU_5ruchy9middleend3mir8optimizeNtB6_19DeadCodeElimination18remove_dead_locals0Bc_
FN:212,_RNCNvMs_NtNtNtCs2RUqfoJCtLU_5ruchy9middleend3mir8optimizeNtB6_19DeadCodeElimination22remove_dead_statements0Bc_
FN:58,_RNCNvMs_NtNtNtCs2RUqfoJCtLU_5ruchy9middleend3mir8optimizeNtB6_19DeadCodeElimination9mark_live0Bc_
FN:325,_RNvMs1_NtNtNtCs2RUqfoJCtLU_5ruchy9middleend3mir8optimizeNtB5_19ConstantPropagation13eval_unary_op
FN:302,_RNvMs1_NtNtNtCs2RUqfoJCtLU_5ruchy9middleend3mir8optimizeNtB5_19ConstantPropagation14eval_binary_op
FN:292,_RNvMs1_NtNtNtCs2RUqfoJCtLU_5ruchy9middleend3mir8optimizeNtB5_19ConstantPropagation16extract_constant
FN:336,_RNvMs1_NtNtNtCs2RUqfoJCtLU_5ruchy9middleend3mir8optimizeNtB5_19ConstantPropagation18get_constant_value
FN:354,_RNvMs1_NtNtNtCs2RUqfoJCtLU_5ruchy9middleend3mir8optimizeNtB5_19ConstantPropagation19propagate_in_rvalue
FN:374,_RNvMs1_NtNtNtCs2RUqfoJCtLU_5ruchy9middleend3mir8optimizeNtB5_19ConstantPropagation20propagate_in_operand
FN:347,_RNvMs1_NtNtNtCs2RUqfoJCtLU_5ruchy9middleend3mir8optimizeNtB5_19ConstantPropagation22propagate_in_statement
FN:381,_RNvMs1_NtNtNtCs2RUqfoJCtLU_5ruchy9middleend3mir8optimizeNtB5_19ConstantPropagation23propagate_in_terminator
FN:261,_RNvMs1_NtNtNtCs2RUqfoJCtLU_5ruchy9middleend3mir8optimizeNtB5_19ConstantPropagation3new
FN:268,_RNvMs1_NtNtNtCs2RUqfoJCtLU_5ruchy9middleend3mir8optimizeNtB5_19ConstantPropagation3run
FN:454,_RNvMs3_NtNtNtCs2RUqfoJCtLU_5ruchy9middleend3mir8optimizeNtB5_30CommonSubexpressionElimination10rvalue_key
FN:473,_RNvMs3_NtNtNtCs2RUqfoJCtLU_5ruchy9middleend3mir8optimizeNtB5_30CommonSubexpressionElimination11operand_key
FN:436,_RNvMs3_NtNtNtCs2RUqfoJCtLU_5ruchy9middleend3mir8optimizeNtB5_30CommonSubexpressionElimination17process_statement
FN:418,_RNvMs3_NtNtNtCs2RUqfoJCtLU_5ruchy9middleend3mir8optimizeNtB5_30CommonSubexpressionElimination3new
FN:425,_RNvMs3_NtNtNtCs2RUqfoJCtLU_5ruchy9middleend3mir8optimizeNtB5_30CommonSubexpressionElimination3run
FN:483,_RNvMs3_NtNtNtCs2RUqfoJCtLU_5ruchy9middleend3mir8optimizeNtB5_30CommonSubexpressionElimination9place_key
FN:237,_RNvMs_NtNtNtCs2RUqfoJCtLU_5ruchy9middleend3mir8optimizeNtB4_19DeadCodeElimination13is_place_live
FN:90,_RNvMs_NtNtNtCs2RUqfoJCtLU_5ruchy9middleend3mir8optimizeNtB4_19DeadCodeElimination15mark_place_live
FN:106,_RNvMs_NtNtNtCs2RUqfoJCtLU_5ruchy9middleend3mir8optimizeNtB4_19DeadCodeElimination16mark_rvalue_live
FN:133,_RNvMs_NtNtNtCs2RUqfoJCtLU_5ruchy9middleend3mir8optimizeNtB4_19DeadCodeElimination17mark_operand_live
FN:225,_RNvMs_NtNtNtCs2RUqfoJCtLU_5ruchy9middleend3mir8optimizeNtB4_19DeadCodeElimination18remove_dead_blocks
FN:231,_RNvMs_NtNtNtCs2RUqfoJCtLU_5ruchy9middleend3mir8optimizeNtB4_19DeadCodeElimination18remove_dead_locals
FN:76,_RNvMs_NtNtNtCs2RUqfoJCtLU_5ruchy9middleend3mir8optimizeNtB4_19DeadCodeElimination19mark_statement_live
FN:143,_RNvMs_NtNtNtCs2RUqfoJCtLU_5ruchy9middleend3mir8optimizeNtB4_19DeadCodeElimination20mark_terminator_live
FN:206,_RNvMs_NtNtNtCs2RUqfoJCtLU_5ruchy9middleend3mir8optimizeNtB4_19DeadCodeElimination22remove_dead_statements
FN:26,_RNvMs_NtNtNtCs2RUqfoJCtLU_5ruchy9middleend3mir8optimizeNtB4_19DeadCodeElimination3new
FN:34,_RNvMs_NtNtNtCs2RUqfoJCtLU_5ruchy9middleend3mir8optimizeNtB4_19DeadCodeElimination3run
FN:49,_RNvMs_NtNtNtCs2RUqfoJCtLU_5ruchy9middleend3mir8optimizeNtB4_19DeadCodeElimination9mark_live
FN:510,_RNvNtNtNtCs2RUqfoJCtLU_5ruchy9middleend3mir8optimize16optimize_program
FN:496,_RNvNtNtNtCs2RUqfoJCtLU_5ruchy9middleend3mir8optimize17optimize_function
FN:18,_RNvXNtNtNtCs2RUqfoJCtLU_5ruchy9middleend3mir8optimizeNtB2_19DeadCodeEliminationNtNtCs66KPHxksi63_4core7default7Default7default
FN:253,_RNvXs0_NtNtNtCs2RUqfoJCtLU_5ruchy9middleend3mir8optimizeNtB5_19ConstantPropagationNtNtCs66KPHxksi63_4core7default7Default7default
FN:410,_RNvXs2_NtNtNtCs2RUqfoJCtLU_5ruchy9middleend3mir8optimizeNtB5_30CommonSubexpressionEliminationNtNtCs66KPHxksi63_4core7default7Default7default
FNDA:0,_RNCNvMs_NtNtNtCs2RUqfoJCtLU_5ruchy9middleend3mir8optimizeNtB6_19DeadCodeElimination18remove_dead_blocks0Bc_
FNDA:0,_RNCNvMs_NtNtNtCs2RUqfoJCtLU_5ruchy9middleend3mir8optimizeNtB6_19DeadCodeElimination18remove_dead_locals0Bc_
FNDA:0,_RNCNvMs_NtNtNtCs2RUqfoJCtLU_5ruchy9middleend3mir8optimizeNtB6_19DeadCodeElimination22remove_dead_statements0Bc_
FNDA:0,_RNCNvMs_NtNtNtCs2RUqfoJCtLU_5ruchy9middleend3mir8optimizeNtB6_19DeadCodeElimination9mark_live0Bc_
FNDA:0,_RNvMs1_NtNtNtCs2RUqfoJCtLU_5ruchy9middleend3mir8optimizeNtB5_19ConstantPropagation13eval_unary_op
FNDA:0,_RNvMs1_NtNtNtCs2RUqfoJCtLU_5ruchy9middleend3mir8optimizeNtB5_19ConstantPropagation14eval_binary_op
FNDA:0,_RNvMs1_NtNtNtCs2RUqfoJCtLU_5ruchy9middleend3mir8optimizeNtB5_19ConstantPropagation16extract_constant
FNDA:0,_RNvMs1_NtNtNtCs2RUqfoJCtLU_5ruchy9middleend3mir8optimizeNtB5_19ConstantPropagation18get_constant_value
FNDA:0,_RNvMs1_NtNtNtCs2RUqfoJCtLU_5ruchy9middleend3mir8optimizeNtB5_19ConstantPropagation19propagate_in_rvalue
FNDA:0,_RNvMs1_NtNtNtCs2RUqfoJCtLU_5ruchy9middleend3mir8optimizeNtB5_19ConstantPropagation20propagate_in_operand
FNDA:0,_RNvMs1_NtNtNtCs2RUqfoJCtLU_5ruchy9middleend3mir8optimizeNtB5_19ConstantPropagation22propagate_in_statement
FNDA:0,_RNvMs1_NtNtNtCs2RUqfoJCtLU_5ruchy9middleend3mir8optimizeNtB5_19ConstantPropagation23propagate_in_terminator
FNDA:0,_RNvMs1_NtNtNtCs2RUqfoJCtLU_5ruchy9middleend3mir8optimizeNtB5_19ConstantPropagation3new
FNDA:0,_RNvMs1_NtNtNtCs2RUqfoJCtLU_5ruchy9middleend3mir8optimizeNtB5_19ConstantPropagation3run
FNDA:0,_RNvMs3_NtNtNtCs2RUqfoJCtLU_5ruchy9middleend3mir8optimizeNtB5_30CommonSubexpressionElimination10rvalue_key
FNDA:0,_RNvMs3_NtNtNtCs2RUqfoJCtLU_5ruchy9middleend3mir8optimizeNtB5_30CommonSubexpressionElimination11operand_key
FNDA:0,_RNvMs3_NtNtNtCs2RUqfoJCtLU_5ruchy9middleend3mir8optimizeNtB5_30CommonSubexpressionElimination17process_statement
FNDA:0,_RNvMs3_NtNtNtCs2RUqfoJCtLU_5ruchy9middleend3mir8optimizeNtB5_30CommonSubexpressionElimination3new
FNDA:0,_RNvMs3_NtNtNtCs2RUqfoJCtLU_5ruchy9middleend3mir8optimizeNtB5_30CommonSubexpressionElimination3run
FNDA:0,_RNvMs3_NtNtNtCs2RUqfoJCtLU_5ruchy9middleend3mir8optimizeNtB5_30CommonSubexpressionElimination9place_key
FNDA:0,_RNvMs_NtNtNtCs2RUqfoJCtLU_5ruchy9middleend3mir8optimizeNtB4_19DeadCodeElimination13is_place_live
FNDA:0,_RNvMs_NtNtNtCs2RUqfoJCtLU_5ruchy9middleend3mir8optimizeNtB4_19DeadCodeElimination15mark_place_live
FNDA:0,_RNvMs_NtNtNtCs2RUqfoJCtLU_5ruchy9middleend3mir8optimizeNtB4_19DeadCodeElimination16mark_rvalue_live
FNDA:0,_RNvMs_NtNtNtCs2RUqfoJCtLU_5ruchy9middleend3mir8optimizeNtB4_19DeadCodeElimination17mark_operand_live
FNDA:0,_RNvMs_NtNtNtCs2RUqfoJCtLU_5ruchy9middleend3mir8optimizeNtB4_19DeadCodeElimination18remove_dead_blocks
FNDA:0,_RNvMs_NtNtNtCs2RUqfoJCtLU_5ruchy9middleend3mir8optimizeNtB4_19DeadCodeElimination18remove_dead_locals
FNDA:0,_RNvMs_NtNtNtCs2RUqfoJCtLU_5ruchy9middleend3mir8optimizeNtB4_19DeadCodeElimination19mark_statement_live
FNDA:0,_RNvMs_NtNtNtCs2RUqfoJCtLU_5ruchy9middleend3mir8optimizeNtB4_19DeadCodeElimination20mark_terminator_live
FNDA:0,_RNvMs_NtNtNtCs2RUqfoJCtLU_5ruchy9middleend3mir8optimizeNtB4_19DeadCodeElimination22remove_dead_statements
FNDA:0,_RNvMs_NtNtNtCs2RUqfoJCtLU_5ruchy9middleend3mir8optimizeNtB4_19DeadCodeElimination3new
FNDA:0,_RNvMs_NtNtNtCs2RUqfoJCtLU_5ruchy9middleend3mir8optimizeNtB4_19DeadCodeElimination3run
FNDA:0,_RNvMs_NtNtNtCs2RUqfoJCtLU_5ruchy9middleend3mir8optimizeNtB4_19DeadCodeElimination9mark_live
FNDA:0,_RNvNtNtNtCs2RUqfoJCtLU_5ruchy9middleend3mir8optimize16optimize_program
FNDA:0,_RNvNtNtNtCs2RUqfoJCtLU_5ruchy9middleend3mir8optimize17optimize_function
FNDA:0,_RNvXNtNtNtCs2RUqfoJCtLU_5ruchy9middleend3mir8optimizeNtB2_19DeadCodeEliminationNtNtCs66KPHxksi63_4core7default7Default7default
FNDA:0,_RNvXs0_NtNtNtCs2RUqfoJCtLU_5ruchy9middleend3mir8optimizeNtB5_19ConstantPropagationNtNtCs66KPHxksi63_4core7default7Default7default
FNDA:0,_RNvXs2_NtNtNtCs2RUqfoJCtLU_5ruchy9middleend3mir8optimizeNtB5_30CommonSubexpressionEliminationNtNtCs66KPHxksi63_4core7default7Default7default
FNF:37
FNH:0
DA:18,0
DA:19,0
DA:20,0
DA:26,0
DA:27,0
DA:28,0
DA:29,0
DA:30,0
DA:31,0
DA:34,0
DA:36,0
DA:39,0
DA:42,0
DA:45,0
DA:46,0
DA:49,0
DA:50,0
DA:51,0
DA:54,0
DA:55,0
DA:57,0
DA:58,0
DA:60,0
DA:61,0
DA:62,0
DA:65,0
DA:66,0
DA:70,0
DA:71,0
DA:72,0
DA:73,0
DA:76,0
DA:77,0
DA:78,0
DA:79,0
DA:80,0
DA:81,0
DA:82,0
DA:83,0
DA:84,0
DA:85,0
DA:87,0
DA:90,0
DA:91,0
DA:92,0
DA:93,0
DA:94,0
DA:95,0
DA:96,0
DA:97,0
DA:98,0
DA:99,0
DA:100,0
DA:101,0
DA:103,0
DA:106,0
DA:107,0
DA:108,0
DA:109,0
DA:110,0
DA:111,0
DA:112,0
DA:113,0
DA:114,0
DA:115,0
DA:116,0
DA:117,0
DA:118,0
DA:119,0
DA:120,0
DA:121,0
DA:123,0
DA:124,0
DA:125,0
DA:126,0
DA:127,0
DA:130,0
DA:133,0
DA:134,0
DA:135,0
DA:136,0
DA:137,0
DA:138,0
DA:140,0
DA:143,0
DA:144,0
DA:145,0
DA:146,0
DA:147,0
DA:148,0
DA:151,0
DA:152,0
DA:153,0
DA:155,0
DA:156,0
DA:157,0
DA:158,0
DA:159,0
DA:160,0
DA:161,0
DA:164,0
DA:165,0
DA:166,0
DA:168,0
DA:169,0
DA:170,0
DA:171,0
DA:172,0
DA:174,0
DA:175,0
DA:176,0
DA:177,0
DA:178,0
DA:180,0
DA:181,0
DA:182,0
DA:183,0
DA:186,0
DA:187,0
DA:188,0
DA:190,0
DA:191,0
DA:192,0
DA:193,0
DA:194,0
DA:195,0
DA:196,0
DA:197,0
DA:198,0
DA:199,0
DA:201,0
DA:203,0
DA:206,0
DA:207,0
DA:208,0
DA:209,0
DA:210,0
DA:212,0
DA:213,0
DA:214,0
DA:215,0
DA:216,0
DA:218,0
DA:220,0
DA:222,0
DA:225,0
DA:226,0
DA:227,0
DA:228,0
DA:231,0
DA:232,0
DA:233,0
DA:234,0
DA:237,0
DA:238,0
DA:239,0
DA:240,0
DA:241,0
DA:243,0
DA:253,0
DA:254,0
DA:255,0
DA:261,0
DA:262,0
DA:263,0
DA:264,0
DA:265,0
DA:268,0
DA:269,0
DA:272,0
DA:273,0
DA:274,0
DA:275,0
DA:276,0
DA:277,0
DA:278,0
DA:283,0
DA:284,0
DA:285,0
DA:286,0
DA:287,0
DA:289,0
DA:292,0
DA:293,0
DA:294,0
DA:295,0
DA:296,0
DA:297,0
DA:299,0
DA:302,0
DA:303,0
DA:304,0
DA:306,0
DA:307,0
DA:308,0
DA:310,0
DA:311,0
DA:313,0
DA:314,0
DA:316,0
DA:317,0
DA:318,0
DA:319,0
DA:320,0
DA:322,0
DA:325,0
DA:326,0
DA:328,0
DA:329,0
DA:330,0
DA:331,0
DA:333,0
DA:336,0
DA:337,0
DA:338,0
DA:339,0
DA:340,0
DA:342,0
DA:344,0
DA:347,0
DA:348,0
DA:349,0
DA:350,0
DA:351,0
DA:354,0
DA:355,0
DA:356,0
DA:357,0
DA:358,0
DA:359,0
DA:360,0
DA:361,0
DA:362,0
DA:363,0
DA:364,0
DA:365,0
DA:366,0
DA:367,0
DA:369,0
DA:371,0
DA:374,0
DA:375,0
DA:376,0
DA:377,0
DA:378,0
DA:381,0
DA:382,0
DA:383,0
DA:384,0
DA:385,0
DA:386,0
DA:387,0
DA:388,0
DA:389,0
DA:390,0
DA:391,0
DA:392,0
DA:393,0
DA:394,0
DA:395,0
DA:396,0
DA:398,0
DA:400,0
DA:410,0
DA:411,0
DA:412,0
DA:418,0
DA:419,0
DA:420,0
DA:421,0
DA:422,0
DA:425,0
DA:426,0
DA:428,0
DA:429,0
DA:430,0
DA:431,0
DA:433,0
DA:436,0
DA:437,0
DA:438,0
DA:440,0
DA:441,0
DA:442,0
DA:443,0
DA:444,0
DA:445,0
DA:446,0
DA:447,0
DA:448,0
DA:449,0
DA:450,0
DA:451,0
DA:454,0
DA:455,0
DA:456,0
DA:457,0
DA:458,0
DA:459,0
DA:461,0
DA:462,0
DA:465,0
DA:466,0
DA:468,0
DA:470,0
DA:473,0
DA:474,0
DA:475,0
DA:476,0
DA:477,0
DA:479,0
DA:483,0
DA:484,0
DA:485,0
DA:486,0
DA:487,0
DA:488,0
DA:490,0
DA:492,0
DA:496,0
DA:497,0
DA:498,0
DA:499,0
DA:502,0
DA:503,0
DA:504,0
DA:505,0
DA:506,0
DA:507,0
DA:510,0
DA:511,0
DA:512,0
DA:513,0
DA:514,0
BRF:0
BRH:0
LF:338
LH:0
end_of_record
SF:/home/noah/src/ruchy/src/middleend/mir/types.rs
FN:283,_RNvXNtNtNtCs2RUqfoJCtLU_5ruchy9middleend3mir5typesNtB2_7BlockIdNtNtCs66KPHxksi63_4core3fmt7Display3fmt
FN:295,_RNvXs0_NtNtNtCs2RUqfoJCtLU_5ruchy9middleend3mir5typesNtB5_4TypeNtNtCs66KPHxksi63_4core3fmt7Display3fmt
FN:289,_RNvXs_NtNtNtCs2RUqfoJCtLU_5ruchy9middleend3mir5typesNtB4_5LocalNtNtCs66KPHxksi63_4core3fmt7Display3fmt
FNDA:0,_RNvXNtNtNtCs2RUqfoJCtLU_5ruchy9middleend3mir5typesNtB2_7BlockIdNtNtCs66KPHxksi63_4core3fmt7Display3fmt
FNDA:0,_RNvXs0_NtNtNtCs2RUqfoJCtLU_5ruchy9middleend3mir5typesNtB5_4TypeNtNtCs66KPHxksi63_4core3fmt7Display3fmt
FNDA:0,_RNvXs_NtNtNtCs2RUqfoJCtLU_5ruchy9middleend3mir5typesNtB4_5LocalNtNtCs66KPHxksi63_4core3fmt7Display3fmt
FNF:3
FNH:0
DA:283,0
DA:284,0
DA:285,0
DA:289,0
DA:290,0
DA:291,0
DA:295,0
DA:296,0
DA:297,0
DA:298,0
DA:299,0
DA:300,0
DA:301,0
DA:302,0
DA:303,0
DA:304,0
DA:305,0
DA:306,0
DA:307,0
DA:308,0
DA:309,0
DA:310,0
DA:311,0
DA:312,0
DA:313,0
DA:314,0
DA:315,0
DA:316,0
DA:317,0
DA:318,0
DA:319,0
DA:320,0
DA:321,0
DA:322,0
DA:324,0
DA:326,0
DA:327,0
DA:328,0
DA:329,0
DA:330,0
DA:331,0
DA:332,0
DA:334,0
DA:336,0
DA:338,0
BRF:0
BRH:0
LF:45
LH:0
end_of_record
SF:/home/noah/src/ruchy/src/middleend/types.rs
FN:177,_RNCNvMs4_NtNtCs2RUqfoJCtLU_5ruchy9middleend5typesNtB7_8MonoType10substitute0Bb_
FN:114,_RNvMs0_NtNtCs2RUqfoJCtLU_5ruchy9middleend5typesNtB5_10TypeScheme11instantiate
FN:106,_RNvMs0_NtNtCs2RUqfoJCtLU_5ruchy9middleend5typesNtB5_10TypeScheme4mono
FN:152,_RNvMs2_NtNtCs2RUqfoJCtLU_5ruchy9middleend5typesNtB5_14TyVarGenerator3new
FN:156,_RNvMs2_NtNtCs2RUqfoJCtLU_5ruchy9middleend5typesNtB5_14TyVarGenerator5fresh
FN:175,_RNvMs4_NtNtCs2RUqfoJCtLU_5ruchy9middleend5typesNtB5_8MonoType10substitute
FN:205,_RNvMs4_NtNtCs2RUqfoJCtLU_5ruchy9middleend5typesNtB5_8MonoType9free_vars
FN:208,_RNvNvMs4_NtNtCs2RUqfoJCtLU_5ruchy9middleend5typesNtB7_8MonoType9free_vars12collect_vars
FN:11,_RNvXNtNtCs2RUqfoJCtLU_5ruchy9middleend5typesNtB2_5TyVarNtNtCs66KPHxksi63_4core3fmt7Display3fmt
FN:129,_RNvXs1_NtNtCs2RUqfoJCtLU_5ruchy9middleend5typesNtB5_10TypeSchemeNtNtCs66KPHxksi63_4core3fmt7Display3fmt
FN:164,_RNvXs3_NtNtCs2RUqfoJCtLU_5ruchy9middleend5typesNtB5_14TyVarGeneratorNtNtCs66KPHxksi63_4core7default7Default7default
FN:54,_RNvXs_NtNtCs2RUqfoJCtLU_5ruchy9middleend5typesNtB4_8MonoTypeNtNtCs66KPHxksi63_4core3fmt7Display3fmt
FN:121,_RNCNvMs0_NtNtCs2RUqfoJCtLU_5ruchy9middleend5typesNtB7_10TypeScheme11instantiate0Bb_
FN:197,_RNCNvMs4_NtNtCs2RUqfoJCtLU_5ruchy9middleend5typesNtB7_8MonoType10substitutes0_0Bb_
FN:191,_RNCNvMs4_NtNtCs2RUqfoJCtLU_5ruchy9middleend5typesNtB7_8MonoType10substitutes_0Bb_
FNDA:0,_RNCNvMs4_NtNtCs2RUqfoJCtLU_5ruchy9middleend5typesNtB7_8MonoType10substitute0Bb_
FNDA:0,_RNvMs0_NtNtCs2RUqfoJCtLU_5ruchy9middleend5typesNtB5_10TypeScheme11instantiate
FNDA:0,_RNvMs0_NtNtCs2RUqfoJCtLU_5ruchy9middleend5typesNtB5_10TypeScheme4mono
FNDA:0,_RNvMs2_NtNtCs2RUqfoJCtLU_5ruchy9middleend5typesNtB5_14TyVarGenerator3new
FNDA:0,_RNvMs2_NtNtCs2RUqfoJCtLU_5ruchy9middleend5typesNtB5_14TyVarGenerator5fresh
FNDA:0,_RNvMs4_NtNtCs2RUqfoJCtLU_5ruchy9middleend5typesNtB5_8MonoType10substitute
FNDA:0,_RNvMs4_NtNtCs2RUqfoJCtLU_5ruchy9middleend5typesNtB5_8MonoType9free_vars
FNDA:0,_RNvNvMs4_NtNtCs2RUqfoJCtLU_5ruchy9middleend5typesNtB7_8MonoType9free_vars12collect_vars
FNDA:0,_RNvXNtNtCs2RUqfoJCtLU_5ruchy9middleend5typesNtB2_5TyVarNtNtCs66KPHxksi63_4core3fmt7Display3fmt
FNDA:0,_RNvXs1_NtNtCs2RUqfoJCtLU_5ruchy9middleend5typesNtB5_10TypeSchemeNtNtCs66KPHxksi63_4core3fmt7Display3fmt
FNDA:0,_RNvXs3_NtNtCs2RUqfoJCtLU_5ruchy9middleend5typesNtB5_14TyVarGeneratorNtNtCs66KPHxksi63_4core7default7Default7default
FNDA:0,_RNvXs_NtNtCs2RUqfoJCtLU_5ruchy9middleend5typesNtB4_8MonoTypeNtNtCs66KPHxksi63_4core3fmt7Display3fmt
FNDA:0,_RNCNvMs0_NtNtCs2RUqfoJCtLU_5ruchy9middleend5typesNtB7_10TypeScheme11instantiate0Bb_
FNDA:0,_RNCNvMs4_NtNtCs2RUqfoJCtLU_5ruchy9middleend5typesNtB7_8MonoType10substitutes0_0Bb_
FNDA:0,_RNCNvMs4_NtNtCs2RUqfoJCtLU_5ruchy9middleend5typesNtB7_8MonoType10substitutes_0Bb_
FNF:15
FNH:0
DA:11,0
DA:12,0
DA:13,0
DA:54,0
DA:55,0
DA:56,0
DA:57,0
DA:58,0
DA:59,0
DA:60,0
DA:61,0
DA:62,0
DA:63,0
DA:64,0
DA:65,0
DA:66,0
DA:67,0
DA:68,0
DA:69,0
DA:70,0
DA:71,0
DA:72,0
DA:73,0
DA:75,0
DA:77,0
DA:78,0
DA:79,0
DA:80,0
DA:81,0
DA:82,0
DA:83,0
DA:84,0
DA:85,0
DA:87,0
DA:89,0
DA:91,0
DA:106,0
DA:107,0
DA:108,0
DA:109,0
DA:110,0
DA:111,0
DA:114,0
DA:115,0
DA:116,0
DA:118,0
DA:119,0
DA:120,0
DA:121,0
DA:122,0
DA:123,0
DA:125,0
DA:129,0
DA:130,0
DA:131,0
DA:133,0
DA:134,0
DA:135,0
DA:136,0
DA:137,0
DA:138,0
DA:140,0
DA:142,0
DA:152,0
DA:153,0
DA:154,0
DA:156,0
DA:157,0
DA:158,0
DA:159,0
DA:160,0
DA:164,0
DA:165,0
DA:166,0
DA:175,0
DA:176,0
DA:177,0
DA:178,0
DA:179,0
DA:180,0
DA:181,0
DA:182,0
DA:183,0
DA:184,0
DA:185,0
DA:186,0
DA:187,0
DA:188,0
DA:189,0
DA:190,0
DA:191,0
DA:192,0
DA:194,0
DA:195,0
DA:196,0
DA:197,0
DA:199,0
DA:201,0
DA:205,0
DA:208,0
DA:209,0
DA:210,0
DA:211,0
DA:212,0
DA:213,0
DA:214,0
DA:215,0
DA:216,0
DA:217,0
DA:218,0
DA:219,0
DA:220,0
DA:221,0
DA:222,0
DA:223,0
DA:224,0
DA:225,0
DA:226,0
DA:227,0
DA:228,0
DA:229,0
DA:230,0
DA:232,0
DA:233,0
DA:234,0
DA:235,0
DA:237,0
DA:239,0
DA:241,0
DA:242,0
DA:243,0
DA:244,0
BRF:0
BRH:0
LF:136
LH:0
end_of_record
SF:/home/noah/src/ruchy/src/middleend/unify.rs
FN:99,_RNCNvMNtNtCs2RUqfoJCtLU_5ruchy9middleend5unifyNtB4_7Unifier4bind0B8_
FN:135,_RNCNvMNtNtCs2RUqfoJCtLU_5ruchy9middleend5unifyNtB4_7Unifier5solve0B8_
FN:135,_RNCNvMNtNtCs2RUqfoJCtLU_5ruchy9middleend5unifyNtB4_7Unifier5solves_0B8_
FN:123,_RNCNvMNtNtCs2RUqfoJCtLU_5ruchy9middleend5unifyNtB4_7Unifier6occurs0B8_
FN:125,_RNCNvMNtNtCs2RUqfoJCtLU_5ruchy9middleend5unifyNtB4_7Unifier6occurss_0B8_
FN:22,_RNvMNtNtCs2RUqfoJCtLU_5ruchy9middleend5unifyNtB2_7Unifier12substitution
FN:14,_RNvMNtNtCs2RUqfoJCtLU_5ruchy9middleend5unifyNtB2_7Unifier3new
FN:86,_RNvMNtNtCs2RUqfoJCtLU_5ruchy9middleend5unifyNtB2_7Unifier4bind
FN:28,_RNvMNtNtCs2RUqfoJCtLU_5ruchy9middleend5unifyNtB2_7Unifier5apply
FN:132,_RNvMNtNtCs2RUqfoJCtLU_5ruchy9middleend5unifyNtB2_7Unifier5solve
FN:40,_RNvMNtNtCs2RUqfoJCtLU_5ruchy9middleend5unifyNtB2_7Unifier5unify
FN:113,_RNvMNtNtCs2RUqfoJCtLU_5ruchy9middleend5unifyNtB2_7Unifier6occurs
FN:140,_RNvXs_NtNtCs2RUqfoJCtLU_5ruchy9middleend5unifyNtB4_7UnifierNtNtCs66KPHxksi63_4core7default7Default7default
FNDA:0,_RNCNvMNtNtCs2RUqfoJCtLU_5ruchy9middleend5unifyNtB4_7Unifier4bind0B8_
FNDA:0,_RNCNvMNtNtCs2RUqfoJCtLU_5ruchy9middleend5unifyNtB4_7Unifier5solve0B8_
FNDA:0,_RNCNvMNtNtCs2RUqfoJCtLU_5ruchy9middleend5unifyNtB4_7Unifier5solves_0B8_
FNDA:0,_RNCNvMNtNtCs2RUqfoJCtLU_5ruchy9middleend5unifyNtB4_7Unifier6occurs0B8_
FNDA:0,_RNCNvMNtNtCs2RUqfoJCtLU_5ruchy9middleend5unifyNtB4_7Unifier6occurss_0B8_
FNDA:0,_RNvMNtNtCs2RUqfoJCtLU_5ruchy9middleend5unifyNtB2_7Unifier12substitution
FNDA:0,_RNvMNtNtCs2RUqfoJCtLU_5ruchy9middleend5unifyNtB2_7Unifier3new
FNDA:0,_RNvMNtNtCs2RUqfoJCtLU_5ruchy9middleend5unifyNtB2_7Unifier4bind
FNDA:0,_RNvMNtNtCs2RUqfoJCtLU_5ruchy9middleend5unifyNtB2_7Unifier5apply
FNDA:0,_RNvMNtNtCs2RUqfoJCtLU_5ruchy9middleend5unifyNtB2_7Unifier5solve
FNDA:0,_RNvMNtNtCs2RUqfoJCtLU_5ruchy9middleend5unifyNtB2_7Unifier5unify
FNDA:0,_RNvMNtNtCs2RUqfoJCtLU_5ruchy9middleend5unifyNtB2_7Unifier6occurs
FNDA:0,_RNvXs_NtNtCs2RUqfoJCtLU_5ruchy9middleend5unifyNtB4_7UnifierNtNtCs66KPHxksi63_4core7default7Default7default
FNF:13
FNH:0
DA:14,0
DA:15,0
DA:16,0
DA:17,0
DA:18,0
DA:22,0
DA:23,0
DA:24,0
DA:28,0
DA:29,0
DA:30,0
DA:40,0
DA:41,0
DA:42,0
DA:44,0
DA:45,0
DA:46,0
DA:51,0
DA:52,0
DA:53,0
DA:54,0
DA:55,0
DA:57,0
DA:58,0
DA:59,0
DA:60,0
DA:61,0
DA:63,0
DA:65,0
DA:66,0
DA:67,0
DA:68,0
DA:69,0
DA:70,0
DA:71,0
DA:75,0
DA:76,0
DA:78,0
DA:80,0
DA:81,0
DA:83,0
DA:86,0
DA:88,0
DA:89,0
DA:90,0
DA:93,0
DA:96,0
DA:97,0
DA:98,0
DA:99,0
DA:100,0
DA:101,0
DA:103,0
DA:105,0
DA:106,0
DA:107,0
DA:109,0
DA:110,0
DA:113,0
DA:114,0
DA:115,0
DA:116,0
DA:117,0
DA:118,0
DA:119,0
DA:121,0
DA:122,0
DA:123,0
DA:125,0
DA:126,0
DA:128,0
DA:132,0
DA:133,0
DA:134,0
DA:135,0
DA:136,0
DA:140,0
DA:141,0
DA:142,0
BRF:0
BRH:0
LF:84
LH:0
end_of_record
SF:/home/noah/src/ruchy/src/parser/error_recovery.rs
FN:237,_RINvMs1_NtNtCs2RUqfoJCtLU_5ruchy6parser14error_recoveryNtB6_13ErrorRecovery15skip_until_syncpEBa_
FN:297,_RNCNvMs2_NtNtCs2RUqfoJCtLU_5ruchy6parser14error_recoveryNtB7_13RecoveryRules14synthesize_ast0Bb_
FN:316,_RNCNvMs2_NtNtCs2RUqfoJCtLU_5ruchy6parser14error_recoveryNtB7_13RecoveryRules14synthesize_asts0_0Bb_
FN:322,_RNCNvMs2_NtNtCs2RUqfoJCtLU_5ruchy6parser14error_recoveryNtB7_13RecoveryRules14synthesize_asts1_0Bb_
FN:299,_RNCNvMs2_NtNtCs2RUqfoJCtLU_5ruchy6parser14error_recoveryNtB7_13RecoveryRules14synthesize_asts_0Bb_
FN:232,_RNvMs1_NtNtCs2RUqfoJCtLU_5ruchy6parser14error_recoveryNtB5_13ErrorRecovery13is_sync_token
FN:221,_RNvMs1_NtNtCs2RUqfoJCtLU_5ruchy6parser14error_recoveryNtB5_13ErrorRecovery15should_continue
FN:200,_RNvMs1_NtNtCs2RUqfoJCtLU_5ruchy6parser14error_recoveryNtB5_13ErrorRecovery18incomplete_if_expr
FN:181,_RNvMs1_NtNtCs2RUqfoJCtLU_5ruchy6parser14error_recoveryNtB5_13ErrorRecovery21malformed_let_binding
FN:161,_RNvMs1_NtNtCs2RUqfoJCtLU_5ruchy6parser14error_recoveryNtB5_13ErrorRecovery21missing_function_body
FN:131,_RNvMs1_NtNtCs2RUqfoJCtLU_5ruchy6parser14error_recoveryNtB5_13ErrorRecovery21missing_function_name
FN:146,_RNvMs1_NtNtCs2RUqfoJCtLU_5ruchy6parser14error_recoveryNtB5_13ErrorRecovery23missing_function_params
FN:126,_RNvMs1_NtNtCs2RUqfoJCtLU_5ruchy6parser14error_recoveryNtB5_13ErrorRecovery3new
FN:226,_RNvMs1_NtNtCs2RUqfoJCtLU_5ruchy6parser14error_recoveryNtB5_13ErrorRecovery5reset
FN:280,_RNvMs2_NtNtCs2RUqfoJCtLU_5ruchy6parser14error_recoveryNtB5_13RecoveryRules14synthesize_ast
FN:256,_RNvMs2_NtNtCs2RUqfoJCtLU_5ruchy6parser14error_recoveryNtB5_13RecoveryRules15select_strategy
FN:82,_RNvXNtNtCs2RUqfoJCtLU_5ruchy6parser14error_recoveryNtB2_13ExprWithErrorINtNtCs66KPHxksi63_4core7convert4FromNtNtNtB6_8frontend3ast4ExprE4from
FN:104,_RNvXs0_NtNtCs2RUqfoJCtLU_5ruchy6parser14error_recoveryNtB5_13ErrorRecoveryNtNtCs66KPHxksi63_4core7default7Default7default
FN:88,_RNvXs_NtNtCs2RUqfoJCtLU_5ruchy6parser14error_recoveryNtB4_13ExprWithErrorINtNtCs66KPHxksi63_4core7convert4FromNtB4_9ErrorNodeE4from
FNDA:0,_RINvMs1_NtNtCs2RUqfoJCtLU_5ruchy6parser14error_recoveryNtB6_13ErrorRecovery15skip_until_syncpEBa_
FNDA:0,_RNCNvMs2_NtNtCs2RUqfoJCtLU_5ruchy6parser14error_recoveryNtB7_13RecoveryRules14synthesize_ast0Bb_
FNDA:0,_RNCNvMs2_NtNtCs2RUqfoJCtLU_5ruchy6parser14error_recoveryNtB7_13RecoveryRules14synthesize_asts0_0Bb_
FNDA:0,_RNCNvMs2_NtNtCs2RUqfoJCtLU_5ruchy6parser14error_recoveryNtB7_13RecoveryRules14synthesize_asts1_0Bb_
FNDA:0,_RNCNvMs2_NtNtCs2RUqfoJCtLU_5ruchy6parser14error_recoveryNtB7_13RecoveryRules14synthesize_asts_0Bb_
FNDA:0,_RNvMs1_NtNtCs2RUqfoJCtLU_5ruchy6parser14error_recoveryNtB5_13ErrorRecovery13is_sync_token
FNDA:0,_RNvMs1_NtNtCs2RUqfoJCtLU_5ruchy6parser14error_recoveryNtB5_13ErrorRecovery15should_continue
FNDA:0,_RNvMs1_NtNtCs2RUqfoJCtLU_5ruchy6parser14error_recoveryNtB5_13ErrorRecovery18incomplete_if_expr
FNDA:0,_RNvMs1_NtNtCs2RUqfoJCtLU_5ruchy6parser14error_recoveryNtB5_13ErrorRecovery21malformed_let_binding
FNDA:0,_RNvMs1_NtNtCs2RUqfoJCtLU_5ruchy6parser14error_recoveryNtB5_13ErrorRecovery21missing_function_body
FNDA:0,_RNvMs1_NtNtCs2RUqfoJCtLU_5ruchy6parser14error_recoveryNtB5_13ErrorRecovery21missing_function_name
FNDA:0,_RNvMs1_NtNtCs2RUqfoJCtLU_5ruchy6parser14error_recoveryNtB5_13ErrorRecovery23missing_function_params
FNDA:36,_RNvMs1_NtNtCs2RUqfoJCtLU_5ruchy6parser14error_recoveryNtB5_13ErrorRecovery3new
FNDA:0,_RNvMs1_NtNtCs2RUqfoJCtLU_5ruchy6parser14error_recoveryNtB5_13ErrorRecovery5reset
FNDA:0,_RNvMs2_NtNtCs2RUqfoJCtLU_5ruchy6parser14error_recoveryNtB5_13RecoveryRules14synthesize_ast
FNDA:0,_RNvMs2_NtNtCs2RUqfoJCtLU_5ruchy6parser14error_recoveryNtB5_13RecoveryRules15select_strategy
FNDA:0,_RNvXNtNtCs2RUqfoJCtLU_5ruchy6parser14error_recoveryNtB2_13ExprWithErrorINtNtCs66KPHxksi63_4core7convert4FromNtNtNtB6_8frontend3ast4ExprE4from
FNDA:36,_RNvXs0_NtNtCs2RUqfoJCtLU_5ruchy6parser14error_recoveryNtB5_13ErrorRecoveryNtNtCs66KPHxksi63_4core7default7Default7default
FNDA:0,_RNvXs_NtNtCs2RUqfoJCtLU_5ruchy6parser14error_recoveryNtB4_13ExprWithErrorINtNtCs66KPHxksi63_4core7convert4FromNtB4_9ErrorNodeE4from
FNF:19
FNH:2
DA:82,0
DA:83,0
DA:84,0
DA:88,0
DA:89,0
DA:90,0
DA:104,36
DA:105,36
DA:106,36
DA:107,36
DA:108,36
DA:109,36
DA:110,36
DA:111,36
DA:112,36
DA:113,36
DA:114,36
DA:115,36
DA:116,36
DA:117,36
DA:118,36
DA:119,36
DA:120,36
DA:121,36
DA:126,36
DA:127,36
DA:128,36
DA:131,0
DA:132,0
DA:133,0
DA:134,0
DA:135,0
DA:136,0
DA:137,0
DA:138,0
DA:139,0
DA:140,0
DA:141,0
DA:142,0
DA:143,0
DA:146,0
DA:147,0
DA:148,0
DA:149,0
DA:150,0
DA:151,0
DA:152,0
DA:153,0
DA:154,0
DA:155,0
DA:156,0
DA:157,0
DA:158,0
DA:161,0
DA:162,0
DA:163,0
DA:164,0
DA:165,0
DA:166,0
DA:167,0
DA:168,0
DA:169,0
DA:170,0
DA:171,0
DA:172,0
DA:173,0
DA:174,0
DA:175,0
DA:176,0
DA:177,0
DA:178,0
DA:181,0
DA:182,0
DA:183,0
DA:184,0
DA:185,0
DA:186,0
DA:187,0
DA:188,0
DA:189,0
DA:190,0
DA:191,0
DA:192,0
DA:193,0
DA:194,0
DA:195,0
DA:196,0
DA:197,0
DA:200,0
DA:201,0
DA:202,0
DA:203,0
DA:204,0
DA:205,0
DA:206,0
DA:207,0
DA:208,0
DA:209,0
DA:210,0
DA:211,0
DA:212,0
DA:213,0
DA:214,0
DA:215,0
DA:216,0
DA:217,0
DA:221,0
DA:222,0
DA:223,0
DA:226,0
DA:227,0
DA:228,0
DA:232,0
DA:233,0
DA:234,0
DA:237,0
DA:238,0
DA:239,0
DA:241,0
DA:242,0
DA:243,0
DA:244,0
DA:246,0
DA:247,0
DA:256,0
DA:257,0
DA:258,0
DA:259,0
DA:260,0
DA:261,0
DA:262,0
DA:263,0
DA:264,0
DA:266,0
DA:269,0
DA:270,0
DA:272,0
DA:274,0
DA:276,0
DA:280,0
DA:281,0
DA:282,0
DA:285,0
DA:286,0
DA:287,0
DA:288,0
DA:289,0
DA:290,0
DA:293,0
DA:295,0
DA:297,0
DA:298,0
DA:299,0
DA:300,0
DA:301,0
DA:302,0
DA:305,0
DA:309,0
DA:310,0
DA:314,0
DA:316,0
DA:317,0
DA:318,0
DA:319,0
DA:321,0
DA:322,0
DA:323,0
DA:324,0
DA:325,0
DA:326,0
DA:327,0
DA:328,0
DA:330,0
DA:333,0
DA:335,0
DA:337,0
DA:339,0
DA:340,0
DA:342,0
DA:345,0
DA:347,0
DA:348,0
DA:349,0
DA:350,0
DA:351,0
DA:352,0
DA:353,0
DA:356,0
DA:360,0
BRF:0
BRH:0
LF:193
LH:21
end_of_record
SF:/home/noah/src/ruchy/src/proving/counterexample.rs
FN:213,_RNCNvMs0_NtNtCs2RUqfoJCtLU_5ruchy7proving14counterexampleNtB7_8TestCase14value_to_ruchy0Bb_
FN:219,_RNCNvMs0_NtNtCs2RUqfoJCtLU_5ruchy7proving14counterexampleNtB7_8TestCase14value_to_ruchys_0Bb_
FN:177,_RNvMs0_NtNtCs2RUqfoJCtLU_5ruchy7proving14counterexampleNtB5_8TestCase12set_expected
FN:182,_RNvMs0_NtNtCs2RUqfoJCtLU_5ruchy7proving14counterexampleNtB5_8TestCase13to_ruchy_test
FN:205,_RNvMs0_NtNtCs2RUqfoJCtLU_5ruchy7proving14counterexampleNtB5_8TestCase14value_to_ruchy
FN:163,_RNvMs0_NtNtCs2RUqfoJCtLU_5ruchy7proving14counterexampleNtB5_8TestCase3new
FN:172,_RNvMs0_NtNtCs2RUqfoJCtLU_5ruchy7proving14counterexampleNtB5_8TestCase9add_input
FN:292,_RNvMs1_NtNtCs2RUqfoJCtLU_5ruchy7proving14counterexampleNtB5_23CounterexampleGenerator11parse_value
FN:246,_RNvMs1_NtNtCs2RUqfoJCtLU_5ruchy7proving14counterexampleNtB5_23CounterexampleGenerator11set_backend
FN:382,_RNvMs1_NtNtCs2RUqfoJCtLU_5ruchy7proving14counterexampleNtB5_23CounterexampleGenerator12value_to_smt
FN:251,_RNvMs1_NtNtCs2RUqfoJCtLU_5ruchy7proving14counterexampleNtB5_23CounterexampleGenerator13set_shrinking
FN:325,_RNvMs1_NtNtCs2RUqfoJCtLU_5ruchy7proving14counterexampleNtB5_23CounterexampleGenerator16try_shrink_value
FN:341,_RNvMs1_NtNtCs2RUqfoJCtLU_5ruchy7proving14counterexampleNtB5_23CounterexampleGenerator19generate_test_suite
FN:275,_RNvMs1_NtNtCs2RUqfoJCtLU_5ruchy7proving14counterexampleNtB5_23CounterexampleGenerator20build_counterexample
FN:307,_RNvMs1_NtNtCs2RUqfoJCtLU_5ruchy7proving14counterexampleNtB5_23CounterexampleGenerator21shrink_counterexample
FN:237,_RNvMs1_NtNtCs2RUqfoJCtLU_5ruchy7proving14counterexampleNtB5_23CounterexampleGenerator3new
FN:256,_RNvMs1_NtNtCs2RUqfoJCtLU_5ruchy7proving14counterexampleNtB5_23CounterexampleGenerator8generate
FN:422,_RNvMs3_NtNtCs2RUqfoJCtLU_5ruchy7proving14counterexampleNtB5_16SymbolicExecutor12set_symbolic
FN:417,_RNvMs3_NtNtCs2RUqfoJCtLU_5ruchy7proving14counterexampleNtB5_16SymbolicExecutor13add_condition
FN:427,_RNvMs3_NtNtCs2RUqfoJCtLU_5ruchy7proving14counterexampleNtB5_16SymbolicExecutor15find_error_path
FN:408,_RNvMs3_NtNtCs2RUqfoJCtLU_5ruchy7proving14counterexampleNtB5_16SymbolicExecutor3new
FN:109,_RNvMs_NtNtCs2RUqfoJCtLU_5ruchy7proving14counterexampleNtB4_14Counterexample13format_report
FN:94,_RNvMs_NtNtCs2RUqfoJCtLU_5ruchy7proving14counterexampleNtB4_14Counterexample14add_assignment
FN:99,_RNvMs_NtNtCs2RUqfoJCtLU_5ruchy7proving14counterexampleNtB4_14Counterexample14add_trace_step
FN:104,_RNvMs_NtNtCs2RUqfoJCtLU_5ruchy7proving14counterexampleNtB4_14Counterexample15set_explanation
FN:84,_RNvMs_NtNtCs2RUqfoJCtLU_5ruchy7proving14counterexampleNtB4_14Counterexample3new
FN:39,_RNvXNtNtCs2RUqfoJCtLU_5ruchy7proving14counterexampleNtB2_5ValueNtNtCs66KPHxksi63_4core3fmt7Display3fmt
FN:394,_RNvXs2_NtNtCs2RUqfoJCtLU_5ruchy7proving14counterexampleNtB5_23CounterexampleGeneratorNtNtCs66KPHxksi63_4core7default7Default7default
FN:451,_RNvXs4_NtNtCs2RUqfoJCtLU_5ruchy7proving14counterexampleNtB5_16SymbolicExecutorNtNtCs66KPHxksi63_4core7default7Default7default
FNDA:0,_RNCNvMs0_NtNtCs2RUqfoJCtLU_5ruchy7proving14counterexampleNtB7_8TestCase14value_to_ruchy0Bb_
FNDA:0,_RNCNvMs0_NtNtCs2RUqfoJCtLU_5ruchy7proving14counterexampleNtB7_8TestCase14value_to_ruchys_0Bb_
FNDA:0,_RNvMs0_NtNtCs2RUqfoJCtLU_5ruchy7proving14counterexampleNtB5_8TestCase12set_expected
FNDA:0,_RNvMs0_NtNtCs2RUqfoJCtLU_5ruchy7proving14counterexampleNtB5_8TestCase13to_ruchy_test
FNDA:0,_RNvMs0_NtNtCs2RUqfoJCtLU_5ruchy7proving14counterexampleNtB5_8TestCase14value_to_ruchy
FNDA:0,_RNvMs0_NtNtCs2RUqfoJCtLU_5ruchy7proving14counterexampleNtB5_8TestCase3new
FNDA:0,_RNvMs0_NtNtCs2RUqfoJCtLU_5ruchy7proving14counterexampleNtB5_8TestCase9add_input
FNDA:0,_RNvMs1_NtNtCs2RUqfoJCtLU_5ruchy7proving14counterexampleNtB5_23CounterexampleGenerator11parse_value
FNDA:0,_RNvMs1_NtNtCs2RUqfoJCtLU_5ruchy7proving14counterexampleNtB5_23CounterexampleGenerator11set_backend
FNDA:0,_RNvMs1_NtNtCs2RUqfoJCtLU_5ruchy7proving14counterexampleNtB5_23CounterexampleGenerator12value_to_smt
FNDA:0,_RNvMs1_NtNtCs2RUqfoJCtLU_5ruchy7proving14counterexampleNtB5_23CounterexampleGenerator13set_shrinking
FNDA:0,_RNvMs1_NtNtCs2RUqfoJCtLU_5ruchy7proving14counterexampleNtB5_23CounterexampleGenerator16try_shrink_value
FNDA:0,_RNvMs1_NtNtCs2RUqfoJCtLU_5ruchy7proving14counterexampleNtB5_23CounterexampleGenerator19generate_test_suite
FNDA:0,_RNvMs1_NtNtCs2RUqfoJCtLU_5ruchy7proving14counterexampleNtB5_23CounterexampleGenerator20build_counterexample
FNDA:0,_RNvMs1_NtNtCs2RUqfoJCtLU_5ruchy7proving14counterexampleNtB5_23CounterexampleGenerator21shrink_counterexample
FNDA:0,_RNvMs1_NtNtCs2RUqfoJCtLU_5ruchy7proving14counterexampleNtB5_23CounterexampleGenerator3new
FNDA:0,_RNvMs1_NtNtCs2RUqfoJCtLU_5ruchy7proving14counterexampleNtB5_23CounterexampleGenerator8generate
FNDA:0,_RNvMs3_NtNtCs2RUqfoJCtLU_5ruchy7proving14counterexampleNtB5_16SymbolicExecutor12set_symbolic
FNDA:0,_RNvMs3_NtNtCs2RUqfoJCtLU_5ruchy7proving14counterexampleNtB5_16SymbolicExecutor13add_condition
FNDA:0,_RNvMs3_NtNtCs2RUqfoJCtLU_5ruchy7proving14counterexampleNtB5_16SymbolicExecutor15find_error_path
FNDA:0,_RNvMs3_NtNtCs2RUqfoJCtLU_5ruchy7proving14counterexampleNtB5_16SymbolicExecutor3new
FNDA:0,_RNvMs_NtNtCs2RUqfoJCtLU_5ruchy7proving14counterexampleNtB4_14Counterexample13format_report
FNDA:0,_RNvMs_NtNtCs2RUqfoJCtLU_5ruchy7proving14counterexampleNtB4_14Counterexample14add_assignment
FNDA:0,_RNvMs_NtNtCs2RUqfoJCtLU_5ruchy7proving14counterexampleNtB4_14Counterexample14add_trace_step
FNDA:0,_RNvMs_NtNtCs2RUqfoJCtLU_5ruchy7proving14counterexampleNtB4_14Counterexample15set_explanation
FNDA:0,_RNvMs_NtNtCs2RUqfoJCtLU_5ruchy7proving14counterexampleNtB4_14Counterexample3new
FNDA:0,_RNvXNtNtCs2RUqfoJCtLU_5ruchy7proving14counterexampleNtB2_5ValueNtNtCs66KPHxksi63_4core3fmt7Display3fmt
FNDA:0,_RNvXs2_NtNtCs2RUqfoJCtLU_5ruchy7proving14counterexampleNtB5_23CounterexampleGeneratorNtNtCs66KPHxksi63_4core7default7Default7default
FNDA:0,_RNvXs4_NtNtCs2RUqfoJCtLU_5ruchy7proving14counterexampleNtB5_16SymbolicExecutorNtNtCs66KPHxksi63_4core7default7Default7default
FNF:29
FNH:0
DA:39,0
DA:40,0
DA:41,0
DA:42,0
DA:43,0
DA:44,0
DA:45,0
DA:46,0
DA:47,0
DA:48,0
DA:49,0
DA:51,0
DA:53,0
DA:54,0
DA:55,0
DA:56,0
DA:57,0
DA:59,0
DA:61,0
DA:63,0
DA:84,0
DA:85,0
DA:86,0
DA:87,0
DA:88,0
DA:89,0
DA:90,0
DA:91,0
DA:94,0
DA:95,0
DA:96,0
DA:99,0
DA:100,0
DA:101,0
DA:104,0
DA:105,0
DA:106,0
DA:109,0
DA:110,0
DA:112,0
DA:114,0
DA:115,0
DA:117,0
DA:118,0
DA:119,0
DA:120,0
DA:121,0
DA:122,0
DA:123,0
DA:125,0
DA:126,0
DA:127,0
DA:128,0
DA:129,0
DA:130,0
DA:131,0
DA:132,0
DA:133,0
DA:134,0
DA:136,0
DA:137,0
DA:139,0
DA:140,0
DA:141,0
DA:142,0
DA:144,0
DA:145,0
DA:163,0
DA:164,0
DA:165,0
DA:166,0
DA:167,0
DA:168,0
DA:169,0
DA:172,0
DA:173,0
DA:174,0
DA:177,0
DA:178,0
DA:179,0
DA:182,0
DA:183,0
DA:185,0
DA:187,0
DA:188,0
DA:189,0
DA:190,0
DA:192,0
DA:194,0
DA:195,0
DA:196,0
DA:197,0
DA:199,0
DA:201,0
DA:202,0
DA:205,0
DA:206,0
DA:207,0
DA:208,0
DA:209,0
DA:210,0
DA:211,0
DA:212,0
DA:213,0
DA:214,0
DA:215,0
DA:217,0
DA:218,0
DA:219,0
DA:220,0
DA:221,0
DA:223,0
DA:225,0
DA:237,0
DA:238,0
DA:239,0
DA:240,0
DA:241,0
DA:242,0
DA:243,0
DA:246,0
DA:247,0
DA:248,0
DA:251,0
DA:252,0
DA:253,0
DA:256,0
DA:257,0
DA:259,0
DA:260,0
DA:261,0
DA:263,0
DA:265,0
DA:267,0
DA:268,0
DA:270,0
DA:272,0
DA:275,0
DA:276,0
DA:278,0
DA:279,0
DA:280,0
DA:281,0
DA:282,0
DA:284,0
DA:285,0
DA:286,0
DA:288,0
DA:289,0
DA:292,0
DA:293,0
DA:294,0
DA:295,0
DA:296,0
DA:297,0
DA:298,0
DA:299,0
DA:300,0
DA:302,0
DA:304,0
DA:307,0
DA:308,0
DA:309,0
DA:311,0
DA:312,0
DA:313,0
DA:315,0
DA:316,0
DA:317,0
DA:318,0
DA:319,0
DA:322,0
DA:325,0
DA:326,0
DA:327,0
DA:328,0
DA:329,0
DA:330,0
DA:331,0
DA:333,0
DA:334,0
DA:336,0
DA:338,0
DA:341,0
DA:342,0
DA:344,0
DA:345,0
DA:347,0
DA:348,0
DA:349,0
DA:351,0
DA:352,0
DA:353,0
DA:354,0
DA:355,0
DA:358,0
DA:360,0
DA:362,0
DA:363,0
DA:364,0
DA:365,0
DA:366,0
DA:367,0
DA:368,0
DA:370,0
DA:373,0
DA:374,0
DA:375,0
DA:378,0
DA:379,0
DA:382,0
DA:383,0
DA:384,0
DA:385,0
DA:386,0
DA:387,0
DA:388,0
DA:390,0
DA:394,0
DA:395,0
DA:396,0
DA:408,0
DA:409,0
DA:410,0
DA:411,0
DA:412,0
DA:413,0
DA:414,0
DA:417,0
DA:418,0
DA:419,0
DA:422,0
DA:423,0
DA:424,0
DA:427,0
DA:428,0
DA:430,0
DA:431,0
DA:432,0
DA:434,0
DA:435,0
DA:436,0
DA:438,0
DA:440,0
DA:442,0
DA:443,0
DA:445,0
DA:447,0
DA:451,0
DA:452,0
DA:453,0
BRF:0
BRH:0
LF:253
LH:0
end_of_record
SF:/home/noah/src/ruchy/src/proving/prover.rs
FN:40,_RNvMNtNtCs2RUqfoJCtLU_5ruchy7proving6proverNtB2_17InteractiveProver11load_script
FN:30,_RNvMNtNtCs2RUqfoJCtLU_5ruchy7proving6proverNtB2_17InteractiveProver11set_timeout
FN:51,_RNvMNtNtCs2RUqfoJCtLU_5ruchy7proving6proverNtB2_17InteractiveProver12apply_tactic
FN:79,_RNvMNtNtCs2RUqfoJCtLU_5ruchy7proving6proverNtB2_17InteractiveProver13process_input
FN:98,_RNvMNtNtCs2RUqfoJCtLU_5ruchy7proving6proverNtB2_17InteractiveProver15suggest_tactics
FN:35,_RNvMNtNtCs2RUqfoJCtLU_5ruchy7proving6proverNtB2_17InteractiveProver18set_ml_suggestions
FN:46,_RNvMNtNtCs2RUqfoJCtLU_5ruchy7proving6proverNtB2_17InteractiveProver21get_available_tactics
FN:20,_RNvMNtNtCs2RUqfoJCtLU_5ruchy7proving6proverNtB2_17InteractiveProver3new
FN:211,_RNvMs1_NtNtCs2RUqfoJCtLU_5ruchy7proving6proverNtB5_12ProofContext3new
FN:161,_RNvMs_NtNtCs2RUqfoJCtLU_5ruchy7proving6proverNtB4_13ProverSession11is_complete
FN:132,_RNvMs_NtNtCs2RUqfoJCtLU_5ruchy7proving6proverNtB4_13ProverSession11update_goal
FN:127,_RNvMs_NtNtCs2RUqfoJCtLU_5ruchy7proving6proverNtB4_13ProverSession12current_goal
FN:180,_RNvMs_NtNtCs2RUqfoJCtLU_5ruchy7proving6proverNtB4_13ProverSession12to_coq_proof
FN:139,_RNvMs_NtNtCs2RUqfoJCtLU_5ruchy7proving6proverNtB4_13ProverSession13complete_goal
FN:185,_RNvMs_NtNtCs2RUqfoJCtLU_5ruchy7proving6proverNtB4_13ProverSession13to_lean_proof
FN:166,_RNvMs_NtNtCs2RUqfoJCtLU_5ruchy7proving6proverNtB4_13ProverSession13to_text_proof
FN:146,_RNvMs_NtNtCs2RUqfoJCtLU_5ruchy7proving6proverNtB4_13ProverSession21replace_with_subgoals
FN:113,_RNvMs_NtNtCs2RUqfoJCtLU_5ruchy7proving6proverNtB4_13ProverSession3new
FN:122,_RNvMs_NtNtCs2RUqfoJCtLU_5ruchy7proving6proverNtB4_13ProverSession8add_goal
FN:156,_RNvMs_NtNtCs2RUqfoJCtLU_5ruchy7proving6proverNtB4_13ProverSession9get_goals
FN:191,_RNvXs0_NtNtCs2RUqfoJCtLU_5ruchy7proving6proverNtB5_13ProverSessionNtNtCs66KPHxksi63_4core7default7Default7default
FN:220,_RNvXs2_NtNtCs2RUqfoJCtLU_5ruchy7proving6proverNtB5_12ProofContextNtNtCs66KPHxksi63_4core7default7Default7default
FNDA:0,_RNvMNtNtCs2RUqfoJCtLU_5ruchy7proving6proverNtB2_17InteractiveProver11load_script
FNDA:0,_RNvMNtNtCs2RUqfoJCtLU_5ruchy7proving6proverNtB2_17InteractiveProver11set_timeout
FNDA:0,_RNvMNtNtCs2RUqfoJCtLU_5ruchy7proving6proverNtB2_17InteractiveProver12apply_tactic
FNDA:0,_RNvMNtNtCs2RUqfoJCtLU_5ruchy7proving6proverNtB2_17InteractiveProver13process_input
FNDA:0,_RNvMNtNtCs2RUqfoJCtLU_5ruchy7proving6proverNtB2_17InteractiveProver15suggest_tactics
FNDA:0,_RNvMNtNtCs2RUqfoJCtLU_5ruchy7proving6proverNtB2_17InteractiveProver18set_ml_suggestions
FNDA:0,_RNvMNtNtCs2RUqfoJCtLU_5ruchy7proving6proverNtB2_17InteractiveProver21get_available_tactics
FNDA:0,_RNvMNtNtCs2RUqfoJCtLU_5ruchy7proving6proverNtB2_17InteractiveProver3new
FNDA:0,_RNvMs1_NtNtCs2RUqfoJCtLU_5ruchy7proving6proverNtB5_12ProofContext3new
FNDA:0,_RNvMs_NtNtCs2RUqfoJCtLU_5ruchy7proving6proverNtB4_13ProverSession11is_complete
FNDA:0,_RNvMs_NtNtCs2RUqfoJCtLU_5ruchy7proving6proverNtB4_13ProverSession11update_goal
FNDA:0,_RNvMs_NtNtCs2RUqfoJCtLU_5ruchy7proving6proverNtB4_13ProverSession12current_goal
FNDA:0,_RNvMs_NtNtCs2RUqfoJCtLU_5ruchy7proving6proverNtB4_13ProverSession12to_coq_proof
FNDA:0,_RNvMs_NtNtCs2RUqfoJCtLU_5ruchy7proving6proverNtB4_13ProverSession13complete_goal
FNDA:0,_RNvMs_NtNtCs2RUqfoJCtLU_5ruchy7proving6proverNtB4_13ProverSession13to_lean_proof
FNDA:0,_RNvMs_NtNtCs2RUqfoJCtLU_5ruchy7proving6proverNtB4_13ProverSession13to_text_proof
FNDA:0,_RNvMs_NtNtCs2RUqfoJCtLU_5ruchy7proving6proverNtB4_13ProverSession21replace_with_subgoals
FNDA:0,_RNvMs_NtNtCs2RUqfoJCtLU_5ruchy7proving6proverNtB4_13ProverSession3new
FNDA:0,_RNvMs_NtNtCs2RUqfoJCtLU_5ruchy7proving6proverNtB4_13ProverSession8add_goal
FNDA:0,_RNvMs_NtNtCs2RUqfoJCtLU_5ruchy7proving6proverNtB4_13ProverSession9get_goals
FNDA:0,_RNvXs0_NtNtCs2RUqfoJCtLU_5ruchy7proving6proverNtB5_13ProverSessionNtNtCs66KPHxksi63_4core7default7Default7default
FNDA:0,_RNvXs2_NtNtCs2RUqfoJCtLU_5ruchy7proving6proverNtB5_12ProofContextNtNtCs66KPHxksi63_4core7default7Default7default
FNF:22
FNH:0
DA:20,0
DA:21,0
DA:22,0
DA:23,0
DA:24,0
DA:25,0
DA:26,0
DA:27,0
DA:30,0
DA:31,0
DA:32,0
DA:35,0
DA:36,0
DA:37,0
DA:40,0
DA:42,0
DA:43,0
DA:46,0
DA:47,0
DA:48,0
DA:51,0
DA:52,0
DA:54,0
DA:55,0
DA:56,0
DA:58,0
DA:59,0
DA:61,0
DA:62,0
DA:63,0
DA:65,0
DA:66,0
DA:67,0
DA:69,0
DA:70,0
DA:74,0
DA:76,0
DA:79,0
DA:81,0
DA:82,0
DA:83,0
DA:84,0
DA:87,0
DA:88,0
DA:89,0
DA:90,0
DA:91,0
DA:92,0
DA:94,0
DA:95,0
DA:98,0
DA:99,0
DA:100,0
DA:113,0
DA:114,0
DA:115,0
DA:116,0
DA:117,0
DA:118,0
DA:119,0
DA:122,0
DA:123,0
DA:124,0
DA:127,0
DA:128,0
DA:129,0
DA:132,0
DA:133,0
DA:134,0
DA:135,0
DA:136,0
DA:139,0
DA:140,0
DA:141,0
DA:142,0
DA:143,0
DA:146,0
DA:147,0
DA:148,0
DA:149,0
DA:150,0
DA:151,0
DA:152,0
DA:153,0
DA:156,0
DA:157,0
DA:158,0
DA:161,0
DA:162,0
DA:163,0
DA:166,0
DA:167,0
DA:168,0
DA:169,0
DA:171,0
DA:173,0
DA:174,0
DA:175,0
DA:176,0
DA:177,0
DA:180,0
DA:181,0
DA:182,0
DA:185,0
DA:186,0
DA:187,0
DA:191,0
DA:192,0
DA:193,0
DA:211,0
DA:212,0
DA:213,0
DA:214,0
DA:215,0
DA:216,0
DA:220,0
DA:221,0
DA:222,0
BRF:0
BRH:0
LF:118
LH:0
end_of_record
SF:/home/noah/src/ruchy/src/proving/refinement.rs
FN:251,_RNCNvMs2_NtNtCs2RUqfoJCtLU_5ruchy7proving10refinementNtB7_17RefinementChecker15verify_function0Bb_
FN:48,_RNvMNtNtCs2RUqfoJCtLU_5ruchy7proving10refinementNtB2_14RefinementType11bounded_int
FN:60,_RNvMNtNtCs2RUqfoJCtLU_5ruchy7proving10refinementNtB2_14RefinementType12positive_int
FN:84,_RNvMNtNtCs2RUqfoJCtLU_5ruchy7proving10refinementNtB2_14RefinementType12sorted_array
FN:72,_RNvMNtNtCs2RUqfoJCtLU_5ruchy7proving10refinementNtB2_14RefinementType15non_empty_array
FN:177,_RNvMs1_NtNtCs2RUqfoJCtLU_5ruchy7proving10refinementNtB5_14TypeRefinement13add_invariant
FN:167,_RNvMs1_NtNtCs2RUqfoJCtLU_5ruchy7proving10refinementNtB5_14TypeRefinement16add_precondition
FN:172,_RNvMs1_NtNtCs2RUqfoJCtLU_5ruchy7proving10refinementNtB5_14TypeRefinement17add_postcondition
FN:156,_RNvMs1_NtNtCs2RUqfoJCtLU_5ruchy7proving10refinementNtB5_14TypeRefinement3new
FN:220,_RNvMs2_NtNtCs2RUqfoJCtLU_5ruchy7proving10refinementNtB5_17RefinementChecker10is_subtype
FN:210,_RNvMs2_NtNtCs2RUqfoJCtLU_5ruchy7proving10refinementNtB5_17RefinementChecker11declare_var
FN:205,_RNvMs2_NtNtCs2RUqfoJCtLU_5ruchy7proving10refinementNtB5_17RefinementChecker11set_backend
FN:273,_RNvMs2_NtNtCs2RUqfoJCtLU_5ruchy7proving10refinementNtB5_17RefinementChecker15check_invariant
FN:249,_RNvMs2_NtNtCs2RUqfoJCtLU_5ruchy7proving10refinementNtB5_17RefinementChecker15verify_function
FN:215,_RNvMs2_NtNtCs2RUqfoJCtLU_5ruchy7proving10refinementNtB5_17RefinementChecker16declare_function
FN:236,_RNvMs2_NtNtCs2RUqfoJCtLU_5ruchy7proving10refinementNtB5_17RefinementChecker17check_implication
FN:196,_RNvMs2_NtNtCs2RUqfoJCtLU_5ruchy7proving10refinementNtB5_17RefinementChecker3new
FN:310,_RNvMs4_NtNtCs2RUqfoJCtLU_5ruchy7proving10refinementNtB5_18VerificationResult5error
FN:305,_RNvMs4_NtNtCs2RUqfoJCtLU_5ruchy7proving10refinementNtB5_18VerificationResult8is_valid
FN:361,_RNvMs5_NtNtCs2RUqfoJCtLU_5ruchy7proving10refinementNtB5_19LiquidTypeInference14add_constraint
FN:326,_RNvMs5_NtNtCs2RUqfoJCtLU_5ruchy7proving10refinementNtB5_19LiquidTypeInference3new
FN:334,_RNvMs5_NtNtCs2RUqfoJCtLU_5ruchy7proving10refinementNtB5_19LiquidTypeInference5infer
FN:366,_RNvMs5_NtNtCs2RUqfoJCtLU_5ruchy7proving10refinementNtB5_19LiquidTypeInference5solve
FN:107,_RNvXs0_NtNtCs2RUqfoJCtLU_5ruchy7proving10refinementNtB5_8BaseTypeNtNtCs66KPHxksi63_4core3fmt7Display3fmt
FN:290,_RNvXs3_NtNtCs2RUqfoJCtLU_5ruchy7proving10refinementNtB5_17RefinementCheckerNtNtCs66KPHxksi63_4core7default7Default7default
FN:381,_RNvXs6_NtNtCs2RUqfoJCtLU_5ruchy7proving10refinementNtB5_19LiquidTypeInferenceNtNtCs66KPHxksi63_4core7default7Default7default
FN:97,_RNvXs_NtNtCs2RUqfoJCtLU_5ruchy7proving10refinementNtB4_14RefinementTypeNtNtCs66KPHxksi63_4core3fmt7Display3fmt
FNDA:0,_RNCNvMs2_NtNtCs2RUqfoJCtLU_5ruchy7proving10refinementNtB7_17RefinementChecker15verify_function0Bb_
FNDA:0,_RNvMNtNtCs2RUqfoJCtLU_5ruchy7proving10refinementNtB2_14RefinementType11bounded_int
FNDA:0,_RNvMNtNtCs2RUqfoJCtLU_5ruchy7proving10refinementNtB2_14RefinementType12positive_int
FNDA:0,_RNvMNtNtCs2RUqfoJCtLU_5ruchy7proving10refinementNtB2_14RefinementType12sorted_array
FNDA:0,_RNvMNtNtCs2RUqfoJCtLU_5ruchy7proving10refinementNtB2_14RefinementType15non_empty_array
FNDA:0,_RNvMs1_NtNtCs2RUqfoJCtLU_5ruchy7proving10refinementNtB5_14TypeRefinement13add_invariant
FNDA:0,_RNvMs1_NtNtCs2RUqfoJCtLU_5ruchy7proving10refinementNtB5_14TypeRefinement16add_precondition
FNDA:0,_RNvMs1_NtNtCs2RUqfoJCtLU_5ruchy7proving10refinementNtB5_14TypeRefinement17add_postcondition
FNDA:0,_RNvMs1_NtNtCs2RUqfoJCtLU_5ruchy7proving10refinementNtB5_14TypeRefinement3new
FNDA:0,_RNvMs2_NtNtCs2RUqfoJCtLU_5ruchy7proving10refinementNtB5_17RefinementChecker10is_subtype
FNDA:0,_RNvMs2_NtNtCs2RUqfoJCtLU_5ruchy7proving10refinementNtB5_17RefinementChecker11declare_var
FNDA:0,_RNvMs2_NtNtCs2RUqfoJCtLU_5ruchy7proving10refinementNtB5_17RefinementChecker11set_backend
FNDA:0,_RNvMs2_NtNtCs2RUqfoJCtLU_5ruchy7proving10refinementNtB5_17RefinementChecker15check_invariant
FNDA:0,_RNvMs2_NtNtCs2RUqfoJCtLU_5ruchy7proving10refinementNtB5_17RefinementChecker15verify_function
FNDA:0,_RNvMs2_NtNtCs2RUqfoJCtLU_5ruchy7proving10refinementNtB5_17RefinementChecker16declare_function
FNDA:0,_RNvMs2_NtNtCs2RUqfoJCtLU_5ruchy7proving10refinementNtB5_17RefinementChecker17check_implication
FNDA:0,_RNvMs2_NtNtCs2RUqfoJCtLU_5ruchy7proving10refinementNtB5_17RefinementChecker3new
FNDA:0,_RNvMs4_NtNtCs2RUqfoJCtLU_5ruchy7proving10refinementNtB5_18VerificationResult5error
FNDA:0,_RNvMs4_NtNtCs2RUqfoJCtLU_5ruchy7proving10refinementNtB5_18VerificationResult8is_valid
FNDA:0,_RNvMs5_NtNtCs2RUqfoJCtLU_5ruchy7proving10refinementNtB5_19LiquidTypeInference14add_constraint
FNDA:0,_RNvMs5_NtNtCs2RUqfoJCtLU_5ruchy7proving10refinementNtB5_19LiquidTypeInference3new
FNDA:0,_RNvMs5_NtNtCs2RUqfoJCtLU_5ruchy7proving10refinementNtB5_19LiquidTypeInference5infer
FNDA:0,_RNvMs5_NtNtCs2RUqfoJCtLU_5ruchy7proving10refinementNtB5_19LiquidTypeInference5solve
FNDA:0,_RNvXs0_NtNtCs2RUqfoJCtLU_5ruchy7proving10refinementNtB5_8BaseTypeNtNtCs66KPHxksi63_4core3fmt7Display3fmt
FNDA:0,_RNvXs3_NtNtCs2RUqfoJCtLU_5ruchy7proving10refinementNtB5_17RefinementCheckerNtNtCs66KPHxksi63_4core7default7Default7default
FNDA:0,_RNvXs6_NtNtCs2RUqfoJCtLU_5ruchy7proving10refinementNtB5_19LiquidTypeInferenceNtNtCs66KPHxksi63_4core7default7Default7default
FNDA:0,_RNvXs_NtNtCs2RUqfoJCtLU_5ruchy7proving10refinementNtB4_14RefinementTypeNtNtCs66KPHxksi63_4core3fmt7Display3fmt
FNF:27
FNH:0
DA:48,0
DA:49,0
DA:50,0
DA:51,0
DA:52,0
DA:53,0
DA:54,0
DA:55,0
DA:56,0
DA:57,0
DA:60,0
DA:61,0
DA:62,0
DA:63,0
DA:64,0
DA:65,0
DA:66,0
DA:67,0
DA:68,0
DA:69,0
DA:72,0
DA:73,0
DA:74,0
DA:75,0
DA:76,0
DA:77,0
DA:78,0
DA:79,0
DA:80,0
DA:81,0
DA:84,0
DA:85,0
DA:86,0
DA:87,0
DA:88,0
DA:89,0
DA:90,0
DA:91,0
DA:92,0
DA:93,0
DA:97,0
DA:98,0
DA:99,0
DA:101,0
DA:103,0
DA:107,0
DA:108,0
DA:109,0
DA:110,0
DA:111,0
DA:112,0
DA:113,0
DA:114,0
DA:115,0
DA:116,0
DA:117,0
DA:118,0
DA:120,0
DA:122,0
DA:123,0
DA:124,0
DA:125,0
DA:126,0
DA:128,0
DA:130,0
DA:132,0
DA:156,0
DA:157,0
DA:158,0
DA:159,0
DA:160,0
DA:161,0
DA:162,0
DA:163,0
DA:164,0
DA:167,0
DA:168,0
DA:169,0
DA:172,0
DA:173,0
DA:174,0
DA:177,0
DA:178,0
DA:179,0
DA:196,0
DA:197,0
DA:198,0
DA:199,0
DA:200,0
DA:201,0
DA:202,0
DA:205,0
DA:206,0
DA:207,0
DA:210,0
DA:211,0
DA:212,0
DA:215,0
DA:216,0
DA:217,0
DA:220,0
DA:221,0
DA:222,0
DA:223,0
DA:225,0
DA:226,0
DA:227,0
DA:229,0
DA:230,0
DA:231,0
DA:233,0
DA:236,0
DA:237,0
DA:239,0
DA:240,0
DA:242,0
DA:243,0
DA:244,0
DA:246,0
DA:249,0
DA:250,0
DA:251,0
DA:253,0
DA:255,0
DA:256,0
DA:257,0
DA:259,0
DA:261,0
DA:262,0
DA:263,0
DA:265,0
DA:266,0
DA:267,0
DA:268,0
DA:270,0
DA:273,0
DA:274,0
DA:276,0
DA:278,0
DA:280,0
DA:282,0
DA:283,0
DA:284,0
DA:286,0
DA:290,0
DA:291,0
DA:292,0
DA:305,0
DA:306,0
DA:307,0
DA:310,0
DA:311,0
DA:312,0
DA:313,0
DA:315,0
DA:326,0
DA:327,0
DA:328,0
DA:329,0
DA:330,0
DA:331,0
DA:334,0
DA:335,0
DA:336,0
DA:337,0
DA:338,0
DA:339,0
DA:340,0
DA:341,0
DA:342,0
DA:343,0
DA:344,0
DA:345,0
DA:347,0
DA:348,0
DA:349,0
DA:350,0
DA:351,0
DA:352,0
DA:353,0
DA:354,0
DA:355,0
DA:356,0
DA:358,0
DA:361,0
DA:362,0
DA:363,0
DA:366,0
DA:367,0
DA:369,0
DA:370,0
DA:371,0
DA:373,0
DA:374,0
DA:375,0
DA:377,0
DA:381,0
DA:382,0
DA:383,0
BRF:0
BRH:0
LF:200
LH:0
end_of_record
SF:/home/noah/src/ruchy/src/proving/smt.rs
FN:30,_RNvMNtNtCs2RUqfoJCtLU_5ruchy7proving3smtNtB2_10SmtBackend4args
FN:20,_RNvMNtNtCs2RUqfoJCtLU_5ruchy7proving3smtNtB2_10SmtBackend7command
FN:215,_RNvMs1_NtNtCs2RUqfoJCtLU_5ruchy7proving3smtNtB5_8SmtQuery14add_assumption
FN:201,_RNvMs1_NtNtCs2RUqfoJCtLU_5ruchy7proving3smtNtB5_8SmtQuery3new
FN:210,_RNvMs1_NtNtCs2RUqfoJCtLU_5ruchy7proving3smtNtB5_8SmtQuery7add_var
FN:220,_RNvMs1_NtNtCs2RUqfoJCtLU_5ruchy7proving3smtNtB5_8SmtQuery7execute
FN:249,_RNvMs2_NtNtCs2RUqfoJCtLU_5ruchy7proving3smtNtB5_9SmtResult10is_success
FN:254,_RNvMs2_NtNtCs2RUqfoJCtLU_5ruchy7proving3smtNtB5_9SmtResult11description
FN:289,_RNvMs3_NtNtCs2RUqfoJCtLU_5ruchy7proving3smtNtB5_15ProofAutomation17prove_equivalence
FN:283,_RNvMs3_NtNtCs2RUqfoJCtLU_5ruchy7proving3smtNtB5_15ProofAutomation17prove_implication
FN:275,_RNvMs3_NtNtCs2RUqfoJCtLU_5ruchy7proving3smtNtB5_15ProofAutomation3new
FN:295,_RNvMs3_NtNtCs2RUqfoJCtLU_5ruchy7proving3smtNtB5_15ProofAutomation5prove
FN:117,_RNvMs_NtNtCs2RUqfoJCtLU_5ruchy7proving3smtNtB4_9SmtSolver11build_query
FN:73,_RNvMs_NtNtCs2RUqfoJCtLU_5ruchy7proving3smtNtB4_9SmtSolver11declare_fun
FN:65,_RNvMs_NtNtCs2RUqfoJCtLU_5ruchy7proving3smtNtB4_9SmtSolver11declare_var
FN:175,_RNvMs_NtNtCs2RUqfoJCtLU_5ruchy7proving3smtNtB4_9SmtSolver11parse_model
FN:60,_RNvMs_NtNtCs2RUqfoJCtLU_5ruchy7proving3smtNtB4_9SmtSolver11set_timeout
FN:160,_RNvMs_NtNtCs2RUqfoJCtLU_5ruchy7proving3smtNtB4_9SmtSolver12parse_result
FN:141,_RNvMs_NtNtCs2RUqfoJCtLU_5ruchy7proving3smtNtB4_9SmtSolver13execute_query
FN:50,_RNvMs_NtNtCs2RUqfoJCtLU_5ruchy7proving3smtNtB4_9SmtSolver3new
FN:105,_RNvMs_NtNtCs2RUqfoJCtLU_5ruchy7proving3smtNtB4_9SmtSolver5prove
FN:82,_RNvMs_NtNtCs2RUqfoJCtLU_5ruchy7proving3smtNtB4_9SmtSolver6assert
FN:87,_RNvMs_NtNtCs2RUqfoJCtLU_5ruchy7proving3smtNtB4_9SmtSolver9check_sat
FN:93,_RNvMs_NtNtCs2RUqfoJCtLU_5ruchy7proving3smtNtB4_9SmtSolver9get_model
FN:181,_RNvXs0_NtNtCs2RUqfoJCtLU_5ruchy7proving3smtNtB5_9SmtSolverNtNtCs66KPHxksi63_4core5clone5Clone5clone
FNDA:0,_RNvMNtNtCs2RUqfoJCtLU_5ruchy7proving3smtNtB2_10SmtBackend4args
FNDA:0,_RNvMNtNtCs2RUqfoJCtLU_5ruchy7proving3smtNtB2_10SmtBackend7command
FNDA:0,_RNvMs1_NtNtCs2RUqfoJCtLU_5ruchy7proving3smtNtB5_8SmtQuery14add_assumption
FNDA:0,_RNvMs1_NtNtCs2RUqfoJCtLU_5ruchy7proving3smtNtB5_8SmtQuery3new
FNDA:0,_RNvMs1_NtNtCs2RUqfoJCtLU_5ruchy7proving3smtNtB5_8SmtQuery7add_var
FNDA:0,_RNvMs1_NtNtCs2RUqfoJCtLU_5ruchy7proving3smtNtB5_8SmtQuery7execute
FNDA:0,_RNvMs2_NtNtCs2RUqfoJCtLU_5ruchy7proving3smtNtB5_9SmtResult10is_success
FNDA:0,_RNvMs2_NtNtCs2RUqfoJCtLU_5ruchy7proving3smtNtB5_9SmtResult11description
FNDA:0,_RNvMs3_NtNtCs2RUqfoJCtLU_5ruchy7proving3smtNtB5_15ProofAutomation17prove_equivalence
FNDA:0,_RNvMs3_NtNtCs2RUqfoJCtLU_5ruchy7proving3smtNtB5_15ProofAutomation17prove_implication
FNDA:0,_RNvMs3_NtNtCs2RUqfoJCtLU_5ruchy7proving3smtNtB5_15ProofAutomation3new
FNDA:0,_RNvMs3_NtNtCs2RUqfoJCtLU_5ruchy7proving3smtNtB5_15ProofAutomation5prove
FNDA:0,_RNvMs_NtNtCs2RUqfoJCtLU_5ruchy7proving3smtNtB4_9SmtSolver11build_query
FNDA:0,_RNvMs_NtNtCs2RUqfoJCtLU_5ruchy7proving3smtNtB4_9SmtSolver11declare_fun
FNDA:0,_RNvMs_NtNtCs2RUqfoJCtLU_5ruchy7proving3smtNtB4_9SmtSolver11declare_var
FNDA:0,_RNvMs_NtNtCs2RUqfoJCtLU_5ruchy7proving3smtNtB4_9SmtSolver11parse_model
FNDA:0,_RNvMs_NtNtCs2RUqfoJCtLU_5ruchy7proving3smtNtB4_9SmtSolver11set_timeout
FNDA:0,_RNvMs_NtNtCs2RUqfoJCtLU_5ruchy7proving3smtNtB4_9SmtSolver12parse_result
FNDA:0,_RNvMs_NtNtCs2RUqfoJCtLU_5ruchy7proving3smtNtB4_9SmtSolver13execute_query
FNDA:0,_RNvMs_NtNtCs2RUqfoJCtLU_5ruchy7proving3smtNtB4_9SmtSolver3new
FNDA:0,_RNvMs_NtNtCs2RUqfoJCtLU_5ruchy7proving3smtNtB4_9SmtSolver5prove
FNDA:0,_RNvMs_NtNtCs2RUqfoJCtLU_5ruchy7proving3smtNtB4_9SmtSolver6assert
FNDA:0,_RNvMs_NtNtCs2RUqfoJCtLU_5ruchy7proving3smtNtB4_9SmtSolver9check_sat
FNDA:0,_RNvMs_NtNtCs2RUqfoJCtLU_5ruchy7proving3smtNtB4_9SmtSolver9get_model
FNDA:0,_RNvXs0_NtNtCs2RUqfoJCtLU_5ruchy7proving3smtNtB5_9SmtSolverNtNtCs66KPHxksi63_4core5clone5Clone5clone
FNF:25
FNH:0
DA:20,0
DA:21,0
DA:22,0
DA:23,0
DA:24,0
DA:25,0
DA:27,0
DA:30,0
DA:31,0
DA:32,0
DA:33,0
DA:34,0
DA:35,0
DA:37,0
DA:50,0
DA:51,0
DA:52,0
DA:53,0
DA:54,0
DA:55,0
DA:56,0
DA:57,0
DA:60,0
DA:61,0
DA:62,0
DA:65,0
DA:66,0
DA:67,0
DA:68,0
DA:70,0
DA:73,0
DA:74,0
DA:75,0
DA:76,0
DA:77,0
DA:79,0
DA:82,0
DA:83,0
DA:84,0
DA:87,0
DA:88,0
DA:89,0
DA:90,0
DA:93,0
DA:94,0
DA:95,0
DA:97,0
DA:98,0
DA:100,0
DA:102,0
DA:105,0
DA:106,0
DA:107,0
DA:109,0
DA:110,0
DA:111,0
DA:112,0
DA:114,0
DA:117,0
DA:118,0
DA:120,0
DA:121,0
DA:123,0
DA:124,0
DA:125,0
DA:126,0
DA:128,0
DA:129,0
DA:130,0
DA:131,0
DA:133,0
DA:134,0
DA:135,0
DA:137,0
DA:138,0
DA:141,0
DA:142,0
DA:143,0
DA:144,0
DA:145,0
DA:146,0
DA:147,0
DA:149,0
DA:150,0
DA:151,0
DA:153,0
DA:154,0
DA:156,0
DA:157,0
DA:160,0
DA:161,0
DA:162,0
DA:163,0
DA:164,0
DA:165,0
DA:166,0
DA:167,0
DA:168,0
DA:170,0
DA:172,0
DA:175,0
DA:176,0
DA:177,0
DA:181,0
DA:182,0
DA:183,0
DA:184,0
DA:185,0
DA:186,0
DA:187,0
DA:188,0
DA:201,0
DA:202,0
DA:203,0
DA:204,0
DA:205,0
DA:206,0
DA:207,0
DA:210,0
DA:211,0
DA:212,0
DA:215,0
DA:216,0
DA:217,0
DA:220,0
DA:221,0
DA:223,0
DA:224,0
DA:225,0
DA:227,0
DA:228,0
DA:229,0
DA:231,0
DA:232,0
DA:249,0
DA:250,0
DA:251,0
DA:254,0
DA:255,0
DA:256,0
DA:257,0
DA:258,0
DA:259,0
DA:260,0
DA:261,0
DA:262,0
DA:264,0
DA:275,0
DA:276,0
DA:277,0
DA:278,0
DA:279,0
DA:280,0
DA:283,0
DA:284,0
DA:285,0
DA:286,0
DA:289,0
DA:290,0
DA:291,0
DA:292,0
DA:295,0
DA:296,0
DA:297,0
DA:298,0
DA:300,0
DA:301,0
DA:302,0
DA:304,0
DA:305,0
BRF:0
BRH:0
LF:170
LH:0
end_of_record
SF:/home/noah/src/ruchy/src/proving/tactics.rs
FN:161,_RNCNvXs0_NtNtCs2RUqfoJCtLU_5ruchy7proving7tacticsNtB7_11SplitTacticNtB7_6Tactic5apply0Bb_
FN:107,_RNCNvMNtNtCs2RUqfoJCtLU_5ruchy7proving7tacticsNtB4_13TacticLibrary15suggest_tactics0B8_
FN:86,_RNCNvMNtNtCs2RUqfoJCtLU_5ruchy7proving7tacticsNtB4_13TacticLibrary10get_tactic0B8_
FN:339,_RNCNvXs6_NtNtCs2RUqfoJCtLU_5ruchy7proving7tacticsNtB7_13RewriteTacticNtB7_6Tactic13is_applicable0Bb_
FN:83,_RNvMNtNtCs2RUqfoJCtLU_5ruchy7proving7tacticsNtB2_13TacticLibrary10get_tactic
FN:78,_RNvMNtNtCs2RUqfoJCtLU_5ruchy7proving7tacticsNtB2_13TacticLibrary11all_tactics
FN:90,_RNvMNtNtCs2RUqfoJCtLU_5ruchy7proving7tacticsNtB2_13TacticLibrary15suggest_tactics
FN:113,_RNvMNtNtCs2RUqfoJCtLU_5ruchy7proving7tacticsNtB2_13TacticLibrary20calculate_confidence
FN:56,_RNvMNtNtCs2RUqfoJCtLU_5ruchy7proving7tacticsNtB2_13TacticLibrary7default
FN:156,_RNvXs0_NtNtCs2RUqfoJCtLU_5ruchy7proving7tacticsNtB5_11SplitTacticNtB5_6Tactic11description
FN:167,_RNvXs0_NtNtCs2RUqfoJCtLU_5ruchy7proving7tacticsNtB5_11SplitTacticNtB5_6Tactic13is_applicable
FN:154,_RNvXs0_NtNtCs2RUqfoJCtLU_5ruchy7proving7tacticsNtB5_11SplitTacticNtB5_6Tactic4name
FN:158,_RNvXs0_NtNtCs2RUqfoJCtLU_5ruchy7proving7tacticsNtB5_11SplitTacticNtB5_6Tactic5apply
FN:178,_RNvXs1_NtNtCs2RUqfoJCtLU_5ruchy7proving7tacticsNtB5_15InductionTacticNtB5_6Tactic11description
FN:195,_RNvXs1_NtNtCs2RUqfoJCtLU_5ruchy7proving7tacticsNtB5_15InductionTacticNtB5_6Tactic13is_applicable
FN:176,_RNvXs1_NtNtCs2RUqfoJCtLU_5ruchy7proving7tacticsNtB5_15InductionTacticNtB5_6Tactic4name
FN:180,_RNvXs1_NtNtCs2RUqfoJCtLU_5ruchy7proving7tacticsNtB5_15InductionTacticNtB5_6Tactic5apply
FN:206,_RNvXs2_NtNtCs2RUqfoJCtLU_5ruchy7proving7tacticsNtB5_19ContradictionTacticNtB5_6Tactic11description
FN:221,_RNvXs2_NtNtCs2RUqfoJCtLU_5ruchy7proving7tacticsNtB5_19ContradictionTacticNtB5_6Tactic13is_applicable
FN:204,_RNvXs2_NtNtCs2RUqfoJCtLU_5ruchy7proving7tacticsNtB5_19ContradictionTacticNtB5_6Tactic4name
FN:208,_RNvXs2_NtNtCs2RUqfoJCtLU_5ruchy7proving7tacticsNtB5_19ContradictionTacticNtB5_6Tactic5apply
FN:232,_RNvXs3_NtNtCs2RUqfoJCtLU_5ruchy7proving7tacticsNtB5_17ReflexivityTacticNtB5_6Tactic11description
FN:244,_RNvXs3_NtNtCs2RUqfoJCtLU_5ruchy7proving7tacticsNtB5_17ReflexivityTacticNtB5_6Tactic13is_applicable
FN:230,_RNvXs3_NtNtCs2RUqfoJCtLU_5ruchy7proving7tacticsNtB5_17ReflexivityTacticNtB5_6Tactic4name
FN:234,_RNvXs3_NtNtCs2RUqfoJCtLU_5ruchy7proving7tacticsNtB5_17ReflexivityTacticNtB5_6Tactic5apply
FN:255,_RNvXs4_NtNtCs2RUqfoJCtLU_5ruchy7proving7tacticsNtB5_14SimplifyTacticNtB5_6Tactic11description
FN:275,_RNvXs4_NtNtCs2RUqfoJCtLU_5ruchy7proving7tacticsNtB5_14SimplifyTacticNtB5_6Tactic13is_applicable
FN:253,_RNvXs4_NtNtCs2RUqfoJCtLU_5ruchy7proving7tacticsNtB5_14SimplifyTacticNtB5_6Tactic4name
FN:257,_RNvXs4_NtNtCs2RUqfoJCtLU_5ruchy7proving7tacticsNtB5_14SimplifyTacticNtB5_6Tactic5apply
FN:286,_RNvXs5_NtNtCs2RUqfoJCtLU_5ruchy7proving7tacticsNtB5_12UnfoldTacticNtB5_6Tactic11description
FN:302,_RNvXs5_NtNtCs2RUqfoJCtLU_5ruchy7proving7tacticsNtB5_12UnfoldTacticNtB5_6Tactic13is_applicable
FN:284,_RNvXs5_NtNtCs2RUqfoJCtLU_5ruchy7proving7tacticsNtB5_12UnfoldTacticNtB5_6Tactic4name
FN:288,_RNvXs5_NtNtCs2RUqfoJCtLU_5ruchy7proving7tacticsNtB5_12UnfoldTacticNtB5_6Tactic5apply
FN:313,_RNvXs6_NtNtCs2RUqfoJCtLU_5ruchy7proving7tacticsNtB5_13RewriteTacticNtB5_6Tactic11description
FN:338,_RNvXs6_NtNtCs2RUqfoJCtLU_5ruchy7proving7tacticsNtB5_13RewriteTacticNtB5_6Tactic13is_applicable
FN:311,_RNvXs6_NtNtCs2RUqfoJCtLU_5ruchy7proving7tacticsNtB5_13RewriteTacticNtB5_6Tactic4name
FN:315,_RNvXs6_NtNtCs2RUqfoJCtLU_5ruchy7proving7tacticsNtB5_13RewriteTacticNtB5_6Tactic5apply
FN:349,_RNvXs7_NtNtCs2RUqfoJCtLU_5ruchy7proving7tacticsNtB5_11ApplyTacticNtB5_6Tactic11description
FN:360,_RNvXs7_NtNtCs2RUqfoJCtLU_5ruchy7proving7tacticsNtB5_11ApplyTacticNtB5_6Tactic13is_applicable
FN:347,_RNvXs7_NtNtCs2RUqfoJCtLU_5ruchy7proving7tacticsNtB5_11ApplyTacticNtB5_6Tactic4name
FN:351,_RNvXs7_NtNtCs2RUqfoJCtLU_5ruchy7proving7tacticsNtB5_11ApplyTacticNtB5_6Tactic5apply
FN:371,_RNvXs8_NtNtCs2RUqfoJCtLU_5ruchy7proving7tacticsNtB5_16AssumptionTacticNtB5_6Tactic11description
FN:381,_RNvXs8_NtNtCs2RUqfoJCtLU_5ruchy7proving7tacticsNtB5_16AssumptionTacticNtB5_6Tactic13is_applicable
FN:369,_RNvXs8_NtNtCs2RUqfoJCtLU_5ruchy7proving7tacticsNtB5_16AssumptionTacticNtB5_6Tactic4name
FN:373,_RNvXs8_NtNtCs2RUqfoJCtLU_5ruchy7proving7tacticsNtB5_16AssumptionTacticNtB5_6Tactic5apply
FN:133,_RNvXs_NtNtCs2RUqfoJCtLU_5ruchy7proving7tacticsNtB4_11IntroTacticNtB4_6Tactic11description
FN:145,_RNvXs_NtNtCs2RUqfoJCtLU_5ruchy7proving7tacticsNtB4_11IntroTacticNtB4_6Tactic13is_applicable
FN:131,_RNvXs_NtNtCs2RUqfoJCtLU_5ruchy7proving7tacticsNtB4_11IntroTacticNtB4_6Tactic4name
FN:135,_RNvXs_NtNtCs2RUqfoJCtLU_5ruchy7proving7tacticsNtB4_11IntroTacticNtB4_6Tactic5apply
FNDA:0,_RNCNvXs0_NtNtCs2RUqfoJCtLU_5ruchy7proving7tacticsNtB7_11SplitTacticNtB7_6Tactic5apply0Bb_
FNDA:0,_RNCNvMNtNtCs2RUqfoJCtLU_5ruchy7proving7tacticsNtB4_13TacticLibrary15suggest_tactics0B8_
FNDA:0,_RNCNvMNtNtCs2RUqfoJCtLU_5ruchy7proving7tacticsNtB4_13TacticLibrary10get_tactic0B8_
FNDA:0,_RNCNvXs6_NtNtCs2RUqfoJCtLU_5ruchy7proving7tacticsNtB7_13RewriteTacticNtB7_6Tactic13is_applicable0Bb_
FNDA:0,_RNvMNtNtCs2RUqfoJCtLU_5ruchy7proving7tacticsNtB2_13TacticLibrary10get_tactic
FNDA:0,_RNvMNtNtCs2RUqfoJCtLU_5ruchy7proving7tacticsNtB2_13TacticLibrary11all_tactics
FNDA:0,_RNvMNtNtCs2RUqfoJCtLU_5ruchy7proving7tacticsNtB2_13TacticLibrary15suggest_tactics
FNDA:0,_RNvMNtNtCs2RUqfoJCtLU_5ruchy7proving7tacticsNtB2_13TacticLibrary20calculate_confidence
FNDA:0,_RNvMNtNtCs2RUqfoJCtLU_5ruchy7proving7tacticsNtB2_13TacticLibrary7default
FNDA:0,_RNvXs0_NtNtCs2RUqfoJCtLU_5ruchy7proving7tacticsNtB5_11SplitTacticNtB5_6Tactic11description
FNDA:0,_RNvXs0_NtNtCs2RUqfoJCtLU_5ruchy7proving7tacticsNtB5_11SplitTacticNtB5_6Tactic13is_applicable
FNDA:0,_RNvXs0_NtNtCs2RUqfoJCtLU_5ruchy7proving7tacticsNtB5_11SplitTacticNtB5_6Tactic4name
FNDA:0,_RNvXs0_NtNtCs2RUqfoJCtLU_5ruchy7proving7tacticsNtB5_11SplitTacticNtB5_6Tactic5apply
FNDA:0,_RNvXs1_NtNtCs2RUqfoJCtLU_5ruchy7proving7tacticsNtB5_15InductionTacticNtB5_6Tactic11description
FNDA:0,_RNvXs1_NtNtCs2RUqfoJCtLU_5ruchy7proving7tacticsNtB5_15InductionTacticNtB5_6Tactic13is_applicable
FNDA:0,_RNvXs1_NtNtCs2RUqfoJCtLU_5ruchy7proving7tacticsNtB5_15InductionTacticNtB5_6Tactic4name
FNDA:0,_RNvXs1_NtNtCs2RUqfoJCtLU_5ruchy7proving7tacticsNtB5_15InductionTacticNtB5_6Tactic5apply
FNDA:0,_RNvXs2_NtNtCs2RUqfoJCtLU_5ruchy7proving7tacticsNtB5_19ContradictionTacticNtB5_6Tactic11description
FNDA:0,_RNvXs2_NtNtCs2RUqfoJCtLU_5ruchy7proving7tacticsNtB5_19ContradictionTacticNtB5_6Tactic13is_applicable
FNDA:0,_RNvXs2_NtNtCs2RUqfoJCtLU_5ruchy7proving7tacticsNtB5_19ContradictionTacticNtB5_6Tactic4name
FNDA:0,_RNvXs2_NtNtCs2RUqfoJCtLU_5ruchy7proving7tacticsNtB5_19ContradictionTacticNtB5_6Tactic5apply
FNDA:0,_RNvXs3_NtNtCs2RUqfoJCtLU_5ruchy7proving7tacticsNtB5_17ReflexivityTacticNtB5_6Tactic11description
FNDA:0,_RNvXs3_NtNtCs2RUqfoJCtLU_5ruchy7proving7tacticsNtB5_17ReflexivityTacticNtB5_6Tactic13is_applicable
FNDA:0,_RNvXs3_NtNtCs2RUqfoJCtLU_5ruchy7proving7tacticsNtB5_17ReflexivityTacticNtB5_6Tactic4name
FNDA:0,_RNvXs3_NtNtCs2RUqfoJCtLU_5ruchy7proving7tacticsNtB5_17ReflexivityTacticNtB5_6Tactic5apply
FNDA:0,_RNvXs4_NtNtCs2RUqfoJCtLU_5ruchy7proving7tacticsNtB5_14SimplifyTacticNtB5_6Tactic11description
FNDA:0,_RNvXs4_NtNtCs2RUqfoJCtLU_5ruchy7proving7tacticsNtB5_14SimplifyTacticNtB5_6Tactic13is_applicable
FNDA:0,_RNvXs4_NtNtCs2RUqfoJCtLU_5ruchy7proving7tacticsNtB5_14SimplifyTacticNtB5_6Tactic4name
FNDA:0,_RNvXs4_NtNtCs2RUqfoJCtLU_5ruchy7proving7tacticsNtB5_14SimplifyTacticNtB5_6Tactic5apply
FNDA:0,_RNvXs5_NtNtCs2RUqfoJCtLU_5ruchy7proving7tacticsNtB5_12UnfoldTacticNtB5_6Tactic11description
FNDA:0,_RNvXs5_NtNtCs2RUqfoJCtLU_5ruchy7proving7tacticsNtB5_12UnfoldTacticNtB5_6Tactic13is_applicable
FNDA:0,_RNvXs5_NtNtCs2RUqfoJCtLU_5ruchy7proving7tacticsNtB5_12UnfoldTacticNtB5_6Tactic4name
FNDA:0,_RNvXs5_NtNtCs2RUqfoJCtLU_5ruchy7proving7tacticsNtB5_12UnfoldTacticNtB5_6Tactic5apply
FNDA:0,_RNvXs6_NtNtCs2RUqfoJCtLU_5ruchy7proving7tacticsNtB5_13RewriteTacticNtB5_6Tactic11description
FNDA:0,_RNvXs6_NtNtCs2RUqfoJCtLU_5ruchy7proving7tacticsNtB5_13RewriteTacticNtB5_6Tactic13is_applicable
FNDA:0,_RNvXs6_NtNtCs2RUqfoJCtLU_5ruchy7proving7tacticsNtB5_13RewriteTacticNtB5_6Tactic4name
FNDA:0,_RNvXs6_NtNtCs2RUqfoJCtLU_5ruchy7proving7tacticsNtB5_13RewriteTacticNtB5_6Tactic5apply
FNDA:0,_RNvXs7_NtNtCs2RUqfoJCtLU_5ruchy7proving7tacticsNtB5_11ApplyTacticNtB5_6Tactic11description
FNDA:0,_RNvXs7_NtNtCs2RUqfoJCtLU_5ruchy7proving7tacticsNtB5_11ApplyTacticNtB5_6Tactic13is_applicable
FNDA:0,_RNvXs7_NtNtCs2RUqfoJCtLU_5ruchy7proving7tacticsNtB5_11ApplyTacticNtB5_6Tactic4name
FNDA:0,_RNvXs7_NtNtCs2RUqfoJCtLU_5ruchy7proving7tacticsNtB5_11ApplyTacticNtB5_6Tactic5apply
FNDA:0,_RNvXs8_NtNtCs2RUqfoJCtLU_5ruchy7proving7tacticsNtB5_16AssumptionTacticNtB5_6Tactic11description
FNDA:0,_RNvXs8_NtNtCs2RUqfoJCtLU_5ruchy7proving7tacticsNtB5_16AssumptionTacticNtB5_6Tactic13is_applicable
FNDA:0,_RNvXs8_NtNtCs2RUqfoJCtLU_5ruchy7proving7tacticsNtB5_16AssumptionTacticNtB5_6Tactic4name
FNDA:0,_RNvXs8_NtNtCs2RUqfoJCtLU_5ruchy7proving7tacticsNtB5_16AssumptionTacticNtB5_6Tactic5apply
FNDA:0,_RNvXs_NtNtCs2RUqfoJCtLU_5ruchy7proving7tacticsNtB4_11IntroTacticNtB4_6Tactic11description
FNDA:0,_RNvXs_NtNtCs2RUqfoJCtLU_5ruchy7proving7tacticsNtB4_11IntroTacticNtB4_6Tactic13is_applicable
FNDA:0,_RNvXs_NtNtCs2RUqfoJCtLU_5ruchy7proving7tacticsNtB4_11IntroTacticNtB4_6Tactic4name
FNDA:0,_RNvXs_NtNtCs2RUqfoJCtLU_5ruchy7proving7tacticsNtB4_11IntroTacticNtB4_6Tactic5apply
FNF:49
FNH:0
DA:56,0
DA:57,0
DA:60,0
DA:61,0
DA:62,0
DA:63,0
DA:64,0
DA:65,0
DA:66,0
DA:67,0
DA:68,0
DA:69,0
DA:71,0
DA:72,0
DA:73,0
DA:74,0
DA:75,0
DA:78,0
DA:79,0
DA:80,0
DA:83,0
DA:84,0
DA:85,0
DA:86,0
DA:87,0
DA:90,0
DA:91,0
DA:94,0
DA:95,0
DA:96,0
DA:97,0
DA:98,0
DA:99,0
DA:100,0
DA:101,0
DA:102,0
DA:103,0
DA:107,0
DA:109,0
DA:110,0
DA:113,0
DA:115,0
DA:116,0
DA:117,0
DA:118,0
DA:119,0
DA:120,0
DA:122,0
DA:131,0
DA:133,0
DA:135,0
DA:136,0
DA:137,0
DA:138,0
DA:139,0
DA:140,0
DA:141,0
DA:142,0
DA:143,0
DA:145,0
DA:146,0
DA:147,0
DA:154,0
DA:156,0
DA:158,0
DA:159,0
DA:160,0
DA:161,0
DA:162,0
DA:163,0
DA:164,0
DA:165,0
DA:167,0
DA:168,0
DA:169,0
DA:176,0
DA:178,0
DA:180,0
DA:181,0
DA:182,0
DA:183,0
DA:185,0
DA:186,0
DA:187,0
DA:188,0
DA:189,0
DA:190,0
DA:191,0
DA:192,0
DA:193,0
DA:195,0
DA:196,0
DA:197,0
DA:204,0
DA:206,0
DA:208,0
DA:210,0
DA:211,0
DA:212,0
DA:213,0
DA:214,0
DA:215,0
DA:216,0
DA:218,0
DA:219,0
DA:221,0
DA:222,0
DA:223,0
DA:230,0
DA:232,0
DA:234,0
DA:235,0
DA:236,0
DA:237,0
DA:238,0
DA:239,0
DA:240,0
DA:241,0
DA:242,0
DA:244,0
DA:245,0
DA:246,0
DA:253,0
DA:255,0
DA:257,0
DA:258,0
DA:261,0
DA:262,0
DA:263,0
DA:264,0
DA:265,0
DA:266,0
DA:268,0
DA:269,0
DA:271,0
DA:273,0
DA:275,0
DA:276,0
DA:277,0
DA:284,0
DA:286,0
DA:288,0
DA:289,0
DA:290,0
DA:291,0
DA:293,0
DA:294,0
DA:295,0
DA:296,0
DA:298,0
DA:300,0
DA:302,0
DA:303,0
DA:304,0
DA:311,0
DA:313,0
DA:315,0
DA:316,0
DA:317,0
DA:318,0
DA:321,0
DA:322,0
DA:323,0
DA:324,0
DA:325,0
DA:326,0
DA:327,0
DA:328,0
DA:329,0
DA:330,0
DA:331,0
DA:332,0
DA:335,0
DA:336,0
DA:338,0
DA:339,0
DA:340,0
DA:347,0
DA:349,0
DA:351,0
DA:352,0
DA:353,0
DA:354,0
DA:357,0
DA:358,0
DA:360,0
DA:361,0
DA:362,0
DA:369,0
DA:371,0
DA:373,0
DA:374,0
DA:375,0
DA:377,0
DA:379,0
DA:381,0
DA:382,0
DA:383,0
BRF:0
BRH:0
LF:202
LH:0
end_of_record
SF:/home/noah/src/ruchy/src/proving/verification.rs
FN:334,_RNCNvNtNtCs2RUqfoJCtLU_5ruchy7proving12verification23verify_assertions_batch0B7_
FN:332,_RNvNtNtCs2RUqfoJCtLU_5ruchy7proving12verification23verify_assertions_batch
FN:159,_RNvNtNtCs2RUqfoJCtLU_5ruchy7proving12verification23verify_single_assertion
FN:104,_RNvNtNtCs2RUqfoJCtLU_5ruchy7proving12verification24expr_to_assertion_string
FN:19,_RNvNtNtCs2RUqfoJCtLU_5ruchy7proving12verification27extract_assertions_from_ast
FN:257,_RNvNtNtCs2RUqfoJCtLU_5ruchy7proving12verification27verify_conditional_property
FN:55,_RNvNtNtCs2RUqfoJCtLU_5ruchy7proving12verification28extract_assertions_recursive
FN:283,_RNvNtNtCs2RUqfoJCtLU_5ruchy7proving12verification31verify_universal_quantification
FN:305,_RNvNtNtCs2RUqfoJCtLU_5ruchy7proving12verification33verify_existential_quantification
FN:34,_RNvNtNtCs2RUqfoJCtLU_5ruchy7proving12verification34extract_assert_sequence_from_block
FNDA:0,_RNCNvNtNtCs2RUqfoJCtLU_5ruchy7proving12verification23verify_assertions_batch0B7_
FNDA:0,_RNvNtNtCs2RUqfoJCtLU_5ruchy7proving12verification23verify_assertions_batch
FNDA:0,_RNvNtNtCs2RUqfoJCtLU_5ruchy7proving12verification23verify_single_assertion
FNDA:0,_RNvNtNtCs2RUqfoJCtLU_5ruchy7proving12verification24expr_to_assertion_string
FNDA:0,_RNvNtNtCs2RUqfoJCtLU_5ruchy7proving12verification27extract_assertions_from_ast
FNDA:0,_RNvNtNtCs2RUqfoJCtLU_5ruchy7proving12verification27verify_conditional_property
FNDA:0,_RNvNtNtCs2RUqfoJCtLU_5ruchy7proving12verification28extract_assertions_recursive
FNDA:0,_RNvNtNtCs2RUqfoJCtLU_5ruchy7proving12verification31verify_universal_quantification
FNDA:0,_RNvNtNtCs2RUqfoJCtLU_5ruchy7proving12verification33verify_existential_quantification
FNDA:0,_RNvNtNtCs2RUqfoJCtLU_5ruchy7proving12verification34extract_assert_sequence_from_block
FNF:10
FNH:0
DA:19,0
DA:20,0
DA:23,0
DA:24,0
DA:25,0
DA:26,0
DA:27,0
DA:29,0
DA:30,0
DA:34,0
DA:35,0
DA:36,0
DA:38,0
DA:39,0
DA:41,0
DA:42,0
DA:43,0
DA:44,0
DA:45,0
DA:46,0
DA:47,0
DA:50,0
DA:51,0
DA:53,0
DA:55,0
DA:56,0
DA:57,0
DA:59,0
DA:60,0
DA:61,0
DA:62,0
DA:63,0
DA:64,0
DA:65,0
DA:68,0
DA:69,0
DA:70,0
DA:71,0
DA:73,0
DA:74,0
DA:75,0
DA:76,0
DA:78,0
DA:79,0
DA:80,0
DA:81,0
DA:82,0
DA:83,0
DA:84,0
DA:85,0
DA:86,0
DA:87,0
DA:89,0
DA:90,0
DA:91,0
DA:92,0
DA:93,0
DA:95,0
DA:96,0
DA:97,0
DA:98,0
DA:99,0
DA:100,0
DA:102,0
DA:104,0
DA:105,0
DA:106,0
DA:107,0
DA:108,0
DA:109,0
DA:110,0
DA:111,0
DA:113,0
DA:114,0
DA:115,0
DA:116,0
DA:117,0
DA:118,0
DA:119,0
DA:120,0
DA:121,0
DA:122,0
DA:123,0
DA:124,0
DA:125,0
DA:126,0
DA:128,0
DA:129,0
DA:131,0
DA:134,0
DA:135,0
DA:136,0
DA:137,0
DA:138,0
DA:139,0
DA:140,0
DA:142,0
DA:143,0
DA:144,0
DA:145,0
DA:146,0
DA:147,0
DA:148,0
DA:149,0
DA:151,0
DA:154,0
DA:156,0
DA:159,0
DA:160,0
DA:162,0
DA:164,0
DA:165,0
DA:166,0
DA:167,0
DA:168,0
DA:169,0
DA:170,0
DA:173,0
DA:174,0
DA:176,0
DA:177,0
DA:179,0
DA:181,0
DA:182,0
DA:186,0
DA:187,0
DA:188,0
DA:189,0
DA:190,0
DA:191,0
DA:192,0
DA:195,0
DA:196,0
DA:198,0
DA:199,0
DA:201,0
DA:203,0
DA:204,0
DA:208,0
DA:209,0
DA:210,0
DA:211,0
DA:212,0
DA:213,0
DA:214,0
DA:217,0
DA:219,0
DA:220,0
DA:221,0
DA:222,0
DA:223,0
DA:224,0
DA:225,0
DA:229,0
DA:231,0
DA:235,0
DA:236,0
DA:240,0
DA:241,0
DA:245,0
DA:246,0
DA:247,0
DA:248,0
DA:249,0
DA:250,0
DA:251,0
DA:254,0
DA:255,0
DA:257,0
DA:259,0
DA:261,0
DA:262,0
DA:263,0
DA:264,0
DA:265,0
DA:266,0
DA:267,0
DA:270,0
DA:272,0
DA:273,0
DA:275,0
DA:277,0
DA:278,0
DA:281,0
DA:283,0
DA:285,0
DA:287,0
DA:288,0
DA:289,0
DA:290,0
DA:291,0
DA:292,0
DA:293,0
DA:295,0
DA:296,0
DA:297,0
DA:298,0
DA:299,0
DA:300,0
DA:301,0
DA:303,0
DA:305,0
DA:307,0
DA:310,0
DA:312,0
DA:313,0
DA:315,0
DA:317,0
DA:318,0
DA:321,0
DA:322,0
DA:323,0
DA:324,0
DA:325,0
DA:326,0
DA:327,0
DA:329,0
DA:332,0
DA:333,0
DA:334,0
DA:335,0
DA:336,0
BRF:0
BRH:0
LF:223
LH:0
end_of_record
SF:/home/noah/src/ruchy/src/quality/coverage.rs
FN:153,_RINvMs1_NtNtCs2RUqfoJCtLU_5ruchy7quality8coverageNtB6_17CoverageCollector15with_source_dirpEBa_
FN:298,_RINvMs2_NtNtCs2RUqfoJCtLU_5ruchy7quality8coverageNtB6_19HtmlReportGenerator3newRNtNtCs8Ty2CzGA6U3_5alloc6string6StringEBa_
FN:298,_RINvMs2_NtNtCs2RUqfoJCtLU_5ruchy7quality8coverageNtB6_19HtmlReportGenerator3newReEBa_
FN:276,_RNCNvMs1_NtNtCs2RUqfoJCtLU_5ruchy7quality8coverageNtB7_17CoverageCollector12is_available0Bb_
FN:286,_RNCNvMs1_NtNtCs2RUqfoJCtLU_5ruchy7quality8coverageNtB7_17CoverageCollector12is_availables0_0Bb_
FN:281,_RNCNvMs1_NtNtCs2RUqfoJCtLU_5ruchy7quality8coverageNtB7_17CoverageCollector12is_availables_0Bb_
FN:24,_RNvMNtNtCs2RUqfoJCtLU_5ruchy7quality8coverageNtB2_12FileCoverage24line_coverage_percentage
FN:33,_RNvMNtNtCs2RUqfoJCtLU_5ruchy7quality8coverageNtB2_12FileCoverage26branch_coverage_percentage
FN:42,_RNvMNtNtCs2RUqfoJCtLU_5ruchy7quality8coverageNtB2_12FileCoverage28function_coverage_percentage
FN:207,_RNvMs1_NtNtCs2RUqfoJCtLU_5ruchy7quality8coverageNtB5_17CoverageCollector12collect_llvm
FN:271,_RNvMs1_NtNtCs2RUqfoJCtLU_5ruchy7quality8coverageNtB5_17CoverageCollector12is_available
FN:228,_RNvMs1_NtNtCs2RUqfoJCtLU_5ruchy7quality8coverageNtB5_17CoverageCollector13collect_grcov
FN:184,_RNvMs1_NtNtCs2RUqfoJCtLU_5ruchy7quality8coverageNtB5_17CoverageCollector17collect_tarpaulin
FN:249,_RNvMs1_NtNtCs2RUqfoJCtLU_5ruchy7quality8coverageNtB5_17CoverageCollector20parse_tarpaulin_json
FN:135,_RNvMs1_NtNtCs2RUqfoJCtLU_5ruchy7quality8coverageNtB5_17CoverageCollector3new
FN:176,_RNvMs1_NtNtCs2RUqfoJCtLU_5ruchy7quality8coverageNtB5_17CoverageCollector7collect
FN:321,_RNvMs2_NtNtCs2RUqfoJCtLU_5ruchy7quality8coverageNtB5_19HtmlReportGenerator13generate_html
FN:384,_RNvMs2_NtNtCs2RUqfoJCtLU_5ruchy7quality8coverageNtB5_19HtmlReportGenerator14coverage_class
FN:309,_RNvMs2_NtNtCs2RUqfoJCtLU_5ruchy7quality8coverageNtB5_19HtmlReportGenerator8generate
FN:77,_RNvMs_NtNtCs2RUqfoJCtLU_5ruchy7quality8coverageNtB4_14CoverageReport24line_coverage_percentage
FN:86,_RNvMs_NtNtCs2RUqfoJCtLU_5ruchy7quality8coverageNtB4_14CoverageReport26branch_coverage_percentage
FN:95,_RNvMs_NtNtCs2RUqfoJCtLU_5ruchy7quality8coverageNtB4_14CoverageReport28function_coverage_percentage
FN:64,_RNvMs_NtNtCs2RUqfoJCtLU_5ruchy7quality8coverageNtB4_14CoverageReport3new
FN:103,_RNvMs_NtNtCs2RUqfoJCtLU_5ruchy7quality8coverageNtB4_14CoverageReport8add_file
FN:116,_RNvXs0_NtNtCs2RUqfoJCtLU_5ruchy7quality8coverageNtB5_14CoverageReportNtNtCs66KPHxksi63_4core7default7Default7default
FNDA:0,_RINvMs1_NtNtCs2RUqfoJCtLU_5ruchy7quality8coverageNtB6_17CoverageCollector15with_source_dirpEBa_
FNDA:0,_RINvMs2_NtNtCs2RUqfoJCtLU_5ruchy7quality8coverageNtB6_19HtmlReportGenerator3newRNtNtCs8Ty2CzGA6U3_5alloc6string6StringEBa_
FNDA:0,_RINvMs2_NtNtCs2RUqfoJCtLU_5ruchy7quality8coverageNtB6_19HtmlReportGenerator3newReEBa_
FNDA:0,_RNCNvMs1_NtNtCs2RUqfoJCtLU_5ruchy7quality8coverageNtB7_17CoverageCollector12is_available0Bb_
FNDA:0,_RNCNvMs1_NtNtCs2RUqfoJCtLU_5ruchy7quality8coverageNtB7_17CoverageCollector12is_availables0_0Bb_
FNDA:0,_RNCNvMs1_NtNtCs2RUqfoJCtLU_5ruchy7quality8coverageNtB7_17CoverageCollector12is_availables_0Bb_
FNDA:0,_RNvMNtNtCs2RUqfoJCtLU_5ruchy7quality8coverageNtB2_12FileCoverage24line_coverage_percentage
FNDA:0,_RNvMNtNtCs2RUqfoJCtLU_5ruchy7quality8coverageNtB2_12FileCoverage26branch_coverage_percentage
FNDA:0,_RNvMNtNtCs2RUqfoJCtLU_5ruchy7quality8coverageNtB2_12FileCoverage28function_coverage_percentage
FNDA:0,_RNvMs1_NtNtCs2RUqfoJCtLU_5ruchy7quality8coverageNtB5_17CoverageCollector12collect_llvm
FNDA:0,_RNvMs1_NtNtCs2RUqfoJCtLU_5ruchy7quality8coverageNtB5_17CoverageCollector12is_available
FNDA:0,_RNvMs1_NtNtCs2RUqfoJCtLU_5ruchy7quality8coverageNtB5_17CoverageCollector13collect_grcov
FNDA:0,_RNvMs1_NtNtCs2RUqfoJCtLU_5ruchy7quality8coverageNtB5_17CoverageCollector17collect_tarpaulin
FNDA:0,_RNvMs1_NtNtCs2RUqfoJCtLU_5ruchy7quality8coverageNtB5_17CoverageCollector20parse_tarpaulin_json
FNDA:0,_RNvMs1_NtNtCs2RUqfoJCtLU_5ruchy7quality8coverageNtB5_17CoverageCollector3new
FNDA:0,_RNvMs1_NtNtCs2RUqfoJCtLU_5ruchy7quality8coverageNtB5_17CoverageCollector7collect
FNDA:0,_RNvMs2_NtNtCs2RUqfoJCtLU_5ruchy7quality8coverageNtB5_19HtmlReportGenerator13generate_html
FNDA:0,_RNvMs2_NtNtCs2RUqfoJCtLU_5ruchy7quality8coverageNtB5_19HtmlReportGenerator14coverage_class
FNDA:0,_RNvMs2_NtNtCs2RUqfoJCtLU_5ruchy7quality8coverageNtB5_19HtmlReportGenerator8generate
FNDA:0,_RNvMs_NtNtCs2RUqfoJCtLU_5ruchy7quality8coverageNtB4_14CoverageReport24line_coverage_percentage
FNDA:0,_RNvMs_NtNtCs2RUqfoJCtLU_5ruchy7quality8coverageNtB4_14CoverageReport26branch_coverage_percentage
FNDA:0,_RNvMs_NtNtCs2RUqfoJCtLU_5ruchy7quality8coverageNtB4_14CoverageReport28function_coverage_percentage
FNDA:0,_RNvMs_NtNtCs2RUqfoJCtLU_5ruchy7quality8coverageNtB4_14CoverageReport3new
FNDA:0,_RNvMs_NtNtCs2RUqfoJCtLU_5ruchy7quality8coverageNtB4_14CoverageReport8add_file
FNDA:0,_RNvXs0_NtNtCs2RUqfoJCtLU_5ruchy7quality8coverageNtB5_14CoverageReportNtNtCs66KPHxksi63_4core7default7Default7default
FNF:24
FNH:0
DA:24,0
DA:25,0
DA:26,0
DA:28,0
DA:30,0
DA:33,0
DA:34,0
DA:35,0
DA:37,0
DA:39,0
DA:42,0
DA:43,0
DA:44,0
DA:46,0
DA:48,0
DA:64,0
DA:65,0
DA:66,0
DA:67,0
DA:68,0
DA:69,0
DA:70,0
DA:71,0
DA:72,0
DA:73,0
DA:74,0
DA:77,0
DA:78,0
DA:79,0
DA:81,0
DA:83,0
DA:86,0
DA:87,0
DA:88,0
DA:90,0
DA:92,0
DA:95,0
DA:96,0
DA:97,0
DA:99,0
DA:101,0
DA:103,0
DA:104,0
DA:105,0
DA:106,0
DA:107,0
DA:108,0
DA:109,0
DA:111,0
DA:112,0
DA:116,0
DA:117,0
DA:118,0
DA:135,0
DA:136,0
DA:137,0
DA:138,0
DA:139,0
DA:140,0
DA:153,0
DA:154,0
DA:155,0
DA:156,0
DA:176,0
DA:177,0
DA:178,0
DA:179,0
DA:180,0
DA:182,0
DA:184,0
DA:186,0
DA:187,0
DA:188,0
DA:189,0
DA:190,0
DA:191,0
DA:192,0
DA:193,0
DA:194,0
DA:195,0
DA:197,0
DA:198,0
DA:199,0
DA:200,0
DA:202,0
DA:203,0
DA:204,0
DA:207,0
DA:210,0
DA:213,0
DA:214,0
DA:215,0
DA:216,0
DA:217,0
DA:218,0
DA:219,0
DA:220,0
DA:221,0
DA:223,0
DA:224,0
DA:225,0
DA:228,0
DA:231,0
DA:234,0
DA:235,0
DA:236,0
DA:237,0
DA:238,0
DA:239,0
DA:240,0
DA:241,0
DA:242,0
DA:244,0
DA:245,0
DA:246,0
DA:249,0
DA:252,0
DA:256,0
DA:257,0
DA:258,0
DA:259,0
DA:260,0
DA:261,0
DA:262,0
DA:263,0
DA:264,0
DA:266,0
DA:267,0
DA:268,0
DA:271,0
DA:272,0
DA:273,0
DA:274,0
DA:275,0
DA:276,0
DA:277,0
DA:278,0
DA:279,0
DA:280,0
DA:281,0
DA:282,0
DA:283,0
DA:284,0
DA:285,0
DA:286,0
DA:287,0
DA:289,0
DA:298,0
DA:299,0
DA:300,0
DA:301,0
DA:302,0
DA:309,0
DA:310,0
DA:312,0
DA:313,0
DA:315,0
DA:317,0
DA:318,0
DA:319,0
DA:321,0
DA:322,0
DA:324,0
DA:325,0
DA:326,0
DA:327,0
DA:328,0
DA:329,0
DA:330,0
DA:331,0
DA:332,0
DA:333,0
DA:334,0
DA:335,0
DA:337,0
DA:340,0
DA:341,0
DA:342,0
DA:343,0
DA:344,0
DA:345,0
DA:346,0
DA:347,0
DA:350,0
DA:351,0
DA:352,0
DA:353,0
DA:354,0
DA:355,0
DA:358,0
DA:359,0
DA:362,0
DA:363,0
DA:364,0
DA:366,0
DA:367,0
DA:368,0
DA:369,0
DA:371,0
DA:372,0
DA:373,0
DA:374,0
DA:375,0
DA:378,0
DA:379,0
DA:381,0
DA:382,0
DA:384,0
DA:385,0
DA:386,0
DA:387,0
DA:388,0
DA:390,0
DA:392,0
BRF:0
BRH:0
LF:217
LH:0
end_of_record
SF:/home/noah/src/ruchy/src/quality/enforcement.rs
FN:237,_RNCNvNtNtCs2RUqfoJCtLU_5ruchy7quality11enforcement13is_ruchy_file0B7_
FN:276,_RNCNvNtNtCs2RUqfoJCtLU_5ruchy7quality11enforcement16should_fail_fast0B7_
FN:94,_RNCNvNtNtCs2RUqfoJCtLU_5ruchy7quality11enforcement18check_gate_results0B7_
FN:320,_RNCNvNtNtCs2RUqfoJCtLU_5ruchy7quality11enforcement19print_junit_results0B7_
FN:160,_RNvNtNtCs2RUqfoJCtLU_5ruchy7quality11enforcement12process_file
FN:41,_RNvNtNtCs2RUqfoJCtLU_5ruchy7quality11enforcement12process_path
FN:79,_RNvNtNtCs2RUqfoJCtLU_5ruchy7quality11enforcement13handle_export
FN:236,_RNvNtNtCs2RUqfoJCtLU_5ruchy7quality11enforcement13is_ruchy_file
FN:64,_RNvNtNtCs2RUqfoJCtLU_5ruchy7quality11enforcement14output_results
FN:9,_RNvNtNtCs2RUqfoJCtLU_5ruchy7quality11enforcement16load_gate_config
FN:275,_RNvNtNtCs2RUqfoJCtLU_5ruchy7quality11enforcement16should_fail_fast
FN:129,_RNvNtNtCs2RUqfoJCtLU_5ruchy7quality11enforcement17find_project_root
FN:186,_RNvNtNtCs2RUqfoJCtLU_5ruchy7quality11enforcement17process_directory
FN:150,_RNvNtNtCs2RUqfoJCtLU_5ruchy7quality11enforcement18apply_ci_overrides
FN:93,_RNvNtNtCs2RUqfoJCtLU_5ruchy7quality11enforcement18check_gate_results
FN:312,_RNvNtNtCs2RUqfoJCtLU_5ruchy7quality11enforcement18print_json_results
FN:249,_RNvNtNtCs2RUqfoJCtLU_5ruchy7quality11enforcement18process_ruchy_file
FN:318,_RNvNtNtCs2RUqfoJCtLU_5ruchy7quality11enforcement19print_junit_results
FN:31,_RNvNtNtCs2RUqfoJCtLU_5ruchy7quality11enforcement20parse_analysis_depth
FN:107,_RNvNtNtCs2RUqfoJCtLU_5ruchy7quality11enforcement21enforce_quality_gates
FN:279,_RNvNtNtCs2RUqfoJCtLU_5ruchy7quality11enforcement21print_console_results
FN:219,_RNvNtNtCs2RUqfoJCtLU_5ruchy7quality11enforcement23process_directory_entry
FN:241,_RNvNtNtCs2RUqfoJCtLU_5ruchy7quality11enforcement24is_processable_directory
FNDA:0,_RNCNvNtNtCs2RUqfoJCtLU_5ruchy7quality11enforcement13is_ruchy_file0B7_
FNDA:0,_RNCNvNtNtCs2RUqfoJCtLU_5ruchy7quality11enforcement16should_fail_fast0B7_
FNDA:0,_RNCNvNtNtCs2RUqfoJCtLU_5ruchy7quality11enforcement18check_gate_results0B7_
FNDA:0,_RNCNvNtNtCs2RUqfoJCtLU_5ruchy7quality11enforcement19print_junit_results0B7_
FNDA:0,_RNvNtNtCs2RUqfoJCtLU_5ruchy7quality11enforcement12process_file
FNDA:0,_RNvNtNtCs2RUqfoJCtLU_5ruchy7quality11enforcement12process_path
FNDA:0,_RNvNtNtCs2RUqfoJCtLU_5ruchy7quality11enforcement13handle_export
FNDA:0,_RNvNtNtCs2RUqfoJCtLU_5ruchy7quality11enforcement13is_ruchy_file
FNDA:0,_RNvNtNtCs2RUqfoJCtLU_5ruchy7quality11enforcement14output_results
FNDA:0,_RNvNtNtCs2RUqfoJCtLU_5ruchy7quality11enforcement16load_gate_config
FNDA:0,_RNvNtNtCs2RUqfoJCtLU_5ruchy7quality11enforcement16should_fail_fast
FNDA:0,_RNvNtNtCs2RUqfoJCtLU_5ruchy7quality11enforcement17find_project_root
FNDA:0,_RNvNtNtCs2RUqfoJCtLU_5ruchy7quality11enforcement17process_directory
FNDA:0,_RNvNtNtCs2RUqfoJCtLU_5ruchy7quality11enforcement18apply_ci_overrides
FNDA:0,_RNvNtNtCs2RUqfoJCtLU_5ruchy7quality11enforcement18check_gate_results
FNDA:0,_RNvNtNtCs2RUqfoJCtLU_5ruchy7quality11enforcement18print_json_results
FNDA:0,_RNvNtNtCs2RUqfoJCtLU_5ruchy7quality11enforcement18process_ruchy_file
FNDA:0,_RNvNtNtCs2RUqfoJCtLU_5ruchy7quality11enforcement19print_junit_results
FNDA:0,_RNvNtNtCs2RUqfoJCtLU_5ruchy7quality11enforcement20parse_analysis_depth
FNDA:0,_RNvNtNtCs2RUqfoJCtLU_5ruchy7quality11enforcement21enforce_quality_gates
FNDA:0,_RNvNtNtCs2RUqfoJCtLU_5ruchy7quality11enforcement21print_console_results
FNDA:0,_RNvNtNtCs2RUqfoJCtLU_5ruchy7quality11enforcement23process_directory_entry
FNDA:0,_RNvNtNtCs2RUqfoJCtLU_5ruchy7quality11enforcement24is_processable_directory
FNF:23
FNH:0
DA:9,0
DA:10,0
DA:11,0
DA:12,0
DA:13,0
DA:15,0
DA:16,0
DA:17,0
DA:19,0
DA:20,0
DA:23,0
DA:24,0
DA:25,0
DA:27,0
DA:28,0
DA:31,0
DA:32,0
DA:33,0
DA:34,0
DA:35,0
DA:36,0
DA:38,0
DA:41,0
DA:42,0
DA:43,0
DA:44,0
DA:45,0
DA:46,0
DA:47,0
DA:48,0
DA:50,0
DA:51,0
DA:52,0
DA:53,0
DA:54,0
DA:55,0
DA:57,0
DA:60,0
DA:61,0
DA:64,0
DA:65,0
DA:66,0
DA:67,0
DA:68,0
DA:69,0
DA:70,0
DA:71,0
DA:72,0
DA:73,0
DA:75,0
DA:76,0
DA:79,0
DA:80,0
DA:81,0
DA:82,0
DA:83,0
DA:84,0
DA:85,0
DA:86,0
DA:87,0
DA:88,0
DA:89,0
DA:90,0
DA:93,0
DA:94,0
DA:96,0
DA:97,0
DA:98,0
DA:99,0
DA:100,0
DA:101,0
DA:103,0
DA:104,0
DA:107,0
DA:108,0
DA:109,0
DA:110,0
DA:111,0
DA:112,0
DA:113,0
DA:114,0
DA:115,0
DA:116,0
DA:117,0
DA:118,0
DA:120,0
DA:122,0
DA:123,0
DA:124,0
DA:126,0
DA:127,0
DA:129,0
DA:130,0
DA:131,0
DA:133,0
DA:137,0
DA:138,0
DA:139,0
DA:141,0
DA:142,0
DA:143,0
DA:145,0
DA:148,0
DA:150,0
DA:152,0
DA:153,0
DA:154,0
DA:155,0
DA:156,0
DA:157,0
DA:158,0
DA:160,0
DA:161,0
DA:162,0
DA:163,0
DA:164,0
DA:165,0
DA:166,0
DA:167,0
DA:168,0
DA:171,0
DA:172,0
DA:173,0
DA:176,0
DA:177,0
DA:178,0
DA:181,0
DA:183,0
DA:184,0
DA:186,0
DA:187,0
DA:188,0
DA:189,0
DA:190,0
DA:191,0
DA:192,0
DA:193,0
DA:195,0
DA:196,0
DA:197,0
DA:199,0
DA:200,0
DA:201,0
DA:202,0
DA:203,0
DA:204,0
DA:205,0
DA:208,0
DA:209,0
DA:210,0
DA:212,0
DA:215,0
DA:216,0
DA:219,0
DA:220,0
DA:221,0
DA:222,0
DA:223,0
DA:224,0
DA:225,0
DA:226,0
DA:227,0
DA:228,0
DA:229,0
DA:231,0
DA:233,0
DA:236,0
DA:237,0
DA:238,0
DA:241,0
DA:242,0
DA:243,0
DA:244,0
DA:245,0
DA:246,0
DA:249,0
DA:250,0
DA:251,0
DA:252,0
DA:253,0
DA:254,0
DA:255,0
DA:256,0
DA:257,0
DA:258,0
DA:259,0
DA:260,0
DA:261,0
DA:263,0
DA:264,0
DA:265,0
DA:266,0
DA:268,0
DA:272,0
DA:275,0
DA:276,0
DA:277,0
DA:279,0
DA:280,0
DA:281,0
DA:282,0
DA:283,0
DA:285,0
DA:286,0
DA:287,0
DA:288,0
DA:289,0
DA:290,0
DA:291,0
DA:292,0
DA:294,0
DA:296,0
DA:297,0
DA:298,0
DA:299,0
DA:300,0
DA:301,0
DA:304,0
DA:305,0
DA:307,0
DA:309,0
DA:310,0
DA:312,0
DA:313,0
DA:314,0
DA:315,0
DA:316,0
DA:318,0
DA:319,0
DA:320,0
DA:322,0
DA:323,0
DA:325,0
DA:326,0
DA:327,0
DA:328,0
DA:329,0
DA:330,0
DA:331,0
DA:332,0
DA:333,0
DA:334,0
DA:337,0
DA:338,0
DA:339,0
BRF:0
BRH:0
LF:249
LH:0
end_of_record
SF:/home/noah/src/ruchy/src/quality/formatter.rs
FN:34,_RNvMNtNtCs2RUqfoJCtLU_5ruchy7quality9formatterNtB2_9Formatter11format_expr
FN:27,_RNvMNtNtCs2RUqfoJCtLU_5ruchy7quality9formatterNtB2_9Formatter11format_type
FN:14,_RNvMNtNtCs2RUqfoJCtLU_5ruchy7quality9formatterNtB2_9Formatter3new
FN:22,_RNvMNtNtCs2RUqfoJCtLU_5ruchy7quality9formatterNtB2_9Formatter6format
FN:123,_RNvXs_NtNtCs2RUqfoJCtLU_5ruchy7quality9formatterNtB4_9FormatterNtNtCs66KPHxksi63_4core7default7Default7default
FNDA:0,_RNvMNtNtCs2RUqfoJCtLU_5ruchy7quality9formatterNtB2_9Formatter11format_expr
FNDA:0,_RNvMNtNtCs2RUqfoJCtLU_5ruchy7quality9formatterNtB2_9Formatter11format_type
FNDA:0,_RNvMNtNtCs2RUqfoJCtLU_5ruchy7quality9formatterNtB2_9Formatter3new
FNDA:0,_RNvMNtNtCs2RUqfoJCtLU_5ruchy7quality9formatterNtB2_9Formatter6format
FNDA:0,_RNvXs_NtNtCs2RUqfoJCtLU_5ruchy7quality9formatterNtB4_9FormatterNtNtCs66KPHxksi63_4core7default7Default7default
FNF:5
FNH:0
DA:14,0
DA:15,0
DA:16,0
DA:17,0
DA:18,0
DA:19,0
DA:20,0
DA:22,0
DA:24,0
DA:25,0
DA:27,0
DA:28,0
DA:29,0
DA:30,0
DA:32,0
DA:34,0
DA:35,0
DA:36,0
DA:38,0
DA:41,0
DA:42,0
DA:43,0
DA:44,0
DA:45,0
DA:46,0
DA:47,0
DA:48,0
DA:50,0
DA:51,0
DA:52,0
DA:53,0
DA:55,0
DA:56,0
DA:59,0
DA:60,0
DA:61,0
DA:62,0
DA:64,0
DA:67,0
DA:68,0
DA:69,0
DA:70,0
DA:71,0
DA:72,0
DA:73,0
DA:74,0
DA:75,0
DA:76,0
DA:77,0
DA:79,0
DA:80,0
DA:83,0
DA:84,0
DA:85,0
DA:86,0
DA:87,0
DA:88,0
DA:89,0
DA:90,0
DA:92,0
DA:95,0
DA:96,0
DA:97,0
DA:98,0
DA:100,0
DA:101,0
DA:102,0
DA:104,0
DA:105,0
DA:106,0
DA:107,0
DA:108,0
DA:109,0
DA:110,0
DA:111,0
DA:112,0
DA:113,0
DA:116,0
DA:119,0
DA:123,0
DA:124,0
DA:125,0
BRF:0
BRH:0
LF:82
LH:0
end_of_record
SF:/home/noah/src/ruchy/src/quality/gates.rs
FN:286,_RNCNvMs_NtNtCs2RUqfoJCtLU_5ruchy7quality5gatesNtB6_19QualityGateEnforcer13enforce_gates0Ba_
FN:441,_RNCNvMs_NtNtCs2RUqfoJCtLU_5ruchy7quality5gatesNtB6_19QualityGateEnforcer20export_junit_results0Ba_
FN:401,_RNCNvMs_NtNtCs2RUqfoJCtLU_5ruchy7quality5gatesNtB6_19QualityGateEnforcer23check_anti_gaming_rules0Ba_
FN:213,_RNvMs_NtNtCs2RUqfoJCtLU_5ruchy7quality5gatesNtB4_19QualityGateEnforcer11load_config
FN:231,_RNvMs_NtNtCs2RUqfoJCtLU_5ruchy7quality5gatesNtB4_19QualityGateEnforcer13enforce_gates
FN:418,_RNvMs_NtNtCs2RUqfoJCtLU_5ruchy7quality5gatesNtB4_19QualityGateEnforcer17export_ci_results
FN:430,_RNvMs_NtNtCs2RUqfoJCtLU_5ruchy7quality5gatesNtB4_19QualityGateEnforcer19export_json_results
FN:437,_RNvMs_NtNtCs2RUqfoJCtLU_5ruchy7quality5gatesNtB4_19QualityGateEnforcer20export_junit_results
FN:372,_RNvMs_NtNtCs2RUqfoJCtLU_5ruchy7quality5gatesNtB4_19QualityGateEnforcer23check_anti_gaming_rules
FN:298,_RNvMs_NtNtCs2RUqfoJCtLU_5ruchy7quality5gatesNtB4_19QualityGateEnforcer26check_component_thresholds
FN:208,_RNvMs_NtNtCs2RUqfoJCtLU_5ruchy7quality5gatesNtB4_19QualityGateEnforcer3new
FN:170,_RNvXNtNtCs2RUqfoJCtLU_5ruchy7quality5gatesNtB2_17QualityGateConfigNtNtCs66KPHxksi63_4core7default7Default7default
FN:474,_RNvXs0_NtNtCs2RUqfoJCtLU_5ruchy7quality5gatesNtNtB7_7scoring5GradeNtNtCs66KPHxksi63_4core3cmp10PartialOrd11partial_cmp
FN:480,_RNvXs1_NtNtCs2RUqfoJCtLU_5ruchy7quality5gatesNtNtB7_7scoring5GradeNtNtCs66KPHxksi63_4core3cmp3Ord3cmp
FNDA:0,_RNCNvMs_NtNtCs2RUqfoJCtLU_5ruchy7quality5gatesNtB6_19QualityGateEnforcer13enforce_gates0Ba_
FNDA:0,_RNCNvMs_NtNtCs2RUqfoJCtLU_5ruchy7quality5gatesNtB6_19QualityGateEnforcer20export_junit_results0Ba_
FNDA:0,_RNCNvMs_NtNtCs2RUqfoJCtLU_5ruchy7quality5gatesNtB6_19QualityGateEnforcer23check_anti_gaming_rules0Ba_
FNDA:0,_RNvMs_NtNtCs2RUqfoJCtLU_5ruchy7quality5gatesNtB4_19QualityGateEnforcer11load_config
FNDA:0,_RNvMs_NtNtCs2RUqfoJCtLU_5ruchy7quality5gatesNtB4_19QualityGateEnforcer13enforce_gates
FNDA:0,_RNvMs_NtNtCs2RUqfoJCtLU_5ruchy7quality5gatesNtB4_19QualityGateEnforcer17export_ci_results
FNDA:0,_RNvMs_NtNtCs2RUqfoJCtLU_5ruchy7quality5gatesNtB4_19QualityGateEnforcer19export_json_results
FNDA:0,_RNvMs_NtNtCs2RUqfoJCtLU_5ruchy7quality5gatesNtB4_19QualityGateEnforcer20export_junit_results
FNDA:0,_RNvMs_NtNtCs2RUqfoJCtLU_5ruchy7quality5gatesNtB4_19QualityGateEnforcer23check_anti_gaming_rules
FNDA:0,_RNvMs_NtNtCs2RUqfoJCtLU_5ruchy7quality5gatesNtB4_19QualityGateEnforcer26check_component_thresholds
FNDA:0,_RNvMs_NtNtCs2RUqfoJCtLU_5ruchy7quality5gatesNtB4_19QualityGateEnforcer3new
FNDA:0,_RNvXNtNtCs2RUqfoJCtLU_5ruchy7quality5gatesNtB2_17QualityGateConfigNtNtCs66KPHxksi63_4core7default7Default7default
FNDA:0,_RNvXs0_NtNtCs2RUqfoJCtLU_5ruchy7quality5gatesNtNtB7_7scoring5GradeNtNtCs66KPHxksi63_4core3cmp10PartialOrd11partial_cmp
FNDA:0,_RNvXs1_NtNtCs2RUqfoJCtLU_5ruchy7quality5gatesNtNtB7_7scoring5GradeNtNtCs66KPHxksi63_4core3cmp3Ord3cmp
FNF:14
FNH:0
DA:170,0
DA:171,0
DA:172,0
DA:173,0
DA:174,0
DA:175,0
DA:176,0
DA:177,0
DA:178,0
DA:179,0
DA:180,0
DA:181,0
DA:182,0
DA:183,0
DA:184,0
DA:185,0
DA:186,0
DA:187,0
DA:188,0
DA:189,0
DA:190,0
DA:191,0
DA:192,0
DA:193,0
DA:194,0
DA:195,0
DA:196,0
DA:197,0
DA:198,0
DA:199,0
DA:200,0
DA:201,0
DA:202,0
DA:203,0
DA:204,0
DA:208,0
DA:209,0
DA:210,0
DA:213,0
DA:214,0
DA:216,0
DA:217,0
DA:218,0
DA:219,0
DA:222,0
DA:223,0
DA:224,0
DA:225,0
DA:226,0
DA:228,0
DA:231,0
DA:232,0
DA:233,0
DA:236,0
DA:237,0
DA:238,0
DA:239,0
DA:240,0
DA:241,0
DA:242,0
DA:243,0
DA:244,0
DA:245,0
DA:246,0
DA:247,0
DA:248,0
DA:251,0
DA:252,0
DA:253,0
DA:254,0
DA:255,0
DA:256,0
DA:257,0
DA:258,0
DA:259,0
DA:260,0
DA:261,0
DA:262,0
DA:263,0
DA:266,0
DA:269,0
DA:272,0
DA:273,0
DA:274,0
DA:275,0
DA:276,0
DA:277,0
DA:278,0
DA:279,0
DA:280,0
DA:281,0
DA:282,0
DA:283,0
DA:284,0
DA:286,0
DA:288,0
DA:289,0
DA:290,0
DA:291,0
DA:292,0
DA:293,0
DA:294,0
DA:295,0
DA:296,0
DA:298,0
DA:299,0
DA:301,0
DA:302,0
DA:303,0
DA:304,0
DA:305,0
DA:306,0
DA:307,0
DA:308,0
DA:309,0
DA:310,0
DA:311,0
DA:312,0
DA:313,0
DA:315,0
DA:316,0
DA:317,0
DA:318,0
DA:319,0
DA:320,0
DA:321,0
DA:322,0
DA:323,0
DA:324,0
DA:325,0
DA:326,0
DA:327,0
DA:329,0
DA:330,0
DA:331,0
DA:332,0
DA:333,0
DA:334,0
DA:335,0
DA:336,0
DA:337,0
DA:338,0
DA:339,0
DA:340,0
DA:341,0
DA:343,0
DA:344,0
DA:345,0
DA:346,0
DA:347,0
DA:348,0
DA:349,0
DA:350,0
DA:351,0
DA:352,0
DA:353,0
DA:354,0
DA:355,0
DA:357,0
DA:358,0
DA:359,0
DA:360,0
DA:361,0
DA:362,0
DA:363,0
DA:364,0
DA:365,0
DA:366,0
DA:367,0
DA:368,0
DA:369,0
DA:370,0
DA:372,0
DA:373,0
DA:374,0
DA:375,0
DA:376,0
DA:377,0
DA:378,0
DA:380,0
DA:381,0
DA:382,0
DA:383,0
DA:384,0
DA:385,0
DA:388,0
DA:389,0
DA:390,0
DA:391,0
DA:392,0
DA:393,0
DA:394,0
DA:395,0
DA:396,0
DA:397,0
DA:400,0
DA:401,0
DA:402,0
DA:403,0
DA:404,0
DA:405,0
DA:406,0
DA:407,0
DA:408,0
DA:409,0
DA:410,0
DA:411,0
DA:412,0
DA:413,0
DA:414,0
DA:415,0
DA:418,0
DA:419,0
DA:420,0
DA:421,0
DA:423,0
DA:424,0
DA:425,0
DA:427,0
DA:428,0
DA:430,0
DA:431,0
DA:432,0
DA:433,0
DA:434,0
DA:435,0
DA:437,0
DA:438,0
DA:440,0
DA:441,0
DA:443,0
DA:444,0
DA:445,0
DA:447,0
DA:448,0
DA:449,0
DA:450,0
DA:451,0
DA:452,0
DA:453,0
DA:454,0
DA:455,0
DA:456,0
DA:457,0
DA:458,0
DA:459,0
DA:460,0
DA:461,0
DA:462,0
DA:463,0
DA:464,0
DA:467,0
DA:468,0
DA:469,0
DA:470,0
DA:474,0
DA:475,0
DA:476,0
DA:480,0
DA:484,0
DA:485,0
DA:486,0
DA:487,0
DA:488,0
DA:489,0
DA:490,0
DA:491,0
DA:492,0
DA:493,0
DA:494,0
DA:495,0
DA:498,0
DA:499,0
DA:500,0
DA:501,0
DA:502,0
DA:503,0
DA:504,0
DA:505,0
DA:506,0
DA:507,0
DA:508,0
DA:509,0
DA:512,0
DA:513,0
BRF:0
BRH:0
LF:288
LH:0
end_of_record
SF:/home/noah/src/ruchy/src/quality/instrumentation.rs
FN:53,_RNvMNtNtCs2RUqfoJCtLU_5ruchy7quality15instrumentationNtB2_23CoverageInstrumentation18get_executed_lines
FN:28,_RNvMNtNtCs2RUqfoJCtLU_5ruchy7quality15instrumentationNtB2_23CoverageInstrumentation18mark_line_executed
FN:44,_RNvMNtNtCs2RUqfoJCtLU_5ruchy7quality15instrumentationNtB2_23CoverageInstrumentation20mark_branch_executed
FN:63,_RNvMNtNtCs2RUqfoJCtLU_5ruchy7quality15instrumentationNtB2_23CoverageInstrumentation21get_executed_branches
FN:58,_RNvMNtNtCs2RUqfoJCtLU_5ruchy7quality15instrumentationNtB2_23CoverageInstrumentation22get_executed_functions
FN:36,_RNvMNtNtCs2RUqfoJCtLU_5ruchy7quality15instrumentationNtB2_23CoverageInstrumentation22mark_function_executed
FN:19,_RNvMNtNtCs2RUqfoJCtLU_5ruchy7quality15instrumentationNtB2_23CoverageInstrumentation3new
FN:68,_RNvMNtNtCs2RUqfoJCtLU_5ruchy7quality15instrumentationNtB2_23CoverageInstrumentation5merge
FN:189,_RNvNtNtCs2RUqfoJCtLU_5ruchy7quality15instrumentation14is_block_start
FN:102,_RNvNtNtCs2RUqfoJCtLU_5ruchy7quality15instrumentation17instrument_source
FN:147,_RNvNtNtCs2RUqfoJCtLU_5ruchy7quality15instrumentation18is_executable_line
FN:202,_RNvNtNtCs2RUqfoJCtLU_5ruchy7quality15instrumentation21extract_function_name
FN:194,_RNvNtNtCs2RUqfoJCtLU_5ruchy7quality15instrumentation23is_executable_statement
FN:178,_RNvNtNtCs2RUqfoJCtLU_5ruchy7quality15instrumentation24is_declaration_statement
FN:170,_RNvNtNtCs2RUqfoJCtLU_5ruchy7quality15instrumentation25is_control_flow_statement
FN:96,_RNvXs_NtNtCs2RUqfoJCtLU_5ruchy7quality15instrumentationNtB4_23CoverageInstrumentationNtNtCs66KPHxksi63_4core7default7Default7default
FNDA:0,_RNvMNtNtCs2RUqfoJCtLU_5ruchy7quality15instrumentationNtB2_23CoverageInstrumentation18get_executed_lines
FNDA:0,_RNvMNtNtCs2RUqfoJCtLU_5ruchy7quality15instrumentationNtB2_23CoverageInstrumentation18mark_line_executed
FNDA:0,_RNvMNtNtCs2RUqfoJCtLU_5ruchy7quality15instrumentationNtB2_23CoverageInstrumentation20mark_branch_executed
FNDA:0,_RNvMNtNtCs2RUqfoJCtLU_5ruchy7quality15instrumentationNtB2_23CoverageInstrumentation21get_executed_branches
FNDA:0,_RNvMNtNtCs2RUqfoJCtLU_5ruchy7quality15instrumentationNtB2_23CoverageInstrumentation22get_executed_functions
FNDA:0,_RNvMNtNtCs2RUqfoJCtLU_5ruchy7quality15instrumentationNtB2_23CoverageInstrumentation22mark_function_executed
FNDA:0,_RNvMNtNtCs2RUqfoJCtLU_5ruchy7quality15instrumentationNtB2_23CoverageInstrumentation3new
FNDA:0,_RNvMNtNtCs2RUqfoJCtLU_5ruchy7quality15instrumentationNtB2_23CoverageInstrumentation5merge
FNDA:0,_RNvNtNtCs2RUqfoJCtLU_5ruchy7quality15instrumentation14is_block_start
FNDA:0,_RNvNtNtCs2RUqfoJCtLU_5ruchy7quality15instrumentation17instrument_source
FNDA:0,_RNvNtNtCs2RUqfoJCtLU_5ruchy7quality15instrumentation18is_executable_line
FNDA:0,_RNvNtNtCs2RUqfoJCtLU_5ruchy7quality15instrumentation21extract_function_name
FNDA:0,_RNvNtNtCs2RUqfoJCtLU_5ruchy7quality15instrumentation23is_executable_statement
FNDA:0,_RNvNtNtCs2RUqfoJCtLU_5ruchy7quality15instrumentation24is_declaration_statement
FNDA:0,_RNvNtNtCs2RUqfoJCtLU_5ruchy7quality15instrumentation25is_control_flow_statement
FNDA:0,_RNvXs_NtNtCs2RUqfoJCtLU_5ruchy7quality15instrumentationNtB4_23CoverageInstrumentationNtNtCs66KPHxksi63_4core7default7Default7default
FNF:16
FNH:0
DA:19,0
DA:20,0
DA:21,0
DA:22,0
DA:23,0
DA:24,0
DA:25,0
DA:28,0
DA:29,0
DA:30,0
DA:31,0
DA:32,0
DA:33,0
DA:36,0
DA:37,0
DA:38,0
DA:39,0
DA:40,0
DA:41,0
DA:44,0
DA:45,0
DA:46,0
DA:47,0
DA:48,0
DA:49,0
DA:50,0
DA:53,0
DA:54,0
DA:55,0
DA:58,0
DA:59,0
DA:60,0
DA:63,0
DA:64,0
DA:65,0
DA:68,0
DA:70,0
DA:71,0
DA:72,0
DA:73,0
DA:74,0
DA:78,0
DA:79,0
DA:80,0
DA:81,0
DA:82,0
DA:86,0
DA:87,0
DA:88,0
DA:89,0
DA:90,0
DA:92,0
DA:96,0
DA:97,0
DA:98,0
DA:102,0
DA:103,0
DA:104,0
DA:107,0
DA:108,0
DA:109,0
DA:110,0
DA:112,0
DA:113,0
DA:114,0
DA:117,0
DA:118,0
DA:119,0
DA:120,0
DA:121,0
DA:124,0
DA:125,0
DA:126,0
DA:127,0
DA:128,0
DA:131,0
DA:132,0
DA:133,0
DA:134,0
DA:135,0
DA:136,0
DA:139,0
DA:140,0
DA:143,0
DA:144,0
DA:147,0
DA:148,0
DA:151,0
DA:152,0
DA:153,0
DA:156,0
DA:157,0
DA:158,0
DA:161,0
DA:162,0
DA:163,0
DA:166,0
DA:167,0
DA:170,0
DA:171,0
DA:172,0
DA:173,0
DA:174,0
DA:175,0
DA:178,0
DA:179,0
DA:180,0
DA:181,0
DA:182,0
DA:183,0
DA:184,0
DA:185,0
DA:186,0
DA:189,0
DA:190,0
DA:191,0
DA:194,0
DA:195,0
DA:196,0
DA:197,0
DA:198,0
DA:199,0
DA:202,0
DA:203,0
DA:204,0
DA:205,0
DA:207,0
DA:209,0
BRF:0
BRH:0
LF:128
LH:0
end_of_record
SF:/home/noah/src/ruchy/src/quality/linter.rs
FN:607,_RNCNvMs_NtNtCs2RUqfoJCtLU_5ruchy7quality6linterNtB6_6Linter20calculate_complexitys_0Ba_
FN:94,_RNCNvMNtNtCs2RUqfoJCtLU_5ruchy7quality6linterNtB4_5Scope10is_defined0B8_
FN:98,_RNCNvMNtNtCs2RUqfoJCtLU_5ruchy7quality6linterNtB4_5Scope12is_shadowing0B8_
FN:195,_RNCNvMs_NtNtCs2RUqfoJCtLU_5ruchy7quality6linterNtB6_6Linter12analyze_expr0Ba_
FN:227,_RNCNvMs_NtNtCs2RUqfoJCtLU_5ruchy7quality6linterNtB6_6Linter12analyze_exprs_0Ba_
FN:602,_RNCNvMs_NtNtCs2RUqfoJCtLU_5ruchy7quality6linterNtB6_6Linter20calculate_complexity0Ba_
FN:534,_RNCNvMs_NtNtCs2RUqfoJCtLU_5ruchy7quality6linterNtB6_6Linter21check_unused_in_scope0Ba_
FN:548,_RNCNvMs_NtNtCs2RUqfoJCtLU_5ruchy7quality6linterNtB6_6Linter21check_unused_in_scopes0_0Ba_
FN:555,_RNCNvMs_NtNtCs2RUqfoJCtLU_5ruchy7quality6linterNtB6_6Linter21check_unused_in_scopes1_0Ba_
FN:541,_RNCNvMs_NtNtCs2RUqfoJCtLU_5ruchy7quality6linterNtB6_6Linter21check_unused_in_scopes_0Ba_
FN:162,_RNCNvMs_NtNtCs2RUqfoJCtLU_5ruchy7quality6linterNtB6_6Linter4lint0Ba_
FN:92,_RNvMNtNtCs2RUqfoJCtLU_5ruchy7quality6linterNtB2_5Scope10is_defined
FN:66,_RNvMNtNtCs2RUqfoJCtLU_5ruchy7quality6linterNtB2_5Scope11with_parent
FN:97,_RNvMNtNtCs2RUqfoJCtLU_5ruchy7quality6linterNtB2_5Scope12is_shadowing
FN:59,_RNvMNtNtCs2RUqfoJCtLU_5ruchy7quality6linterNtB2_5Scope3new
FN:73,_RNvMNtNtCs2RUqfoJCtLU_5ruchy7quality6linterNtB2_5Scope6define
FN:81,_RNvMNtNtCs2RUqfoJCtLU_5ruchy7quality6linterNtB2_5Scope9mark_used
FN:185,_RNvMs_NtNtCs2RUqfoJCtLU_5ruchy7quality6linterNtB4_6Linter12analyze_expr
FN:147,_RNvMs_NtNtCs2RUqfoJCtLU_5ruchy7quality6linterNtB4_6Linter15set_strict_mode
FN:598,_RNvMs_NtNtCs2RUqfoJCtLU_5ruchy7quality6linterNtB4_6Linter20calculate_complexity
FN:529,_RNvMs_NtNtCs2RUqfoJCtLU_5ruchy7quality6linterNtB4_6Linter21check_unused_in_scope
FN:430,_RNvMs_NtNtCs2RUqfoJCtLU_5ruchy7quality6linterNtB4_6Linter21extract_loop_bindings
FN:462,_RNvMs_NtNtCs2RUqfoJCtLU_5ruchy7quality6linterNtB4_6Linter22extract_param_bindings
FN:494,_RNvMs_NtNtCs2RUqfoJCtLU_5ruchy7quality6linterNtB4_6Linter24extract_pattern_bindings
FN:109,_RNvMs_NtNtCs2RUqfoJCtLU_5ruchy7quality6linterNtB4_6Linter3new
FN:151,_RNvMs_NtNtCs2RUqfoJCtLU_5ruchy7quality6linterNtB4_6Linter4lint
FN:584,_RNvMs_NtNtCs2RUqfoJCtLU_5ruchy7quality6linterNtB4_6Linter8auto_fix
FN:126,_RNvMs_NtNtCs2RUqfoJCtLU_5ruchy7quality6linterNtB4_6Linter9set_rules
FN:615,_RNvXs0_NtNtCs2RUqfoJCtLU_5ruchy7quality6linterNtB5_6LinterNtNtCs66KPHxksi63_4core7default7Default7default
FNDA:0,_RNCNvMs_NtNtCs2RUqfoJCtLU_5ruchy7quality6linterNtB6_6Linter20calculate_complexitys_0Ba_
FNDA:0,_RNCNvMNtNtCs2RUqfoJCtLU_5ruchy7quality6linterNtB4_5Scope10is_defined0B8_
FNDA:0,_RNCNvMNtNtCs2RUqfoJCtLU_5ruchy7quality6linterNtB4_5Scope12is_shadowing0B8_
FNDA:0,_RNCNvMs_NtNtCs2RUqfoJCtLU_5ruchy7quality6linterNtB6_6Linter12analyze_expr0Ba_
FNDA:0,_RNCNvMs_NtNtCs2RUqfoJCtLU_5ruchy7quality6linterNtB6_6Linter12analyze_exprs_0Ba_
FNDA:0,_RNCNvMs_NtNtCs2RUqfoJCtLU_5ruchy7quality6linterNtB6_6Linter20calculate_complexity0Ba_
FNDA:0,_RNCNvMs_NtNtCs2RUqfoJCtLU_5ruchy7quality6linterNtB6_6Linter21check_unused_in_scope0Ba_
FNDA:0,_RNCNvMs_NtNtCs2RUqfoJCtLU_5ruchy7quality6linterNtB6_6Linter21check_unused_in_scopes0_0Ba_
FNDA:0,_RNCNvMs_NtNtCs2RUqfoJCtLU_5ruchy7quality6linterNtB6_6Linter21check_unused_in_scopes1_0Ba_
FNDA:0,_RNCNvMs_NtNtCs2RUqfoJCtLU_5ruchy7quality6linterNtB6_6Linter21check_unused_in_scopes_0Ba_
FNDA:0,_RNCNvMs_NtNtCs2RUqfoJCtLU_5ruchy7quality6linterNtB6_6Linter4lint0Ba_
FNDA:0,_RNvMNtNtCs2RUqfoJCtLU_5ruchy7quality6linterNtB2_5Scope10is_defined
FNDA:0,_RNvMNtNtCs2RUqfoJCtLU_5ruchy7quality6linterNtB2_5Scope11with_parent
FNDA:0,_RNvMNtNtCs2RUqfoJCtLU_5ruchy7quality6linterNtB2_5Scope12is_shadowing
FNDA:0,_RNvMNtNtCs2RUqfoJCtLU_5ruchy7quality6linterNtB2_5Scope3new
FNDA:0,_RNvMNtNtCs2RUqfoJCtLU_5ruchy7quality6linterNtB2_5Scope6define
FNDA:0,_RNvMNtNtCs2RUqfoJCtLU_5ruchy7quality6linterNtB2_5Scope9mark_used
FNDA:0,_RNvMs_NtNtCs2RUqfoJCtLU_5ruchy7quality6linterNtB4_6Linter12analyze_expr
FNDA:0,_RNvMs_NtNtCs2RUqfoJCtLU_5ruchy7quality6linterNtB4_6Linter15set_strict_mode
FNDA:0,_RNvMs_NtNtCs2RUqfoJCtLU_5ruchy7quality6linterNtB4_6Linter20calculate_complexity
FNDA:0,_RNvMs_NtNtCs2RUqfoJCtLU_5ruchy7quality6linterNtB4_6Linter21check_unused_in_scope
FNDA:0,_RNvMs_NtNtCs2RUqfoJCtLU_5ruchy7quality6linterNtB4_6Linter21extract_loop_bindings
FNDA:0,_RNvMs_NtNtCs2RUqfoJCtLU_5ruchy7quality6linterNtB4_6Linter22extract_param_bindings
FNDA:0,_RNvMs_NtNtCs2RUqfoJCtLU_5ruchy7quality6linterNtB4_6Linter24extract_pattern_bindings
FNDA:0,_RNvMs_NtNtCs2RUqfoJCtLU_5ruchy7quality6linterNtB4_6Linter3new
FNDA:0,_RNvMs_NtNtCs2RUqfoJCtLU_5ruchy7quality6linterNtB4_6Linter4lint
FNDA:0,_RNvMs_NtNtCs2RUqfoJCtLU_5ruchy7quality6linterNtB4_6Linter8auto_fix
FNDA:0,_RNvMs_NtNtCs2RUqfoJCtLU_5ruchy7quality6linterNtB4_6Linter9set_rules
FNDA:0,_RNvXs0_NtNtCs2RUqfoJCtLU_5ruchy7quality6linterNtB5_6LinterNtNtCs66KPHxksi63_4core7default7Default7default
FNF:29
FNH:0
DA:59,0
DA:60,0
DA:61,0
DA:62,0
DA:63,0
DA:64,0
DA:66,0
DA:67,0
DA:68,0
DA:69,0
DA:70,0
DA:71,0
DA:73,0
DA:74,0
DA:75,0
DA:76,0
DA:77,0
DA:78,0
DA:79,0
DA:81,0
DA:82,0
DA:83,0
DA:84,0
DA:85,0
DA:86,0
DA:88,0
DA:90,0
DA:92,0
DA:93,0
DA:94,0
DA:95,0
DA:97,0
DA:98,0
DA:99,0
DA:109,0
DA:110,0
DA:111,0
DA:112,0
DA:113,0
DA:114,0
DA:115,0
DA:116,0
DA:117,0
DA:118,0
DA:119,0
DA:120,0
DA:121,0
DA:122,0
DA:123,0
DA:124,0
DA:126,0
DA:127,0
DA:128,0
DA:129,0
DA:130,0
DA:131,0
DA:132,0
DA:133,0
DA:134,0
DA:135,0
DA:136,0
DA:137,0
DA:138,0
DA:139,0
DA:140,0
DA:141,0
DA:142,0
DA:145,0
DA:147,0
DA:148,0
DA:149,0
DA:151,0
DA:152,0
DA:153,0
DA:156,0
DA:159,0
DA:162,0
DA:163,0
DA:164,0
DA:167,0
DA:168,0
DA:169,0
DA:170,0
DA:171,0
DA:172,0
DA:174,0
DA:177,0
DA:179,0
DA:180,0
DA:182,0
DA:183,0
DA:185,0
DA:186,0
DA:187,0
DA:189,0
DA:192,0
DA:195,0
DA:196,0
DA:197,0
DA:198,0
DA:199,0
DA:200,0
DA:201,0
DA:202,0
DA:203,0
DA:204,0
DA:205,0
DA:206,0
DA:207,0
DA:210,0
DA:213,0
DA:216,0
DA:219,0
DA:221,0
DA:222,0
DA:223,0
DA:226,0
DA:227,0
DA:228,0
DA:229,0
DA:230,0
DA:231,0
DA:232,0
DA:233,0
DA:234,0
DA:235,0
DA:236,0
DA:237,0
DA:238,0
DA:241,0
DA:243,0
DA:246,0
DA:249,0
DA:250,0
DA:251,0
DA:254,0
DA:258,0
DA:259,0
DA:260,0
DA:261,0
DA:262,0
DA:263,0
DA:264,0
DA:265,0
DA:266,0
DA:267,0
DA:268,0
DA:269,0
DA:270,0
DA:274,0
DA:276,0
DA:279,0
DA:280,0
DA:281,0
DA:282,0
DA:283,0
DA:284,0
DA:287,0
DA:290,0
DA:293,0
DA:296,0
DA:298,0
DA:301,0
DA:302,0
DA:305,0
DA:308,0
DA:309,0
DA:310,0
DA:313,0
DA:316,0
DA:320,0
DA:321,0
DA:324,0
DA:325,0
DA:328,0
DA:329,0
DA:330,0
DA:331,0
DA:334,0
DA:336,0
DA:337,0
DA:338,0
DA:341,0
DA:342,0
DA:343,0
DA:344,0
DA:346,0
DA:347,0
DA:348,0
DA:349,0
DA:350,0
DA:353,0
DA:354,0
DA:355,0
DA:356,0
DA:357,0
DA:360,0
DA:362,0
DA:363,0
DA:364,0
DA:365,0
DA:366,0
DA:367,0
DA:368,0
DA:369,0
DA:370,0
DA:371,0
DA:372,0
DA:377,0
DA:379,0
DA:382,0
DA:383,0
DA:384,0
DA:387,0
DA:390,0
DA:393,0
DA:394,0
DA:395,0
DA:396,0
DA:399,0
DA:400,0
DA:401,0
DA:402,0
DA:405,0
DA:406,0
DA:407,0
DA:409,0
DA:410,0
DA:411,0
DA:412,0
DA:414,0
DA:415,0
DA:416,0
DA:417,0
DA:419,0
DA:420,0
DA:421,0
DA:422,0
DA:424,0
DA:425,0
DA:426,0
DA:428,0
DA:430,0
DA:431,0
DA:432,0
DA:434,0
DA:435,0
DA:436,0
DA:438,0
DA:439,0
DA:440,0
DA:441,0
DA:443,0
DA:444,0
DA:445,0
DA:446,0
DA:447,0
DA:448,0
DA:449,0
DA:450,0
DA:453,0
DA:454,0
DA:455,0
DA:456,0
DA:458,0
DA:460,0
DA:462,0
DA:463,0
DA:464,0
DA:466,0
DA:467,0
DA:468,0
DA:470,0
DA:471,0
DA:472,0
DA:473,0
DA:475,0
DA:476,0
DA:477,0
DA:478,0
DA:479,0
DA:480,0
DA:481,0
DA:482,0
DA:485,0
DA:486,0
DA:487,0
DA:488,0
DA:490,0
DA:492,0
DA:494,0
DA:495,0
DA:496,0
DA:498,0
DA:499,0
DA:500,0
DA:502,0
DA:503,0
DA:504,0
DA:505,0
DA:507,0
DA:508,0
DA:509,0
DA:510,0
DA:511,0
DA:512,0
DA:513,0
DA:514,0
DA:517,0
DA:518,0
DA:519,0
DA:520,0
DA:522,0
DA:523,0
DA:524,0
DA:525,0
DA:527,0
DA:529,0
DA:530,0
DA:531,0
DA:532,0
DA:534,0
DA:535,0
DA:537,0
DA:541,0
DA:542,0
DA:544,0
DA:548,0
DA:549,0
DA:551,0
DA:555,0
DA:556,0
DA:558,0
DA:563,0
DA:564,0
DA:565,0
DA:566,0
DA:567,0
DA:568,0
DA:569,0
DA:570,0
DA:571,0
DA:572,0
DA:573,0
DA:574,0
DA:577,0
DA:578,0
DA:580,0
DA:582,0
DA:584,0
DA:586,0
DA:588,0
DA:589,0
DA:590,0
DA:591,0
DA:592,0
DA:595,0
DA:596,0
DA:598,0
DA:599,0
DA:600,0
DA:601,0
DA:602,0
DA:604,0
DA:605,0
DA:606,0
DA:607,0
DA:609,0
DA:611,0
DA:615,0
DA:616,0
DA:617,0
BRF:0
BRH:0
LF:383
LH:0
end_of_record
SF:/home/noah/src/ruchy/src/quality/mod.rs
FN:246,_RNCNvMs_NtCs2RUqfoJCtLU_5ruchy7qualityNtB6_12QualityGates19count_satd_comments0B8_
FN:211,_RNCNvMs_NtCs2RUqfoJCtLU_5ruchy7qualityNtB6_12QualityGates17estimate_coverage0B8_
FN:217,_RNCNvMs_NtCs2RUqfoJCtLU_5ruchy7qualityNtB6_12QualityGates17estimate_coverages_0B8_
FN:330,_RNvMs0_NtCs2RUqfoJCtLU_5ruchy7qualityNtB5_17CiQualityEnforcer10run_checks
FN:365,_RNvMs0_NtCs2RUqfoJCtLU_5ruchy7qualityNtB5_17CiQualityEnforcer14publish_report
FN:305,_RNvMs0_NtCs2RUqfoJCtLU_5ruchy7qualityNtB5_17CiQualityEnforcer3new
FN:252,_RNvMs_NtCs2RUqfoJCtLU_5ruchy7qualityNtB4_12QualityGates11get_metrics
FN:256,_RNvMs_NtCs2RUqfoJCtLU_5ruchy7qualityNtB4_12QualityGates14get_thresholds
FN:88,_RNvMs_NtCs2RUqfoJCtLU_5ruchy7qualityNtB4_12QualityGates14update_metrics
FN:145,_RNvMs_NtCs2RUqfoJCtLU_5ruchy7qualityNtB4_12QualityGates15collect_metrics
FN:81,_RNvMs_NtCs2RUqfoJCtLU_5ruchy7qualityNtB4_12QualityGates15with_thresholds
FN:175,_RNvMs_NtCs2RUqfoJCtLU_5ruchy7qualityNtB4_12QualityGates16collect_coverage
FN:204,_RNvMs_NtCs2RUqfoJCtLU_5ruchy7qualityNtB4_12QualityGates17estimate_coverage
FN:226,_RNvMs_NtCs2RUqfoJCtLU_5ruchy7qualityNtB4_12QualityGates19count_satd_comments
FN:265,_RNvMs_NtCs2RUqfoJCtLU_5ruchy7qualityNtB4_12QualityGates24generate_coverage_report
FN:74,_RNvMs_NtCs2RUqfoJCtLU_5ruchy7qualityNtB4_12QualityGates3new
FN:97,_RNvMs_NtCs2RUqfoJCtLU_5ruchy7qualityNtB4_12QualityGates5check
FN:47,_RNvXNtCs2RUqfoJCtLU_5ruchy7qualityNtB2_17QualityThresholdsNtNtCs66KPHxksi63_4core7default7Default7default
FN:394,_RNvXs1_NtCs2RUqfoJCtLU_5ruchy7qualityNtB5_12QualityGatesNtNtCs66KPHxksi63_4core7default7Default7default
FNDA:0,_RNCNvMs_NtCs2RUqfoJCtLU_5ruchy7qualityNtB6_12QualityGates19count_satd_comments0B8_
FNDA:0,_RNCNvMs_NtCs2RUqfoJCtLU_5ruchy7qualityNtB6_12QualityGates17estimate_coverage0B8_
FNDA:0,_RNCNvMs_NtCs2RUqfoJCtLU_5ruchy7qualityNtB6_12QualityGates17estimate_coverages_0B8_
FNDA:0,_RNvMs0_NtCs2RUqfoJCtLU_5ruchy7qualityNtB5_17CiQualityEnforcer10run_checks
FNDA:0,_RNvMs0_NtCs2RUqfoJCtLU_5ruchy7qualityNtB5_17CiQualityEnforcer14publish_report
FNDA:0,_RNvMs0_NtCs2RUqfoJCtLU_5ruchy7qualityNtB5_17CiQualityEnforcer3new
FNDA:0,_RNvMs_NtCs2RUqfoJCtLU_5ruchy7qualityNtB4_12QualityGates11get_metrics
FNDA:0,_RNvMs_NtCs2RUqfoJCtLU_5ruchy7qualityNtB4_12QualityGates14get_thresholds
FNDA:0,_RNvMs_NtCs2RUqfoJCtLU_5ruchy7qualityNtB4_12QualityGates14update_metrics
FNDA:0,_RNvMs_NtCs2RUqfoJCtLU_5ruchy7qualityNtB4_12QualityGates15collect_metrics
FNDA:0,_RNvMs_NtCs2RUqfoJCtLU_5ruchy7qualityNtB4_12QualityGates15with_thresholds
FNDA:0,_RNvMs_NtCs2RUqfoJCtLU_5ruchy7qualityNtB4_12QualityGates16collect_coverage
FNDA:0,_RNvMs_NtCs2RUqfoJCtLU_5ruchy7qualityNtB4_12QualityGates17estimate_coverage
FNDA:0,_RNvMs_NtCs2RUqfoJCtLU_5ruchy7qualityNtB4_12QualityGates19count_satd_comments
FNDA:0,_RNvMs_NtCs2RUqfoJCtLU_5ruchy7qualityNtB4_12QualityGates24generate_coverage_report
FNDA:0,_RNvMs_NtCs2RUqfoJCtLU_5ruchy7qualityNtB4_12QualityGates3new
FNDA:0,_RNvMs_NtCs2RUqfoJCtLU_5ruchy7qualityNtB4_12QualityGates5check
FNDA:0,_RNvXNtCs2RUqfoJCtLU_5ruchy7qualityNtB2_17QualityThresholdsNtNtCs66KPHxksi63_4core7default7Default7default
FNDA:0,_RNvXs1_NtCs2RUqfoJCtLU_5ruchy7qualityNtB5_12QualityGatesNtNtCs66KPHxksi63_4core7default7Default7default
FNF:19
FNH:0
DA:47,0
DA:48,0
DA:49,0
DA:50,0
DA:51,0
DA:52,0
DA:53,0
DA:54,0
DA:55,0
DA:74,0
DA:75,0
DA:76,0
DA:77,0
DA:78,0
DA:79,0
DA:81,0
DA:82,0
DA:83,0
DA:84,0
DA:85,0
DA:86,0
DA:88,0
DA:89,0
DA:90,0
DA:97,0
DA:98,0
DA:100,0
DA:101,0
DA:102,0
DA:103,0
DA:104,0
DA:105,0
DA:107,0
DA:108,0
DA:109,0
DA:110,0
DA:111,0
DA:112,0
DA:114,0
DA:115,0
DA:116,0
DA:117,0
DA:118,0
DA:120,0
DA:121,0
DA:122,0
DA:123,0
DA:124,0
DA:126,0
DA:127,0
DA:128,0
DA:129,0
DA:130,0
DA:131,0
DA:133,0
DA:134,0
DA:136,0
DA:138,0
DA:145,0
DA:147,0
DA:149,0
DA:150,0
DA:151,0
DA:152,0
DA:155,0
DA:156,0
DA:157,0
DA:159,0
DA:163,0
DA:166,0
DA:167,0
DA:168,0
DA:175,0
DA:177,0
DA:178,0
DA:179,0
DA:180,0
DA:183,0
DA:184,0
DA:185,0
DA:186,0
DA:189,0
DA:190,0
DA:191,0
DA:192,0
DA:194,0
DA:195,0
DA:204,0
DA:208,0
DA:209,0
DA:210,0
DA:211,0
DA:212,0
DA:214,0
DA:215,0
DA:216,0
DA:217,0
DA:218,0
DA:222,0
DA:223,0
DA:224,0
DA:226,0
DA:230,0
DA:231,0
DA:232,0
DA:233,0
DA:234,0
DA:235,0
DA:236,0
DA:237,0
DA:238,0
DA:239,0
DA:240,0
DA:241,0
DA:242,0
DA:244,0
DA:245,0
DA:246,0
DA:247,0
DA:249,0
DA:250,0
DA:252,0
DA:253,0
DA:254,0
DA:256,0
DA:257,0
DA:258,0
DA:265,0
DA:266,0
DA:269,0
DA:270,0
DA:273,0
DA:274,0
DA:275,0
DA:276,0
DA:280,0
DA:281,0
DA:282,0
DA:287,0
DA:288,0
DA:305,0
DA:306,0
DA:307,0
DA:330,0
DA:332,0
DA:335,0
DA:338,0
DA:340,0
DA:342,0
DA:345,0
DA:346,0
DA:347,0
DA:349,0
DA:351,0
DA:352,0
DA:353,0
DA:354,0
DA:356,0
DA:360,0
DA:363,0
DA:365,0
DA:366,0
DA:367,0
DA:368,0
DA:369,0
DA:371,0
DA:373,0
DA:374,0
DA:375,0
DA:377,0
DA:379,0
DA:380,0
DA:381,0
DA:382,0
DA:384,0
DA:386,0
DA:389,0
DA:390,0
DA:394,0
DA:395,0
DA:396,0
BRF:0
BRH:0
LF:184
LH:0
end_of_record
SF:/home/noah/src/ruchy/src/quality/ruchy_coverage.rs
FN:95,_RNCNvMs_NtNtCs2RUqfoJCtLU_5ruchy7quality14ruchy_coverageNtB6_22RuchyCoverageCollector12analyze_file0Ba_
FN:108,_RNCNvMs_NtNtCs2RUqfoJCtLU_5ruchy7quality14ruchy_coverageNtB6_22RuchyCoverageCollector12analyze_files_0Ba_
FN:208,_RNCNvMs_NtNtCs2RUqfoJCtLU_5ruchy7quality14ruchy_coverageNtB6_22RuchyCoverageCollector20generate_json_report0Ba_
FN:38,_RNvMNtNtCs2RUqfoJCtLU_5ruchy7quality14ruchy_coverageNtB2_13RuchyCoverage13line_coverage
FN:56,_RNvMNtNtCs2RUqfoJCtLU_5ruchy7quality14ruchy_coverageNtB2_13RuchyCoverage15branch_coverage
FN:65,_RNvMNtNtCs2RUqfoJCtLU_5ruchy7quality14ruchy_coverageNtB2_13RuchyCoverage16overall_coverage
FN:47,_RNvMNtNtCs2RUqfoJCtLU_5ruchy7quality14ruchy_coverageNtB2_13RuchyCoverage17function_coverage
FN:25,_RNvMNtNtCs2RUqfoJCtLU_5ruchy7quality14ruchy_coverageNtB2_13RuchyCoverage3new
FN:88,_RNvMs_NtNtCs2RUqfoJCtLU_5ruchy7quality14ruchy_coverageNtB4_22RuchyCoverageCollector12analyze_file
FN:133,_RNvMs_NtNtCs2RUqfoJCtLU_5ruchy7quality14ruchy_coverageNtB4_22RuchyCoverageCollector12mark_covered
FN:239,_RNvMs_NtNtCs2RUqfoJCtLU_5ruchy7quality14ruchy_coverageNtB4_22RuchyCoverageCollector15meets_threshold
FN:212,_RNvMs_NtNtCs2RUqfoJCtLU_5ruchy7quality14ruchy_coverageNtB4_22RuchyCoverageCollector20generate_html_report
FN:207,_RNvMs_NtNtCs2RUqfoJCtLU_5ruchy7quality14ruchy_coverageNtB4_22RuchyCoverageCollector20generate_json_report
FN:149,_RNvMs_NtNtCs2RUqfoJCtLU_5ruchy7quality14ruchy_coverageNtB4_22RuchyCoverageCollector20generate_text_report
FN:304,_RNvMs_NtNtCs2RUqfoJCtLU_5ruchy7quality14ruchy_coverageNtB4_22RuchyCoverageCollector20get_runtime_coverage
FN:249,_RNvMs_NtNtCs2RUqfoJCtLU_5ruchy7quality14ruchy_coverageNtB4_22RuchyCoverageCollector21execute_with_coverage
FN:142,_RNvMs_NtNtCs2RUqfoJCtLU_5ruchy7quality14ruchy_coverageNtB4_22RuchyCoverageCollector21mark_function_covered
FN:80,_RNvMs_NtNtCs2RUqfoJCtLU_5ruchy7quality14ruchy_coverageNtB4_22RuchyCoverageCollector3new
FN:312,_RNvNtNtCs2RUqfoJCtLU_5ruchy7quality14ruchy_coverage21extract_function_name
FN:332,_RNvXs0_NtNtCs2RUqfoJCtLU_5ruchy7quality14ruchy_coverageNtB5_22RuchyCoverageCollectorNtNtCs66KPHxksi63_4core7default7Default7default
FNDA:0,_RNCNvMs_NtNtCs2RUqfoJCtLU_5ruchy7quality14ruchy_coverageNtB6_22RuchyCoverageCollector12analyze_file0Ba_
FNDA:0,_RNCNvMs_NtNtCs2RUqfoJCtLU_5ruchy7quality14ruchy_coverageNtB6_22RuchyCoverageCollector12analyze_files_0Ba_
FNDA:0,_RNCNvMs_NtNtCs2RUqfoJCtLU_5ruchy7quality14ruchy_coverageNtB6_22RuchyCoverageCollector20generate_json_report0Ba_
FNDA:0,_RNvMNtNtCs2RUqfoJCtLU_5ruchy7quality14ruchy_coverageNtB2_13RuchyCoverage13line_coverage
FNDA:0,_RNvMNtNtCs2RUqfoJCtLU_5ruchy7quality14ruchy_coverageNtB2_13RuchyCoverage15branch_coverage
FNDA:0,_RNvMNtNtCs2RUqfoJCtLU_5ruchy7quality14ruchy_coverageNtB2_13RuchyCoverage16overall_coverage
FNDA:0,_RNvMNtNtCs2RUqfoJCtLU_5ruchy7quality14ruchy_coverageNtB2_13RuchyCoverage17function_coverage
FNDA:0,_RNvMNtNtCs2RUqfoJCtLU_5ruchy7quality14ruchy_coverageNtB2_13RuchyCoverage3new
FNDA:0,_RNvMs_NtNtCs2RUqfoJCtLU_5ruchy7quality14ruchy_coverageNtB4_22RuchyCoverageCollector12analyze_file
FNDA:0,_RNvMs_NtNtCs2RUqfoJCtLU_5ruchy7quality14ruchy_coverageNtB4_22RuchyCoverageCollector12mark_covered
FNDA:0,_RNvMs_NtNtCs2RUqfoJCtLU_5ruchy7quality14ruchy_coverageNtB4_22RuchyCoverageCollector15meets_threshold
FNDA:0,_RNvMs_NtNtCs2RUqfoJCtLU_5ruchy7quality14ruchy_coverageNtB4_22RuchyCoverageCollector20generate_html_report
FNDA:0,_RNvMs_NtNtCs2RUqfoJCtLU_5ruchy7quality14ruchy_coverageNtB4_22RuchyCoverageCollector20generate_json_report
FNDA:0,_RNvMs_NtNtCs2RUqfoJCtLU_5ruchy7quality14ruchy_coverageNtB4_22RuchyCoverageCollector20generate_text_report
FNDA:0,_RNvMs_NtNtCs2RUqfoJCtLU_5ruchy7quality14ruchy_coverageNtB4_22RuchyCoverageCollector20get_runtime_coverage
FNDA:0,_RNvMs_NtNtCs2RUqfoJCtLU_5ruchy7quality14ruchy_coverageNtB4_22RuchyCoverageCollector21execute_with_coverage
FNDA:0,_RNvMs_NtNtCs2RUqfoJCtLU_5ruchy7quality14ruchy_coverageNtB4_22RuchyCoverageCollector21mark_function_covered
FNDA:0,_RNvMs_NtNtCs2RUqfoJCtLU_5ruchy7quality14ruchy_coverageNtB4_22RuchyCoverageCollector3new
FNDA:0,_RNvNtNtCs2RUqfoJCtLU_5ruchy7quality14ruchy_coverage21extract_function_name
FNDA:0,_RNvXs0_NtNtCs2RUqfoJCtLU_5ruchy7quality14ruchy_coverageNtB5_22RuchyCoverageCollectorNtNtCs66KPHxksi63_4core7default7Default7default
FNF:20
FNH:0
DA:25,0
DA:26,0
DA:27,0
DA:28,0
DA:29,0
DA:30,0
DA:31,0
DA:32,0
DA:33,0
DA:34,0
DA:35,0
DA:38,0
DA:39,0
DA:40,0
DA:42,0
DA:44,0
DA:47,0
DA:48,0
DA:49,0
DA:51,0
DA:53,0
DA:56,0
DA:57,0
DA:58,0
DA:60,0
DA:62,0
DA:65,0
DA:67,0
DA:68,0
DA:69,0
DA:70,0
DA:80,0
DA:81,0
DA:82,0
DA:83,0
DA:84,0
DA:85,0
DA:88,0
DA:89,0
DA:90,0
DA:93,0
DA:94,0
DA:95,0
DA:96,0
DA:97,0
DA:98,0
DA:99,0
DA:102,0
DA:103,0
DA:104,0
DA:105,0
DA:107,0
DA:108,0
DA:109,0
DA:110,0
DA:111,0
DA:112,0
DA:113,0
DA:114,0
DA:115,0
DA:116,0
DA:117,0
DA:119,0
DA:120,0
DA:121,0
DA:122,0
DA:123,0
DA:124,0
DA:125,0
DA:128,0
DA:129,0
DA:130,0
DA:133,0
DA:134,0
DA:135,0
DA:136,0
DA:137,0
DA:138,0
DA:139,0
DA:142,0
DA:143,0
DA:144,0
DA:145,0
DA:146,0
DA:149,0
DA:150,0
DA:151,0
DA:152,0
DA:154,0
DA:155,0
DA:156,0
DA:157,0
DA:159,0
DA:161,0
DA:162,0
DA:163,0
DA:164,0
DA:165,0
DA:166,0
DA:167,0
DA:168,0
DA:169,0
DA:170,0
DA:171,0
DA:172,0
DA:173,0
DA:174,0
DA:175,0
DA:176,0
DA:178,0
DA:179,0
DA:180,0
DA:181,0
DA:185,0
DA:186,0
DA:187,0
DA:188,0
DA:190,0
DA:192,0
DA:193,0
DA:195,0
DA:198,0
DA:199,0
DA:200,0
DA:201,0
DA:203,0
DA:204,0
DA:207,0
DA:208,0
DA:209,0
DA:212,0
DA:213,0
DA:214,0
DA:215,0
DA:216,0
DA:217,0
DA:218,0
DA:219,0
DA:220,0
DA:221,0
DA:223,0
DA:225,0
DA:226,0
DA:227,0
DA:228,0
DA:229,0
DA:230,0
DA:231,0
DA:232,0
DA:234,0
DA:235,0
DA:236,0
DA:239,0
DA:240,0
DA:241,0
DA:242,0
DA:243,0
DA:245,0
DA:246,0
DA:249,0
DA:253,0
DA:254,0
DA:257,0
DA:258,0
DA:260,0
DA:261,0
DA:263,0
DA:268,0
DA:270,0
DA:272,0
DA:273,0
DA:274,0
DA:275,0
DA:276,0
DA:277,0
DA:278,0
DA:279,0
DA:283,0
DA:284,0
DA:285,0
DA:286,0
DA:287,0
DA:288,0
DA:289,0
DA:290,0
DA:292,0
DA:293,0
DA:294,0
DA:295,0
DA:296,0
DA:297,0
DA:298,0
DA:300,0
DA:301,0
DA:304,0
DA:305,0
DA:306,0
DA:307,0
DA:308,0
DA:312,0
DA:313,0
DA:314,0
DA:315,0
DA:316,0
DA:317,0
DA:318,0
DA:319,0
DA:321,0
DA:324,0
DA:327,0
DA:329,0
DA:332,0
DA:333,0
DA:334,0
BRF:0
BRH:0
LF:217
LH:0
end_of_record
SF:/home/noah/src/ruchy/src/quality/scoring.rs
FN:360,_RNCNvMs3_NtNtCs2RUqfoJCtLU_5ruchy7quality7scoringNtB7_11ScoreEngine14optimize_caches_0Bb_
FN:366,_RNCNvMs3_NtNtCs2RUqfoJCtLU_5ruchy7quality7scoringNtB7_11ScoreEngine14optimize_caches1_0Bb_
FN:350,_RNCNvMs3_NtNtCs2RUqfoJCtLU_5ruchy7quality7scoringNtB7_11ScoreEngine14optimize_cache0Bb_
FN:1092,_RNCNvNtNtCs2RUqfoJCtLU_5ruchy7quality7scoring19analyze_duplication0B7_
FN:1177,_RNCNvNtNtCs2RUqfoJCtLU_5ruchy7quality7scoring12is_good_name0B7_
FN:819,_RNCNvNtNtCs2RUqfoJCtLU_5ruchy7quality7scoring19has_break_statement0B7_
FN:772,_RNCNvNtNtCs2RUqfoJCtLU_5ruchy7quality7scoring20has_unreachable_code0B7_
FN:647,_RNCNvNtNtCs2RUqfoJCtLU_5ruchy7quality7scoring38analyze_pattern_completeness_recursive0B7_
FN:58,_RNvMNtNtCs2RUqfoJCtLU_5ruchy7quality7scoringNtB2_5Grade10from_score
FN:169,_RNvMs2_NtNtCs2RUqfoJCtLU_5ruchy7quality7scoringNtB5_17DependencyTracker16is_file_modified
FN:154,_RNvMs2_NtNtCs2RUqfoJCtLU_5ruchy7quality7scoringNtB5_17DependencyTracker16track_dependency
FN:180,_RNvMs2_NtNtCs2RUqfoJCtLU_5ruchy7quality7scoringNtB5_17DependencyTracker16update_file_time
FN:147,_RNvMs2_NtNtCs2RUqfoJCtLU_5ruchy7quality7scoringNtB5_17DependencyTracker3new
FN:158,_RNvMs2_NtNtCs2RUqfoJCtLU_5ruchy7quality7scoringNtB5_17DependencyTracker8is_stale
FN:439,_RNvMs3_NtNtCs2RUqfoJCtLU_5ruchy7quality7scoringNtB5_11ScoreEngine10score_deep
FN:382,_RNvMs3_NtNtCs2RUqfoJCtLU_5ruchy7quality7scoringNtB5_11ScoreEngine11cache_stats
FN:376,_RNvMs3_NtNtCs2RUqfoJCtLU_5ruchy7quality7scoringNtB5_11ScoreEngine11clear_cache
FN:328,_RNvMs3_NtNtCs2RUqfoJCtLU_5ruchy7quality7scoringNtB5_11ScoreEngine12hash_content
FN:389,_RNvMs3_NtNtCs2RUqfoJCtLU_5ruchy7quality7scoringNtB5_11ScoreEngine13score_shallow
FN:343,_RNvMs3_NtNtCs2RUqfoJCtLU_5ruchy7quality7scoringNtB5_11ScoreEngine14optimize_cache
FN:427,_RNvMs3_NtNtCs2RUqfoJCtLU_5ruchy7quality7scoringNtB5_11ScoreEngine14score_standard
FN:226,_RNvMs3_NtNtCs2RUqfoJCtLU_5ruchy7quality7scoringNtB5_11ScoreEngine17score_incremental
FN:303,_RNvMs3_NtNtCs2RUqfoJCtLU_5ruchy7quality7scoringNtB5_11ScoreEngine17score_progressive
FN:458,_RNvMs3_NtNtCs2RUqfoJCtLU_5ruchy7quality7scoringNtB5_11ScoreEngine20calculate_confidence
FN:337,_RNvMs3_NtNtCs2RUqfoJCtLU_5ruchy7quality7scoringNtB5_11ScoreEngine20extract_dependencies
FN:450,_RNvMs3_NtNtCs2RUqfoJCtLU_5ruchy7quality7scoringNtB5_11ScoreEngine24calculate_weighted_score
FN:197,_RNvMs3_NtNtCs2RUqfoJCtLU_5ruchy7quality7scoringNtB5_11ScoreEngine3new
FN:205,_RNvMs3_NtNtCs2RUqfoJCtLU_5ruchy7quality7scoringNtB5_11ScoreEngine5score
FN:537,_RNvMs4_NtNtCs2RUqfoJCtLU_5ruchy7quality7scoringNtB5_12QualityScore13explain_delta
FN:490,_RNvNtNtCs2RUqfoJCtLU_5ruchy7quality7scoring12analyze_expr
FN:1170,_RNvNtNtCs2RUqfoJCtLU_5ruchy7quality7scoring12is_good_name
FN:1181,_RNvNtNtCs2RUqfoJCtLU_5ruchy7quality7scoring12score_safety
FN:1065,_RNvNtNtCs2RUqfoJCtLU_5ruchy7quality7scoring16analyze_cohesion
FN:1018,_RNvNtNtCs2RUqfoJCtLU_5ruchy7quality7scoring16analyze_coupling
FN:778,_RNvNtNtCs2RUqfoJCtLU_5ruchy7quality7scoring17is_diverging_expr
FN:598,_RNvNtNtCs2RUqfoJCtLU_5ruchy7quality7scoring17score_correctness
FN:826,_RNvNtNtCs2RUqfoJCtLU_5ruchy7quality7scoring17score_performance
FN:1424,_RNvNtNtCs2RUqfoJCtLU_5ruchy7quality7scoring18count_lambda_usage
FN:1282,_RNvNtNtCs2RUqfoJCtLU_5ruchy7quality7scoring18score_idiomaticity
FN:477,_RNvNtNtCs2RUqfoJCtLU_5ruchy7quality7scoring19analyze_ast_metrics
FN:1087,_RNvNtNtCs2RUqfoJCtLU_5ruchy7quality7scoring19analyze_duplication
FN:1203,_RNvNtNtCs2RUqfoJCtLU_5ruchy7quality7scoring19analyze_null_safety
FN:811,_RNvNtNtCs2RUqfoJCtLU_5ruchy7quality7scoring19has_break_statement
FN:1401,_RNvNtNtCs2RUqfoJCtLU_5ruchy7quality7scoring20analyze_lambda_usage
FN:755,_RNvNtNtCs2RUqfoJCtLU_5ruchy7quality7scoring20has_unreachable_code
FN:1301,_RNvNtNtCs2RUqfoJCtLU_5ruchy7quality7scoring21analyze_pattern_usage
FN:994,_RNvNtNtCs2RUqfoJCtLU_5ruchy7quality7scoring21score_maintainability
FN:680,_RNvNtNtCs2RUqfoJCtLU_5ruchy7quality7scoring22analyze_error_handling
FN:1355,_RNvNtNtCs2RUqfoJCtLU_5ruchy7quality7scoring22analyze_iterator_usage
FN:1130,_RNvNtNtCs2RUqfoJCtLU_5ruchy7quality7scoring22analyze_naming_quality
FN:1041,_RNvNtNtCs2RUqfoJCtLU_5ruchy7quality7scoring22count_coupling_metrics
FN:1145,_RNvNtNtCs2RUqfoJCtLU_5ruchy7quality7scoring23analyze_names_recursive
FN:1379,_RNvNtNtCs2RUqfoJCtLU_5ruchy7quality7scoring23count_iterator_vs_loops
FN:731,_RNvNtNtCs2RUqfoJCtLU_5ruchy7quality7scoring24analyze_type_consistency
FN:738,_RNvNtNtCs2RUqfoJCtLU_5ruchy7quality7scoring25analyze_logical_soundness
FN:927,_RNvNtNtCs2RUqfoJCtLU_5ruchy7quality7scoring27analyze_allocation_patterns
FN:1251,_RNvNtNtCs2RUqfoJCtLU_5ruchy7quality7scoring27analyze_resource_management
FN:1266,_RNvNtNtCs2RUqfoJCtLU_5ruchy7quality7scoring27analyze_resources_recursive
FN:1103,_RNvNtNtCs2RUqfoJCtLU_5ruchy7quality7scoring27collect_expression_patterns
FN:952,_RNvNtNtCs2RUqfoJCtLU_5ruchy7quality7scoring27count_allocations_recursive
FN:882,_RNvNtNtCs2RUqfoJCtLU_5ruchy7quality7scoring28analyze_complexity_recursive
FN:621,_RNvNtNtCs2RUqfoJCtLU_5ruchy7quality7scoring28analyze_pattern_completeness
FN:1325,_RNvNtNtCs2RUqfoJCtLU_5ruchy7quality7scoring28count_pattern_vs_conditional
FN:793,_RNvNtNtCs2RUqfoJCtLU_5ruchy7quality7scoring28has_potential_infinite_loops
FN:1223,_RNvNtNtCs2RUqfoJCtLU_5ruchy7quality7scoring29analyze_null_safety_recursive
FN:859,_RNvNtNtCs2RUqfoJCtLU_5ruchy7quality7scoring30analyze_algorithmic_complexity
FN:700,_RNvNtNtCs2RUqfoJCtLU_5ruchy7quality7scoring32analyze_error_handling_recursive
FN:636,_RNvNtNtCs2RUqfoJCtLU_5ruchy7quality7scoring38analyze_pattern_completeness_recursive
FN:104,_RNvXs0_NtNtCs2RUqfoJCtLU_5ruchy7quality7scoringNtB5_11ScoreConfigNtNtCs66KPHxksi63_4core7default7Default7default
FN:141,_RNvXs1_NtNtCs2RUqfoJCtLU_5ruchy7quality7scoringNtB5_17DependencyTrackerNtNtCs66KPHxksi63_4core7default7Default7default
FN:76,_RNvXs_NtNtCs2RUqfoJCtLU_5ruchy7quality7scoringNtB4_5GradeNtNtCs66KPHxksi63_4core3fmt7Display3fmt
FNDA:0,_RNCNvMs3_NtNtCs2RUqfoJCtLU_5ruchy7quality7scoringNtB7_11ScoreEngine14optimize_caches_0Bb_
FNDA:0,_RNCNvMs3_NtNtCs2RUqfoJCtLU_5ruchy7quality7scoringNtB7_11ScoreEngine14optimize_caches1_0Bb_
FNDA:0,_RNCNvMs3_NtNtCs2RUqfoJCtLU_5ruchy7quality7scoringNtB7_11ScoreEngine14optimize_cache0Bb_
FNDA:0,_RNCNvNtNtCs2RUqfoJCtLU_5ruchy7quality7scoring19analyze_duplication0B7_
FNDA:0,_RNCNvNtNtCs2RUqfoJCtLU_5ruchy7quality7scoring12is_good_name0B7_
FNDA:0,_RNCNvNtNtCs2RUqfoJCtLU_5ruchy7quality7scoring19has_break_statement0B7_
FNDA:0,_RNCNvNtNtCs2RUqfoJCtLU_5ruchy7quality7scoring20has_unreachable_code0B7_
FNDA:0,_RNCNvNtNtCs2RUqfoJCtLU_5ruchy7quality7scoring38analyze_pattern_completeness_recursive0B7_
FNDA:0,_RNvMNtNtCs2RUqfoJCtLU_5ruchy7quality7scoringNtB2_5Grade10from_score
FNDA:0,_RNvMs2_NtNtCs2RUqfoJCtLU_5ruchy7quality7scoringNtB5_17DependencyTracker16is_file_modified
FNDA:0,_RNvMs2_NtNtCs2RUqfoJCtLU_5ruchy7quality7scoringNtB5_17DependencyTracker16track_dependency
FNDA:0,_RNvMs2_NtNtCs2RUqfoJCtLU_5ruchy7quality7scoringNtB5_17DependencyTracker16update_file_time
FNDA:0,_RNvMs2_NtNtCs2RUqfoJCtLU_5ruchy7quality7scoringNtB5_17DependencyTracker3new
FNDA:0,_RNvMs2_NtNtCs2RUqfoJCtLU_5ruchy7quality7scoringNtB5_17DependencyTracker8is_stale
FNDA:0,_RNvMs3_NtNtCs2RUqfoJCtLU_5ruchy7quality7scoringNtB5_11ScoreEngine10score_deep
FNDA:0,_RNvMs3_NtNtCs2RUqfoJCtLU_5ruchy7quality7scoringNtB5_11ScoreEngine11cache_stats
FNDA:0,_RNvMs3_NtNtCs2RUqfoJCtLU_5ruchy7quality7scoringNtB5_11ScoreEngine11clear_cache
FNDA:0,_RNvMs3_NtNtCs2RUqfoJCtLU_5ruchy7quality7scoringNtB5_11ScoreEngine12hash_content
FNDA:0,_RNvMs3_NtNtCs2RUqfoJCtLU_5ruchy7quality7scoringNtB5_11ScoreEngine13score_shallow
FNDA:0,_RNvMs3_NtNtCs2RUqfoJCtLU_5ruchy7quality7scoringNtB5_11ScoreEngine14optimize_cache
FNDA:0,_RNvMs3_NtNtCs2RUqfoJCtLU_5ruchy7quality7scoringNtB5_11ScoreEngine14score_standard
FNDA:0,_RNvMs3_NtNtCs2RUqfoJCtLU_5ruchy7quality7scoringNtB5_11ScoreEngine17score_incremental
FNDA:0,_RNvMs3_NtNtCs2RUqfoJCtLU_5ruchy7quality7scoringNtB5_11ScoreEngine17score_progressive
FNDA:0,_RNvMs3_NtNtCs2RUqfoJCtLU_5ruchy7quality7scoringNtB5_11ScoreEngine20calculate_confidence
FNDA:0,_RNvMs3_NtNtCs2RUqfoJCtLU_5ruchy7quality7scoringNtB5_11ScoreEngine20extract_dependencies
FNDA:0,_RNvMs3_NtNtCs2RUqfoJCtLU_5ruchy7quality7scoringNtB5_11ScoreEngine24calculate_weighted_score
FNDA:0,_RNvMs3_NtNtCs2RUqfoJCtLU_5ruchy7quality7scoringNtB5_11ScoreEngine3new
FNDA:0,_RNvMs3_NtNtCs2RUqfoJCtLU_5ruchy7quality7scoringNtB5_11ScoreEngine5score
FNDA:0,_RNvMs4_NtNtCs2RUqfoJCtLU_5ruchy7quality7scoringNtB5_12QualityScore13explain_delta
FNDA:0,_RNvNtNtCs2RUqfoJCtLU_5ruchy7quality7scoring12analyze_expr
FNDA:0,_RNvNtNtCs2RUqfoJCtLU_5ruchy7quality7scoring12is_good_name
FNDA:0,_RNvNtNtCs2RUqfoJCtLU_5ruchy7quality7scoring12score_safety
FNDA:0,_RNvNtNtCs2RUqfoJCtLU_5ruchy7quality7scoring16analyze_cohesion
FNDA:0,_RNvNtNtCs2RUqfoJCtLU_5ruchy7quality7scoring16analyze_coupling
FNDA:0,_RNvNtNtCs2RUqfoJCtLU_5ruchy7quality7scoring17is_diverging_expr
FNDA:0,_RNvNtNtCs2RUqfoJCtLU_5ruchy7quality7scoring17score_correctness
FNDA:0,_RNvNtNtCs2RUqfoJCtLU_5ruchy7quality7scoring17score_performance
FNDA:0,_RNvNtNtCs2RUqfoJCtLU_5ruchy7quality7scoring18count_lambda_usage
FNDA:0,_RNvNtNtCs2RUqfoJCtLU_5ruchy7quality7scoring18score_idiomaticity
FNDA:0,_RNvNtNtCs2RUqfoJCtLU_5ruchy7quality7scoring19analyze_ast_metrics
FNDA:0,_RNvNtNtCs2RUqfoJCtLU_5ruchy7quality7scoring19analyze_duplication
FNDA:0,_RNvNtNtCs2RUqfoJCtLU_5ruchy7quality7scoring19analyze_null_safety
FNDA:0,_RNvNtNtCs2RUqfoJCtLU_5ruchy7quality7scoring19has_break_statement
FNDA:0,_RNvNtNtCs2RUqfoJCtLU_5ruchy7quality7scoring20analyze_lambda_usage
FNDA:0,_RNvNtNtCs2RUqfoJCtLU_5ruchy7quality7scoring20has_unreachable_code
FNDA:0,_RNvNtNtCs2RUqfoJCtLU_5ruchy7quality7scoring21analyze_pattern_usage
FNDA:0,_RNvNtNtCs2RUqfoJCtLU_5ruchy7quality7scoring21score_maintainability
FNDA:0,_RNvNtNtCs2RUqfoJCtLU_5ruchy7quality7scoring22analyze_error_handling
FNDA:0,_RNvNtNtCs2RUqfoJCtLU_5ruchy7quality7scoring22analyze_iterator_usage
FNDA:0,_RNvNtNtCs2RUqfoJCtLU_5ruchy7quality7scoring22analyze_naming_quality
FNDA:0,_RNvNtNtCs2RUqfoJCtLU_5ruchy7quality7scoring22count_coupling_metrics
FNDA:0,_RNvNtNtCs2RUqfoJCtLU_5ruchy7quality7scoring23analyze_names_recursive
FNDA:0,_RNvNtNtCs2RUqfoJCtLU_5ruchy7quality7scoring23count_iterator_vs_loops
FNDA:0,_RNvNtNtCs2RUqfoJCtLU_5ruchy7quality7scoring24analyze_type_consistency
FNDA:0,_RNvNtNtCs2RUqfoJCtLU_5ruchy7quality7scoring25analyze_logical_soundness
FNDA:0,_RNvNtNtCs2RUqfoJCtLU_5ruchy7quality7scoring27analyze_allocation_patterns
FNDA:0,_RNvNtNtCs2RUqfoJCtLU_5ruchy7quality7scoring27analyze_resource_management
FNDA:0,_RNvNtNtCs2RUqfoJCtLU_5ruchy7quality7scoring27analyze_resources_recursive
FNDA:0,_RNvNtNtCs2RUqfoJCtLU_5ruchy7quality7scoring27collect_expression_patterns
FNDA:0,_RNvNtNtCs2RUqfoJCtLU_5ruchy7quality7scoring27count_allocations_recursive
FNDA:0,_RNvNtNtCs2RUqfoJCtLU_5ruchy7quality7scoring28analyze_complexity_recursive
FNDA:0,_RNvNtNtCs2RUqfoJCtLU_5ruchy7quality7scoring28analyze_pattern_completeness
FNDA:0,_RNvNtNtCs2RUqfoJCtLU_5ruchy7quality7scoring28count_pattern_vs_conditional
FNDA:0,_RNvNtNtCs2RUqfoJCtLU_5ruchy7quality7scoring28has_potential_infinite_loops
FNDA:0,_RNvNtNtCs2RUqfoJCtLU_5ruchy7quality7scoring29analyze_null_safety_recursive
FNDA:0,_RNvNtNtCs2RUqfoJCtLU_5ruchy7quality7scoring30analyze_algorithmic_complexity
FNDA:0,_RNvNtNtCs2RUqfoJCtLU_5ruchy7quality7scoring32analyze_error_handling_recursive
FNDA:0,_RNvNtNtCs2RUqfoJCtLU_5ruchy7quality7scoring38analyze_pattern_completeness_recursive
FNDA:0,_RNvXs0_NtNtCs2RUqfoJCtLU_5ruchy7quality7scoringNtB5_11ScoreConfigNtNtCs66KPHxksi63_4core7default7Default7default
FNDA:0,_RNvXs1_NtNtCs2RUqfoJCtLU_5ruchy7quality7scoringNtB5_17DependencyTrackerNtNtCs66KPHxksi63_4core7default7Default7default
FNDA:0,_RNvXs_NtNtCs2RUqfoJCtLU_5ruchy7quality7scoringNtB4_5GradeNtNtCs66KPHxksi63_4core3fmt7Display3fmt
FNF:71
FNH:0
DA:58,0
DA:59,0
DA:60,0
DA:61,0
DA:62,0
DA:63,0
DA:64,0
DA:65,0
DA:66,0
DA:67,0
DA:68,0
DA:69,0
DA:70,0
DA:72,0
DA:76,0
DA:77,0
DA:78,0
DA:79,0
DA:80,0
DA:81,0
DA:82,0
DA:83,0
DA:84,0
DA:85,0
DA:86,0
DA:87,0
DA:88,0
DA:90,0
DA:104,0
DA:105,0
DA:106,0
DA:107,0
DA:108,0
DA:109,0
DA:110,0
DA:111,0
DA:112,0
DA:141,0
DA:142,0
DA:143,0
DA:147,0
DA:148,0
DA:149,0
DA:150,0
DA:151,0
DA:152,0
DA:154,0
DA:155,0
DA:156,0
DA:158,0
DA:159,0
DA:160,0
DA:161,0
DA:162,0
DA:163,0
DA:165,0
DA:166,0
DA:167,0
DA:169,0
DA:170,0
DA:171,0
DA:173,0
DA:174,0
DA:176,0
DA:178,0
DA:180,0
DA:181,0
DA:182,0
DA:183,0
DA:184,0
DA:185,0
DA:186,0
DA:197,0
DA:198,0
DA:199,0
DA:200,0
DA:201,0
DA:202,0
DA:203,0
DA:205,0
DA:206,0
DA:207,0
DA:208,0
DA:209,0
DA:212,0
DA:213,0
DA:214,0
DA:216,0
DA:217,0
DA:218,0
DA:219,0
DA:220,0
DA:221,0
DA:222,0
DA:223,0
DA:226,0
DA:227,0
DA:228,0
DA:229,0
DA:230,0
DA:231,0
DA:232,0
DA:233,0
DA:234,0
DA:235,0
DA:236,0
DA:237,0
DA:238,0
DA:241,0
DA:242,0
DA:243,0
DA:244,0
DA:245,0
DA:246,0
DA:247,0
DA:250,0
DA:251,0
DA:252,0
DA:253,0
DA:255,0
DA:258,0
DA:259,0
DA:260,0
DA:261,0
DA:264,0
DA:265,0
DA:266,0
DA:267,0
DA:269,0
DA:271,0
DA:273,0
DA:274,0
DA:275,0
DA:276,0
DA:277,0
DA:278,0
DA:279,0
DA:282,0
DA:283,0
DA:284,0
DA:285,0
DA:286,0
DA:287,0
DA:288,0
DA:289,0
DA:290,0
DA:292,0
DA:295,0
DA:296,0
DA:297,0
DA:299,0
DA:300,0
DA:303,0
DA:304,0
DA:305,0
DA:306,0
DA:307,0
DA:308,0
DA:309,0
DA:310,0
DA:313,0
DA:315,0
DA:317,0
DA:319,0
DA:320,0
DA:321,0
DA:322,0
DA:323,0
DA:325,0
DA:326,0
DA:328,0
DA:332,0
DA:333,0
DA:334,0
DA:335,0
DA:337,0
DA:340,0
DA:341,0
DA:343,0
DA:345,0
DA:346,0
DA:347,0
DA:350,0
DA:351,0
DA:352,0
DA:354,0
DA:356,0
DA:359,0
DA:360,0
DA:361,0
DA:363,0
DA:364,0
DA:365,0
DA:366,0
DA:367,0
DA:369,0
DA:370,0
DA:371,0
DA:372,0
DA:373,0
DA:376,0
DA:377,0
DA:378,0
DA:379,0
DA:382,0
DA:383,0
DA:384,0
DA:385,0
DA:386,0
DA:387,0
DA:389,0
DA:391,0
DA:393,0
DA:394,0
DA:395,0
DA:396,0
DA:397,0
DA:400,0
DA:401,0
DA:402,0
DA:403,0
DA:404,0
DA:405,0
DA:408,0
DA:409,0
DA:410,0
DA:411,0
DA:414,0
DA:415,0
DA:416,0
DA:418,0
DA:419,0
DA:420,0
DA:421,0
DA:422,0
DA:423,0
DA:424,0
DA:425,0
DA:427,0
DA:429,0
DA:433,0
DA:434,0
DA:436,0
DA:437,0
DA:439,0
DA:441,0
DA:445,0
DA:447,0
DA:448,0
DA:450,0
DA:451,0
DA:452,0
DA:453,0
DA:454,0
DA:455,0
DA:456,0
DA:458,0
DA:459,0
DA:460,0
DA:461,0
DA:462,0
DA:464,0
DA:477,0
DA:478,0
DA:479,0
DA:480,0
DA:481,0
DA:482,0
DA:483,0
DA:484,0
DA:486,0
DA:487,0
DA:488,0
DA:490,0
DA:492,0
DA:493,0
DA:495,0
DA:496,0
DA:497,0
DA:498,0
DA:499,0
DA:500,0
DA:501,0
DA:502,0
DA:503,0
DA:505,0
DA:506,0
DA:507,0
DA:508,0
DA:509,0
DA:510,0
DA:511,0
DA:513,0
DA:514,0
DA:515,0
DA:516,0
DA:517,0
DA:518,0
DA:519,0
DA:520,0
DA:521,0
DA:522,0
DA:523,0
DA:524,0
DA:525,0
DA:526,0
DA:527,0
DA:528,0
DA:529,0
DA:531,0
DA:533,0
DA:537,0
DA:538,0
DA:539,0
DA:540,0
DA:543,0
DA:544,0
DA:545,0
DA:546,0
DA:547,0
DA:548,0
DA:549,0
DA:551,0
DA:552,0
DA:553,0
DA:554,0
DA:556,0
DA:557,0
DA:559,0
DA:563,0
DA:564,0
DA:565,0
DA:566,0
DA:568,0
DA:569,0
DA:570,0
DA:571,0
DA:573,0
DA:574,0
DA:575,0
DA:576,0
DA:577,0
DA:578,0
DA:579,0
DA:598,0
DA:599,0
DA:602,0
DA:603,0
DA:606,0
DA:607,0
DA:610,0
DA:611,0
DA:614,0
DA:615,0
DA:617,0
DA:618,0
DA:621,0
DA:622,0
DA:623,0
DA:625,0
DA:627,0
DA:628,0
DA:631,0
DA:632,0
DA:634,0
DA:636,0
DA:637,0
DA:638,0
DA:639,0
DA:640,0
DA:642,0
DA:643,0
DA:644,0
DA:647,0
DA:648,0
DA:649,0
DA:651,0
DA:652,0
DA:653,0
DA:655,0
DA:656,0
DA:657,0
DA:658,0
DA:660,0
DA:661,0
DA:662,0
DA:663,0
DA:664,0
DA:665,0
DA:667,0
DA:668,0
DA:669,0
DA:670,0
DA:672,0
DA:673,0
DA:674,0
DA:675,0
DA:677,0
DA:680,0
DA:681,0
DA:682,0
DA:684,0
DA:686,0
DA:687,0
DA:690,0
DA:692,0
DA:693,0
DA:695,0
DA:698,0
DA:700,0
DA:701,0
DA:702,0
DA:703,0
DA:704,0
DA:706,0
DA:707,0
DA:709,0
DA:710,0
DA:711,0
DA:712,0
DA:713,0
DA:714,0
DA:715,0
DA:716,0
DA:718,0
DA:719,0
DA:720,0
DA:721,0
DA:723,0
DA:724,0
DA:725,0
DA:726,0
DA:728,0
DA:731,0
DA:734,0
DA:735,0
DA:738,0
DA:739,0
DA:742,0
DA:743,0
DA:744,0
DA:745,0
DA:747,0
DA:748,0
DA:749,0
DA:750,0
DA:752,0
DA:753,0
DA:755,0
DA:757,0
DA:758,0
DA:759,0
DA:760,0
DA:761,0
DA:762,0
DA:763,0
DA:764,0
DA:765,0
DA:767,0
DA:769,0
DA:770,0
DA:771,0
DA:772,0
DA:774,0
DA:776,0
DA:778,0
DA:780,0
DA:781,0
DA:783,0
DA:784,0
DA:786,0
DA:789,0
DA:791,0
DA:793,0
DA:795,0
DA:796,0
DA:798,0
DA:800,0
DA:802,0
DA:805,0
DA:806,0
DA:807,0
DA:809,0
DA:811,0
DA:813,0
DA:814,0
DA:815,0
DA:816,0
DA:817,0
DA:818,0
DA:819,0
DA:821,0
DA:823,0
DA:826,0
DA:827,0
DA:828,0
DA:831,0
DA:832,0
DA:835,0
DA:836,0
DA:837,0
DA:838,0
DA:839,0
DA:842,0
DA:843,0
DA:844,0
DA:845,0
DA:846,0
DA:849,0
DA:850,0
DA:855,0
DA:856,0
DA:859,0
DA:860,0
DA:861,0
DA:863,0
DA:865,0
DA:868,0
DA:869,0
DA:870,0
DA:871,0
DA:872,0
DA:875,0
DA:876,0
DA:877,0
DA:879,0
DA:880,0
DA:882,0
DA:883,0
DA:884,0
DA:885,0
DA:886,0
DA:887,0
DA:889,0
DA:890,0
DA:891,0
DA:892,0
DA:893,0
DA:894,0
DA:895,0
DA:897,0
DA:899,0
DA:900,0
DA:901,0
DA:902,0
DA:903,0
DA:904,0
DA:905,0
DA:907,0
DA:908,0
DA:909,0
DA:910,0
DA:912,0
DA:913,0
DA:914,0
DA:915,0
DA:916,0
DA:917,0
DA:918,0
DA:919,0
DA:920,0
DA:922,0
DA:924,0
DA:927,0
DA:928,0
DA:929,0
DA:931,0
DA:933,0
DA:936,0
DA:937,0
DA:938,0
DA:939,0
DA:940,0
DA:943,0
DA:944,0
DA:945,0
DA:946,0
DA:947,0
DA:949,0
DA:950,0
DA:952,0
DA:953,0
DA:954,0
DA:955,0
DA:956,0
DA:958,0
DA:959,0
DA:960,0
DA:961,0
DA:962,0
DA:963,0
DA:964,0
DA:965,0
DA:966,0
DA:970,0
DA:971,0
DA:972,0
DA:973,0
DA:974,0
DA:975,0
DA:978,0
DA:979,0
DA:980,0
DA:981,0
DA:983,0
DA:984,0
DA:985,0
DA:986,0
DA:988,0
DA:994,0
DA:995,0
DA:996,0
DA:999,0
DA:1000,0
DA:1003,0
DA:1004,0
DA:1007,0
DA:1008,0
DA:1011,0
DA:1012,0
DA:1014,0
DA:1015,0
DA:1018,0
DA:1019,0
DA:1020,0
DA:1022,0
DA:1024,0
DA:1025,0
DA:1026,0
DA:1029,0
DA:1032,0
DA:1033,0
DA:1034,0
DA:1035,0
DA:1037,0
DA:1039,0
DA:1041,0
DA:1043,0
DA:1044,0
DA:1045,0
DA:1046,0
DA:1047,0
DA:1048,0
DA:1049,0
DA:1050,0
DA:1051,0
DA:1052,0
DA:1053,0
DA:1055,0
DA:1056,0
DA:1057,0
DA:1058,0
DA:1060,0
DA:1062,0
DA:1065,0
DA:1066,0
DA:1069,0
DA:1070,0
DA:1071,0
DA:1074,0
DA:1075,0
DA:1076,0
DA:1079,0
DA:1080,0
DA:1081,0
DA:1083,0
DA:1084,0
DA:1087,0
DA:1088,0
DA:1090,0
DA:1092,0
DA:1094,0
DA:1095,0
DA:1096,0
DA:1097,0
DA:1099,0
DA:1101,0
DA:1103,0
DA:1106,0
DA:1107,0
DA:1109,0
DA:1110,0
DA:1111,0
DA:1112,0
DA:1113,0
DA:1115,0
DA:1116,0
DA:1117,0
DA:1118,0
DA:1119,0
DA:1120,0
DA:1121,0
DA:1122,0
DA:1123,0
DA:1125,0
DA:1127,0
DA:1130,0
DA:1131,0
DA:1132,0
DA:1134,0
DA:1136,0
DA:1137,0
DA:1138,0
DA:1141,0
DA:1142,0
DA:1143,0
DA:1145,0
DA:1147,0
DA:1148,0
DA:1149,0
DA:1150,0
DA:1151,0
DA:1152,0
DA:1154,0
DA:1155,0
DA:1156,0
DA:1157,0
DA:1158,0
DA:1159,0
DA:1161,0
DA:1162,0
DA:1163,0
DA:1164,0
DA:1166,0
DA:1168,0
DA:1170,0
DA:1172,0
DA:1173,0
DA:1174,0
DA:1177,0
DA:1178,0
DA:1181,0
DA:1182,0
DA:1185,0
DA:1186,0
DA:1189,0
DA:1190,0
DA:1193,0
DA:1194,0
DA:1197,0
DA:1199,0
DA:1200,0
DA:1203,0
DA:1204,0
DA:1205,0
DA:1207,0
DA:1209,0
DA:1210,0
DA:1211,0
DA:1214,0
DA:1215,0
DA:1218,0
DA:1219,0
DA:1221,0
DA:1223,0
DA:1225,0
DA:1226,0
DA:1227,0
DA:1228,0
DA:1229,0
DA:1231,0
DA:1232,0
DA:1233,0
DA:1234,0
DA:1235,0
DA:1236,0
DA:1238,0
DA:1239,0
DA:1240,0
DA:1241,0
DA:1243,0
DA:1244,0
DA:1245,0
DA:1246,0
DA:1248,0
DA:1251,0
DA:1252,0
DA:1253,0
DA:1255,0
DA:1257,0
DA:1258,0
DA:1259,0
DA:1262,0
DA:1263,0
DA:1264,0
DA:1266,0
DA:1268,0
DA:1269,0
DA:1270,0
DA:1271,0
DA:1272,0
DA:1274,0
DA:1275,0
DA:1276,0
DA:1277,0
DA:1279,0
DA:1282,0
DA:1283,0
DA:1286,0
DA:1287,0
DA:1290,0
DA:1291,0
DA:1294,0
DA:1295,0
DA:1297,0
DA:1298,0
DA:1301,0
DA:1302,0
DA:1303,0
DA:1305,0
DA:1307,0
DA:1308,0
DA:1309,0
DA:1310,0
DA:1313,0
DA:1316,0
DA:1317,0
DA:1318,0
DA:1319,0
DA:1321,0
DA:1323,0
DA:1325,0
DA:1327,0
DA:1328,0
DA:1329,0
DA:1330,0
DA:1331,0
DA:1332,0
DA:1334,0
DA:1335,0
DA:1336,0
DA:1337,0
DA:1338,0
DA:1339,0
DA:1340,0
DA:1342,0
DA:1343,0
DA:1344,0
DA:1345,0
DA:1347,0
DA:1348,0
DA:1349,0
DA:1350,0
DA:1352,0
DA:1355,0
DA:1356,0
DA:1357,0
DA:1359,0
DA:1361,0
DA:1362,0
DA:1363,0
DA:1364,0
DA:1367,0
DA:1370,0
DA:1371,0
DA:1372,0
DA:1373,0
DA:1375,0
DA:1377,0
DA:1379,0
DA:1381,0
DA:1382,0
DA:1383,0
DA:1384,0
DA:1385,0
DA:1386,0
DA:1387,0
DA:1388,0
DA:1389,0
DA:1390,0
DA:1391,0
DA:1393,0
DA:1394,0
DA:1395,0
DA:1396,0
DA:1398,0
DA:1401,0
DA:1402,0
DA:1403,0
DA:1405,0
DA:1407,0
DA:1408,0
DA:1409,0
DA:1412,0
DA:1415,0
DA:1416,0
DA:1417,0
DA:1418,0
DA:1420,0
DA:1422,0
DA:1424,0
DA:1426,0
DA:1427,0
DA:1428,0
DA:1429,0
DA:1430,0
DA:1431,0
DA:1432,0
DA:1433,0
DA:1434,0
DA:1435,0
DA:1436,0
DA:1437,0
DA:1438,0
DA:1440,0
DA:1442,0
BRF:0
BRH:0
LF:914
LH:0
end_of_record
SF:/home/noah/src/ruchy/src/runtime/actor.rs
FN:456,_RNCNvMs3_NtNtCs2RUqfoJCtLU_5ruchy7runtime5actorNtB7_11ActorSystem10stop_actor0Bb_
FN:191,_RINvMs0_NtNtCs2RUqfoJCtLU_5ruchy7runtime5actorNtB6_12ActorContext11spawn_childpEBa_
FN:395,_RINvMs3_NtNtCs2RUqfoJCtLU_5ruchy7runtime5actorNtB6_11ActorSystem5spawnpEBa_
FN:195,_RNCINvMs0_NtNtCs2RUqfoJCtLU_5ruchy7runtime5actorNtB8_12ActorContext11spawn_childpE0Bc_
FN:138,_RNvYNtNtNtCs2RUqfoJCtLU_5ruchy7runtime5actor13DummyBehaviorNtB4_13ActorBehavior11pre_restartB8_
FN:147,_RNvYNtNtNtCs2RUqfoJCtLU_5ruchy7runtime5actor13DummyBehaviorNtB4_13ActorBehavior12post_restartB8_
FN:159,_RNvYNtNtNtCs2RUqfoJCtLU_5ruchy7runtime5actor13DummyBehaviorNtB4_13ActorBehavior19supervisor_strategyB8_
FN:129,_RNvYNtNtNtCs2RUqfoJCtLU_5ruchy7runtime5actor13DummyBehaviorNtB4_13ActorBehavior9post_stopB8_
FN:120,_RNvYNtNtNtCs2RUqfoJCtLU_5ruchy7runtime5actor13DummyBehaviorNtB4_13ActorBehavior9pre_startB8_
FN:224,_RNCNvMs0_NtNtCs2RUqfoJCtLU_5ruchy7runtime5actorNtB7_12ActorContext8get_self0Bb_
FN:227,_RNCNvMs0_NtNtCs2RUqfoJCtLU_5ruchy7runtime5actorNtB7_12ActorContext8get_selfs_0Bb_
FN:437,_RNCNvMs3_NtNtCs2RUqfoJCtLU_5ruchy7runtime5actorNtB7_11ActorSystem13get_actor_ref0Bb_
FN:447,_RNCNvMs3_NtNtCs2RUqfoJCtLU_5ruchy7runtime5actorNtB7_11ActorSystem18find_actor_by_name0Bb_
FN:66,_RNCNvMs_NtNtCs2RUqfoJCtLU_5ruchy7runtime5actorNtB6_8ActorRef3ask0Ba_
FN:70,_RNCNvMs_NtNtCs2RUqfoJCtLU_5ruchy7runtime5actorNtB6_8ActorRef3asks_0Ba_
FN:44,_RNCNvMs_NtNtCs2RUqfoJCtLU_5ruchy7runtime5actorNtB6_8ActorRef4send0Ba_
FN:231,_RNvMs0_NtNtCs2RUqfoJCtLU_5ruchy7runtime5actorNtB5_12ActorContext10find_actor
FN:205,_RNvMs0_NtNtCs2RUqfoJCtLU_5ruchy7runtime5actorNtB5_12ActorContext10stop_child
FN:220,_RNvMs0_NtNtCs2RUqfoJCtLU_5ruchy7runtime5actorNtB5_12ActorContext8get_self
FN:251,_RNvMs1_NtNtCs2RUqfoJCtLU_5ruchy7runtime5actorNtB5_12ActorRuntime3new
FN:353,_RNvMs1_NtNtCs2RUqfoJCtLU_5ruchy7runtime5actorNtB5_12ActorRuntime4stop
FN:273,_RNvMs1_NtNtCs2RUqfoJCtLU_5ruchy7runtime5actorNtB5_12ActorRuntime5start
FN:454,_RNvMs3_NtNtCs2RUqfoJCtLU_5ruchy7runtime5actorNtB5_11ActorSystem10stop_actor
FN:435,_RNvMs3_NtNtCs2RUqfoJCtLU_5ruchy7runtime5actorNtB5_11ActorSystem13get_actor_ref
FN:406,_RNvMs3_NtNtCs2RUqfoJCtLU_5ruchy7runtime5actorNtB5_11ActorSystem16spawn_supervised
FN:444,_RNvMs3_NtNtCs2RUqfoJCtLU_5ruchy7runtime5actorNtB5_11ActorSystem18find_actor_by_name
FN:379,_RNvMs3_NtNtCs2RUqfoJCtLU_5ruchy7runtime5actorNtB5_11ActorSystem3new
FN:463,_RNvMs3_NtNtCs2RUqfoJCtLU_5ruchy7runtime5actorNtB5_11ActorSystem8shutdown
FN:514,_RNvMs7_NtNtCs2RUqfoJCtLU_5ruchy7runtime5actorNtB5_15SupervisorActor3new
FN:58,_RNvMs_NtNtCs2RUqfoJCtLU_5ruchy7runtime5actorNtB4_8ActorRef3ask
FN:41,_RNvMs_NtNtCs2RUqfoJCtLU_5ruchy7runtime5actorNtB4_8ActorRef4send
FN:19,_RNvXNtNtCs2RUqfoJCtLU_5ruchy7runtime5actorNtB2_7ActorIdNtNtCs66KPHxksi63_4core3fmt7Display3fmt
FN:365,_RNvXs2_NtNtCs2RUqfoJCtLU_5ruchy7runtime5actorNtB5_13DummyBehaviorNtB5_13ActorBehavior7receive
FN:472,_RNvXs4_NtNtCs2RUqfoJCtLU_5ruchy7runtime5actorNtB5_11ActorSystemNtNtCs66KPHxksi63_4core7default7Default7default
FN:482,_RNvXs5_NtNtCs2RUqfoJCtLU_5ruchy7runtime5actorNtB5_11ActorSystemNtNtCs66KPHxksi63_4core5clone5Clone5clone
FN:495,_RNvXs6_NtNtCs2RUqfoJCtLU_5ruchy7runtime5actorNtB5_9EchoActorNtB5_13ActorBehavior7receive
FN:543,_RNvXs8_NtNtCs2RUqfoJCtLU_5ruchy7runtime5actorNtB5_15SupervisorActorNtB5_13ActorBehavior19supervisor_strategy
FN:523,_RNvXs8_NtNtCs2RUqfoJCtLU_5ruchy7runtime5actorNtB5_15SupervisorActorNtB5_13ActorBehavior7receive
FN:292,_RNCNCNvMs1_NtNtCs2RUqfoJCtLU_5ruchy7runtime5actorNtB9_12ActorRuntime5start00Bd_
FN:288,_RNCNvMs1_NtNtCs2RUqfoJCtLU_5ruchy7runtime5actorNtB7_12ActorRuntime5start0Bb_
FNDA:0,_RNCNvMs3_NtNtCs2RUqfoJCtLU_5ruchy7runtime5actorNtB7_11ActorSystem10stop_actor0Bb_
FNDA:0,_RINvMs0_NtNtCs2RUqfoJCtLU_5ruchy7runtime5actorNtB6_12ActorContext11spawn_childpEBa_
FNDA:0,_RINvMs3_NtNtCs2RUqfoJCtLU_5ruchy7runtime5actorNtB6_11ActorSystem5spawnpEBa_
FNDA:0,_RNCINvMs0_NtNtCs2RUqfoJCtLU_5ruchy7runtime5actorNtB8_12ActorContext11spawn_childpE0Bc_
FNDA:0,_RNvYNtNtNtCs2RUqfoJCtLU_5ruchy7runtime5actor13DummyBehaviorNtB4_13ActorBehavior11pre_restartB8_
FNDA:0,_RNvYNtNtNtCs2RUqfoJCtLU_5ruchy7runtime5actor13DummyBehaviorNtB4_13ActorBehavior12post_restartB8_
FNDA:0,_RNvYNtNtNtCs2RUqfoJCtLU_5ruchy7runtime5actor13DummyBehaviorNtB4_13ActorBehavior19supervisor_strategyB8_
FNDA:0,_RNvYNtNtNtCs2RUqfoJCtLU_5ruchy7runtime5actor13DummyBehaviorNtB4_13ActorBehavior9post_stopB8_
FNDA:0,_RNvYNtNtNtCs2RUqfoJCtLU_5ruchy7runtime5actor13DummyBehaviorNtB4_13ActorBehavior9pre_startB8_
FNDA:0,_RNCNvMs0_NtNtCs2RUqfoJCtLU_5ruchy7runtime5actorNtB7_12ActorContext8get_self0Bb_
FNDA:0,_RNCNvMs0_NtNtCs2RUqfoJCtLU_5ruchy7runtime5actorNtB7_12ActorContext8get_selfs_0Bb_
FNDA:0,_RNCNvMs3_NtNtCs2RUqfoJCtLU_5ruchy7runtime5actorNtB7_11ActorSystem13get_actor_ref0Bb_
FNDA:0,_RNCNvMs3_NtNtCs2RUqfoJCtLU_5ruchy7runtime5actorNtB7_11ActorSystem18find_actor_by_name0Bb_
FNDA:0,_RNCNvMs_NtNtCs2RUqfoJCtLU_5ruchy7runtime5actorNtB6_8ActorRef3ask0Ba_
FNDA:0,_RNCNvMs_NtNtCs2RUqfoJCtLU_5ruchy7runtime5actorNtB6_8ActorRef3asks_0Ba_
FNDA:0,_RNCNvMs_NtNtCs2RUqfoJCtLU_5ruchy7runtime5actorNtB6_8ActorRef4send0Ba_
FNDA:0,_RNvMs0_NtNtCs2RUqfoJCtLU_5ruchy7runtime5actorNtB5_12ActorContext10find_actor
FNDA:0,_RNvMs0_NtNtCs2RUqfoJCtLU_5ruchy7runtime5actorNtB5_12ActorContext10stop_child
FNDA:0,_RNvMs0_NtNtCs2RUqfoJCtLU_5ruchy7runtime5actorNtB5_12ActorContext8get_self
FNDA:0,_RNvMs1_NtNtCs2RUqfoJCtLU_5ruchy7runtime5actorNtB5_12ActorRuntime3new
FNDA:0,_RNvMs1_NtNtCs2RUqfoJCtLU_5ruchy7runtime5actorNtB5_12ActorRuntime4stop
FNDA:0,_RNvMs1_NtNtCs2RUqfoJCtLU_5ruchy7runtime5actorNtB5_12ActorRuntime5start
FNDA:0,_RNvMs3_NtNtCs2RUqfoJCtLU_5ruchy7runtime5actorNtB5_11ActorSystem10stop_actor
FNDA:0,_RNvMs3_NtNtCs2RUqfoJCtLU_5ruchy7runtime5actorNtB5_11ActorSystem13get_actor_ref
FNDA:0,_RNvMs3_NtNtCs2RUqfoJCtLU_5ruchy7runtime5actorNtB5_11ActorSystem16spawn_supervised
FNDA:0,_RNvMs3_NtNtCs2RUqfoJCtLU_5ruchy7runtime5actorNtB5_11ActorSystem18find_actor_by_name
FNDA:0,_RNvMs3_NtNtCs2RUqfoJCtLU_5ruchy7runtime5actorNtB5_11ActorSystem3new
FNDA:0,_RNvMs3_NtNtCs2RUqfoJCtLU_5ruchy7runtime5actorNtB5_11ActorSystem8shutdown
FNDA:0,_RNvMs7_NtNtCs2RUqfoJCtLU_5ruchy7runtime5actorNtB5_15SupervisorActor3new
FNDA:0,_RNvMs_NtNtCs2RUqfoJCtLU_5ruchy7runtime5actorNtB4_8ActorRef3ask
FNDA:0,_RNvMs_NtNtCs2RUqfoJCtLU_5ruchy7runtime5actorNtB4_8ActorRef4send
FNDA:0,_RNvXNtNtCs2RUqfoJCtLU_5ruchy7runtime5actorNtB2_7ActorIdNtNtCs66KPHxksi63_4core3fmt7Display3fmt
FNDA:0,_RNvXs2_NtNtCs2RUqfoJCtLU_5ruchy7runtime5actorNtB5_13DummyBehaviorNtB5_13ActorBehavior7receive
FNDA:0,_RNvXs4_NtNtCs2RUqfoJCtLU_5ruchy7runtime5actorNtB5_11ActorSystemNtNtCs66KPHxksi63_4core7default7Default7default
FNDA:0,_RNvXs5_NtNtCs2RUqfoJCtLU_5ruchy7runtime5actorNtB5_11ActorSystemNtNtCs66KPHxksi63_4core5clone5Clone5clone
FNDA:0,_RNvXs6_NtNtCs2RUqfoJCtLU_5ruchy7runtime5actorNtB5_9EchoActorNtB5_13ActorBehavior7receive
FNDA:0,_RNvXs8_NtNtCs2RUqfoJCtLU_5ruchy7runtime5actorNtB5_15SupervisorActorNtB5_13ActorBehavior19supervisor_strategy
FNDA:0,_RNvXs8_NtNtCs2RUqfoJCtLU_5ruchy7runtime5actorNtB5_15SupervisorActorNtB5_13ActorBehavior7receive
FNDA:0,_RNCNCNvMs1_NtNtCs2RUqfoJCtLU_5ruchy7runtime5actorNtB9_12ActorRuntime5start00Bd_
FNDA:0,_RNCNvMs1_NtNtCs2RUqfoJCtLU_5ruchy7runtime5actorNtB7_12ActorRuntime5start0Bb_
FNF:40
FNH:0
DA:19,0
DA:20,0
DA:21,0
DA:41,0
DA:42,0
DA:43,0
DA:44,0
DA:45,0
DA:46,0
DA:58,0
DA:59,0
DA:61,0
DA:62,0
DA:63,0
DA:64,0
DA:65,0
DA:66,0
DA:68,0
DA:69,0
DA:70,0
DA:71,0
DA:120,0
DA:121,0
DA:122,0
DA:129,0
DA:130,0
DA:131,0
DA:138,0
DA:139,0
DA:140,0
DA:147,0
DA:148,0
DA:149,0
DA:159,0
DA:160,0
DA:161,0
DA:191,0
DA:192,0
DA:193,0
DA:194,0
DA:195,0
DA:196,0
DA:197,0
DA:198,0
DA:199,0
DA:205,0
DA:206,0
DA:207,0
DA:208,0
DA:209,0
DA:210,0
DA:220,0
DA:221,0
DA:222,0
DA:223,0
DA:224,0
DA:225,0
DA:226,0
DA:227,0
DA:228,0
DA:231,0
DA:232,0
DA:233,0
DA:234,0
DA:251,0
DA:252,0
DA:253,0
DA:254,0
DA:255,0
DA:256,0
DA:257,0
DA:258,0
DA:260,0
DA:261,0
DA:262,0
DA:263,0
DA:264,0
DA:265,0
DA:266,0
DA:267,0
DA:268,0
DA:269,0
DA:270,0
DA:271,0
DA:273,0
DA:274,0
DA:275,0
DA:276,0
DA:277,0
DA:278,0
DA:280,0
DA:281,0
DA:282,0
DA:283,0
DA:284,0
DA:285,0
DA:286,0
DA:288,0
DA:289,0
DA:290,0
DA:291,0
DA:292,0
DA:293,0
DA:294,0
DA:298,0
DA:299,0
DA:300,0
DA:301,0
DA:305,0
DA:306,0
DA:307,0
DA:308,0
DA:309,0
DA:310,0
DA:312,0
DA:313,0
DA:314,0
DA:318,0
DA:319,0
DA:320,0
DA:321,0
DA:322,0
DA:323,0
DA:324,0
DA:325,0
DA:326,0
DA:327,0
DA:329,0
DA:330,0
DA:331,0
DA:336,0
DA:340,0
DA:346,0
DA:347,0
DA:349,0
DA:350,0
DA:351,0
DA:353,0
DA:354,0
DA:355,0
DA:356,0
DA:357,0
DA:358,0
DA:365,0
DA:366,0
DA:367,0
DA:379,0
DA:380,0
DA:381,0
DA:382,0
DA:383,0
DA:384,0
DA:385,0
DA:395,0
DA:396,0
DA:397,0
DA:406,0
DA:407,0
DA:408,0
DA:409,0
DA:410,0
DA:411,0
DA:412,0
DA:413,0
DA:414,0
DA:416,0
DA:417,0
DA:419,0
DA:420,0
DA:421,0
DA:422,0
DA:423,0
DA:425,0
DA:426,0
DA:428,0
DA:429,0
DA:431,0
DA:432,0
DA:435,0
DA:436,0
DA:437,0
DA:438,0
DA:439,0
DA:440,0
DA:441,0
DA:444,0
DA:445,0
DA:446,0
DA:447,0
DA:448,0
DA:454,0
DA:455,0
DA:456,0
DA:457,0
DA:458,0
DA:459,0
DA:460,0
DA:463,0
DA:464,0
DA:465,0
DA:466,0
DA:467,0
DA:468,0
DA:472,0
DA:473,0
DA:474,0
DA:475,0
DA:476,0
DA:477,0
DA:478,0
DA:482,0
DA:483,0
DA:484,0
DA:485,0
DA:486,0
DA:487,0
DA:488,0
DA:495,0
DA:496,0
DA:497,0
DA:498,0
DA:499,0
DA:501,0
DA:503,0
DA:514,0
DA:515,0
DA:516,0
DA:517,0
DA:518,0
DA:519,0
DA:523,0
DA:524,0
DA:525,0
DA:526,0
DA:527,0
DA:529,0
DA:530,0
DA:532,0
DA:534,0
DA:535,0
DA:536,0
DA:539,0
DA:541,0
DA:543,0
DA:544,0
DA:545,0
DA:546,0
DA:548,0
DA:550,0
BRF:0
BRH:0
LF:259
LH:0
end_of_record
SF:/home/noah/src/ruchy/src/runtime/assessment.rs
FN:590,_RNCNvMs1_NtNtCs2RUqfoJCtLU_5ruchy7runtime10assessmentNtB7_18PlagiarismDetector18compute_similarity0Bb_
FN:356,_RNCNvMs_NtNtCs2RUqfoJCtLU_5ruchy7runtime10assessmentNtB6_13GradingEngine13run_test_case0Ba_
FN:562,_RNvMs1_NtNtCs2RUqfoJCtLU_5ruchy7runtime10assessmentNtB5_18PlagiarismDetector17extract_structure
FN:582,_RNvMs1_NtNtCs2RUqfoJCtLU_5ruchy7runtime10assessmentNtB5_18PlagiarismDetector18compute_similarity
FN:543,_RNvMs1_NtNtCs2RUqfoJCtLU_5ruchy7runtime10assessmentNtB5_18PlagiarismDetector20generate_fingerprint
FN:522,_RNvMs1_NtNtCs2RUqfoJCtLU_5ruchy7runtime10assessmentNtB5_18PlagiarismDetector3new
FN:528,_RNvMs1_NtNtCs2RUqfoJCtLU_5ruchy7runtime10assessmentNtB5_18PlagiarismDetector7analyze
FN:636,_RNvMs3_NtNtCs2RUqfoJCtLU_5ruchy7runtime10assessmentNtB5_13SecureSandbox20create_isolated_repl
FN:626,_RNvMs3_NtNtCs2RUqfoJCtLU_5ruchy7runtime10assessmentNtB5_13SecureSandbox3new
FN:678,_RNvMs4_NtNtCs2RUqfoJCtLU_5ruchy7runtime10assessmentNtB5_11GradeReport12mark_invalid
FN:684,_RNvMs4_NtNtCs2RUqfoJCtLU_5ruchy7runtime10assessmentNtB5_11GradeReport14add_task_grade
FN:688,_RNvMs4_NtNtCs2RUqfoJCtLU_5ruchy7runtime10assessmentNtB5_11GradeReport21calculate_final_grade
FN:663,_RNvMs4_NtNtCs2RUqfoJCtLU_5ruchy7runtime10assessmentNtB5_11GradeReport3new
FN:749,_RNvMs5_NtNtCs2RUqfoJCtLU_5ruchy7runtime10assessmentNtB5_9TaskGrade15add_test_result
FN:757,_RNvMs5_NtNtCs2RUqfoJCtLU_5ruchy7runtime10assessmentNtB5_9TaskGrade15calculate_score
FN:753,_RNvMs5_NtNtCs2RUqfoJCtLU_5ruchy7runtime10assessmentNtB5_9TaskGrade17add_hidden_result
FN:738,_RNvMs5_NtNtCs2RUqfoJCtLU_5ruchy7runtime10assessmentNtB5_9TaskGrade3new
FN:286,_RNvMs_NtNtCs2RUqfoJCtLU_5ruchy7runtime10assessmentNtB4_13GradingEngine10grade_task
FN:272,_RNvMs_NtNtCs2RUqfoJCtLU_5ruchy7runtime10assessmentNtB4_13GradingEngine10load_setup
FN:317,_RNvMs_NtNtCs2RUqfoJCtLU_5ruchy7runtime10assessmentNtB4_13GradingEngine13run_test_case
FN:398,_RNvMs_NtNtCs2RUqfoJCtLU_5ruchy7runtime10assessmentNtB4_13GradingEngine15evaluate_rubric
FN:206,_RNvMs_NtNtCs2RUqfoJCtLU_5ruchy7runtime10assessmentNtB4_13GradingEngine16grade_submission
FN:386,_RNvMs_NtNtCs2RUqfoJCtLU_5ruchy7runtime10assessmentNtB4_13GradingEngine17check_requirement
FN:415,_RNvMs_NtNtCs2RUqfoJCtLU_5ruchy7runtime10assessmentNtB4_13GradingEngine17evaluate_category
FN:431,_RNvMs_NtNtCs2RUqfoJCtLU_5ruchy7runtime10assessmentNtB4_13GradingEngine18evaluate_criterion
FN:454,_RNvMs_NtNtCs2RUqfoJCtLU_5ruchy7runtime10assessmentNtB4_13GradingEngine19measure_performance
FN:257,_RNvMs_NtNtCs2RUqfoJCtLU_5ruchy7runtime10assessmentNtB4_13GradingEngine19verify_no_tampering
FN:197,_RNvMs_NtNtCs2RUqfoJCtLU_5ruchy7runtime10assessmentNtB4_13GradingEngine3new
FN:191,_RNvXNtNtCs2RUqfoJCtLU_5ruchy7runtime10assessmentNtB2_13GradingEngineNtNtCs66KPHxksi63_4core7default7Default7default
FN:516,_RNvXs0_NtNtCs2RUqfoJCtLU_5ruchy7runtime10assessmentNtB5_18PlagiarismDetectorNtNtCs66KPHxksi63_4core7default7Default7default
FN:620,_RNvXs2_NtNtCs2RUqfoJCtLU_5ruchy7runtime10assessmentNtB5_13SecureSandboxNtNtCs66KPHxksi63_4core7default7Default7default
